 colorer

 Timestamp is 51e6ef3a (Wed Jul 17 23:23:38 2013)

 Preferred load address is 10000000

 Start         Length     Name                   Class
 0001:00000000 000e8226H .text                   CODE
 0001:000e8230 0000b61fH .text$x                 CODE
 0001:000f3850 0000218eH .text$yc                CODE
 0001:000f59e0 00002d07H .text$yd                CODE
 0002:00000000 000001c0H .idata$5                DATA
 0002:000001c0 00000004H .CRT$XCA                DATA
 0002:000001c4 00000194H .CRT$XCU                DATA
 0002:00000358 00000004H .CRT$XCZ                DATA
 0002:0000035c 00000004H .CRT$XIA                DATA
 0002:00000360 00000014H .CRT$XIC                DATA
 0002:00000374 00000004H .CRT$XIZ                DATA
 0002:00000378 00000004H .CRT$XPA                DATA
 0002:0000037c 00000004H .CRT$XPX                DATA
 0002:00000380 00000004H .CRT$XPXA               DATA
 0002:00000384 00000004H .CRT$XPZ                DATA
 0002:00000388 00000004H .CRT$XTA                DATA
 0002:0000038c 00000004H .CRT$XTZ                DATA
 0002:00000390 0006e1e8H .rdata                  DATA
 0002:0006e578 0000aca8H .rdata$r                DATA
 0002:00079220 00001060H .rdata$sxdata           DATA
 0002:0007a280 00000004H .rtc$IAA                DATA
 0002:0007a284 00000004H .rtc$IZZ                DATA
 0002:0007a288 00000004H .rtc$TAA                DATA
 0002:0007a28c 00000004H .rtc$TZZ                DATA
 0002:0007a290 00015a70H .xdata$x                DATA
 0002:0008fd00 0000003cH .idata$2                DATA
 0002:0008fd3c 00000014H .idata$3                DATA
 0002:0008fd50 000001c0H .idata$4                DATA
 0002:0008ff10 0000083cH .idata$6                DATA
 0002:00090750 00000110H .edata                  DATA
 0003:00000000 0003e3c0H .data                   DATA
 0003:0003e3c0 000023e8H .bss                    DATA
 0004:00000000 00000058H .rsrc$01                DATA
 0004:00000060 000002e8H .rsrc$02                DATA

  Address         Publics by Value              Rva+Base       Lib:Object

 0000:00000000       __except_list              00000000     <absolute>
 0000:00000418       ___safe_se_handler_count   00000418     <absolute>
 0000:00000000       ___ImageBase               10000000     <linker-defined>
 0001:00000000       _DllMain@12                10001000 f   pcolorer.cpp.obj
 0001:00000200       _GetGlobalInfoW@4          10001200 f   pcolorer.cpp.obj
 0001:00000290       _SetStartupInfoW@4         10001290 f   pcolorer.cpp.obj
 0001:000002d0       _GetPluginInfoW@4          100012d0 f   pcolorer.cpp.obj
 0001:00000340       _ExitFARW@4                10001340 f   pcolorer.cpp.obj
 0001:00000370       _OpenW@4                   10001370 f   pcolorer.cpp.obj
 0001:000004c0       _ConfigureW@4              100014c0 f   pcolorer.cpp.obj
 0001:00000520       _ProcessEditorEventW@4     10001520 f   pcolorer.cpp.obj
 0001:00000570       _ProcessEditorInputW@4     10001570 f   pcolorer.cpp.obj
 0001:000005b0       _GetMinFarVersionW@0       100015b0 f   pcolorer.cpp.obj
 0001:000005c0       ?cast@StyledRegion@@SAPBV1@PBVRegionDefine@@@Z 100015c0 f i FarEditorSet.cpp.obj
 0001:00000660       ??0ParserFactoryException@@QAE@ABVString@@@Z 10001660 f i FarEditorSet.cpp.obj
 0001:00000750       ??_GFarHrcSettingsException@@UAEPAXI@Z 10001750 f i FarHrcSettings.cpp.obj
 0001:00000750       ??_ESettingsControlException@@UAEPAXI@Z 10001750 f i  CIL library: CIL module
 0001:00000750       ??_GHRCParserException@@UAEPAXI@Z 10001750 f i colorer_lib:HRCParserImpl.cpp.obj
 0001:00000750       ??_EOutOfBoundException@@UAEPAXI@Z 10001750 f i  CIL library: CIL module
 0001:00000750       ??_GStringIndexOutOfBoundsException@@UAEPAXI@Z 10001750 f i colorer_lib:DString.cpp.obj
 0001:00000750       ??_GSettingsControlException@@UAEPAXI@Z 10001750 f i SettingsControl.cpp.obj
 0001:00000750       ??_GUnsupportedEncodingException@@UAEPAXI@Z 10001750 f i colorer_lib:DString.cpp.obj
 0001:00000750       ??_EUnsupportedEncodingException@@UAEPAXI@Z 10001750 f i  CIL library: CIL module
 0001:00000750       ??_GOutOfBoundException@@UAEPAXI@Z 10001750 f i FarEditorSet.cpp.obj
 0001:00000750       ??_EException@@UAEPAXI@Z   10001750 f i  CIL library: CIL module
 0001:00000750       ??_EFarHrcSettingsException@@UAEPAXI@Z 10001750 f i  CIL library: CIL module
 0001:00000750       ??_EParserFactoryException@@UAEPAXI@Z 10001750 f i  CIL library: CIL module
 0001:00000750       ??_EStringIndexOutOfBoundsException@@UAEPAXI@Z 10001750 f i  CIL library: CIL module
 0001:00000750       ??_GInputSourceException@@UAEPAXI@Z 10001750 f i colorer_lib:XmlInputSource.cpp.obj
 0001:00000750       ??_GException@@UAEPAXI@Z   10001750 f i colorer_lib:Exception.cpp.obj
 0001:00000750       ??_EHRCParserException@@UAEPAXI@Z 10001750 f i  CIL library: CIL module
 0001:00000750       ??_EInputSourceException@@UAEPAXI@Z 10001750 f i  CIL library: CIL module
 0001:00000750       ??_GParserFactoryException@@UAEPAXI@Z 10001750 f i FarEditorSet.cpp.obj
 0001:00000790       ?equals@XMLString@xercesc_3_1@@SA_NPB_W0@Z 10001790 f i FarEditorSet.cpp.obj
 0001:000007f0       ?addParam@FileTypeImpl@@QAEXPBVString@@@Z 100017f0 f i FarEditorSet.cpp.obj
 0001:00000890       ?Set@SettingsControl@@QAE_NIPB_W_N@Z 10001890 f i FarEditorSet.cpp.obj
 0001:000008f0       ??1XmlParserErrorHandler@@UAE@XZ 100018f0 f i FarEditorSet.cpp.obj
 0001:00000900       ??_EErrorHandler@xercesc_3_1@@UAEPAXI@Z 10001900 f i  CIL library: CIL module
 0001:00000900       ??_EXmlParserErrorHandler@@UAEPAXI@Z 10001900 f i  CIL library: CIL module
 0001:00000900       ??_GXmlParserErrorHandler@@UAEPAXI@Z 10001900 f i FarEditorSet.cpp.obj
 0001:00000900       ??_GErrorHandler@xercesc_3_1@@UAEPAXI@Z 10001900 f i FarEditorSet.cpp.obj
 0001:00000930       ?resetErrors@XmlParserErrorHandler@@UAEXXZ 10001930 f i FarEditorSet.cpp.obj
 0001:00000940       ??0FarEditorSet@@QAE@XZ    10001940 f   FarEditorSet.cpp.obj
 0001:00000a30       ??1FarEditorSet@@QAE@XZ    10001a30 f   FarEditorSet.cpp.obj
 0001:00000c50       ?openMenu@FarEditorSet@@QAEXH@Z 10001c50 f   FarEditorSet.cpp.obj
 0001:00001040       ?viewFile@FarEditorSet@@QAEXABVString@@@Z 10002040 f   FarEditorSet.cpp.obj
 0001:00001310       ?getCountFileTypeAndGroup@FarEditorSet@@AAEIXZ 10002310 f   FarEditorSet.cpp.obj
 0001:00001390       ?getFileTypeByIndex@FarEditorSet@@AAEPAVFileTypeImpl@@H@Z 10002390 f   FarEditorSet.cpp.obj
 0001:00001400       ?FillTypeMenu@FarEditorSet@@AAEXPAVChooseTypeMenu@@PAVFileType@@@Z 10002400 f   FarEditorSet.cpp.obj
 0001:00001550       ?KeyDialogProc@@YGHPAXHH0@Z 10002550 f   FarEditorSet.cpp.obj
 0001:00001640       ?chooseType@FarEditorSet@@AAEXXZ 10002640 f   FarEditorSet.cpp.obj
 0001:00001c50       ?getHRDescription@FarEditorSet@@QAEPBVString@@ABV2@VDString@@@Z 10002c50 f   FarEditorSet.cpp.obj
 0001:00001d00       ?SettingDialogProc@@YGHPAXHH0@Z 10002d00 f   FarEditorSet.cpp.obj
 0001:00002190       ??0DString@@QAE@ABV0@@Z    10003190 f i FarEditorSet.cpp.obj
 0001:000021e0       ??_GDString@@UAEPAXI@Z     100031e0 f i FarEditorSet.cpp.obj
 0001:000021e0       ??_EDString@@UAEPAXI@Z     100031e0 f i  CIL library: CIL module
 0001:00002280       ??_EString@@UAEPAXI@Z      10003280 f i  CIL library: CIL module
 0001:00002280       ??_GString@@UAEPAXI@Z      10003280 f i FarEditorSet.cpp.obj
 0001:000022d0       ?configure@FarEditorSet@@QAEX_N@Z 100032d0 f   FarEditorSet.cpp.obj
 0001:00003a70       ?chooseHRDName@FarEditorSet@@QAEPBVString@@PBV2@VDString@@@Z 10004a70 f   FarEditorSet.cpp.obj
 0001:00003dc0       ?editorEvent@FarEditorSet@@QAEHPBUProcessEditorEventInfo@@@Z 10004dc0 f   FarEditorSet.cpp.obj
 0001:00004010       ?TestLoadBase@FarEditorSet@@QAE_NPB_W00HW4HRC_MODE@1@@Z 10005010 f   FarEditorSet.cpp.obj
 0001:000045c0       ?ReloadBase@FarEditorSet@@AAEXXZ 100055c0 f   FarEditorSet.cpp.obj
 0001:00004a70       ?addCurrentEditor@FarEditorSet@@AAEPAVFarEditor@@XZ 10005a70 f   FarEditorSet.cpp.obj
 0001:00004c50       ?getCurrentFileName@FarEditorSet@@AAEPAVString@@XZ 10005c50 f   FarEditorSet.cpp.obj
 0001:00004e60       ?getCurrentEditor@FarEditorSet@@AAEPAVFarEditor@@XZ 10005e60 f   FarEditorSet.cpp.obj
 0001:00004f30       ?disableColorer@FarEditorSet@@AAEXXZ 10005f30 f   FarEditorSet.cpp.obj
 0001:00005080       ?ApplySettingsToEditors@FarEditorSet@@AAEXXZ 10006080 f   FarEditorSet.cpp.obj
 0001:000050f0       ?dropCurrentEditor@FarEditorSet@@AAEX_N@Z 100060f0 f   FarEditorSet.cpp.obj
 0001:00005230       ?ReadSettings@FarEditorSet@@QAEXXZ 10006230 f   FarEditorSet.cpp.obj
 0001:00005d90       ?setLogPath@FarEditorSet@@QAEXPB_W@Z 10006d90 f   FarEditorSet.cpp.obj
 0001:00005fb0       ?SaveSettings@FarEditorSet@@AAEXXZ 10006fb0 f   FarEditorSet.cpp.obj
 0001:000064a0       ?SetBgEditor@FarEditorSet@@QAE_NXZ 100074a0 f   FarEditorSet.cpp.obj
 0001:00006680       ?LoadUserHrd@FarEditorSet@@QAEXPBVString@@PAVParserFactory@@@Z 10007680 f   FarEditorSet.cpp.obj
 0001:00006a30       ??0ParserFactoryException@@QAE@ABV0@@Z 10007a30 f i FarEditorSet.cpp.obj
 0001:00006a50       ?LoadUserHrc@FarEditorSet@@QAEXPBVString@@PAVParserFactory@@@Z 10007a50 f   FarEditorSet.cpp.obj
 0001:00006b00       ?getParamDefValue@FarEditorSet@@AAEPBVString@@PAVFileTypeImpl@@VSString@@@Z 10007b00 f   FarEditorSet.cpp.obj
 0001:00006db0       ?buildHrcList@FarEditorSet@@AAEPAUFarList@@XZ 10007db0 f   FarEditorSet.cpp.obj
 0001:00006f20       ?buildParamsList@FarEditorSet@@AAEPAUFarList@@PAVFileTypeImpl@@@Z 10007f20 f   FarEditorSet.cpp.obj
 0001:00007050       ?setCrossValueListToCombobox@FarEditorSet@@AAEXPAVFileTypeImpl@@PAX@Z 10008050 f   FarEditorSet.cpp.obj
 0001:00007360       ?setCrossPosValueListToCombobox@FarEditorSet@@AAEXPAVFileTypeImpl@@PAX@Z 10008360 f   FarEditorSet.cpp.obj
 0001:000075d0       ?setYNListValueToCombobox@FarEditorSet@@AAEXPAVFileTypeImpl@@PAXVDString@@@Z 100085d0 f   FarEditorSet.cpp.obj
 0001:000078a0       ?setTFListValueToCombobox@FarEditorSet@@AAEXPAVFileTypeImpl@@PAXVDString@@@Z 100088a0 f   FarEditorSet.cpp.obj
 0001:00007b70       ?setCustomListValueToCombobox@FarEditorSet@@AAEXPAVFileTypeImpl@@PAXVDString@@@Z 10008b70 f   FarEditorSet.cpp.obj
 0001:00007d90       ?OnChangeHrc@FarEditorSet@@QAEXPAX@Z 10008d90 f   FarEditorSet.cpp.obj
 0001:00007e10       ?SaveChangedValueParam@FarEditorSet@@AAEXPAX@Z 10008e10 f   FarEditorSet.cpp.obj
 0001:00008130       ?OnChangeParam@FarEditorSet@@QAEXPAXH@Z 10009130 f   FarEditorSet.cpp.obj
 0001:000084d0       ?SettingHrcDialogProc@@YGHPAXHH0@Z 100094d0 f   FarEditorSet.cpp.obj
 0001:000085d0       ?configureHrc@FarEditorSet@@QAEXXZ 100095d0 f   FarEditorSet.cpp.obj
 0001:00008b60       ?showExceptionMessage@FarEditorSet@@QAEXPB_W@Z 10009b60 f   FarEditorSet.cpp.obj
 0001:00008bd0       ??1?$Hashtable@PAVFarEditor@@@@UAE@XZ 10009bd0 f i FarEditorSet.cpp.obj
 0001:00008bf0       ?enumerate@?$Hashtable@PAV?$Vector@PBVString@@@@@@QBEPAV?$Vector@PBVString@@@@XZ 10009bf0 f i colorer_lib:ParserFactory.cpp.obj
 0001:00008bf0       ?enumerate@?$Hashtable@PAVFileTypeImpl@@@@QBEPAVFileTypeImpl@@XZ 10009bf0 f i colorer_lib:HRCParserImpl.cpp.obj
 0001:00008bf0       ?enumerate@?$Hashtable@PAVRegionDefine@@@@QBEPAVRegionDefine@@XZ 10009bf0 f i colorer_lib:StyledHRDMapper.cpp.obj
 0001:00008bf0       ?enumerate@?$Hashtable@PAV?$Hashtable@PAV?$Vector@PBVString@@@@@@@@QBEPAV?$Hashtable@PAV?$Vector@PBVString@@@@@@XZ 10009bf0 f i colorer_lib:ParserFactory.cpp.obj
 0001:00008bf0       ?enumerate@?$Hashtable@PAVFarEditor@@@@QBEPAVFarEditor@@XZ 10009bf0 f i FarEditorSet.cpp.obj
 0001:00008c40       ??0?$HashtableCore@PAVFarEditor@@@@QAE@XZ 10009c40 f i FarEditorSet.cpp.obj
 0001:00008cb0       ?next_int@?$HashtableCore@PAV?$Hashtable@PAV?$Vector@PBVString@@@@@@@@IBEPAPAV?$Hashtable@PAV?$Vector@PBVString@@@@@@XZ 10009cb0 f i colorer_lib:ParserFactory.cpp.obj
 0001:00008cb0       ?next_int@?$HashtableCore@PAVString@@@@IBEPAPAVString@@XZ 10009cb0 f i colorer_lib:HRCParserImpl.cpp.obj
 0001:00008cb0       ?next_int@?$HashtableCore@PAVFarEditor@@@@IBEPAPAVFarEditor@@XZ 10009cb0 f i FarEditorSet.cpp.obj
 0001:00008cb0       ?next_int@?$HashtableCore@PAVSchemeImpl@@@@IBEPAPAVSchemeImpl@@XZ 10009cb0 f i colorer_lib:HRCParserImpl.cpp.obj
 0001:00008cb0       ?next_int@?$HashtableCore@PAVRegionDefine@@@@IBEPAPAVRegionDefine@@XZ 10009cb0 f i colorer_lib:StyledHRDMapper.cpp.obj
 0001:00008cb0       ?next_int@?$HashtableCore@PAV?$Vector@PBVString@@@@@@IBEPAPAV?$Vector@PBVString@@@@XZ 10009cb0 f i colorer_lib:ParserFactory.cpp.obj
 0001:00008cb0       ?next_int@?$HashtableCore@PBVString@@@@IBEPAPBVString@@XZ 10009cb0 f i colorer_lib:ParserFactory.cpp.obj
 0001:00008cb0       ?next_int@?$HashtableCore@PAVFileTypeImpl@@@@IBEPAPAVFileTypeImpl@@XZ 10009cb0 f i colorer_lib:HRCParserImpl.cpp.obj
 0001:00008e00       ??0OutOfBoundException@@QAE@ABV0@@Z 10009e00 f i FarEditorSet.cpp.obj
 0001:00008e20       ??_E?$HashtableCore@PAVFarEditor@@@@UAEPAXI@Z 10009e20 f i  CIL library: CIL module
 0001:00008e20       ??_E?$Hashtable@PAVFarEditor@@@@UAEPAXI@Z 10009e20 f i  CIL library: CIL module
 0001:00008e20       ??_G?$HashtableCore@PAVFarEditor@@@@UAEPAXI@Z 10009e20 f i FarEditorSet.cpp.obj
 0001:00008e20       ??_G?$Hashtable@PAVFarEditor@@@@UAEPAXI@Z 10009e20 f i FarEditorSet.cpp.obj
 0001:00008e60       ??1LineSource@@MAE@XZ      10009e60 f i FarEditor.cpp.obj
 0001:00008e70       ??_ELineSource@@MAEPAXI@Z  10009e70 f i  CIL library: CIL module
 0001:00008e70       ??_GLineSource@@MAEPAXI@Z  10009e70 f i FarEditor.cpp.obj
 0001:00008ea0       ??0LineRegion@@QAE@ABV0@@Z 10009ea0 f i FarEditor.cpp.obj
 0001:00008ee0       ??1LineRegion@@QAE@XZ      10009ee0 f i FarEditor.cpp.obj
 0001:00008f00       ??_GLineRegion@@QAEPAXI@Z  10009f00 f i FarEditor.cpp.obj
 0001:00008f20       ??0FarEditor@@QAE@PAUPluginStartupInfo@@PAVParserFactory@@@Z 10009f20 f   FarEditor.cpp.obj
 0001:00009290       ??_GFarEditor@@UAEPAXI@Z   1000a290 f i FarEditor.cpp.obj
 0001:00009290       ??_EFarEditor@@UAEPAXI@Z   1000a290 f i  CIL library: CIL module
 0001:000092c0       ??1FarEditor@@UAE@XZ       1000a2c0 f   FarEditor.cpp.obj
 0001:000093c0       ?endJob@FarEditor@@UAEXH@Z 1000a3c0 f   FarEditor.cpp.obj
 0001:000093f0       ?getLine@FarEditor@@UAEPAVString@@H@Z 1000a3f0 f   FarEditor.cpp.obj
 0001:000094d0       ?chooseFileType@FarEditor@@QAEXPAVString@@@Z 1000a4d0 f   FarEditor.cpp.obj
 0001:00009520       ?setFileType@FarEditor@@QAEXPAVFileType@@@Z 1000a520 f   FarEditor.cpp.obj
 0001:00009570       ?reloadTypeSettings@FarEditor@@AAEXXZ 1000a570 f   FarEditor.cpp.obj
 0001:00009750       ?setDrawCross@FarEditor@@QAEXHH@Z 1000a750 f   FarEditor.cpp.obj
 0001:00009840       ?setRegionMapper@FarEditor@@QAEXPAVRegionMapper@@@Z 1000a840 f   FarEditor.cpp.obj
 0001:00009ad0       ?matchPair@FarEditor@@QAEXXZ 1000aad0 f   FarEditor.cpp.obj
 0001:00009b90       ?selectPair@FarEditor@@QAEXXZ 1000ab90 f   FarEditor.cpp.obj
 0001:00009c50       ?selectBlock@FarEditor@@QAEXXZ 1000ac50 f   FarEditor.cpp.obj
 0001:00009d10       ?selectRegion@FarEditor@@QAEXXZ 1000ad10 f   FarEditor.cpp.obj
 0001:00009dc0       ?getNameCurrentScheme@FarEditor@@QAEXXZ 1000adc0 f   FarEditor.cpp.obj
 0001:0000a0a0       ?locateFunction@FarEditor@@QAEXXZ 1000b0a0 f   FarEditor.cpp.obj
 0001:0000a4c0       ?editorInput@FarEditor@@QAEHABU_INPUT_RECORD@@@Z 1000b4c0 f   FarEditor.cpp.obj
 0001:0000a530       ?editorEvent@FarEditor@@QAEHHPAX@Z 1000b530 f   FarEditor.cpp.obj
 0001:0000afc0       ?showOutliner@FarEditor@@AAEXPAVOutliner@@@Z 1000bfc0 f   FarEditor.cpp.obj
 0001:0000c320       ?convert@FarEditor@@AAE?AUFarColor@@PBVStyledRegion@@@Z 1000d320 f   FarEditor.cpp.obj
 0001:0000c410       ?deleteFarColor@FarEditor@@AAEXHH@Z 1000d410 f   FarEditor.cpp.obj
 0001:0000c470       ?addFARColor@FarEditor@@AAEXHHHUFarColor@@_K@Z 1000d470 f   FarEditor.cpp.obj
 0001:0000c520       ?cleanEditor@FarEditor@@QAEXXZ 1000d520 f   FarEditor.cpp.obj
 0001:0000c5b0       ??0ChooseTypeMenu@@QAE@PB_W0@Z 1000d5b0 f   ChooseTypeMenu.cpp.obj
 0001:0000c800       ??1ChooseTypeMenu@@QAE@XZ  1000d800 f   ChooseTypeMenu.cpp.obj
 0001:0000c840       ?AddItem@ChooseTypeMenu@@AAEIPB_W_KPBVFileType@@I@Z 1000d840 f   ChooseTypeMenu.cpp.obj
 0001:0000c980       ?GetNext@ChooseTypeMenu@@QAEII@Z 1000d980 f   ChooseTypeMenu.cpp.obj
 0001:0000c9e0       ?MoveToFavorites@ChooseTypeMenu@@QAEXI@Z 1000d9e0 f   ChooseTypeMenu.cpp.obj
 0001:0000cad0       ?AddFavorite@ChooseTypeMenu@@QAEIPBVFileType@@@Z 1000dad0 f   ChooseTypeMenu.cpp.obj
 0001:0000cb50       ?HideEmptyGroup@ChooseTypeMenu@@QAEXXZ 1000db50 f   ChooseTypeMenu.cpp.obj
 0001:0000cbb0       ?DelFromFavorites@ChooseTypeMenu@@QAEXI@Z 1000dbb0 f   ChooseTypeMenu.cpp.obj
 0001:0000ccd0       ?AddItemInGroup@ChooseTypeMenu@@QAEIPAVFileType@@@Z 1000dcd0 f   ChooseTypeMenu.cpp.obj
 0001:0000ce90       ?RefreshItemCaption@ChooseTypeMenu@@QAEXI@Z 1000de90 f   ChooseTypeMenu.cpp.obj
 0001:0000cef0       ?GenerateName@ChooseTypeMenu@@QAEPAVStringBuffer@@PBVFileType@@@Z 1000def0 f   ChooseTypeMenu.cpp.obj
 0001:0000d180       ?setParamDefaultValue@FileTypeImpl@@QAEXABVString@@PBV2@@Z 1000e180 f i FarHrcSettings.cpp.obj
 0001:0000d210       ?setParamDescription@FileTypeImpl@@QAEXABVString@@PBV2@@Z 1000e210 f i FarHrcSettings.cpp.obj
 0001:0000d2b0       ??0FarHrcSettingsException@@QAE@ABVString@@@Z 1000e2b0 f i FarHrcSettings.cpp.obj
 0001:0000d3a0       ??1UnsupportedEncodingException@@UAE@XZ 1000e3a0 f i colorer_lib:DString.cpp.obj
 0001:0000d3a0       ??1FarHrcSettingsException@@UAE@XZ 1000e3a0 f i FarHrcSettings.cpp.obj
 0001:0000d3a0       ??1StringIndexOutOfBoundsException@@UAE@XZ 1000e3a0 f i colorer_lib:DString.cpp.obj
 0001:0000d3a0       ??1InputSourceException@@UAE@XZ 1000e3a0 f i colorer_lib:XmlInputSource.cpp.obj
 0001:0000d3a0       ??1SettingsControlException@@UAE@XZ 1000e3a0 f i SettingsControl.cpp.obj
 0001:0000d3a0       ??1OutOfBoundException@@UAE@XZ 1000e3a0 f i FarEditorSet.cpp.obj
 0001:0000d3a0       ??1Exception@@UAE@XZ       1000e3a0 f i colorer_lib:Exception.cpp.obj
 0001:0000d3a0       ??1ParserFactoryException@@UAE@XZ 1000e3a0 f i FarEditorSet.cpp.obj
 0001:0000d3a0       ??1HRCParserException@@UAE@XZ 1000e3a0 f i colorer_lib:HRCParserImpl.cpp.obj
 0001:0000d3c0       ?readProfile@FarHrcSettings@@QAEXXZ 1000e3c0 f   FarHrcSettings.cpp.obj
 0001:0000d510       ?readXML@FarHrcSettings@@QAEXPAVString@@_N@Z 1000e510 f   FarHrcSettings.cpp.obj
 0001:0000d7e0       ??0FarHrcSettingsException@@QAE@ABV0@@Z 1000e7e0 f i FarHrcSettings.cpp.obj
 0001:0000d800       ?UpdatePrototype@FarHrcSettings@@AAEXPAVDOMElement@xercesc_3_1@@_N@Z 1000e800 f   FarHrcSettings.cpp.obj
 0001:0000dd90       ?readProfileFromRegistry@FarHrcSettings@@AAEXXZ 1000ed90 f   FarHrcSettings.cpp.obj
 0001:0000e3c0       ?writeProfileToRegistry@FarHrcSettings@@AAEXXZ 1000f3c0 f   FarHrcSettings.cpp.obj
 0001:0000e6f0       ??0SettingsControlException@@QAE@ABVString@@@Z 1000f6f0 f i SettingsControl.cpp.obj
 0001:0000e7e0       ??0SettingsControlException@@QAE@ABV0@@Z 1000f7e0 f i SettingsControl.cpp.obj
 0001:0000e800       ??1SettingsControl@@QAE@XZ 1000f800 f   SettingsControl.cpp.obj
 0001:0000e810       ?rtrim@@YAPA_WPA_W@Z       1000f810 f   tools.cpp.obj
 0001:0000e870       ?trim@@YAPA_WPA_W@Z        1000f870 f   tools.cpp.obj
 0001:0000e8a0       ?PathToFull@@YAPA_WPB_W_N@Z 1000f8a0 f   tools.cpp.obj
 0001:0000ea10       ?PathToFullS@@YAPAVSString@@PB_W_N@Z 1000fa10 f   tools.cpp.obj
 0001:0000eab0       _EncodePointerWrapper@4    1000fab0 f   vc10wrapper.cpp.obj
 0001:0000eac0       _DecodePointerWrapper@4    1000fac0 f   vc10wrapper.cpp.obj
 0001:0000ebb0       ??4DString@@QAEAAV0@ABV0@@Z 1000fbb0 f   colorer_lib:DString.cpp.obj
 0001:0000ec30       ??0DString@@QAE@PBEHH@Z    1000fc30 f   colorer_lib:DString.cpp.obj
 0001:0000f0a0       ??0UnsupportedEncodingException@@QAE@ABV0@@Z 100100a0 f i colorer_lib:DString.cpp.obj
 0001:0000f0c0       ??0DString@@QAE@PBDHHH@Z   100100c0 f   colorer_lib:DString.cpp.obj
 0001:0000f190       ??0DString@@QAE@PB_WHH@Z   10010190 f   colorer_lib:DString.cpp.obj
 0001:0000f270       ??0DString@@QAE@PBVString@@HH@Z 10010270 f   colorer_lib:DString.cpp.obj
 0001:0000f270       ??0DString@@QAE@ABVString@@HH@Z 10010270 f   colorer_lib:DString.cpp.obj
 0001:0000f370       ??1DString@@UAE@XZ         10010370 f   colorer_lib:DString.cpp.obj
 0001:0000f3f0       ??ADString@@UBE_WH@Z       100103f0 f   colorer_lib:DString.cpp.obj
 0001:0000f5a0       ??0StringIndexOutOfBoundsException@@QAE@ABV0@@Z 100105a0 f i colorer_lib:DString.cpp.obj
 0001:0000f5c0       ?length@DString@@UBEHXZ    100105c0 f   colorer_lib:DString.cpp.obj
 0001:0000f5d0       ??0StringBuffer@@QAE@XZ    100105d0 f   colorer_lib:StringBuffer.cpp.obj
 0001:0000f650       ??0StringBuffer@@QAE@PBDHH@Z 10010650 f   colorer_lib:StringBuffer.cpp.obj
 0001:0000f730       ??0StringBuffer@@QAE@PBVString@@HH@Z 10010730 f   colorer_lib:StringBuffer.cpp.obj
 0001:0000f790       ??0StringBuffer@@QAE@ABVString@@HH@Z 10010790 f   colorer_lib:StringBuffer.cpp.obj
 0001:0000f7f0       ??1StringBuffer@@UAE@XZ    100107f0 f   colorer_lib:StringBuffer.cpp.obj
 0001:0000f7f0       ??1SString@@UAE@XZ         100107f0 f   colorer_lib:SString.cpp.obj
 0001:0000f870       ?append@StringBuffer@@QAEAAV1@PBVString@@@Z 10010870 f   colorer_lib:StringBuffer.cpp.obj
 0001:0000f930       ?append@StringBuffer@@QAEAAV1@ABVString@@@Z 10010930 f   colorer_lib:StringBuffer.cpp.obj
 0001:0000fa10       ??HStringBuffer@@QAEAAV0@PBD@Z 10010a10 f   colorer_lib:StringBuffer.cpp.obj
 0001:0000fb00       ??2@YAPAXI@Z               10010b00 f   colorer_lib:MemoryChunks.cpp.obj
 0001:0000fb20       ??3@YAXPAX@Z               10010b20 f   colorer_lib:MemoryChunks.cpp.obj
 0001:0000fb30       ?chunk_alloc@@YAPAXI@Z     10010b30 f   colorer_lib:MemoryChunks.cpp.obj
 0001:0000fcb0       ?chunk_free@@YAXPAX@Z      10010cb0 f   colorer_lib:MemoryChunks.cpp.obj
 0001:0000fd60       ?setSize@?$Vector@PAE@@QAEXH@Z 10010d60 f i colorer_lib:MemoryChunks.cpp.obj
 0001:0000fdc0       ?ensureCapacity@?$Vector@PAE@@QAEXH@Z 10010dc0 f i colorer_lib:MemoryChunks.cpp.obj
 0001:0000fe30       ??0StringIndexOutOfBoundsException@@QAE@ABVString@@@Z 10010e30 f   colorer_lib:String.cpp.obj
 0001:0000fec0       ??1String@@UAE@XZ          10010ec0 f   colorer_lib:String.cpp.obj
 0001:0000fef0       ??8String@@QBE_NABV0@@Z    10010ef0 f   colorer_lib:String.cpp.obj
 0001:0000ff60       ??9String@@QBE_NABV0@@Z    10010f60 f   colorer_lib:String.cpp.obj
 0001:0000ffd0       ??8String@@QBE_NPBD@Z      10010fd0 f   colorer_lib:String.cpp.obj
 0001:0000ffd0       ?equals@String@@QBE_NPBD@Z 10010fd0 f   colorer_lib:String.cpp.obj
 0001:000100c0       ?equalsIgnoreCase@String@@QBE_NPBV1@@Z 100110c0 f   colorer_lib:String.cpp.obj
 0001:00010260       ?compareTo@String@@QBEHABV1@@Z 10011260 f   colorer_lib:String.cpp.obj
 0001:00010300       ?compareToIgnoreCase@String@@QBEHABV1@@Z 10011300 f   colorer_lib:String.cpp.obj
 0001:00010430       ?getWChars@String@@UBEHPAPA_W@Z 10011430 f   colorer_lib:String.cpp.obj
 0001:000104b0       ?getBytes@String@@UBEHPAPAEH@Z 100114b0 f   colorer_lib:String.cpp.obj
 0001:00010620       ?getChars@String@@UBEPBDH@Z 10011620 f   colorer_lib:String.cpp.obj
 0001:00010650       ?getWChars@String@@UBEPB_WXZ 10011650 f   colorer_lib:String.cpp.obj
 0001:00010680       ?indexOf@String@@UBEH_WH@Z 10011680 f   colorer_lib:String.cpp.obj
 0001:000106e0       ?indexOf@String@@UBEHABV1@H@Z 100116e0 f   colorer_lib:String.cpp.obj
 0001:00010780       ?indexOfIgnoreCase@String@@UBEHABV1@H@Z 10011780 f   colorer_lib:String.cpp.obj
 0001:000108b0       ?lastIndexOf@String@@UBEH_WH@Z 100118b0 f   colorer_lib:String.cpp.obj
 0001:00010910       ?lastIndexOf@String@@UBEHABV1@H@Z 10011910 f   colorer_lib:String.cpp.obj
 0001:000109c0       ?startsWith@String@@UBE_NABV1@H@Z 100119c0 f   colorer_lib:String.cpp.obj
 0001:00010a40       ?replace@String@@QBEPAV1@ABV1@0@Z 10011a40 f   colorer_lib:String.cpp.obj
 0001:00010ce0       ?hashCode@String@@QBEHXZ   10011ce0 f   colorer_lib:String.cpp.obj
 0001:00010d30       ?warning@XmlParserErrorHandler@@UAEXABVSAXParseException@xercesc_3_1@@@Z 10011d30 f   colorer_lib:XmlParserErrorHandler.cpp.obj
 0001:00011040       ?error@XmlParserErrorHandler@@UAEXABVSAXParseException@xercesc_3_1@@@Z 10012040 f   colorer_lib:XmlParserErrorHandler.cpp.obj
 0001:00011350       ?fatalError@XmlParserErrorHandler@@UAEXABVSAXParseException@xercesc_3_1@@@Z 10012350 f   colorer_lib:XmlParserErrorHandler.cpp.obj
 0001:00011660       ?view@TextConsoleViewer@@QAEXXZ 10012660 f   colorer_lib:TextConsoleViewer.cpp.obj
 0001:00011e70       ??1ErrorHandler@colorer@@UAE@XZ 10012e70 f i colorer_lib:FileErrorHandler.cpp.obj
 0001:00011e80       ??_EErrorHandler@colorer@@UAEPAXI@Z 10012e80 f i  CIL library: CIL module
 0001:00011e80       ??_GDefaultErrorHandler@@UAEPAXI@Z 10012e80 f i colorer_lib:ParserFactory.cpp.obj
 0001:00011e80       ??_GErrorHandler@colorer@@UAEPAXI@Z 10012e80 f i colorer_lib:FileErrorHandler.cpp.obj
 0001:00011e80       ??_EDefaultErrorHandler@@UAEPAXI@Z 10012e80 f i  CIL library: CIL module
 0001:00011eb0       ??0FileErrorHandler@@QAE@PBVString@@H_N@Z 10012eb0 f   colorer_lib:FileErrorHandler.cpp.obj
 0001:00011fd0       ??_EFileErrorHandler@@UAEPAXI@Z 10012fd0 f i  CIL library: CIL module
 0001:00011fd0       ??_GFileErrorHandler@@UAEPAXI@Z 10012fd0 f i colorer_lib:FileErrorHandler.cpp.obj
 0001:00012060       ?error@FileErrorHandler@@UAEXABVString@@@Z 10013060 f   colorer_lib:FileErrorHandler.cpp.obj
 0001:00012090       ?fatalError@FileErrorHandler@@UAEXABVString@@@Z 10013090 f   colorer_lib:FileErrorHandler.cpp.obj
 0001:000120c0       ?warning@FileErrorHandler@@UAEXABVString@@@Z 100130c0 f   colorer_lib:FileErrorHandler.cpp.obj
 0001:000120f0       ?stringLen@XMLString@xercesc_3_1@@SAKQB_W@Z 100130f0 f i colorer_lib:XmlInputSource.cpp.obj
 0001:00012120       ?startsWith@XMLString@xercesc_3_1@@SA_NQB_W0@Z 10013120 f i colorer_lib:XmlInputSource.cpp.obj
 0001:00012190       ?newInstance@XmlInputSource@@SAPAV1@PB_WPAV1@@Z 10013190 f   colorer_lib:XmlInputSource.cpp.obj
 0001:000122e0       ??0InputSourceException@@QAE@ABV0@@Z 100132e0 f i colorer_lib:XmlInputSource.cpp.obj
 0001:00012300       ?newInstance@XmlInputSource@@SAPAV1@PB_W0@Z 10013300 f   colorer_lib:XmlInputSource.cpp.obj
 0001:00012490       ?getAbsolutePath@XmlInputSource@@SAPAVString@@PBV2@0@Z 10013490 f   colorer_lib:XmlInputSource.cpp.obj
 0001:00012490       ?getAbsolutePath@InputSource@colorer@@SAPAVString@@PBV3@0@Z 10013490 f   colorer_lib:InputSource.cpp.obj
 0001:000126c0       ??0UnsupportedEncodingException@@QAE@ABVString@@@Z 100136c0 f   colorer_lib:Encodings.cpp.obj
 0001:00012750       ?getEncodingIndex@Encodings@@SAHPBD@Z 10013750 f   colorer_lib:Encodings.cpp.obj
 0001:000127a0       ?toBytes@Encodings@@SAHH_WPAE@Z 100137a0 f   colorer_lib:Encodings.cpp.obj
 0001:00012980       ?clearLine@RegionHandler@@UAEXHPAVString@@@Z 10013980 f i colorer_lib:BaseEditor.cpp.obj
 0001:00012990       ??1RegionHandler@@MAE@XZ   10013990 f i colorer_lib:BaseEditor.cpp.obj
 0001:000129a0       ??_GRegionHandler@@MAEPAXI@Z 100139a0 f i colorer_lib:BaseEditor.cpp.obj
 0001:000129a0       ??_ERegionHandler@@MAEPAXI@Z 100139a0 f i  CIL library: CIL module
 0001:000129d0       ??1PairMatch@@UAE@XZ       100139d0 f i colorer_lib:BaseEditor.cpp.obj
 0001:00012a30       ?setStart@PairMatch@@QAEXPAVLineRegion@@@Z 10013a30 f i colorer_lib:BaseEditor.cpp.obj
 0001:00012af0       ?setEnd@PairMatch@@QAEXPAVLineRegion@@@Z 10013af0 f i colorer_lib:BaseEditor.cpp.obj
 0001:00012bb0       ??_EPairMatch@@UAEPAXI@Z   10013bb0 f i  CIL library: CIL module
 0001:00012bb0       ??_GPairMatch@@UAEPAXI@Z   10013bb0 f i colorer_lib:BaseEditor.cpp.obj
 0001:00012be0       ??0BaseEditor@@QAE@PAVParserFactory@@PAVLineSource@@@Z 10013be0 f   colorer_lib:BaseEditor.cpp.obj
 0001:00012f60       ??_GBaseEditor@@UAEPAXI@Z  10013f60 f i colorer_lib:BaseEditor.cpp.obj
 0001:00012f60       ??_EBaseEditor@@UAEPAXI@Z  10013f60 f i  CIL library: CIL module
 0001:00012f90       ??1BaseEditor@@UAE@XZ      10013f90 f   colorer_lib:BaseEditor.cpp.obj
 0001:00013050       ?remapLRS@BaseEditor@@AAEX_N@Z 10014050 f   colorer_lib:BaseEditor.cpp.obj
 0001:00013280       ?chooseFileTypeCh@BaseEditor@@AAEPAVFileType@@PBVString@@HH@Z 10014280 f   colorer_lib:BaseEditor.cpp.obj
 0001:000135e0       ?chooseFileType@BaseEditor@@QAEPAVFileType@@PBVString@@@Z 100145e0 f   colorer_lib:BaseEditor.cpp.obj
 0001:000137b0       ?getPairMatch@BaseEditor@@AAEPAVPairMatch@@HH@Z 100147b0 f   colorer_lib:BaseEditor.cpp.obj
 0001:00013980       ?searchLocalPair@BaseEditor@@QAEPAVPairMatch@@HH@Z 10014980 f   colorer_lib:BaseEditor.cpp.obj
 0001:00013b40       ?searchGlobalPair@BaseEditor@@QAEPAVPairMatch@@HH@Z 10014b40 f   colorer_lib:BaseEditor.cpp.obj
 0001:00013cf0       ?getLineRegions@BaseEditor@@QAEPAVLineRegion@@H@Z 10014cf0 f   colorer_lib:BaseEditor.cpp.obj
 0001:00013d50       ?validate@BaseEditor@@QAEXH_N@Z 10014d50 f   colorer_lib:BaseEditor.cpp.obj
 0001:00013e80       ?idleJob@BaseEditor@@QAEXH@Z 10014e80 f   colorer_lib:BaseEditor.cpp.obj
 0001:00013ec0       ?startParsing@BaseEditor@@UAEXH@Z 10014ec0 f   colorer_lib:BaseEditor.cpp.obj
 0001:00013f60       ?endParsing@BaseEditor@@UAEXH@Z 10014f60 f   colorer_lib:BaseEditor.cpp.obj
 0001:00014000       ?clearLine@BaseEditor@@UAEXHPAVString@@@Z 10015000 f   colorer_lib:BaseEditor.cpp.obj
 0001:000140b0       ?addRegion@BaseEditor@@UAEXHPAVString@@HHPBVRegion@@@Z 100150b0 f   colorer_lib:BaseEditor.cpp.obj
 0001:00014170       ?enterScheme@BaseEditor@@UAEXHPAVString@@HHPBVRegion@@PBVScheme@@@Z 10015170 f   colorer_lib:BaseEditor.cpp.obj
 0001:00014240       ?leaveScheme@BaseEditor@@UAEXHPAVString@@HHPBVRegion@@PBVScheme@@@Z 10015240 f   colorer_lib:BaseEditor.cpp.obj
 0001:00014310       ??0Exception@@QAE@ABV0@@Z  10015310 f   colorer_lib:Exception.cpp.obj
 0001:000143c0       ??0Exception@@QAE@XZ       100153c0 f   colorer_lib:Exception.cpp.obj
 0001:00014470       ??0Exception@@QAE@ABVString@@@Z 10015470 f   colorer_lib:Exception.cpp.obj
 0001:00014570       ??0InputSourceException@@QAE@ABVString@@@Z 10015570 f   colorer_lib:Exception.cpp.obj
 0001:00014660       ??0OutOfBoundException@@QAE@ABVString@@@Z 10015660 f   colorer_lib:Exception.cpp.obj
 0001:00014750       ?construct@SString@@IAEXPBVString@@HH@Z 10015750 f   colorer_lib:SString.cpp.obj
 0001:00014880       ??0SString@@QAE@PBVString@@HH@Z 10015880 f   colorer_lib:SString.cpp.obj
 0001:000148d0       ??_GSString@@UAEPAXI@Z     100158d0 f i colorer_lib:SString.cpp.obj
 0001:000148d0       ??_GStringBuffer@@UAEPAXI@Z 100158d0 f i colorer_lib:StringBuffer.cpp.obj
 0001:000148d0       ??_ESString@@UAEPAXI@Z     100158d0 f i  CIL library: CIL module
 0001:000148d0       ??_EStringBuffer@@UAEPAXI@Z 100158d0 f i  CIL library: CIL module
 0001:00014970       ??0SString@@QAE@ABVString@@HH@Z 10015970 f   colorer_lib:SString.cpp.obj
 0001:000149d0       ??0SString@@QAE@PADH@Z     100159d0 f   colorer_lib:SString.cpp.obj
 0001:00014ac0       ??0SString@@QAE@PA_W@Z     10015ac0 f   colorer_lib:SString.cpp.obj
 0001:00014bb0       ??0SString@@QAE@H@Z        10015bb0 f   colorer_lib:SString.cpp.obj
 0001:00014cb0       ??ASString@@UBE_WH@Z       10015cb0 f   colorer_lib:SString.cpp.obj
 0001:00014d20       ?length@SString@@UBEHXZ    10015d20 f   colorer_lib:SString.cpp.obj
 0001:00014d20       ?getGroup@FileTypeImpl@@UAEPBVString@@XZ 10015d20 f   colorer_lib:HRCParserImpl.cpp.obj
 0001:00014d20       ?getSystemId@InputSource@xercesc_3_1@@UBEPB_WXZ 10015d20 f   colorer_lib:ZipXmlInputSource.cpp.obj
 0001:00014d20       ?getID@Region@@UBEHXZ      10015d20 f   colorer_lib:HRCParserImpl.cpp.obj
 0001:00014d30       ?replaceTabs@TextLinesStore@@AAEXH@Z 10015d30 f   colorer_lib:TextLinesStore.cpp.obj
 0001:00014f10       ??_GTextLinesStore@@UAEPAXI@Z 10015f10 f i colorer_lib:TextLinesStore.cpp.obj
 0001:00014f10       ??_ETextLinesStore@@UAEPAXI@Z 10015f10 f i  CIL library: CIL module
 0001:00014f90       ??1TextLinesStore@@UAE@XZ  10015f90 f   colorer_lib:TextLinesStore.cpp.obj
 0001:00015000       ?freeFile@TextLinesStore@@IAEXXZ 10016000 f   colorer_lib:TextLinesStore.cpp.obj
 0001:000150e0       ?loadFile@TextLinesStore@@QAEXPBVString@@0_N@Z 100160e0 f   colorer_lib:TextLinesStore.cpp.obj
 0001:00015400       ?getLine@TextLinesStore@@UAEPAVString@@H@Z 10016400 f   colorer_lib:TextLinesStore.cpp.obj
 0001:00015420       ?endJob@LineSource@@UAEXH@Z 10016420 f i FarEditor.cpp.obj
 0001:00015420       ?error@DefaultErrorHandler@@UAEXABVString@@@Z 10016420 f i colorer_lib:ParserFactory.cpp.obj
 0001:00015420       ?startJob@LineSource@@UAEXH@Z 10016420 f i FarEditor.cpp.obj
 0001:00015420       ?fatalError@DefaultErrorHandler@@UAEXABVString@@@Z 10016420 f i colorer_lib:ParserFactory.cpp.obj
 0001:00015420       ?endParsing@RegionHandler@@UAEXH@Z 10016420 f i colorer_lib:BaseEditor.cpp.obj
 0001:00015420       ?startParsing@RegionHandler@@UAEXH@Z 10016420 f i colorer_lib:BaseEditor.cpp.obj
 0001:00015420       ?warning@DefaultErrorHandler@@UAEXABVString@@@Z 10016420 f i colorer_lib:ParserFactory.cpp.obj
 0001:00015430       ??_GBaseEntityResolver@@UAEPAXI@Z 10016430 f i colorer_lib:ParserFactory.cpp.obj
 0001:00015430       ??_EXMLEntityResolver@xercesc_3_1@@UAEPAXI@Z 10016430 f i  CIL library: CIL module
 0001:00015430       ??_GXMLEntityResolver@xercesc_3_1@@UAEPAXI@Z 10016430 f i colorer_lib:ParserFactory.cpp.obj
 0001:00015430       ??_EBaseEntityResolver@@UAEPAXI@Z 10016430 f i  CIL library: CIL module
 0001:00015460       ??1BaseEntityResolver@@UAE@XZ 10016460 f i colorer_lib:ParserFactory.cpp.obj
 0001:00015470       ?loadCatalog@ParserFactory@@QAEXPBVString@@@Z 10016470 f   colorer_lib:ParserFactory.cpp.obj
 0001:00015750       ?parseCatalogBlock@ParserFactory@@AAEXPBVDOMElement@xercesc_3_1@@@Z 10016750 f   colorer_lib:ParserFactory.cpp.obj
 0001:000157e0       ?parseHrcSetsBlock@ParserFactory@@AAEXPBVDOMElement@xercesc_3_1@@@Z 100167e0 f   colorer_lib:ParserFactory.cpp.obj
 0001:000157f0       ?addHrcSetsLocation@ParserFactory@@AAEXPBVDOMElement@xercesc_3_1@@@Z 100167f0 f   colorer_lib:ParserFactory.cpp.obj
 0001:000159d0       ?parseHrdSetsBlock@ParserFactory@@AAEXPBVDOMElement@xercesc_3_1@@@Z 100169d0 f   colorer_lib:ParserFactory.cpp.obj
 0001:00015a40       ?parseHRDSetsChild@ParserFactory@@QAEXPBVDOMElement@xercesc_3_1@@@Z 10016a40 f   colorer_lib:ParserFactory.cpp.obj
 0001:00016030       ?searchPath@ParserFactory@@AAEPAVString@@XZ 10017030 f   colorer_lib:ParserFactory.cpp.obj
 0001:000162f0       ?searchPathWindows@ParserFactory@@AAEXPAV?$Vector@PAVString@@@@@Z 100172f0 f   colorer_lib:ParserFactory.cpp.obj
 0001:00016be0       ??0ParserFactory@@QAE@PAVErrorHandler@colorer@@@Z 10017be0 f   colorer_lib:ParserFactory.cpp.obj
 0001:00016cd0       ??_GParserFactory@@UAEPAXI@Z 10017cd0 f i colorer_lib:ParserFactory.cpp.obj
 0001:00016cd0       ??_EParserFactory@@UAEPAXI@Z 10017cd0 f i  CIL library: CIL module
 0001:00016d00       ??1ParserFactory@@UAE@XZ   10017d00 f   colorer_lib:ParserFactory.cpp.obj
 0001:00016f40       ?getHRDescription@ParserFactory@@QAEPBVString@@ABV2@0@Z 10017f40 f   colorer_lib:ParserFactory.cpp.obj
 0001:00017030       ?getHRCParser@ParserFactory@@QAEPAVHRCParser@@XZ 10018030 f   colorer_lib:ParserFactory.cpp.obj
 0001:000176b0       ?loadPathWindows@ParserFactory@@AAEXPBVString@@0@Z 100186b0 f   colorer_lib:ParserFactory.cpp.obj
 0001:000179c0       ?createTextParser@ParserFactory@@QAEPAVTextParser@@XZ 100189c0 f   colorer_lib:ParserFactory.cpp.obj
 0001:00017a30       ?createStyledMapper@ParserFactory@@QAEPAVStyledHRDMapper@@PBVString@@0@Z 10018a30 f   colorer_lib:ParserFactory.cpp.obj
 0001:00017e30       ??1?$Hashtable@PAV?$Hashtable@PAV?$Vector@PBVString@@@@@@@@UAE@XZ 10018e30 f i colorer_lib:ParserFactory.cpp.obj
 0001:00017e50       ?get@?$Hashtable@PAV?$Hashtable@PAV?$Vector@PBVString@@@@@@@@QBEPAV?$Hashtable@PAV?$Vector@PBVString@@@@@@PBVString@@@Z 10018e50 f i colorer_lib:ParserFactory.cpp.obj
 0001:00017e50       ?get@?$Hashtable@PBVString@@@@QBEPBVString@@PBV2@@Z 10018e50 f i colorer_lib:ParserFactory.cpp.obj
 0001:00017e50       ?get@?$Hashtable@H@@QBEHPBVString@@@Z 10018e50 f i colorer_lib:HRCParserImpl.cpp.obj
 0001:00017e50       ?get@?$Hashtable@PAV?$Vector@PBVString@@@@@@QBEPAV?$Vector@PBVString@@@@PBVString@@@Z 10018e50 f i colorer_lib:ParserFactory.cpp.obj
 0001:00017e50       ?get@?$Hashtable@PAVFarEditor@@@@QBEPAVFarEditor@@PBVString@@@Z 10018e50 f i FarEditorSet.cpp.obj
 0001:00017e50       ?get@?$Hashtable@PAVSchemeImpl@@@@QBEPAVSchemeImpl@@PBVString@@@Z 10018e50 f i colorer_lib:HRCParserImpl.cpp.obj
 0001:00017e50       ?get@?$Hashtable@PAVRegionDefine@@@@QBEPAVRegionDefine@@PBVString@@@Z 10018e50 f i colorer_lib:StyledHRDMapper.cpp.obj
 0001:00017e50       ?get@?$Hashtable@PAVFileTypeImpl@@@@QBEPAVFileTypeImpl@@PBVString@@@Z 10018e50 f i colorer_lib:HRCParserImpl.cpp.obj
 0001:00017e50       ?get@?$Hashtable@PBVRegion@@@@QBEPBVRegion@@PBVString@@@Z 10018e50 f i colorer_lib:HRCParserImpl.cpp.obj
 0001:00017e50       ?get@?$Hashtable@PAVString@@@@QBEPAVString@@PBV2@@Z 10018e50 f i FarEditorSet.cpp.obj
 0001:00017ea0       ??1?$Hashtable@PBVString@@@@UAE@XZ 10018ea0 f i colorer_lib:ParserFactory.cpp.obj
 0001:00017ec0       ??_E?$HashtableCore@PBVString@@@@UAEPAXI@Z 10018ec0 f i  CIL library: CIL module
 0001:00017ec0       ??_G?$Hashtable@PBVString@@@@UAEPAXI@Z 10018ec0 f i colorer_lib:ParserFactory.cpp.obj
 0001:00017ec0       ??_G?$HashtableCore@PBVString@@@@UAEPAXI@Z 10018ec0 f i colorer_lib:ParserFactory.cpp.obj
 0001:00017ec0       ??_E?$Hashtable@PBVString@@@@UAEPAXI@Z 10018ec0 f i  CIL library: CIL module
 0001:00017f00       ??_G?$HashtableCore@PAV?$Vector@PBVString@@@@@@UAEPAXI@Z 10018f00 f i colorer_lib:ParserFactory.cpp.obj
 0001:00017f00       ??_E?$Hashtable@PAV?$Vector@PBVString@@@@@@UAEPAXI@Z 10018f00 f i  CIL library: CIL module
 0001:00017f00       ??_E?$HashtableCore@PAV?$Vector@PBVString@@@@@@UAEPAXI@Z 10018f00 f i  CIL library: CIL module
 0001:00017f00       ??_G?$Hashtable@PAV?$Vector@PBVString@@@@@@UAEPAXI@Z 10018f00 f i colorer_lib:ParserFactory.cpp.obj
 0001:00017f40       ??0?$Vector@PBVString@@@@QAE@XZ 10018f40 f i colorer_lib:ParserFactory.cpp.obj
 0001:00017f40       ??0?$Vector@PAE@@QAE@XZ    10018f40 f i colorer_lib:MemoryChunks.cpp.obj
 0001:00017f80       ??0?$HashtableCore@PAV?$Hashtable@PAV?$Vector@PBVString@@@@@@@@QAE@XZ 10018f80 f i colorer_lib:ParserFactory.cpp.obj
 0001:00017ff0       ??0?$HashtableCore@PBVString@@@@QAE@XZ 10018ff0 f i colorer_lib:ParserFactory.cpp.obj
 0001:00018060       ??0?$HashtableCore@PAV?$Vector@PBVString@@@@@@QAE@XZ 10019060 f i colorer_lib:ParserFactory.cpp.obj
 0001:000180d0       ?key@?$HashtableCore@PAV?$Vector@PBVString@@@@@@QBEPBVString@@H@Z 100190d0 f i colorer_lib:ParserFactory.cpp.obj
 0001:00018120       ??_E?$HashtableCore@PAV?$Hashtable@PAV?$Vector@PBVString@@@@@@@@UAEPAXI@Z 10019120 f i  CIL library: CIL module
 0001:00018120       ??_G?$Hashtable@PAV?$Hashtable@PAV?$Vector@PBVString@@@@@@@@UAEPAXI@Z 10019120 f i colorer_lib:ParserFactory.cpp.obj
 0001:00018120       ??_G?$HashtableCore@PAV?$Hashtable@PAV?$Vector@PBVString@@@@@@@@UAEPAXI@Z 10019120 f i colorer_lib:ParserFactory.cpp.obj
 0001:00018120       ??_E?$Hashtable@PAV?$Hashtable@PAV?$Vector@PBVString@@@@@@@@UAEPAXI@Z 10019120 f i  CIL library: CIL module
 0001:00018160       ?clear@?$HashtableCore@PAVFileTypeImpl@@@@QAEXXZ 10019160 f i colorer_lib:HRCParserImpl.cpp.obj
 0001:00018160       ?clear@?$HashtableCore@PAV?$Hashtable@PAV?$Vector@PBVString@@@@@@@@QAEXXZ 10019160 f i colorer_lib:ParserFactory.cpp.obj
 0001:00018160       ?clear@?$HashtableCore@H@@QAEXXZ 10019160 f i colorer_lib:HRCParserImpl.cpp.obj
 0001:00018160       ?clear@?$HashtableCore@PAVSharedInputSource@@@@QAEXXZ 10019160 f i colorer_lib:SharedInputSource.cpp.obj
 0001:00018160       ?clear@?$HashtableCore@PAVString@@@@QAEXXZ 10019160 f i FarHrcSettings.cpp.obj
 0001:00018160       ?clear@?$HashtableCore@PAVSharedXmlInputSource@@@@QAEXXZ 10019160 f i colorer_lib:SharedXmlInputSource.cpp.obj
 0001:00018160       ?clear@?$HashtableCore@PAVFarEditor@@@@QAEXXZ 10019160 f i FarEditorSet.cpp.obj
 0001:00018160       ?clear@?$HashtableCore@PAVRegionDefine@@@@QAEXXZ 10019160 f i colorer_lib:StyledHRDMapper.cpp.obj
 0001:00018160       ?clear@?$HashtableCore@PAV?$Vector@PBVString@@@@@@QAEXXZ 10019160 f i colorer_lib:ParserFactory.cpp.obj
 0001:00018160       ?clear@?$HashtableCore@PBVString@@@@QAEXXZ 10019160 f i colorer_lib:ParserFactory.cpp.obj
 0001:00018160       ?clear@?$HashtableCore@PBVRegion@@@@QAEXXZ 10019160 f i colorer_lib:HRCParserImpl.cpp.obj
 0001:00018160       ?clear@?$HashtableCore@PAVSchemeImpl@@@@QAEXXZ 10019160 f i colorer_lib:HRCParserImpl.cpp.obj
 0001:000181e0       ??0OutlineItem@@QAE@HHHPAVString@@PBVRegion@@@Z 100191e0 f i colorer_lib:Outliner.cpp.obj
 0001:00018290       ??0Outliner@@QAE@PAVBaseEditor@@PBVRegion@@@Z 10019290 f   colorer_lib:Outliner.cpp.obj
 0001:00018350       ??_GOutliner@@UAEPAXI@Z    10019350 f i colorer_lib:Outliner.cpp.obj
 0001:00018350       ??_EOutliner@@UAEPAXI@Z    10019350 f i  CIL library: CIL module
 0001:00018380       ??1Outliner@@UAE@XZ        10019380 f   colorer_lib:Outliner.cpp.obj
 0001:00018470       ?manageTree@Outliner@@SAHAAV?$Vector@H@@H@Z 10019470 f   colorer_lib:Outliner.cpp.obj
 0001:00018550       ?modifyEvent@Outliner@@UAEXH@Z 10019550 f   colorer_lib:Outliner.cpp.obj
 0001:00018660       ?startParsing@Outliner@@UAEXH@Z 10019660 f   colorer_lib:Outliner.cpp.obj
 0001:00018670       ?endParsing@Outliner@@UAEXH@Z 10019670 f   colorer_lib:Outliner.cpp.obj
 0001:00018690       ?clearLine@Outliner@@UAEXHPAVString@@@Z 10019690 f   colorer_lib:Outliner.cpp.obj
 0001:000186a0       ?addRegion@Outliner@@UAEXHPAVString@@HHPBVRegion@@@Z 100196a0 f   colorer_lib:Outliner.cpp.obj
 0001:00018800       ?enterScheme@Outliner@@UAEXHPAVString@@HHPBVRegion@@PBVScheme@@@Z 10019800 f   colorer_lib:Outliner.cpp.obj
 0001:00018810       ?leaveScheme@Outliner@@UAEXHPAVString@@HHPBVRegion@@PBVScheme@@@Z 10019810 f   colorer_lib:Outliner.cpp.obj
 0001:00018820       ??1?$Vector@PAVEditorListener@@@@QAE@XZ 10019820 f i colorer_lib:BaseEditor.cpp.obj
 0001:00018820       ??1?$Vector@PAVSchemeNode@@@@QAE@XZ 10019820 f i colorer_lib:HRCParserImpl.cpp.obj
 0001:00018820       ??1?$Vector@PAVVirtualEntry@@@@QAE@XZ 10019820 f i colorer_lib:HRCParserHelpers.cpp.obj
 0001:00018820       ??1?$Vector@PAVFileTypeImpl@@@@QAE@XZ 10019820 f i colorer_lib:HRCParserImpl.cpp.obj
 0001:00018820       ??1?$Vector@PAVOutlineItem@@@@QAE@XZ 10019820 f i colorer_lib:Outliner.cpp.obj
 0001:00018820       ??1?$Vector@PAVString@@@@QAE@XZ 10019820 f i colorer_lib:TextLinesStore.cpp.obj
 0001:00018820       ??1?$Vector@PAVRegionHandler@@@@QAE@XZ 10019820 f i colorer_lib:BaseEditor.cpp.obj
 0001:00018820       ??1?$Vector@PAVLineRegion@@@@QAE@XZ 10019820 f i colorer_lib:LineRegionsSupport.cpp.obj
 0001:00018820       ??1?$Vector@H@@QAE@XZ      10019820 f i FarEditor.cpp.obj
 0001:00018820       ??1?$Vector@PBVRegion@@@@QAE@XZ 10019820 f i colorer_lib:HRCParserImpl.cpp.obj
 0001:00018820       ??1?$Vector@PAVFileTypeChooser@@@@QAE@XZ 10019820 f i colorer_lib:HRCParserImpl.cpp.obj
 0001:00018820       ??1?$Vector@PBVString@@@@QAE@XZ 10019820 f i colorer_lib:ParserFactory.cpp.obj
 0001:00018830       ?lastElement@?$Vector@PAVOutlineItem@@@@QBEPAVOutlineItem@@XZ 10019830 f i colorer_lib:Outliner.cpp.obj
 0001:000188b0       ?lastElement@?$Vector@H@@QBEHXZ 100198b0 f i colorer_lib:Outliner.cpp.obj
 0001:00018950       ?ensureCapacity@?$Vector@PAVString@@@@QAEXH@Z 10019950 f i colorer_lib:TextLinesStore.cpp.obj
 0001:00018950       ?ensureCapacity@?$Vector@PAVLineRegion@@@@QAEXH@Z 10019950 f i colorer_lib:LineRegionsSupport.cpp.obj
 0001:00018950       ?ensureCapacity@?$Vector@PBVRegionDefine@@@@QAEXH@Z 10019950 f i colorer_lib:RegionMapperImpl.cpp.obj
 0001:00018950       ?ensureCapacity@?$Vector@PAVOutlineItem@@@@QAEXH@Z 10019950 f i colorer_lib:Outliner.cpp.obj
 0001:000189c0       ?toLowerCase@Character@@SA_W_W@Z 100199c0 f   colorer_lib:Character.cpp.obj
 0001:00018a00       ?toUpperCase@Character@@SA_W_W@Z 10019a00 f   colorer_lib:Character.cpp.obj
 0001:00018a40       ?toTitleCase@Character@@SA_W_W@Z 10019a40 f   colorer_lib:Character.cpp.obj
 0001:00018aa0       ?isLetterOrDigit@Character@@SA_N_W@Z 10019aa0 f   colorer_lib:Character.cpp.obj
 0001:00018ad0       ?isDigit@Character@@SA_N_W@Z 10019ad0 f   colorer_lib:Character.cpp.obj
 0001:00018b00       ?isWhitespace@Character@@SA_N_W@Z 10019b00 f   colorer_lib:Character.cpp.obj
 0001:00018b50       ??4RegionDefine@@UAEAAV0@ABV0@@Z 10019b50 f i colorer_lib:StyledHRDMapper.cpp.obj
 0001:00018b70       ??1RegionDefine@@UAE@XZ    10019b70 f i colorer_lib:StyledHRDMapper.cpp.obj
 0001:00018b80       ??1RegionMapper@@UAE@XZ    10019b80 f i colorer_lib:StyledHRDMapper.cpp.obj
 0001:00018b90       ??_GRegionMapper@@UAEPAXI@Z 10019b90 f i colorer_lib:StyledHRDMapper.cpp.obj
 0001:00018b90       ??_ERegionMapper@@UAEPAXI@Z 10019b90 f i  CIL library: CIL module
 0001:00018bc0       ??0RegionMapperImpl@@QAE@XZ 10019bc0 f i colorer_lib:StyledHRDMapper.cpp.obj
 0001:00018c50       ??1RegionMapperImpl@@UAE@XZ 10019c50 f i colorer_lib:StyledHRDMapper.cpp.obj
 0001:00018cd0       ??_GRegionMapperImpl@@UAEPAXI@Z 10019cd0 f i colorer_lib:StyledHRDMapper.cpp.obj
 0001:00018cd0       ??_ERegionMapperImpl@@UAEPAXI@Z 10019cd0 f i  CIL library: CIL module
 0001:00018d70       ?assignParent@StyledRegion@@UAEXPBVRegionDefine@@@Z 10019d70 f i colorer_lib:StyledHRDMapper.cpp.obj
 0001:00018e40       ?setValues@StyledRegion@@UAEXPBVRegionDefine@@@Z 10019e40 f i colorer_lib:StyledHRDMapper.cpp.obj
 0001:00018f10       ?clone@StyledRegion@@UBEPAVRegionDefine@@XZ 10019f10 f i colorer_lib:StyledHRDMapper.cpp.obj
 0001:00018fa0       ??_GRegionDefine@@UAEPAXI@Z 10019fa0 f i colorer_lib:StyledHRDMapper.cpp.obj
 0001:00018fa0       ??_EStyledRegion@@UAEPAXI@Z 10019fa0 f i  CIL library: CIL module
 0001:00018fa0       ??_ERegionDefine@@UAEPAXI@Z 10019fa0 f i  CIL library: CIL module
 0001:00018fa0       ??_GStyledRegion@@UAEPAXI@Z 10019fa0 f i colorer_lib:StyledHRDMapper.cpp.obj
 0001:00018fd0       ??_GStyledHRDMapper@@UAEPAXI@Z 10019fd0 f i colorer_lib:StyledHRDMapper.cpp.obj
 0001:00018fd0       ??_EStyledHRDMapper@@UAEPAXI@Z 10019fd0 f i  CIL library: CIL module
 0001:00019000       ??1StyledHRDMapper@@UAE@XZ 1001a000 f   colorer_lib:StyledHRDMapper.cpp.obj
 0001:000190b0       ?loadRegionMappings@StyledHRDMapper@@UAEXPAVXmlInputSource@@PAVErrorHandler@colorer@@@Z 1001a0b0 f   colorer_lib:StyledHRDMapper.cpp.obj
 0001:00019680       ?saveRegionMappings@StyledHRDMapper@@UBEXPAVWriter@@@Z 1001a680 f   colorer_lib:StyledHRDMapper.cpp.obj
 0001:00019cf0       ?setRegionDefine@StyledHRDMapper@@UAEXABVString@@PBVRegionDefine@@@Z 1001acf0 f   colorer_lib:StyledHRDMapper.cpp.obj
 0001:00019ed0       ??1?$Hashtable@PAVRegionDefine@@@@UAE@XZ 1001aed0 f i colorer_lib:StyledHRDMapper.cpp.obj
 0001:00019ef0       ??_G?$Hashtable@PAVRegionDefine@@@@UAEPAXI@Z 1001aef0 f i colorer_lib:StyledHRDMapper.cpp.obj
 0001:00019ef0       ??_E?$Hashtable@PAVRegionDefine@@@@UAEPAXI@Z 1001aef0 f i  CIL library: CIL module
 0001:00019ef0       ??_G?$HashtableCore@PAVRegionDefine@@@@UAEPAXI@Z 1001aef0 f i colorer_lib:StyledHRDMapper.cpp.obj
 0001:00019ef0       ??_E?$HashtableCore@PAVRegionDefine@@@@UAEPAXI@Z 1001aef0 f i  CIL library: CIL module
 0001:00019f30       ??0?$HashtableCore@PAVRegionDefine@@@@QAE@XZ 1001af30 f i colorer_lib:StyledHRDMapper.cpp.obj
 0001:00019fa0       ?enumerateKey@?$HashtableCore@PAVRegionDefine@@@@QBEPAVString@@XZ 1001afa0 f i colorer_lib:StyledHRDMapper.cpp.obj
 0001:00019fe0       ?nextkey@?$HashtableCore@PAVRegionDefine@@@@QBEPAVString@@XZ 1001afe0 f i colorer_lib:StyledHRDMapper.cpp.obj
 0001:0001b600       _dlmalloc                  1001c600 f   colorer_lib:dlmalloc.c.obj
 0001:0001b8a0       _dlfree                    1001c8a0 f   colorer_lib:dlmalloc.c.obj
 0001:0001bef0       ??1Writer@@UAE@XZ          1001cef0 f i colorer_lib:StreamWriter.cpp.obj
 0001:0001bf00       ??_EStreamWriter@@UAEPAXI@Z 1001cf00 f i  CIL library: CIL module
 0001:0001bf00       ??_EWriter@@UAEPAXI@Z      1001cf00 f i  CIL library: CIL module
 0001:0001bf00       ??_GStreamWriter@@UAEPAXI@Z 1001cf00 f i colorer_lib:StreamWriter.cpp.obj
 0001:0001bf00       ??_GWriter@@UAEPAXI@Z      1001cf00 f i colorer_lib:StreamWriter.cpp.obj
 0001:0001bf30       ?init@StreamWriter@@IAEXPAU_iobuf@@H_N@Z 1001cf30 f   colorer_lib:StreamWriter.cpp.obj
 0001:0001bff0       ?write@StreamWriter@@UAEX_W@Z 1001cff0 f   colorer_lib:StreamWriter.cpp.obj
 0001:0001c040       ??0ErrorHandlerWriter@@QAE@PAVWriter@@@Z 1001d040 f   colorer_lib:ErrorHandlerWriter.cpp.obj
 0001:0001c1f0       ??_GErrorHandlerWriter@@UAEPAXI@Z 1001d1f0 f i colorer_lib:ErrorHandlerWriter.cpp.obj
 0001:0001c1f0       ??_EErrorHandlerWriter@@UAEPAXI@Z 1001d1f0 f i  CIL library: CIL module
 0001:0001c220       ??1ErrorHandlerWriter@@UAE@XZ 1001d220 f   colorer_lib:ErrorHandlerWriter.cpp.obj
 0001:0001c3d0       ?error@ErrorHandlerWriter@@UAEXABVString@@@Z 1001d3d0 f   colorer_lib:ErrorHandlerWriter.cpp.obj
 0001:0001c620       ?fatalError@ErrorHandlerWriter@@UAEXABVString@@@Z 1001d620 f   colorer_lib:ErrorHandlerWriter.cpp.obj
 0001:0001c870       ?warning@ErrorHandlerWriter@@UAEXABVString@@@Z 1001d870 f   colorer_lib:ErrorHandlerWriter.cpp.obj
 0001:0001cac0       ?getPublicId@InputSource@xercesc_3_1@@UBEPB_WXZ 1001dac0 f i colorer_lib:ZipXmlInputSource.cpp.obj
 0001:0001cac0       ?getName@FileTypeImpl@@UAEPBVString@@XZ 1001dac0 f i colorer_lib:HRCParserImpl.cpp.obj
 0001:0001cac0       ?getParent@Region@@UBEPBV1@XZ 1001dac0 f i colorer_lib:HRCParserImpl.cpp.obj
 0001:0001cad0       ?getIssueFatalErrorIfNotFound@InputSource@xercesc_3_1@@UBE_NXZ 1001dad0 f i colorer_lib:ZipXmlInputSource.cpp.obj
 0001:0001cae0       ?setIssueFatalErrorIfNotFound@InputSource@xercesc_3_1@@UAEX_N@Z 1001dae0 f i colorer_lib:ZipXmlInputSource.cpp.obj
 0001:0001caf0       ??1XmlInputSource@@UAE@XZ  1001daf0 f i colorer_lib:ZipXmlInputSource.cpp.obj
 0001:0001cb00       ??_GXmlInputSource@@UAEPAXI@Z 1001db00 f i colorer_lib:ZipXmlInputSource.cpp.obj
 0001:0001cb00       ??_EXmlInputSource@@UAEPAXI@Z 1001db00 f i  CIL library: CIL module
 0001:0001cb30       ?lastIndexOf@XMLString@xercesc_3_1@@SAHQB_W_W@Z 1001db30 f i colorer_lib:ZipXmlInputSource.cpp.obj
 0001:0001cb80       ??0ZipXmlInputSource@@QAE@PB_W0@Z 1001db80 f   colorer_lib:ZipXmlInputSource.cpp.obj
 0001:0001cbf0       ??_EZipXmlInputSource@@UAEPAXI@Z 1001dbf0 f i  CIL library: CIL module
 0001:0001cbf0       ??_GZipXmlInputSource@@UAEPAXI@Z 1001dbf0 f i colorer_lib:ZipXmlInputSource.cpp.obj
 0001:0001cc20       ?create@ZipXmlInputSource@@AAEXPB_W0@Z 1001dc20 f   colorer_lib:ZipXmlInputSource.cpp.obj
 0001:0001cfa0       ??0ZipXmlInputSource@@QAE@PB_WPAVXmlInputSource@@@Z 1001dfa0 f   colorer_lib:ZipXmlInputSource.cpp.obj
 0001:0001d030       ??1ZipXmlInputSource@@UAE@XZ 1001e030 f   colorer_lib:ZipXmlInputSource.cpp.obj
 0001:0001d0e0       ??0ZipXmlInputSource@@QAE@PB_W0_N@Z 1001e0e0 f   colorer_lib:ZipXmlInputSource.cpp.obj
 0001:0001d660       ?createRelative@ZipXmlInputSource@@UBEPAV1@PB_W@Z 1001e660 f   colorer_lib:ZipXmlInputSource.cpp.obj
 0001:0001d6d0       ?getInputSource@ZipXmlInputSource@@UAEPAVInputSource@xercesc_3_1@@XZ 1001e6d0 f   colorer_lib:ZipXmlInputSource.cpp.obj
 0001:0001d6e0       ?makeStream@ZipXmlInputSource@@UBEPAVBinInputStream@xercesc_3_1@@XZ 1001e6e0 f   colorer_lib:ZipXmlInputSource.cpp.obj
 0001:0001d7c0       ??0UnZip@@QAE@PBEKPBVString@@@Z 1001e7c0 f   colorer_lib:ZipXmlInputSource.cpp.obj
 0001:0001dba0       ??_GUnZip@@UAEPAXI@Z       1001eba0 f i colorer_lib:ZipXmlInputSource.cpp.obj
 0001:0001dba0       ??_EUnZip@@UAEPAXI@Z       1001eba0 f i  CIL library: CIL module
 0001:0001dc10       ?curPos@UnZip@@UBE_KXZ     1001ec10 f   colorer_lib:ZipXmlInputSource.cpp.obj
 0001:0001dc20       ?readBytes@UnZip@@UAEKQAEK@Z 1001ec20 f   colorer_lib:ZipXmlInputSource.cpp.obj
 0001:0001dc60       ?get@?$Hashtable@PAVSharedXmlInputSource@@@@QBEPAVSharedXmlInputSource@@PBVString@@@Z 1001ec60 f i colorer_lib:ZipXmlInputSource.cpp.obj
 0001:0001dcb0       ??_EZipXmlInputSource@@W3AEPAXI@Z 1001ecb0 f i colorer_lib:ZipXmlInputSource.cpp.obj
 0001:0001dcc0       ??0LocalFileXmlInputSource@@QAE@PB_W0@Z 1001ecc0 f   colorer_lib:LocalFileXmlInputSource.cpp.obj
 0001:0001de00       ??_ELocalFileXmlInputSource@@UAEPAXI@Z 1001ee00 f i  CIL library: CIL module
 0001:0001de00       ??_GLocalFileXmlInputSource@@UAEPAXI@Z 1001ee00 f i colorer_lib:LocalFileXmlInputSource.cpp.obj
 0001:0001de60       ?makeStream@LocalFileXmlInputSource@@UBEPAVBinInputStream@xercesc_3_1@@XZ 1001ee60 f   colorer_lib:LocalFileXmlInputSource.cpp.obj
 0001:0001def0       ?createRelative@LocalFileXmlInputSource@@UBEPAVXmlInputSource@@PB_W@Z 1001eef0 f   colorer_lib:LocalFileXmlInputSource.cpp.obj
 0001:0001df80       ?getInputSource@LocalFileXmlInputSource@@UAEPAVInputSource@xercesc_3_1@@XZ 1001ef80 f   colorer_lib:LocalFileXmlInputSource.cpp.obj
 0001:0001df90       ??_ELocalFileXmlInputSource@@WBI@AEPAXI@Z 1001ef90 f i colorer_lib:LocalFileXmlInputSource.cpp.obj
 0001:0001dfa0       ??_GLineRegionsCompactSupport@@UAEPAXI@Z 1001efa0 f i colorer_lib:LineRegionsCompactSupport.cpp.obj
 0001:0001dfa0       ??_ELineRegionsCompactSupport@@UAEPAXI@Z 1001efa0 f i  CIL library: CIL module
 0001:0001dfd0       ?addLineRegion@LineRegionsCompactSupport@@MAEXHPAVLineRegion@@@Z 1001efd0 f   colorer_lib:LineRegionsCompactSupport.cpp.obj
 0001:0001e3b0       ??0LineRegionsSupport@@QAE@XZ 1001f3b0 f   colorer_lib:LineRegionsSupport.cpp.obj
 0001:0001e490       ??_GLineRegionsSupport@@UAEPAXI@Z 1001f490 f i colorer_lib:LineRegionsSupport.cpp.obj
 0001:0001e490       ??_ELineRegionsSupport@@UAEPAXI@Z 1001f490 f i  CIL library: CIL module
 0001:0001e4c0       ??1LineRegionsSupport@@UAE@XZ 1001f4c0 f   colorer_lib:LineRegionsSupport.cpp.obj
 0001:0001e5a0       ?clear@LineRegionsSupport@@QAEXXZ 1001f5a0 f   colorer_lib:LineRegionsSupport.cpp.obj
 0001:0001e660       ?startParsing@LineRegionsSupport@@UAEXH@Z 1001f660 f   colorer_lib:LineRegionsSupport.cpp.obj
 0001:0001e740       ?clearLine@LineRegionsSupport@@UAEXHPAVString@@@Z 1001f740 f   colorer_lib:LineRegionsSupport.cpp.obj
 0001:0001e8b0       ?addRegion@LineRegionsSupport@@UAEXHPAVString@@HHPBVRegion@@@Z 1001f8b0 f   colorer_lib:LineRegionsSupport.cpp.obj
 0001:0001e9b0       ?enterScheme@LineRegionsSupport@@UAEXHPAVString@@HHPBVRegion@@PBVScheme@@@Z 1001f9b0 f   colorer_lib:LineRegionsSupport.cpp.obj
 0001:0001eb00       ?leaveScheme@LineRegionsSupport@@UAEXHPAVString@@HHPBVRegion@@PBVScheme@@@Z 1001fb00 f   colorer_lib:LineRegionsSupport.cpp.obj
 0001:0001ec00       ?addLineRegion@LineRegionsSupport@@MAEXHPAVLineRegion@@@Z 1001fc00 f   colorer_lib:LineRegionsSupport.cpp.obj
 0001:0001ecf0       ?setSize@?$Vector@PAVLineRegion@@@@QAEXH@Z 1001fcf0 f i colorer_lib:LineRegionsSupport.cpp.obj
 0001:0001ecf0       ?setSize@?$Vector@PBVRegionDefine@@@@QAEXH@Z 1001fcf0 f i colorer_lib:RegionMapperImpl.cpp.obj
 0001:0001ed50       ?removeElementAt@?$Vector@PAVEditorListener@@@@QAEXH@Z 1001fd50 f i colorer_lib:BaseEditor.cpp.obj
 0001:0001ed50       ?removeElementAt@?$Vector@PAVLineRegion@@@@QAEXH@Z 1001fd50 f i colorer_lib:LineRegionsSupport.cpp.obj
 0001:0001ed50       ?removeElementAt@?$Vector@PAVRegionHandler@@@@QAEXH@Z 1001fd50 f i colorer_lib:BaseEditor.cpp.obj
 0001:0001ede0       ?lastElement@?$Vector@PAVLineRegion@@@@QBEPAVLineRegion@@XZ 1001fde0 f i colorer_lib:LineRegionsSupport.cpp.obj
 0001:0001ee90       ?newInstance@InputSource@colorer@@SAPAV12@PBVString@@PAV12@@Z 1001fe90 f   colorer_lib:InputSource.cpp.obj
 0001:0001f080       ?isRelative@InputSource@colorer@@SA_NPBVString@@@Z 10020080 f   colorer_lib:InputSource.cpp.obj
 0001:0001f0d0       ?getDescription@Region@@UBEPBVString@@XZ 100200d0 f i colorer_lib:HRCParserImpl.cpp.obj
 0001:0001f0d0       ?getEncoding@InputSource@xercesc_3_1@@UBEPB_WXZ 100200d0 f i colorer_lib:ZipXmlInputSource.cpp.obj
 0001:0001f0e0       ??0Region@@QAE@PBVString@@0PBV0@H@Z 100200e0 f i colorer_lib:HRCParserImpl.cpp.obj
 0001:0001f1d0       ??_ERegion@@UAEPAXI@Z      100201d0 f i  CIL library: CIL module
 0001:0001f1d0       ??_GRegion@@UAEPAXI@Z      100201d0 f i colorer_lib:HRCParserImpl.cpp.obj
 0001:0001f220       ??1FileType@@MAE@XZ        10020220 f i colorer_lib:HRCParserImpl.cpp.obj
 0001:0001f230       ??_GFileType@@MAEPAXI@Z    10020230 f i colorer_lib:HRCParserImpl.cpp.obj
 0001:0001f230       ??_EFileType@@MAEPAXI@Z    10020230 f i  CIL library: CIL module
 0001:0001f260       ??1Scheme@@MAE@XZ          10020260 f i colorer_lib:HRCParserImpl.cpp.obj
 0001:0001f270       ??_GScheme@@MAEPAXI@Z      10020270 f i colorer_lib:HRCParserImpl.cpp.obj
 0001:0001f270       ??_EScheme@@MAEPAXI@Z      10020270 f i  CIL library: CIL module
 0001:0001f2a0       ??0VirtualEntry@@QAE@PBVString@@0@Z 100202a0 f i colorer_lib:HRCParserImpl.cpp.obj
 0001:0001f390       ??3CharacterClass@@SAXPAX@Z 10020390 f i colorer_lib:cregexp.cpp.obj
 0001:0001f390       ??3SchemeImpl@@SAXPAX@Z    10020390 f i colorer_lib:HRCParserImpl.cpp.obj
 0001:0001f390       ??3SchemeNode@@SAXPAX@Z    10020390 f i colorer_lib:HRCParserImpl.cpp.obj
 0001:0001f390       ??3VirtualEntry@@SAXPAX@Z  10020390 f i colorer_lib:HRCParserImpl.cpp.obj
 0001:0001f390       ??3KeywordList@@SAXPAX@Z   10020390 f i colorer_lib:HRCParserImpl.cpp.obj
 0001:0001f3a0       ?getLocation@FileInputSource@@UBEPBVString@@XZ 100203a0 f i colorer_lib:FileInputSource.cpp.obj
 0001:0001f3a0       ?getName@SchemeImpl@@UBEPBVString@@XZ 100203a0 f i colorer_lib:HRCParserImpl.cpp.obj
 0001:0001f3a0       ?getLocation@JARInputSource@@UBEPBVString@@XZ 100203a0 f i colorer_lib:JARInputSource.cpp.obj
 0001:0001f3a0       ?getName@Region@@UBEPBVString@@XZ 100203a0 f i colorer_lib:HRCParserImpl.cpp.obj
 0001:0001f3a0       ?getMessage@Exception@@UBEPBVString@@XZ 100203a0 f i colorer_lib:Exception.cpp.obj
 0001:0001f3b0       ?getFileType@SchemeImpl@@UBEPAVFileType@@XZ 100203b0 f i colorer_lib:HRCParserImpl.cpp.obj
 0001:0001f3c0       ??0SchemeImpl@@IAE@PBVString@@@Z 100203c0 f i colorer_lib:HRCParserImpl.cpp.obj
 0001:0001f490       ??1SchemeImpl@@MAE@XZ      10020490 f i colorer_lib:HRCParserImpl.cpp.obj
 0001:0001f530       ??_ESchemeImpl@@MAEPAXI@Z  10020530 f i  CIL library: CIL module
 0001:0001f530       ??_GSchemeImpl@@MAEPAXI@Z  10020530 f i colorer_lib:HRCParserImpl.cpp.obj
 0001:0001f550       ??_GCRegExp@@QAEPAXI@Z     10020550 f i colorer_lib:HRCParserImpl.cpp.obj
 0001:0001f5a0       ??0HRCParserException@@QAE@ABVString@@@Z 100205a0 f i colorer_lib:HRCParserImpl.cpp.obj
 0001:0001f690       ??1HRCParser@@UAE@XZ       10020690 f i colorer_lib:HRCParserImpl.cpp.obj
 0001:0001f6a0       ??_EHRCParser@@UAEPAXI@Z   100206a0 f i  CIL library: CIL module
 0001:0001f6a0       ??_GHRCParser@@UAEPAXI@Z   100206a0 f i colorer_lib:HRCParserImpl.cpp.obj
 0001:0001f6d0       ?getDescription@FileTypeImpl@@UAEPBVString@@XZ 100206d0 f i colorer_lib:HRCParserImpl.cpp.obj
 0001:0001f6e0       ?getBaseScheme@FileTypeImpl@@UAEPAVScheme@@XZ 100206e0 f i colorer_lib:HRCParserImpl.cpp.obj
 0001:0001f700       ?enumerateParameters@FileTypeImpl@@UAEPBVString@@H@Z 10020700 f i colorer_lib:HRCParserImpl.cpp.obj
 0001:0001f790       ?getParameterDescription@FileTypeImpl@@UAEPBVString@@ABV2@@Z 10020790 f i colorer_lib:HRCParserImpl.cpp.obj
 0001:0001f7b0       ?getParamValue@FileTypeImpl@@UAEPBVString@@ABV2@@Z 100207b0 f i colorer_lib:HRCParserImpl.cpp.obj
 0001:0001f7e0       ?getParamValueInt@FileTypeImpl@@UAEHABVString@@H@Z 100207e0 f i colorer_lib:HRCParserImpl.cpp.obj
 0001:0001f830       ?getParamDefaultValue@FileTypeImpl@@UAEPBVString@@ABV2@@Z 10020830 f i colorer_lib:HRCParserImpl.cpp.obj
 0001:0001f840       ?setParamValue@FileTypeImpl@@UAEXABVString@@PBV2@@Z 10020840 f i colorer_lib:HRCParserImpl.cpp.obj
 0001:0001f8d0       ?getPriority@FileTypeImpl@@QBENPBVString@@0@Z 100208d0 f i colorer_lib:HRCParserImpl.cpp.obj
 0001:0001fa10       ??0FileTypeImpl@@IAE@PAVHRCParserImpl@@@Z 10020a10 f i colorer_lib:HRCParserImpl.cpp.obj
 0001:0001fb70       ??1FileTypeImpl@@MAE@XZ    10020b70 f i colorer_lib:HRCParserImpl.cpp.obj
 0001:0001fe50       ??_EFileTypeImpl@@MAEPAXI@Z 10020e50 f i  CIL library: CIL module
 0001:0001fe50       ??_GFileTypeImpl@@MAEPAXI@Z 10020e50 f i colorer_lib:HRCParserImpl.cpp.obj
 0001:0001fe80       ??0HRCParserImpl@@QAE@XZ   10020e80 f   colorer_lib:HRCParserImpl.cpp.obj
 0001:0001ffe0       ??_GHRCParserImpl@@UAEPAXI@Z 10020fe0 f i colorer_lib:HRCParserImpl.cpp.obj
 0001:0001ffe0       ??_EHRCParserImpl@@UAEPAXI@Z 10020fe0 f i  CIL library: CIL module
 0001:00020010       ??1HRCParserImpl@@UAE@XZ   10021010 f   colorer_lib:HRCParserImpl.cpp.obj
 0001:00020280       ?setErrorHandler@HRCParserImpl@@UAEXPAVErrorHandler@colorer@@@Z 10021280 f   colorer_lib:HRCParserImpl.cpp.obj
 0001:00020290       ?loadSource@HRCParserImpl@@UAEXPAVXmlInputSource@@@Z 10021290 f   colorer_lib:HRCParserImpl.cpp.obj
 0001:00020360       ?unloadFileType@HRCParserImpl@@IAEXPAVFileTypeImpl@@@Z 10021360 f   colorer_lib:HRCParserImpl.cpp.obj
 0001:000204b0       ?loadFileType@HRCParserImpl@@IAEXPAVFileType@@@Z 100214b0 f   colorer_lib:HRCParserImpl.cpp.obj
 0001:00020810       ?chooseFileType@HRCParserImpl@@UAEPAVFileType@@PBVString@@0H@Z 10021810 f   colorer_lib:HRCParserImpl.cpp.obj
 0001:00020910       ?getFileType@HRCParserImpl@@UAEPAVFileType@@PBVString@@@Z 10021910 f   colorer_lib:HRCParserImpl.cpp.obj
 0001:00020930       ?enumerateFileTypes@HRCParserImpl@@UAEPAVFileType@@H@Z 10021930 f   colorer_lib:HRCParserImpl.cpp.obj
 0001:000209c0       ?getFileTypesCount@HRCParserImpl@@UAEHXZ 100219c0 f   colorer_lib:HRCParserImpl.cpp.obj
 0001:000209d0       ?getRegionCount@HRCParserImpl@@UAEHXZ 100219d0 f   colorer_lib:HRCParserImpl.cpp.obj
 0001:000209e0       ?getRegion@HRCParserImpl@@UAEPBVRegion@@H@Z 100219e0 f   colorer_lib:HRCParserImpl.cpp.obj
 0001:00020a40       ?getRegion@HRCParserImpl@@UAEPBVRegion@@PBVString@@@Z 10021a40 f   colorer_lib:HRCParserImpl.cpp.obj
 0001:00020a60       ?getVersion@HRCParserImpl@@UAEPBVString@@XZ 10021a60 f   colorer_lib:HRCParserImpl.cpp.obj
 0001:00020a70       ?parseHRC@HRCParserImpl@@IAEXPAVXmlInputSource@@@Z 10021a70 f   colorer_lib:HRCParserImpl.cpp.obj
 0001:00020eb0       ??0HRCParserException@@QAE@ABV0@@Z 10021eb0 f i colorer_lib:HRCParserImpl.cpp.obj
 0001:00020ed0       ?parseHrcBlock@HRCParserImpl@@IAEXPBVDOMElement@xercesc_3_1@@@Z 10021ed0 f   colorer_lib:HRCParserImpl.cpp.obj
 0001:00021260       ?parseHrcBlockElements@HRCParserImpl@@IAEXPBVDOMElement@xercesc_3_1@@@Z 10022260 f   colorer_lib:HRCParserImpl.cpp.obj
 0001:00021580       ?addPrototype@HRCParserImpl@@IAEXPBVDOMElement@xercesc_3_1@@@Z 10022580 f   colorer_lib:HRCParserImpl.cpp.obj
 0001:00021a90       ?parsePrototypeBlock@HRCParserImpl@@IAEXPBVDOMElement@xercesc_3_1@@@Z 10022a90 f   colorer_lib:HRCParserImpl.cpp.obj
 0001:00021b50       ?addPrototypeLocation@HRCParserImpl@@IAEXPBVDOMElement@xercesc_3_1@@@Z 10022b50 f   colorer_lib:HRCParserImpl.cpp.obj
 0001:00021c30       ?addPrototypeDetectParam@HRCParserImpl@@IAEXPBVDOMElement@xercesc_3_1@@@Z 10022c30 f   colorer_lib:HRCParserImpl.cpp.obj
 0001:00022050       ?addPrototypeParameters@HRCParserImpl@@IAEXPBVDOMElement@xercesc_3_1@@@Z 10023050 f   colorer_lib:HRCParserImpl.cpp.obj
 0001:00022530       ?addType@HRCParserImpl@@IAEXPBVDOMElement@xercesc_3_1@@@Z 10023530 f   colorer_lib:HRCParserImpl.cpp.obj
 0001:00022900       ?parseTypeBlock@HRCParserImpl@@IAEXPBVDOMElement@xercesc_3_1@@@Z 10023900 f   colorer_lib:HRCParserImpl.cpp.obj
 0001:00022a10       ?addTypeRegion@HRCParserImpl@@IAEXPBVDOMElement@xercesc_3_1@@@Z 10023a10 f   colorer_lib:HRCParserImpl.cpp.obj
 0001:00022df0       ?addTypeEntity@HRCParserImpl@@IAEXPBVDOMElement@xercesc_3_1@@@Z 10023df0 f   colorer_lib:HRCParserImpl.cpp.obj
 0001:00023410       ?addTypeImport@HRCParserImpl@@IAEXPBVDOMElement@xercesc_3_1@@@Z 10024410 f   colorer_lib:HRCParserImpl.cpp.obj
 0001:000236a0       ?addScheme@HRCParserImpl@@IAEXPBVDOMElement@xercesc_3_1@@@Z 100246a0 f   colorer_lib:HRCParserImpl.cpp.obj
 0001:00023b50       ?parseSchemeBlock@HRCParserImpl@@IAEXPAVSchemeImpl@@PBVDOMElement@xercesc_3_1@@@Z 10024b50 f   colorer_lib:HRCParserImpl.cpp.obj
 0001:00023c60       ?addSchemeInherit@HRCParserImpl@@IAEXPAVSchemeImpl@@PBVDOMElement@xercesc_3_1@@@Z 10024c60 f   colorer_lib:HRCParserImpl.cpp.obj
 0001:00024110       ?addSchemeRegexp@HRCParserImpl@@IAEXPAVSchemeImpl@@PBVDOMElement@xercesc_3_1@@@Z 10025110 f   colorer_lib:HRCParserImpl.cpp.obj
 0001:00024c10       ?addSchemeBlock@HRCParserImpl@@IAEXPAVSchemeImpl@@PBVDOMElement@xercesc_3_1@@@Z 10025c10 f   colorer_lib:HRCParserImpl.cpp.obj
 0001:000265e0       ?addSchemeKeywords@HRCParserImpl@@IAEXPAVSchemeImpl@@PBVDOMElement@xercesc_3_1@@@Z 100275e0 f   colorer_lib:HRCParserImpl.cpp.obj
 0001:000270d0       ?addKeyword@HRCParserImpl@@IAEXPAVSchemeNode@@PBVRegion@@PBVDOMElement@xercesc_3_1@@@Z 100280d0 f   colorer_lib:HRCParserImpl.cpp.obj
 0001:00027370       ?getSchemeKeywordsCount@HRCParserImpl@@IAEHPBVDOMElement@xercesc_3_1@@@Z 10028370 f   colorer_lib:HRCParserImpl.cpp.obj
 0001:00027430       ?loadRegions@HRCParserImpl@@IAEXPAVSchemeNode@@PBVDOMElement@xercesc_3_1@@_N@Z 10028430 f   colorer_lib:HRCParserImpl.cpp.obj
 0001:000276f0       ?loadBlockRegions@HRCParserImpl@@IAEXPAVSchemeNode@@PBVDOMElement@xercesc_3_1@@@Z 100286f0 f   colorer_lib:HRCParserImpl.cpp.obj
 0001:00027980       ?updateLinks@HRCParserImpl@@IAEXXZ 10028980 f   colorer_lib:HRCParserImpl.cpp.obj
 0001:00028080       ?qualifyOwnName@HRCParserImpl@@IAEPAVString@@PBV2@@Z 10029080 f   colorer_lib:HRCParserImpl.cpp.obj
 0001:00028380       ?checkNameExist@HRCParserImpl@@IAE_NPBVString@@PAVFileTypeImpl@@W4QualifyNameType@1@_N@Z 10029380 f   colorer_lib:HRCParserImpl.cpp.obj
 0001:000285b0       ?qualifyForeignName@HRCParserImpl@@IAEPAVString@@PBV2@W4QualifyNameType@1@_N@Z 100295b0 f   colorer_lib:HRCParserImpl.cpp.obj
 0001:00028b40       ?getNCRegion@HRCParserImpl@@IAEPBVRegion@@PBVString@@_N@Z 10029b40 f   colorer_lib:HRCParserImpl.cpp.obj
 0001:00028c50       ?getNCRegion@HRCParserImpl@@IAEPBVRegion@@PBVDOMElement@xercesc_3_1@@ABVString@@@Z 10029c50 f   colorer_lib:HRCParserImpl.cpp.obj
 0001:00028d10       ??0?$Hashtable@PAVFileTypeImpl@@@@QAE@HN@Z 10029d10 f i colorer_lib:HRCParserImpl.cpp.obj
 0001:00028d40       ??1?$Hashtable@PAVFileTypeImpl@@@@UAE@XZ 10029d40 f i colorer_lib:HRCParserImpl.cpp.obj
 0001:00028d60       ??0?$Hashtable@PAVSchemeImpl@@@@QAE@HN@Z 10029d60 f i colorer_lib:HRCParserImpl.cpp.obj
 0001:00028d90       ??1?$Hashtable@PAVSchemeImpl@@@@UAE@XZ 10029d90 f i colorer_lib:HRCParserImpl.cpp.obj
 0001:00028db0       ??1?$Hashtable@H@@UAE@XZ   10029db0 f i colorer_lib:HRCParserImpl.cpp.obj
 0001:00028dd0       ??0?$Hashtable@PBVRegion@@@@QAE@HN@Z 10029dd0 f i colorer_lib:HRCParserImpl.cpp.obj
 0001:00028e00       ??1?$Hashtable@PBVRegion@@@@UAE@XZ 10029e00 f i colorer_lib:HRCParserImpl.cpp.obj
 0001:00028e20       ??1?$Hashtable@PAVString@@@@UAE@XZ 10029e20 f i colorer_lib:HRCParserImpl.cpp.obj
 0001:00028e40       ??_G?$HashtableCore@PAVFileTypeImpl@@@@UAEPAXI@Z 10029e40 f i colorer_lib:HRCParserImpl.cpp.obj
 0001:00028e40       ??_G?$Hashtable@PAVFileTypeImpl@@@@UAEPAXI@Z 10029e40 f i colorer_lib:HRCParserImpl.cpp.obj
 0001:00028e40       ??_E?$HashtableCore@PAVFileTypeImpl@@@@UAEPAXI@Z 10029e40 f i  CIL library: CIL module
 0001:00028e40       ??_E?$Hashtable@PAVFileTypeImpl@@@@UAEPAXI@Z 10029e40 f i  CIL library: CIL module
 0001:00028e80       ??_E?$Hashtable@H@@UAEPAXI@Z 10029e80 f i  CIL library: CIL module
 0001:00028e80       ??_E?$HashtableCore@H@@UAEPAXI@Z 10029e80 f i  CIL library: CIL module
 0001:00028e80       ??_G?$HashtableCore@H@@UAEPAXI@Z 10029e80 f i colorer_lib:HRCParserImpl.cpp.obj
 0001:00028e80       ??_G?$Hashtable@H@@UAEPAXI@Z 10029e80 f i colorer_lib:HRCParserImpl.cpp.obj
 0001:00028ec0       ?elementAt@?$Vector@PAVOutlineItem@@@@QBEPAVOutlineItem@@H@Z 10029ec0 f i colorer_lib:Outliner.cpp.obj
 0001:00028ec0       ?elementAt@?$Vector@PBVRegion@@@@QBEPBVRegion@@H@Z 10029ec0 f i colorer_lib:HRCParserImpl.cpp.obj
 0001:00028ec0       ?elementAt@?$Vector@PAVFileTypeChooser@@@@QBEPAVFileTypeChooser@@H@Z 10029ec0 f i colorer_lib:HRCParserImpl.cpp.obj
 0001:00028ec0       ?elementAt@?$Vector@PAVLineRegion@@@@QBEPAVLineRegion@@H@Z 10029ec0 f i colorer_lib:LineRegionsSupport.cpp.obj
 0001:00028ec0       ?elementAt@?$Vector@PAVString@@@@QBEPAVString@@H@Z 10029ec0 f i colorer_lib:TextLinesStore.cpp.obj
 0001:00028ec0       ?elementAt@?$Vector@PAVVirtualEntry@@@@QBEPAVVirtualEntry@@H@Z 10029ec0 f i colorer_lib:HRCParserImpl.cpp.obj
 0001:00028ec0       ?elementAt@?$Vector@PBVString@@@@QBEPBVString@@H@Z 10029ec0 f i colorer_lib:ParserFactory.cpp.obj
 0001:00028ec0       ?elementAt@?$Vector@PAVSchemeNode@@@@QBEPAVSchemeNode@@H@Z 10029ec0 f i colorer_lib:HRCParserImpl.cpp.obj
 0001:00028f30       ??0?$HashtableCore@PAVFileTypeImpl@@@@QAE@HN@Z 10029f30 f i colorer_lib:HRCParserImpl.cpp.obj
 0001:00028fa0       ?put@?$HashtableCore@PAV?$Vector@PBVString@@@@@@QAE_NPBVString@@PAV?$Vector@PBVString@@@@@Z 10029fa0 f i colorer_lib:ParserFactory.cpp.obj
 0001:00028fa0       ?put@?$HashtableCore@PAVSchemeImpl@@@@QAE_NPBVString@@PAVSchemeImpl@@@Z 10029fa0 f i colorer_lib:HRCParserImpl.cpp.obj
 0001:00028fa0       ?put@?$HashtableCore@PAVFileTypeImpl@@@@QAE_NPBVString@@PAVFileTypeImpl@@@Z 10029fa0 f i colorer_lib:HRCParserImpl.cpp.obj
 0001:00028fa0       ?put@?$HashtableCore@PAVFarEditor@@@@QAE_NPBVString@@PAVFarEditor@@@Z 10029fa0 f i FarEditorSet.cpp.obj
 0001:00028fa0       ?put@?$HashtableCore@PBVRegion@@@@QAE_NPBVString@@PBVRegion@@@Z 10029fa0 f i colorer_lib:HRCParserImpl.cpp.obj
 0001:00028fa0       ?put@?$HashtableCore@PAV?$Hashtable@PAV?$Vector@PBVString@@@@@@@@QAE_NPBVString@@PAV?$Hashtable@PAV?$Vector@PBVString@@@@@@@Z 10029fa0 f i colorer_lib:ParserFactory.cpp.obj
 0001:00028fa0       ?put@?$HashtableCore@PBVString@@@@QAE_NPBVString@@0@Z 10029fa0 f i colorer_lib:ParserFactory.cpp.obj
 0001:00028fa0       ?put@?$HashtableCore@PAVString@@@@QAE_NPBVString@@PAV2@@Z 10029fa0 f i FarHrcSettings.cpp.obj
 0001:00028fa0       ?put@?$HashtableCore@PAVRegionDefine@@@@QAE_NPBVString@@PAVRegionDefine@@@Z 10029fa0 f i colorer_lib:StyledHRDMapper.cpp.obj
 0001:00029110       ??0?$HashtableCore@PAVSchemeImpl@@@@QAE@HN@Z 1002a110 f i colorer_lib:HRCParserImpl.cpp.obj
 0001:00029180       ?remove@?$HashtableCore@PAVFarEditor@@@@QAE_NPBVString@@@Z 1002a180 f i FarEditorSet.cpp.obj
 0001:00029180       ?remove@?$HashtableCore@PAVFileTypeImpl@@@@QAE_NPBVString@@@Z 1002a180 f i colorer_lib:HRCParserImpl.cpp.obj
 0001:00029180       ?remove@?$HashtableCore@PAVString@@@@QAE_NPBVString@@@Z 1002a180 f i FarEditorSet.cpp.obj
 0001:00029180       ?remove@?$HashtableCore@PAVSchemeImpl@@@@QAE_NPBVString@@@Z 1002a180 f i colorer_lib:HRCParserImpl.cpp.obj
 0001:00029220       ??0?$HashtableCore@H@@QAE@XZ 1002a220 f i colorer_lib:HRCParserImpl.cpp.obj
 0001:00029290       ??0?$HashtableCore@PBVRegion@@@@QAE@HN@Z 1002a290 f i colorer_lib:HRCParserImpl.cpp.obj
 0001:00029300       ??0?$HashtableCore@PAVString@@@@QAE@XZ 1002a300 f i colorer_lib:HRCParserImpl.cpp.obj
 0001:00029370       ??_G?$HashtableCore@PAVSchemeImpl@@@@UAEPAXI@Z 1002a370 f i colorer_lib:HRCParserImpl.cpp.obj
 0001:00029370       ??_G?$Hashtable@PAVSchemeImpl@@@@UAEPAXI@Z 1002a370 f i colorer_lib:HRCParserImpl.cpp.obj
 0001:00029370       ??_E?$HashtableCore@PAVSchemeImpl@@@@UAEPAXI@Z 1002a370 f i  CIL library: CIL module
 0001:00029370       ??_E?$Hashtable@PAVSchemeImpl@@@@UAEPAXI@Z 1002a370 f i  CIL library: CIL module
 0001:000293b0       ??_G?$HashtableCore@PBVRegion@@@@UAEPAXI@Z 1002a3b0 f i colorer_lib:HRCParserImpl.cpp.obj
 0001:000293b0       ??_E?$Hashtable@PBVRegion@@@@UAEPAXI@Z 1002a3b0 f i  CIL library: CIL module
 0001:000293b0       ??_G?$Hashtable@PBVRegion@@@@UAEPAXI@Z 1002a3b0 f i colorer_lib:HRCParserImpl.cpp.obj
 0001:000293b0       ??_E?$HashtableCore@PBVRegion@@@@UAEPAXI@Z 1002a3b0 f i  CIL library: CIL module
 0001:000293f0       ??_E?$HashtableCore@PAVString@@@@UAEPAXI@Z 1002a3f0 f i  CIL library: CIL module
 0001:000293f0       ??_E?$Hashtable@PAVString@@@@UAEPAXI@Z 1002a3f0 f i  CIL library: CIL module
 0001:000293f0       ??_G?$Hashtable@PAVString@@@@UAEPAXI@Z 1002a3f0 f i colorer_lib:HRCParserImpl.cpp.obj
 0001:000293f0       ??_G?$HashtableCore@PAVString@@@@UAEPAXI@Z 1002a3f0 f i colorer_lib:HRCParserImpl.cpp.obj
 0001:00029430       ?rehash@?$HashtableCore@PAVString@@@@IAEXXZ 1002a430 f i FarHrcSettings.cpp.obj
 0001:00029430       ?rehash@?$HashtableCore@PAVFileTypeImpl@@@@IAEXXZ 1002a430 f i colorer_lib:HRCParserImpl.cpp.obj
 0001:00029430       ?rehash@?$HashtableCore@PAVSchemeImpl@@@@IAEXXZ 1002a430 f i colorer_lib:HRCParserImpl.cpp.obj
 0001:00029430       ?rehash@?$HashtableCore@PAVRegionDefine@@@@IAEXXZ 1002a430 f i colorer_lib:StyledHRDMapper.cpp.obj
 0001:00029430       ?rehash@?$HashtableCore@PBVRegion@@@@IAEXXZ 1002a430 f i colorer_lib:HRCParserImpl.cpp.obj
 0001:00029430       ?rehash@?$HashtableCore@PAV?$Hashtable@PAV?$Vector@PBVString@@@@@@@@IAEXXZ 1002a430 f i colorer_lib:ParserFactory.cpp.obj
 0001:00029430       ?rehash@?$HashtableCore@PBVString@@@@IAEXXZ 1002a430 f i colorer_lib:ParserFactory.cpp.obj
 0001:00029430       ?rehash@?$HashtableCore@PAVFarEditor@@@@IAEXXZ 1002a430 f i FarEditorSet.cpp.obj
 0001:00029430       ?rehash@?$HashtableCore@PAV?$Vector@PBVString@@@@@@IAEXXZ 1002a430 f i colorer_lib:ParserFactory.cpp.obj
 0001:000295e0       ?insertElementAt@?$Vector@PBVRegion@@@@QAEXQBVRegion@@H@Z 1002a5e0 f i colorer_lib:HRCParserImpl.cpp.obj
 0001:000295e0       ?insertElementAt@?$Vector@PBVString@@@@QAEXQBVString@@H@Z 1002a5e0 f i colorer_lib:ParserFactory.cpp.obj
 0001:000295e0       ?insertElementAt@?$Vector@PAVOutlineItem@@@@QAEXQAVOutlineItem@@H@Z 1002a5e0 f i colorer_lib:Outliner.cpp.obj
 0001:000295e0       ?insertElementAt@?$Vector@PAVLineRegion@@@@QAEXQAVLineRegion@@H@Z 1002a5e0 f i colorer_lib:LineRegionsSupport.cpp.obj
 0001:000295e0       ?insertElementAt@?$Vector@H@@QAEXHH@Z 1002a5e0 f i colorer_lib:Outliner.cpp.obj
 0001:000295e0       ?insertElementAt@?$Vector@PAVRegionHandler@@@@QAEXQAVRegionHandler@@H@Z 1002a5e0 f i colorer_lib:BaseEditor.cpp.obj
 0001:000295e0       ?insertElementAt@?$Vector@PAVSchemeNode@@@@QAEXQAVSchemeNode@@H@Z 1002a5e0 f i colorer_lib:HRCParserImpl.cpp.obj
 0001:000295e0       ?insertElementAt@?$Vector@PAE@@QAEXQAEH@Z 1002a5e0 f i colorer_lib:MemoryChunks.cpp.obj
 0001:000295e0       ?insertElementAt@?$Vector@PAVFileTypeImpl@@@@QAEXQAVFileTypeImpl@@H@Z 1002a5e0 f i colorer_lib:HRCParserImpl.cpp.obj
 0001:000295e0       ?insertElementAt@?$Vector@PAVEditorListener@@@@QAEXQAVEditorListener@@H@Z 1002a5e0 f i colorer_lib:BaseEditor.cpp.obj
 0001:000295e0       ?insertElementAt@?$Vector@PAVVirtualEntry@@@@QAEXQAVVirtualEntry@@H@Z 1002a5e0 f i colorer_lib:HRCParserImpl.cpp.obj
 0001:000295e0       ?insertElementAt@?$Vector@PAVFileTypeChooser@@@@QAEXQAVFileTypeChooser@@H@Z 1002a5e0 f i colorer_lib:HRCParserImpl.cpp.obj
 0001:000295e0       ?insertElementAt@?$Vector@PAVString@@@@QAEXQAVString@@H@Z 1002a5e0 f i FarEditorSet.cpp.obj
 0001:00029710       ??1TextParser@@UAE@XZ      1002a710 f i colorer_lib:TextParserImpl.cpp.obj
 0001:00029720       ??_ETextParser@@UAEPAXI@Z  1002a720 f i  CIL library: CIL module
 0001:00029720       ??_GTextParser@@UAEPAXI@Z  1002a720 f i colorer_lib:TextParserImpl.cpp.obj
 0001:00029750       ??0TextParserImpl@@QAE@XZ  1002a750 f   colorer_lib:TextParserImpl.cpp.obj
 0001:00029800       ??_ETextParserImpl@@UAEPAXI@Z 1002a800 f i  CIL library: CIL module
 0001:00029800       ??_GTextParserImpl@@UAEPAXI@Z 1002a800 f i colorer_lib:TextParserImpl.cpp.obj
 0001:00029890       ??_GParseCache@@QAEPAXI@Z  1002a890 f i colorer_lib:TextParserImpl.cpp.obj
 0001:000298b0       ?setFileType@TextParserImpl@@UAEXPAVFileType@@@Z 1002a8b0 f   colorer_lib:TextParserImpl.cpp.obj
 0001:000298e0       ?setLineSource@TextParserImpl@@UAEXPAVLineSource@@@Z 1002a8e0 f   colorer_lib:TextParserImpl.cpp.obj
 0001:000298f0       ?setRegionHandler@TextParserImpl@@UAEXPAVRegionHandler@@@Z 1002a8f0 f   colorer_lib:TextParserImpl.cpp.obj
 0001:00029900       ?parse@TextParserImpl@@UAEHHHW4TextParseMode@@@Z 1002a900 f   colorer_lib:TextParserImpl.cpp.obj
 0001:00029b80       ??_GVTList@@QAEPAXI@Z      1002ab80 f i colorer_lib:TextParserImpl.cpp.obj
 0001:00029bb0       ?clearCache@TextParserImpl@@UAEXXZ 1002abb0 f   colorer_lib:TextParserImpl.cpp.obj
 0001:00029c60       ?breakParse@TextParserImpl@@UAEXXZ 1002ac60 f   colorer_lib:TextParserImpl.cpp.obj
 0001:00029c70       ?enterScheme@TextParserImpl@@AAEXHPAUSMatches@@PBVSchemeNode@@@Z 1002ac70 f   colorer_lib:TextParserImpl.cpp.obj
 0001:00029da0       ?leaveScheme@TextParserImpl@@AAEXHPAUSMatches@@PBVSchemeNode@@@Z 1002ada0 f   colorer_lib:TextParserImpl.cpp.obj
 0001:00029ee0       ?fillInvisibleSchemes@TextParserImpl@@AAEXPAVParseCache@@@Z 1002aee0 f   colorer_lib:TextParserImpl.cpp.obj
 0001:00029f30       ?searchKW@TextParserImpl@@AAEHPBVSchemeNode@@HHH@Z 1002af30 f   colorer_lib:TextParserImpl.cpp.obj
 0001:0002a300       ?searchRE@TextParserImpl@@AAEHPAVSchemeImpl@@HHH@Z 1002b300 f   colorer_lib:TextParserImpl.cpp.obj
 0001:0002a980       ?colorize@TextParserImpl@@AAE_NPAVCRegExp@@_N@Z 1002b980 f   colorer_lib:TextParserImpl.cpp.obj
 0001:0002ac60       ??1SRegInfo@@QAE@XZ        1002bc60 f   colorer_lib:cregexp.cpp.obj
 0001:0002ace0       ??_GSRegInfo@@QAEPAXI@Z    1002bce0 f i colorer_lib:cregexp.cpp.obj
 0001:0002ad00       ??_GCharacterClass@@QAEPAXI@Z 1002bd00 f i colorer_lib:cregexp.cpp.obj
 0001:0002ad30       ??0CRegExp@@QAE@PBVString@@@Z 1002bd30 f   colorer_lib:cregexp.cpp.obj
 0001:0002ad80       ?setRELow@CRegExp@@AAE?AW4EError@@ABVString@@@Z 1002bd80 f   colorer_lib:cregexp.cpp.obj
 0001:0002b1c0       ?optimize@CRegExp@@AAEXXZ  1002c1c0 f   colorer_lib:cregexp.cpp.obj
 0001:0002b230       ?setStructs@CRegExp@@AAE?AW4EError@@AAPAVSRegInfo@@ABVString@@AAH@Z 1002c230 f   colorer_lib:cregexp.cpp.obj
 0001:0002c4b0       ?isWordBoundary@CRegExp@@AAE_NAAH@Z 1002d4b0 f   colorer_lib:cregexp.cpp.obj
 0001:0002c580       ?checkMetaSymbol@CRegExp@@AAE_NW4EMetaSymbols@@AAH@Z 1002d580 f   colorer_lib:cregexp.cpp.obj
 0001:0002caf0       ?insert_stack@CRegExp@@AAEXPAPAVSRegInfo@@0PAHPA_NHH00H@Z 1002daf0 f   colorer_lib:cregexp.cpp.obj
 0001:0002cc10       ?lowParse@CRegExp@@AAE_NPAVSRegInfo@@0H@Z 1002dc10 f   colorer_lib:cregexp.cpp.obj
 0001:0002d9a0       ?quickCheck@CRegExp@@AAE_NH@Z 1002e9a0 f i colorer_lib:cregexp.cpp.obj
 0001:0002da10       ?parseRE@CRegExp@@AAE_NH@Z 1002ea10 f i colorer_lib:cregexp.cpp.obj
 0001:0002dad0       ?getBracketNo@CRegExp@@QAEHPBVString@@@Z 1002ead0 f   colorer_lib:cregexp.cpp.obj
 0001:0002dcb0       ?resolveEntity@BaseEntityResolver@@UAEPAVInputSource@xercesc_3_1@@PAVXMLResourceIdentifier@3@@Z 1002ecb0 f   colorer_lib:BaseEntityResolver.cpp.obj
 0001:0002dd00       ?getRegionDefine@RegionMapperImpl@@UBEPBVRegionDefine@@PBVRegion@@@Z 1002ed00 f   colorer_lib:RegionMapperImpl.cpp.obj
 0001:0002def0       ?getRegionDefine@RegionMapperImpl@@UBEPBVRegionDefine@@ABVString@@@Z 1002eef0 f   colorer_lib:RegionMapperImpl.cpp.obj
 0001:0002df00       ?getNumber@UnicodeTools@@SA_NPBVString@@PAN@Z 1002ef00 f   colorer_lib:UnicodeTools.cpp.obj
 0001:0002e2b0       ?getNumber@UnicodeTools@@SAHPBVString@@@Z 1002f2b0 f   colorer_lib:UnicodeTools.cpp.obj
 0001:0002e320       ?getHex@UnicodeTools@@SAH_W@Z 1002f320 f   colorer_lib:UnicodeTools.cpp.obj
 0001:0002e380       ?getHexNumber@UnicodeTools@@SAHPBVString@@@Z 1002f380 f   colorer_lib:UnicodeTools.cpp.obj
 0001:0002e420       ?getCurlyContent@UnicodeTools@@SAPAVDString@@ABVString@@H@Z 1002f420 f   colorer_lib:UnicodeTools.cpp.obj
 0001:0002e590       ?getEscapedChar@UnicodeTools@@SA_WABVString@@HAAH@Z 1002f590 f   colorer_lib:UnicodeTools.cpp.obj
 0001:0002e6f0       ?write@Writer@@UAEXABVString@@@Z 1002f6f0 f   colorer_lib:Writer.cpp.obj
 0001:0002e720       ?write@Writer@@UAEXPBVString@@@Z 1002f720 f   colorer_lib:Writer.cpp.obj
 0001:0002e730       ?write@Writer@@UAEXABVString@@HH@Z 1002f730 f   colorer_lib:Writer.cpp.obj
 0001:0002e780       ?write@Writer@@UAEXPBVString@@HH@Z 1002f780 f   colorer_lib:Writer.cpp.obj
 0001:0002f5c0       _unzOpen2                  100305c0 f   colorer_lib:unzip.c.obj
 0001:0002f630       _unzClose                  10030630 f   colorer_lib:unzip.c.obj
 0001:0002fb10       _unzGetCurrentFileInfo     10030b10 f   colorer_lib:unzip.c.obj
 0001:0002fbd0       _unzGoToFirstFile          10030bd0 f   colorer_lib:unzip.c.obj
 0001:0002fc30       _unzGoToNextFile           10030c30 f   colorer_lib:unzip.c.obj
 0001:0002fcd0       _unzLocateFile             10030cd0 f   colorer_lib:unzip.c.obj
 0001:00030070       _unzOpenCurrentFile3       10031070 f   colorer_lib:unzip.c.obj
 0001:00030240       _unzReadCurrentFile        10031240 f   colorer_lib:unzip.c.obj
 0001:000304e0       _unzCloseCurrentFile       100314e0 f   colorer_lib:unzip.c.obj
 0001:00030580       ??_GSharedXmlInputSource@@EAEPAXI@Z 10031580 f i colorer_lib:SharedXmlInputSource.cpp.obj
 0001:00030580       ??_ESharedXmlInputSource@@EAEPAXI@Z 10031580 f i  CIL library: CIL module
 0001:000305b0       ??1SharedXmlInputSource@@EAE@XZ 100315b0 f   colorer_lib:SharedXmlInputSource.cpp.obj
 0001:000306f0       ?getSharedInputSource@SharedXmlInputSource@@SAPAV1@PB_W0@Z 100316f0 f   colorer_lib:SharedXmlInputSource.cpp.obj
 0001:00030900       ?openStream@SharedInputSource@@UAEPBEXZ 10031900 f   colorer_lib:SharedInputSource.cpp.obj
 0001:00030900       ?getInputSource@SharedXmlInputSource@@UAEPAVInputSource@xercesc_3_1@@XZ 10031900 f   colorer_lib:SharedXmlInputSource.cpp.obj
 0001:00030910       ?openStream@SharedXmlInputSource@@QAEXXZ 10031910 f   colorer_lib:SharedXmlInputSource.cpp.obj
 0001:00030960       ??0?$HashtableCore@PAVSharedXmlInputSource@@@@QAE@XZ 10031960 f i colorer_lib:SharedXmlInputSource.cpp.obj
 0001:000309d0       ?put@?$HashtableCore@PAVSharedXmlInputSource@@@@QAE_NPBVString@@PAVSharedXmlInputSource@@@Z 100319d0 f i colorer_lib:SharedXmlInputSource.cpp.obj
 0001:00030b50       ?remove@?$HashtableCore@PAVSharedXmlInputSource@@@@QAE_NPBVString@@@Z 10031b50 f i colorer_lib:SharedXmlInputSource.cpp.obj
 0001:00030c00       ??_E?$HashtableCore@PAVSharedXmlInputSource@@@@UAEPAXI@Z 10031c00 f i  CIL library: CIL module
 0001:00030c00       ??_G?$HashtableCore@PAVSharedXmlInputSource@@@@UAEPAXI@Z 10031c00 f i colorer_lib:SharedXmlInputSource.cpp.obj
 0001:00030c00       ??_E?$Hashtable@PAVSharedXmlInputSource@@@@UAEPAXI@Z 10031c00 f i  CIL library: CIL module
 0001:00030c00       ??_G?$Hashtable@PAVSharedXmlInputSource@@@@UAEPAXI@Z 10031c00 f i colorer_lib:SharedXmlInputSource.cpp.obj
 0001:00030c40       ?mem_open_file_func@@YAPAXPAXPBDH@Z 10031c40 f   colorer_lib:MemoryFile.cpp.obj
 0001:00030c60       ?mem_read_file_func@@YAKPAX00K@Z 10031c60 f   colorer_lib:MemoryFile.cpp.obj
 0001:00030ca0       ?mem_tell_file_func@@YAJPAX0@Z 10031ca0 f   colorer_lib:MemoryFile.cpp.obj
 0001:00030cb0       ?mem_seek_file_func@@YAJPAX0KH@Z 10031cb0 f   colorer_lib:MemoryFile.cpp.obj
 0001:00030d00       ?getContentType@UnZip@@UBEPB_WXZ 10031d00 f   colorer_lib:ZipXmlInputSource.cpp.obj
 0001:00030d00       ?getInputSource@XmlInputSource@@UAEPAVInputSource@xercesc_3_1@@XZ 10031d00 f   colorer_lib:ZipXmlInputSource.cpp.obj
 0001:00030d00       ?mem_write_file_func@@YAKPAX0PBXK@Z 10031d00 f   colorer_lib:MemoryFile.cpp.obj
 0001:00030d00       ?mem_close_file_func@@YAHPAX0@Z 10031d00 f   colorer_lib:MemoryFile.cpp.obj
 0001:00030d10       ?mem_error_file_func@@YAHPAX0@Z 10031d10 f   colorer_lib:MemoryFile.cpp.obj
 0001:00030d20       ?createRelative@InputSource@colorer@@UAEPAV12@PBVString@@@Z 10031d20 f i colorer_lib:JARInputSource.cpp.obj
 0001:00030d20       ?createRelative@XmlInputSource@@UBEPAV1@PB_W@Z 10031d20 f i colorer_lib:ZipXmlInputSource.cpp.obj
 0001:00030d30       ??1InputSource@colorer@@UAE@XZ 10031d30 f i colorer_lib:JARInputSource.cpp.obj
 0001:00030d40       ??_GInputSource@colorer@@UAEPAXI@Z 10031d40 f i colorer_lib:JARInputSource.cpp.obj
 0001:00030d40       ??_EInputSource@colorer@@UAEPAXI@Z 10031d40 f i  CIL library: CIL module
 0001:00030d70       ??0JARInputSource@@QAE@PBVString@@PAVInputSource@colorer@@@Z 10031d70 f   colorer_lib:JARInputSource.cpp.obj
 0001:00031080       ??_EJARInputSource@@UAEPAXI@Z 10032080 f i  CIL library: CIL module
 0001:00031080       ??_GJARInputSource@@UAEPAXI@Z 10032080 f i colorer_lib:JARInputSource.cpp.obj
 0001:000310b0       ??1JARInputSource@@UAE@XZ  100320b0 f   colorer_lib:JARInputSource.cpp.obj
 0001:00031140       ??0JARInputSource@@IAE@PBVString@@PAV0@_N@Z 10032140 f   colorer_lib:JARInputSource.cpp.obj
 0001:000312d0       ?createRelative@JARInputSource@@MAEPAVInputSource@colorer@@PBVString@@@Z 100322d0 f   colorer_lib:JARInputSource.cpp.obj
 0001:00031350       ?openStream@JARInputSource@@UAEPBEXZ 10032350 f   colorer_lib:JARInputSource.cpp.obj
 0001:00031750       ?closeStream@JARInputSource@@UAEXXZ 10032750 f   colorer_lib:JARInputSource.cpp.obj
 0001:000317d0       ?length@JARInputSource@@UBEHXZ 100327d0 f   colorer_lib:JARInputSource.cpp.obj
 0001:00031870       ??0FileInputSource@@QAE@PBVString@@PAV0@@Z 10032870 f   colorer_lib:FileInputSource.cpp.obj
 0001:00031d80       ??_GFileInputSource@@UAEPAXI@Z 10032d80 f i colorer_lib:FileInputSource.cpp.obj
 0001:00031d80       ??_EFileInputSource@@UAEPAXI@Z 10032d80 f i  CIL library: CIL module
 0001:00031e00       ?createRelative@FileInputSource@@MAEPAVInputSource@colorer@@PBVString@@@Z 10032e00 f   colorer_lib:FileInputSource.cpp.obj
 0001:00031e70       ?openStream@FileInputSource@@UAEPBEXZ 10032e70 f   colorer_lib:FileInputSource.cpp.obj
 0001:00031fc0       ?closeStream@FileInputSource@@UAEXXZ 10032fc0 f   colorer_lib:FileInputSource.cpp.obj
 0001:00032040       ?length@FileInputSource@@UBEHXZ 10033040 f   colorer_lib:FileInputSource.cpp.obj
 0001:000320e0       ??0KeywordList@@QAE@XZ     100330e0 f   colorer_lib:HRCParserHelpers.cpp.obj
 0001:00032180       ??1KeywordList@@QAE@XZ     10033180 f   colorer_lib:HRCParserHelpers.cpp.obj
 0001:000321e0       ?kwCompare@@YAHPBX0@Z      100331e0 f   colorer_lib:HRCParserHelpers.cpp.obj
 0001:00032200       ?kwCompareI@@YAHPBX0@Z     10033200 f   colorer_lib:HRCParserHelpers.cpp.obj
 0001:00032220       ?substrIndex@KeywordList@@QAEXXZ 10033220 f   colorer_lib:HRCParserHelpers.cpp.obj
 0001:00032490       ??0SchemeNode@@QAE@XZ      10033490 f   colorer_lib:HRCParserHelpers.cpp.obj
 0001:00032530       ??1SchemeNode@@QAE@XZ      10033530 f   colorer_lib:HRCParserHelpers.cpp.obj
 0001:00032650       ??1CharacterClass@@QAE@XZ  10033650 f   colorer_lib:CharacterClass.cpp.obj
 0001:00032670       ?createCharClass@CharacterClass@@SAPAV1@ABVString@@HPAH@Z 10033670 f   colorer_lib:CharacterClass.cpp.obj
 0001:00032e10       ?addChar@CharacterClass@@QAEX_W@Z 10033e10 f   colorer_lib:CharacterClass.cpp.obj
 0001:00032e70       ?addRange@CharacterClass@@QAEX_W0@Z 10033e70 f   colorer_lib:CharacterClass.cpp.obj
 0001:00032f10       ?addCategory@CharacterClass@@QAEXW4ECharCategory@@@Z 10033f10 f   colorer_lib:CharacterClass.cpp.obj
 0001:00032fa0       ?addCategory@CharacterClass@@QAEXABVString@@@Z 10033fa0 f   colorer_lib:CharacterClass.cpp.obj
 0001:000330b0       ?addCategory@CharacterClass@@QAEXPBD@Z 100340b0 f   colorer_lib:CharacterClass.cpp.obj
 0001:00033190       ?clearCategory@CharacterClass@@QAEXW4ECharCategory@@@Z 10034190 f   colorer_lib:CharacterClass.cpp.obj
 0001:00033210       ?clearCategory@CharacterClass@@QAEXABVString@@@Z 10034210 f   colorer_lib:CharacterClass.cpp.obj
 0001:00033320       ?clearCategory@CharacterClass@@QAEXPBD@Z 10034320 f   colorer_lib:CharacterClass.cpp.obj
 0001:00033400       ?addClass@CharacterClass@@QAEXABV1@@Z 10034400 f   colorer_lib:CharacterClass.cpp.obj
 0001:000334d0       ?intersectClass@CharacterClass@@QAEXABV1@@Z 100344d0 f   colorer_lib:CharacterClass.cpp.obj
 0001:00033590       ?clearClass@CharacterClass@@QAEXABV1@@Z 10034590 f   colorer_lib:CharacterClass.cpp.obj
 0001:00033670       ?clear@CharacterClass@@QAEXXZ 10034670 f   colorer_lib:CharacterClass.cpp.obj
 0001:000336d0       ?fill@CharacterClass@@QAEXXZ 100346d0 f   colorer_lib:CharacterClass.cpp.obj
 0001:00033730       ?inClass@CharacterClass@@QBE_N_W@Z 10034730 f   colorer_lib:CharacterClass.cpp.obj
 0001:00033770       ??0ParseCache@@QAE@XZ      10034770 f   colorer_lib:TextParserHelpers.cpp.obj
 0001:000337a0       ??1ParseCache@@QAE@XZ      100347a0 f   colorer_lib:TextParserHelpers.cpp.obj
 0001:00033880       ?searchLine@ParseCache@@QAEPAV1@HPAPAV1@@Z 10034880 f   colorer_lib:TextParserHelpers.cpp.obj
 0001:000338e0       ?deltree@VTList@@QAEXXZ    100348e0 f   colorer_lib:TextParserHelpers.cpp.obj
 0001:00033910       ?push@VTList@@QAE_NPAVSchemeNode@@@Z 10034910 f   colorer_lib:TextParserHelpers.cpp.obj
 0001:00033990       ?pop@VTList@@QAE_NXZ       10034990 f   colorer_lib:TextParserHelpers.cpp.obj
 0001:000339e0       ?pushvirt@VTList@@QAEPAVSchemeImpl@@PAV2@@Z 100349e0 f   colorer_lib:TextParserHelpers.cpp.obj
 0001:00033ac0       ?clear@VTList@@QAEXXZ      10034ac0 f   colorer_lib:TextParserHelpers.cpp.obj
 0001:00033b10       ?store@VTList@@QAEPAPAV?$Vector@PAVVirtualEntry@@@@XZ 10034b10 f   colorer_lib:TextParserHelpers.cpp.obj
 0001:00033b70       ?restore@VTList@@QAE_NPAPAV?$Vector@PAVVirtualEntry@@@@@Z 10034b70 f   colorer_lib:TextParserHelpers.cpp.obj
 0001:00033c00       _call_zseek64              10034c00 f   colorer_lib:ioapi.c.obj
 0001:00033d60       _crc32                     10034d60 f   colorer_lib:crc32.c.obj
 0001:00034040       _inflateResetKeep          10035040 f   colorer_lib:inflate.c.obj
 0001:000340b0       _inflateReset2             100350b0 f   colorer_lib:inflate.c.obj
 0001:00034110       _inflateInit2_             10035110 f   colorer_lib:inflate.c.obj
 0001:00034280       _inflate                   10035280 f   colorer_lib:inflate.c.obj
 0001:00035820       _inflateEnd                10036820 f   colorer_lib:inflate.c.obj
 0001:00035870       ?getLocation@SharedInputSource@@UBEPBVString@@XZ 10036870 f i colorer_lib:SharedInputSource.cpp.obj
 0001:00035880       ?closeStream@SharedInputSource@@UAEXXZ 10036880 f i colorer_lib:SharedInputSource.cpp.obj
 0001:00035890       ?length@SharedInputSource@@UBEHXZ 10036890 f i colorer_lib:SharedInputSource.cpp.obj
 0001:000358a0       ??_GSharedInputSource@@EAEPAXI@Z 100368a0 f i colorer_lib:SharedInputSource.cpp.obj
 0001:000358a0       ??_ESharedInputSource@@EAEPAXI@Z 100368a0 f i  CIL library: CIL module
 0001:00035940       ?getInputSource@SharedInputSource@@SAPAV1@PBVString@@PAVInputSource@colorer@@@Z 10036940 f   colorer_lib:SharedInputSource.cpp.obj
 0001:00035a70       ?get@?$Hashtable@PAVSharedInputSource@@@@QBEPAVSharedInputSource@@PBVString@@@Z 10036a70 f i colorer_lib:SharedInputSource.cpp.obj
 0001:00035ac0       ??0?$HashtableCore@PAVSharedInputSource@@@@QAE@XZ 10036ac0 f i colorer_lib:SharedInputSource.cpp.obj
 0001:00035b30       ?put@?$HashtableCore@PAVSharedInputSource@@@@QAE_NPBVString@@PAVSharedInputSource@@@Z 10036b30 f i colorer_lib:SharedInputSource.cpp.obj
 0001:00035cb0       ?remove@?$HashtableCore@PAVSharedInputSource@@@@QAE_NPBVString@@@Z 10036cb0 f i colorer_lib:SharedInputSource.cpp.obj
 0001:00035d60       ??_G?$HashtableCore@PAVSharedInputSource@@@@UAEPAXI@Z 10036d60 f i colorer_lib:SharedInputSource.cpp.obj
 0001:00035d60       ??_E?$Hashtable@PAVSharedInputSource@@@@UAEPAXI@Z 10036d60 f i  CIL library: CIL module
 0001:00035d60       ??_G?$Hashtable@PAVSharedInputSource@@@@UAEPAXI@Z 10036d60 f i colorer_lib:SharedInputSource.cpp.obj
 0001:00035d60       ??_E?$HashtableCore@PAVSharedInputSource@@@@UAEPAXI@Z 10036d60 f i  CIL library: CIL module
 0001:00035da0       ?rehash@?$HashtableCore@PAVSharedXmlInputSource@@@@IAEXXZ 10036da0 f i colorer_lib:SharedXmlInputSource.cpp.obj
 0001:00035da0       ?rehash@?$HashtableCore@PAVSharedInputSource@@@@IAEXXZ 10036da0 f i colorer_lib:SharedInputSource.cpp.obj
 0001:00035f50       ?setBit@BitArray@@QAEXH@Z  10036f50 f   colorer_lib:BitArray.cpp.obj
 0001:00035fb0       ?clearBit@BitArray@@QAEXH@Z 10036fb0 f   colorer_lib:BitArray.cpp.obj
 0001:00036020       ?addRange@BitArray@@QAEXHH@Z 10037020 f   colorer_lib:BitArray.cpp.obj
 0001:00036110       ?addBitArray@BitArray@@QAEXPADH@Z 10037110 f   colorer_lib:BitArray.cpp.obj
 0001:000361e0       ?clearBitArray@BitArray@@QAEXPADH@Z 100371e0 f   colorer_lib:BitArray.cpp.obj
 0001:000362b0       _adler32                   100372b0 f   colorer_lib:adler32.c.obj
 0001:00036510       _inflate_fast              10037510 f   colorer_lib:inffast.c.obj
 0001:00036960       _zcalloc                   10037960 f   colorer_lib:zutil.c.obj
 0001:00036980       _zcfree                    10037980 f   colorer_lib:zutil.c.obj
 0001:00036990       _inflate_table             10037990 f   colorer_lib:inftrees.c.obj
 0001:00036def       ??_EPanicHandler@xercesc_3_1@@UAEPAXI@Z 10037def f i  CIL library: CIL module
 0001:00036def       ??_GPanicHandler@xercesc_3_1@@UAEPAXI@Z 10037def f i xerces-c_3_1:PlatformUtils.cpp.obj
 0001:00036e0f       ??0XMLPlatformUtilsException@xercesc_3_1@@QAE@ABV01@@Z 10037e0f f i xerces-c_3_1:PlatformUtils.cpp.obj
 0001:00036e2a       ??1XMLPlatformUtilsException@xercesc_3_1@@UAE@XZ 10037e2a f i xerces-c_3_1:PlatformUtils.cpp.obj
 0001:00036e35       ?duplicate@XMLPlatformUtilsException@xercesc_3_1@@UBEPAVXMLException@2@XZ 10037e35 f i xerces-c_3_1:PlatformUtils.cpp.obj
 0001:00036e7f       ?getType@XMLPlatformUtilsException@xercesc_3_1@@UBEPB_WXZ 10037e7f f i xerces-c_3_1:PlatformUtils.cpp.obj
 0001:00036e85       ??_EXMLPlatformUtilsException@xercesc_3_1@@UAEPAXI@Z 10037e85 f i  CIL library: CIL module
 0001:00036e85       ??_GXMLPlatformUtilsException@xercesc_3_1@@UAEPAXI@Z 10037e85 f i xerces-c_3_1:PlatformUtils.cpp.obj
 0001:00036eaa       ?replicate@XMLString@xercesc_3_1@@SAPA_WQB_WQAVMemoryManager@2@@Z 10037eaa f i xerces-c_3_1:PlatformUtils.cpp.obj
 0001:00036ede       ??0RuntimeException@xercesc_3_1@@QAE@ABV01@@Z 10037ede f i xerces-c_3_1:PlatformUtils.cpp.obj
 0001:00036ef9       ??1RuntimeException@xercesc_3_1@@UAE@XZ 10037ef9 f i xerces-c_3_1:PlatformUtils.cpp.obj
 0001:00036f04       ?duplicate@RuntimeException@xercesc_3_1@@UBEPAVXMLException@2@XZ 10037f04 f i xerces-c_3_1:PlatformUtils.cpp.obj
 0001:00036f4e       ?getType@RuntimeException@xercesc_3_1@@UBEPB_WXZ 10037f4e f i xerces-c_3_1:PlatformUtils.cpp.obj
 0001:00036f54       ??_GRuntimeException@xercesc_3_1@@UAEPAXI@Z 10037f54 f i xerces-c_3_1:PlatformUtils.cpp.obj
 0001:00036f54       ??_ERuntimeException@xercesc_3_1@@UAEPAXI@Z 10037f54 f i  CIL library: CIL module
 0001:00036f79       ??_GDefaultPanicHandler@xercesc_3_1@@UAEPAXI@Z 10037f79 f i xerces-c_3_1:PlatformUtils.cpp.obj
 0001:00036f79       ??_EDefaultPanicHandler@xercesc_3_1@@UAEPAXI@Z 10037f79 f i  CIL library: CIL module
 0001:00036f99       ??_GMemoryManagerImpl@xercesc_3_1@@UAEPAXI@Z 10037f99 f i xerces-c_3_1:PlatformUtils.cpp.obj
 0001:00036f99       ??_GMemoryManager@xercesc_3_1@@UAEPAXI@Z 10037f99 f i xerces-c_3_1:PlatformUtils.cpp.obj
 0001:00036f99       ??_EMemoryManagerImpl@xercesc_3_1@@UAEPAXI@Z 10037f99 f i  CIL library: CIL module
 0001:00036f99       ??_EMemoryManager@xercesc_3_1@@UAEPAXI@Z 10037f99 f i  CIL library: CIL module
 0001:00036fb9       ?Initialize@XMLPlatformUtils@xercesc_3_1@@SAXQBD0QAVPanicHandler@2@QAVMemoryManager@2@@Z 10037fb9 f   xerces-c_3_1:PlatformUtils.cpp.obj
 0001:0003719a       ?Terminate@XMLPlatformUtils@xercesc_3_1@@SAXXZ 1003819a f   xerces-c_3_1:PlatformUtils.cpp.obj
 0001:0003730a       ?panic@XMLPlatformUtils@xercesc_3_1@@SAXW4PanicReasons@PanicHandler@2@@Z 1003830a f   xerces-c_3_1:PlatformUtils.cpp.obj
 0001:00037327       ?loadAMsgSet@XMLPlatformUtils@xercesc_3_1@@CAPAVXMLMsgLoader@2@QB_W@Z 10038327 f   xerces-c_3_1:PlatformUtils.cpp.obj
 0001:0003738e       ?makeFileMgr@XMLPlatformUtils@xercesc_3_1@@SAPAVXMLFileMgr@2@QAVMemoryManager@2@@Z 1003838e f   xerces-c_3_1:PlatformUtils.cpp.obj
 0001:000373e3       ?closeFile@XMLPlatformUtils@xercesc_3_1@@SAXPAXQAVMemoryManager@2@@Z 100383e3 f   xerces-c_3_1:PlatformUtils.cpp.obj
 0001:00037429       ?writeBufferToFile@XMLPlatformUtils@xercesc_3_1@@SAXQAXKQBEQAVMemoryManager@2@@Z 10038429 f   xerces-c_3_1:PlatformUtils.cpp.obj
 0001:00037498       ?getCurrentDirectory@XMLPlatformUtils@xercesc_3_1@@SAPA_WQAVMemoryManager@2@@Z 10038498 f   xerces-c_3_1:PlatformUtils.cpp.obj
 0001:000374fe       ?isRelative@XMLPlatformUtils@xercesc_3_1@@SA_NQB_WQAVMemoryManager@2@@Z 100384fe f   xerces-c_3_1:PlatformUtils.cpp.obj
 0001:00037544       ?isAnySlash@XMLPlatformUtils@xercesc_3_1@@SA_N_W@Z 10038544 f i xerces-c_3_1:PlatformUtils.cpp.obj
 0001:00037562       ?weavePaths@XMLPlatformUtils@xercesc_3_1@@SAPA_WQB_W0QAVMemoryManager@2@@Z 10038562 f   xerces-c_3_1:PlatformUtils.cpp.obj
 0001:00037618       ?removeDotSlash@XMLPlatformUtils@xercesc_3_1@@SAXQA_WQAVMemoryManager@2@@Z 10038618 f   xerces-c_3_1:PlatformUtils.cpp.obj
 0001:000376dd       ?removeDotDotSlash@XMLPlatformUtils@xercesc_3_1@@SAXQA_WQAVMemoryManager@2@@Z 100386dd f   xerces-c_3_1:PlatformUtils.cpp.obj
 0001:00037867       ?searchSlashDotDotSlash@XMLPlatformUtils@xercesc_3_1@@CAHQA_W@Z 10038867 f   xerces-c_3_1:PlatformUtils.cpp.obj
 0001:000378d6       ??0SAXException@xercesc_3_1@@QAE@ABV01@@Z 100388d6 f i xerces-c_3_1:XercesDOMParser.cpp.obj
 0001:00037905       ??1SAXException@xercesc_3_1@@UAE@XZ 10038905 f i xerces-c_3_1:XercesDOMParser.cpp.obj
 0001:00037919       ??_ESAXException@xercesc_3_1@@UAEPAXI@Z 10038919 f i  CIL library: CIL module
 0001:00037919       ??_GSAXException@xercesc_3_1@@UAEPAXI@Z 10038919 f i xerces-c_3_1:XercesDOMParser.cpp.obj
 0001:00037944       ??0IOException@xercesc_3_1@@QAE@ABV01@@Z 10038944 f i xerces-c_3_1:XercesDOMParser.cpp.obj
 0001:0003795f       ??1IOException@xercesc_3_1@@UAE@XZ 1003895f f i xerces-c_3_1:XercesDOMParser.cpp.obj
 0001:0003796a       ?duplicate@IOException@xercesc_3_1@@UBEPAVXMLException@2@XZ 1003896a f i xerces-c_3_1:XercesDOMParser.cpp.obj
 0001:000379b4       ?getType@IOException@xercesc_3_1@@UBEPB_WXZ 100389b4 f i xerces-c_3_1:XercesDOMParser.cpp.obj
 0001:000379ba       ??_EIOException@xercesc_3_1@@UAEPAXI@Z 100389ba f i  CIL library: CIL module
 0001:000379ba       ??_GIOException@xercesc_3_1@@UAEPAXI@Z 100389ba f i xerces-c_3_1:XercesDOMParser.cpp.obj
 0001:000379df       ?getSrcOffset@ReaderMgr@xercesc_3_1@@QBE_KXZ 100389df f i xerces-c_3_1:XercesDOMParser.cpp.obj
 0001:00037aac       ?expandSystemId@DOMLSParserImpl@xercesc_3_1@@UAE_NQB_WAAVXMLBuffer@2@@Z 10038aac f i xerces-c_3_1:DOMLSParserImpl.cpp.obj
 0001:00037aac       ?customNodeSerialize@DOMLSSerializerImpl@xercesc_3_1@@MAE_NQBVDOMNode@2@H@Z 10038aac f i xerces-c_3_1:DOMLSSerializerImpl.cpp.obj
 0001:00037aac       ?expandSystemId@XercesDOMParser@xercesc_3_1@@UAE_NQB_WAAVXMLBuffer@2@@Z 10038aac f i xerces-c_3_1:XercesDOMParser.cpp.obj
 0001:00037ab1       ??0XercesDOMParser@xercesc_3_1@@QAE@QAVXMLValidator@1@QAVMemoryManager@1@QAVXMLGrammarPool@1@@Z 10038ab1 f   xerces-c_3_1:XercesDOMParser.cpp.obj
 0001:00037aec       ??_GXercesDOMParser@xercesc_3_1@@UAEPAXI@Z 10038aec f i xerces-c_3_1:XercesDOMParser.cpp.obj
 0001:00037aec       ??_EXercesDOMParser@xercesc_3_1@@UAEPAXI@Z 10038aec f i  CIL library: CIL module
 0001:00037b0b       ??1XercesDOMParser@xercesc_3_1@@UAE@XZ 10038b0b f   xerces-c_3_1:XercesDOMParser.cpp.obj
 0001:00037b32       ?setErrorHandler@XercesDOMParser@xercesc_3_1@@QAEXQAVErrorHandler@2@@Z 10038b32 f   xerces-c_3_1:XercesDOMParser.cpp.obj
 0001:00037b52       ?error@XercesDOMParser@xercesc_3_1@@UAEXIQB_WW4ErrTypes@XMLErrorReporter@2@000_K2@Z 10038b52 f   xerces-c_3_1:XercesDOMParser.cpp.obj
 0001:00037c05       ?inheritAdditionalFacet@AbstractNumericFacetValidator@xercesc_3_1@@MAEXXZ 10038c05 f   xerces-c_3_1:AbstractNumericFacetValidator.cpp.obj
 0001:00037c05       ?flush@XMLFormatTarget@xercesc_3_1@@UAEXXZ 10038c05 f   xerces-c_3_1:MemBufFormatTarget.cpp.obj
 0001:00037c05       ??3@YAXPAXPAVDOMDocument@xercesc_3_1@@W4NodeObjectType@DOMMemoryManager@1@@Z 10038c05 f   xerces-c_3_1:DOMTextImpl.cpp.obj
 0001:00037c05       ?resetCachedGrammar@XMLScanner@xercesc_3_1@@UAEXXZ 10038c05 f   xerces-c_3_1:XMLScanner.cpp.obj
 0001:00037c05       ?normalize@DOMCommentImpl@xercesc_3_1@@UAEXXZ 10038c05 f   xerces-c_3_1:DOMCommentImpl.cpp.obj
 0001:00037c05       ?resetErrors@DOMLSParserImpl@xercesc_3_1@@UAEXXZ 10038c05 f   xerces-c_3_1:DOMLSParserImpl.cpp.obj
 0001:00037c05       ?postParseValidation@DTDValidator@xercesc_3_1@@UAEXXZ 10038c05 f   xerces-c_3_1:DTDValidator.cpp.obj
 0001:00037c05       ?reset@DTDAttDef@xercesc_3_1@@UAEXXZ 10038c05 f   xerces-c_3_1:DTDAttDef.cpp.obj
 0001:00037c05       ?resetErrors@XercesDOMParser@xercesc_3_1@@UAEXXZ 10038c05 f   xerces-c_3_1:XercesDOMParser.cpp.obj
 0001:00037c05       ??3@YAXPAXPAVDOMDocumentImpl@xercesc_3_1@@W4NodeObjectType@DOMMemoryManager@1@@Z 10038c05 f   xerces-c_3_1:AbstractDOMParser.cpp.obj
 0001:00037c05       ?release@DOMTreeWalkerImpl@xercesc_3_1@@UAEXXZ 10038c05 f   xerces-c_3_1:DOMTreeWalkerImpl.cpp.obj
 0001:00037c05       ?inheritAdditionalFacet@AbstractStringValidator@xercesc_3_1@@MAEXXZ 10038c05 f   xerces-c_3_1:AbstractStringValidator.cpp.obj
 0001:00037c05       ?endExtSubset@AbstractDOMParser@xercesc_3_1@@UAEXXZ 10038c05 f   xerces-c_3_1:AbstractDOMParser.cpp.obj
 0001:00037c05       ?resetEntities@XercesDOMParser@xercesc_3_1@@UAEXXZ 10038c05 f   xerces-c_3_1:XercesDOMParser.cpp.obj
 0001:00037c05       ??3@YAXPAXPAVDOMDocumentImpl@xercesc_3_1@@@Z 10038c05 f   xerces-c_3_1:AbstractDOMParser.cpp.obj
 0001:00037c05       ?normalize@DOMTextImpl@xercesc_3_1@@UAEXXZ 10038c05 f   xerces-c_3_1:DOMTextImpl.cpp.obj
 0001:00037c05       ?normalize@DOMNotationImpl@xercesc_3_1@@UAEXXZ 10038c05 f   xerces-c_3_1:DOMNotationImpl.cpp.obj
 0001:00037c05       ?resetErrors@AnnotationErrorReporter@xercesc_3_1@@UAEXXZ 10038c05 f   xerces-c_3_1:TraverseSchema.cpp.obj
 0001:00037c05       ?orphanChild@CMAny@xercesc_3_1@@UAEXXZ 10038c05 f   xerces-c_3_1:CMAny.cpp.obj
 0001:00037c05       ?orphanChild@CMLeaf@xercesc_3_1@@UAEXXZ 10038c05 f   xerces-c_3_1:DFAContentModel.cpp.obj
 0001:00037c05       ??1OutOfMemoryException@xercesc_3_1@@QAE@XZ 10038c05 f   xerces-c_3_1:MemoryManagerImpl.cpp.obj
 0001:00037c05       ?reset@DTDValidator@xercesc_3_1@@UAEXXZ 10038c05 f   xerces-c_3_1:DTDValidator.cpp.obj
 0001:00037c05       ?postParseValidation@SchemaValidator@xercesc_3_1@@UAEXXZ 10038c05 f   xerces-c_3_1:SchemaValidator.cpp.obj
 0001:00037c05       ??1EndOfEntityException@xercesc_3_1@@QAE@XZ 10038c05 f   xerces-c_3_1:ReaderMgr.cpp.obj
 0001:00037c05       ?normalize@DOMCDATASectionImpl@xercesc_3_1@@UAEXXZ 10038c05 f   xerces-c_3_1:DOMCDATASectionImpl.cpp.obj
 0001:00037c05       ?reset@SchemaAttDef@xercesc_3_1@@UAEXXZ 10038c05 f   xerces-c_3_1:SchemaAttDef.cpp.obj
 0001:00037c05       ?startExtSubset@AbstractDOMParser@xercesc_3_1@@UAEXXZ 10038c05 f   xerces-c_3_1:AbstractDOMParser.cpp.obj
 0001:00037c05       ??3@YAXPAXPAVDOMDocument@xercesc_3_1@@@Z 10038c05 f   xerces-c_3_1:AbstractDOMParser.cpp.obj
 0001:00037c05       ?resetEntities@DOMLSParserImpl@xercesc_3_1@@UAEXXZ 10038c05 f   xerces-c_3_1:DOMLSParserImpl.cpp.obj
 0001:00037c05       ?normalize@DOMProcessingInstructionImpl@xercesc_3_1@@UAEXXZ 10038c05 f   xerces-c_3_1:DOMProcessingInstructionImpl.cpp.obj
 0001:00037c06       ?resolveEntity@XercesDOMParser@xercesc_3_1@@UAEPAVInputSource@2@PAVXMLResourceIdentifier@2@@Z 10038c06 f   xerces-c_3_1:XercesDOMParser.cpp.obj
 0001:00037c3b       ??_EXercesDOMParser@xercesc_3_1@@W3AEPAXI@Z 10038c3b f i xerces-c_3_1:XercesDOMParser.cpp.obj
 0001:00037c43       ??_EXercesDOMParser@xercesc_3_1@@W7AEPAXI@Z 10038c43 f i xerces-c_3_1:XercesDOMParser.cpp.obj
 0001:00037c4b       ??_EXercesDOMParser@xercesc_3_1@@WM@AEPAXI@Z 10038c4b f i xerces-c_3_1:XercesDOMParser.cpp.obj
 0001:00037c53       ??_EXercesDOMParser@xercesc_3_1@@WBA@AEPAXI@Z 10038c53 f i xerces-c_3_1:XercesDOMParser.cpp.obj
 0001:00037c5b       ??1XMLErrorReporter@xercesc_3_1@@UAE@XZ 10038c5b f i xerces-c_3_1:AbstractDOMParser.cpp.obj
 0001:00037c62       ??0ArrayIndexOutOfBoundsException@xercesc_3_1@@QAE@ABV01@@Z 10038c62 f i xerces-c_3_1:AbstractDOMParser.cpp.obj
 0001:00037c7d       ??1ArrayIndexOutOfBoundsException@xercesc_3_1@@UAE@XZ 10038c7d f i xerces-c_3_1:AbstractDOMParser.cpp.obj
 0001:00037c88       ?duplicate@ArrayIndexOutOfBoundsException@xercesc_3_1@@UBEPAVXMLException@2@XZ 10038c88 f i xerces-c_3_1:AbstractDOMParser.cpp.obj
 0001:00037cd2       ?getType@ArrayIndexOutOfBoundsException@xercesc_3_1@@UBEPB_WXZ 10038cd2 f i xerces-c_3_1:AbstractDOMParser.cpp.obj
 0001:00037cd8       ??_EArrayIndexOutOfBoundsException@xercesc_3_1@@UAEPAXI@Z 10038cd8 f i  CIL library: CIL module
 0001:00037cd8       ??_GArrayIndexOutOfBoundsException@xercesc_3_1@@UAEPAXI@Z 10038cd8 f i xerces-c_3_1:AbstractDOMParser.cpp.obj
 0001:00037cfd       ?append@XMLBuffer@xercesc_3_1@@QAEX_W@Z 10038cfd f i xerces-c_3_1:AbstractDOMParser.cpp.obj
 0001:00037d25       ?append@XMLBuffer@xercesc_3_1@@QAEXQB_WK@Z 10038d25 f i xerces-c_3_1:AbstractDOMParser.cpp.obj
 0001:00037d69       ?append@XMLBuffer@xercesc_3_1@@QAEXQB_W@Z 10038d69 f i xerces-c_3_1:AbstractDOMParser.cpp.obj
 0001:00037db6       ?hash@XMLString@xercesc_3_1@@SAKQB_WK@Z 10038db6 f i xerces-c_3_1:AbstractDOMParser.cpp.obj
 0001:00037df9       ??1XMLDocumentHandler@xercesc_3_1@@UAE@XZ 10038df9 f i xerces-c_3_1:AbstractDOMParser.cpp.obj
 0001:00037e00       ??_GXMLDocumentHandler@xercesc_3_1@@UAEPAXI@Z 10038e00 f i xerces-c_3_1:AbstractDOMParser.cpp.obj
 0001:00037e00       ??_EXMLDocumentHandler@xercesc_3_1@@UAEPAXI@Z 10038e00 f i  CIL library: CIL module
 0001:00037e20       ??1XMLEntityHandler@xercesc_3_1@@UAE@XZ 10038e20 f i xerces-c_3_1:AbstractDOMParser.cpp.obj
 0001:00037e27       ??_EXMLEntityHandler@xercesc_3_1@@UAEPAXI@Z 10038e27 f i  CIL library: CIL module
 0001:00037e27       ??_GXMLEntityHandler@xercesc_3_1@@UAEPAXI@Z 10038e27 f i xerces-c_3_1:AbstractDOMParser.cpp.obj
 0001:00037e47       ??1DocTypeHandler@xercesc_3_1@@UAE@XZ 10038e47 f i xerces-c_3_1:AbstractDOMParser.cpp.obj
 0001:00037e4e       ??_EDocTypeHandler@xercesc_3_1@@UAEPAXI@Z 10038e4e f i  CIL library: CIL module
 0001:00037e4e       ??_GDocTypeHandler@xercesc_3_1@@UAEPAXI@Z 10038e4e f i xerces-c_3_1:AbstractDOMParser.cpp.obj
 0001:00037e6e       ??1XMLBufBid@xercesc_3_1@@QAE@XZ 10038e6e f i xerces-c_3_1:AbstractDOMParser.cpp.obj
 0001:00037e7b       ??1PSVIHandler@xercesc_3_1@@UAE@XZ 10038e7b f i xerces-c_3_1:AbstractDOMParser.cpp.obj
 0001:00037e82       ??_GPSVIHandler@xercesc_3_1@@UAEPAXI@Z 10038e82 f i xerces-c_3_1:AbstractDOMParser.cpp.obj
 0001:00037e82       ??_EPSVIHandler@xercesc_3_1@@UAEPAXI@Z 10038e82 f i  CIL library: CIL module
 0001:00037ea2       ?getPooledString@DOMDocumentImpl@xercesc_3_1@@QAEPB_WPB_W@Z 10038ea2 f i xerces-c_3_1:AbstractDOMParser.cpp.obj
 0001:00037f27       ?indexofQualifiedName@DOMDocumentImpl@xercesc_3_1@@SAHPB_W@Z 10038f27 f i xerces-c_3_1:AbstractDOMParser.cpp.obj
 0001:00037f70       ??2@YAPAXIPAVDOMDocument@xercesc_3_1@@@Z 10038f70 f i xerces-c_3_1:AbstractDOMParser.cpp.obj
 0001:00037f97       ??0AbstractDOMParser@xercesc_3_1@@IAE@QAVXMLValidator@1@QAVMemoryManager@1@QAVXMLGrammarPool@1@@Z 10038f97 f   xerces-c_3_1:AbstractDOMParser.cpp.obj
 0001:00038095       ??_EAbstractDOMParser@xercesc_3_1@@UAEPAXI@Z 10039095 f i  CIL library: CIL module
 0001:00038095       ??_GAbstractDOMParser@xercesc_3_1@@UAEPAXI@Z 10039095 f i xerces-c_3_1:AbstractDOMParser.cpp.obj
 0001:000380b4       ??1AbstractDOMParser@xercesc_3_1@@UAE@XZ 100390b4 f   xerces-c_3_1:AbstractDOMParser.cpp.obj
 0001:00038130       ?initialize@AbstractDOMParser@xercesc_3_1@@AAEXXZ 10039130 f   xerces-c_3_1:AbstractDOMParser.cpp.obj
 0001:000381b6       ?cleanUp@AbstractDOMParser@xercesc_3_1@@AAEXXZ 100391b6 f   xerces-c_3_1:AbstractDOMParser.cpp.obj
 0001:0003821e       ?reset@AbstractDOMParser@xercesc_3_1@@QAEXXZ 1003921e f   xerces-c_3_1:AbstractDOMParser.cpp.obj
 0001:000382a2       ?resetInProgress@AbstractDOMParser@xercesc_3_1@@AAEXXZ 100392a2 f   xerces-c_3_1:AbstractDOMParser.cpp.obj
 0001:000382a7       ?resetPool@AbstractDOMParser@xercesc_3_1@@IAEXXZ 100392a7 f   xerces-c_3_1:AbstractDOMParser.cpp.obj
 0001:0003832b       ?adoptDocument@AbstractDOMParser@xercesc_3_1@@QAEPAVDOMDocument@2@XZ 1003932b f   xerces-c_3_1:AbstractDOMParser.cpp.obj
 0001:0003833d       ?getDocument@AbstractDOMParser@xercesc_3_1@@QAEPAVDOMDocument@2@XZ 1003933d f   xerces-c_3_1:AbstractDOMParser.cpp.obj
 0001:0003834b       ?getValidationScheme@AbstractDOMParser@xercesc_3_1@@QBE?AW4ValSchemes@12@XZ 1003934b f   xerces-c_3_1:AbstractDOMParser.cpp.obj
 0001:00038362       ?setPSVIHandler@AbstractDOMParser@xercesc_3_1@@UAEXQAVPSVIHandler@2@@Z 10039362 f   xerces-c_3_1:AbstractDOMParser.cpp.obj
 0001:0003838b       ?setValidationScheme@AbstractDOMParser@xercesc_3_1@@QAEXW4ValSchemes@12@@Z 1003938b f   xerces-c_3_1:AbstractDOMParser.cpp.obj
 0001:000383c4       ?setSecurityManager@AbstractDOMParser@xercesc_3_1@@QAEXQAVSecurityManager@2@@Z 100393c4 f   xerces-c_3_1:AbstractDOMParser.cpp.obj
 0001:0003843d       ?setCreateSchemaInfo@AbstractDOMParser@xercesc_3_1@@QAEX_N@Z 1003943d f   xerces-c_3_1:AbstractDOMParser.cpp.obj
 0001:0003845c       ?parse@AbstractDOMParser@xercesc_3_1@@QAEXABVInputSource@2@@Z 1003945c f   xerces-c_3_1:AbstractDOMParser.cpp.obj
 0001:00038522       ?parse@AbstractDOMParser@xercesc_3_1@@QAEXQB_W@Z 10039522 f   xerces-c_3_1:AbstractDOMParser.cpp.obj
 0001:000385e8       ?parse@AbstractDOMParser@xercesc_3_1@@QAEXQBD@Z 100395e8 f   xerces-c_3_1:AbstractDOMParser.cpp.obj
 0001:000386ae       ?handleElementPSVI@AbstractDOMParser@xercesc_3_1@@UAEXQB_W0PAVPSVIElement@2@@Z 100396ae f   xerces-c_3_1:AbstractDOMParser.cpp.obj
 0001:000388d9       ?handlePartialElementPSVI@AbstractDOMParser@xercesc_3_1@@UAEXQB_W0PAVPSVIElement@2@@Z 100398d9 f   xerces-c_3_1:AbstractDOMParser.cpp.obj
 0001:000388ef       ?handleAttributesPSVI@AbstractDOMParser@xercesc_3_1@@UAEXQB_W0PAVPSVIAttributeList@2@@Z 100398ef f   xerces-c_3_1:AbstractDOMParser.cpp.obj
 0001:00038bae       ?docCharacters@AbstractDOMParser@xercesc_3_1@@UAEXQB_WK_N@Z 10039bae f   xerces-c_3_1:AbstractDOMParser.cpp.obj
 0001:00038c0b       ?docComment@AbstractDOMParser@xercesc_3_1@@UAEXQB_W@Z 10039c0b f   xerces-c_3_1:AbstractDOMParser.cpp.obj
 0001:00038c3c       ?docPI@AbstractDOMParser@xercesc_3_1@@UAEXQB_W0@Z 10039c3c f   xerces-c_3_1:AbstractDOMParser.cpp.obj
 0001:00038c6a       ?endEntityReference@AbstractDOMParser@xercesc_3_1@@UAEXABVXMLEntityDecl@2@@Z 10039c6a f   xerces-c_3_1:AbstractDOMParser.cpp.obj
 0001:00038cc4       ?endElement@AbstractDOMParser@xercesc_3_1@@UAEXABVXMLElementDecl@2@I_NQB_W@Z 10039cc4 f   xerces-c_3_1:AbstractDOMParser.cpp.obj
 0001:00038dcd       ?ignorableWhitespace@AbstractDOMParser@xercesc_3_1@@UAEXQB_WK_N@Z 10039dcd f   xerces-c_3_1:AbstractDOMParser.cpp.obj
 0001:00038e47       ?resetDocument@AbstractDOMParser@xercesc_3_1@@UAEXXZ 10039e47 f   xerces-c_3_1:AbstractDOMParser.cpp.obj
 0001:00038e51       ?startDocument@AbstractDOMParser@xercesc_3_1@@UAEXXZ 10039e51 f   xerces-c_3_1:AbstractDOMParser.cpp.obj
 0001:00038efb       ?endDocument@AbstractDOMParser@xercesc_3_1@@UAEXXZ 10039efb f   xerces-c_3_1:AbstractDOMParser.cpp.obj
 0001:00038f24       ?startElement@AbstractDOMParser@xercesc_3_1@@UAEXABVXMLElementDecl@2@IQB_WABV?$RefVectorOf@VXMLAttr@xercesc_3_1@@@2@K_N3@Z 10039f24 f   xerces-c_3_1:AbstractDOMParser.cpp.obj
 0001:00039500       ?startEntityReference@AbstractDOMParser@xercesc_3_1@@UAEXABVXMLEntityDecl@2@@Z 1003a500 f   xerces-c_3_1:AbstractDOMParser.cpp.obj
 0001:00039610       ?XMLDecl@AbstractDOMParser@xercesc_3_1@@UAEXQB_W000@Z 1003a610 f   xerces-c_3_1:AbstractDOMParser.cpp.obj
 0001:0003966a       ?attDef@AbstractDOMParser@xercesc_3_1@@UAEXABVDTDElementDecl@2@ABVDTDAttDef@2@_N@Z 1003a66a f   xerces-c_3_1:AbstractDOMParser.cpp.obj
 0001:0003985e       ?doctypeComment@AbstractDOMParser@xercesc_3_1@@UAEXQB_W@Z 1003a85e f   xerces-c_3_1:AbstractDOMParser.cpp.obj
 0001:000398c4       ?doctypeDecl@AbstractDOMParser@xercesc_3_1@@UAEXABVDTDElementDecl@2@QB_W1_N2@Z 1003a8c4 f   xerces-c_3_1:AbstractDOMParser.cpp.obj
 0001:00039900       ?doctypePI@AbstractDOMParser@xercesc_3_1@@UAEXQB_W0@Z 1003a900 f   xerces-c_3_1:AbstractDOMParser.cpp.obj
 0001:0003995e       ?doctypeWhitespace@AbstractDOMParser@xercesc_3_1@@UAEXQB_WK@Z 1003a95e f   xerces-c_3_1:AbstractDOMParser.cpp.obj
 0001:0003997e       ?elementDecl@AbstractDOMParser@xercesc_3_1@@UAEXABVDTDElementDecl@2@_N@Z 1003a97e f   xerces-c_3_1:AbstractDOMParser.cpp.obj
 0001:000399ff       ?endAttList@AbstractDOMParser@xercesc_3_1@@UAEXABVDTDElementDecl@2@@Z 1003a9ff f   xerces-c_3_1:AbstractDOMParser.cpp.obj
 0001:00039c75       ?endIntSubset@AbstractDOMParser@xercesc_3_1@@UAEXXZ 1003ac75 f   xerces-c_3_1:AbstractDOMParser.cpp.obj
 0001:00039c9f       ?entityDecl@AbstractDOMParser@xercesc_3_1@@UAEXABVDTDEntityDecl@2@_N1@Z 1003ac9f f   xerces-c_3_1:AbstractDOMParser.cpp.obj
 0001:00039e78       ?resetDocType@AbstractDOMParser@xercesc_3_1@@UAEXXZ 1003ae78 f   xerces-c_3_1:AbstractDOMParser.cpp.obj
 0001:00039e7d       ?notationDecl@AbstractDOMParser@xercesc_3_1@@UAEXABVXMLNotationDecl@2@_N@Z 1003ae7d f   xerces-c_3_1:AbstractDOMParser.cpp.obj
 0001:00039fda       ?startAttList@AbstractDOMParser@xercesc_3_1@@UAEXABVDTDElementDecl@2@@Z 1003afda f   xerces-c_3_1:AbstractDOMParser.cpp.obj
 0001:0003a02f       ?startIntSubset@AbstractDOMParser@xercesc_3_1@@UAEXXZ 1003b02f f   xerces-c_3_1:AbstractDOMParser.cpp.obj
 0001:0003a037       ?TextDecl@AbstractDOMParser@xercesc_3_1@@UAEXQB_W0@Z 1003b037 f   xerces-c_3_1:AbstractDOMParser.cpp.obj
 0001:0003a080       ?createCDATASection@AbstractDOMParser@xercesc_3_1@@MAEPAVDOMCDATASection@2@PB_WK@Z 1003b080 f   xerces-c_3_1:AbstractDOMParser.cpp.obj
 0001:0003a10e       ?createText@AbstractDOMParser@xercesc_3_1@@MAEPAVDOMText@2@PB_WK@Z 1003b10e f   xerces-c_3_1:AbstractDOMParser.cpp.obj
 0001:0003a19c       ?createElement@AbstractDOMParser@xercesc_3_1@@MAEPAVDOMElement@2@PB_W@Z 1003b19c f   xerces-c_3_1:AbstractDOMParser.cpp.obj
 0001:0003a1e4       ?createElementNS@AbstractDOMParser@xercesc_3_1@@MAEPAVDOMElement@2@PB_W000@Z 1003b1e4 f   xerces-c_3_1:AbstractDOMParser.cpp.obj
 0001:0003a235       ?createAttr@AbstractDOMParser@xercesc_3_1@@MAEPAVDOMAttr@2@PB_W@Z 1003b235 f   xerces-c_3_1:AbstractDOMParser.cpp.obj
 0001:0003a280       ?createAttrNS@AbstractDOMParser@xercesc_3_1@@MAEPAVDOMAttr@2@PB_W000@Z 1003b280 f   xerces-c_3_1:AbstractDOMParser.cpp.obj
 0001:0003a2d1       ??1?$BaseRefVectorOf@VDOMDocumentImpl@xercesc_3_1@@@xercesc_3_1@@UAE@XZ 1003b2d1 f i xerces-c_3_1:AbstractDOMParser.cpp.obj
 0001:0003a2d8       ??0?$RefVectorOf@VDOMDocumentImpl@xercesc_3_1@@@xercesc_3_1@@QAE@K_NQAVMemoryManager@1@@Z 1003b2d8 f i xerces-c_3_1:AbstractDOMParser.cpp.obj
 0001:0003a318       ?elementAt@?$BaseRefVectorOf@VXMLAttr@xercesc_3_1@@@xercesc_3_1@@QBEPBVXMLAttr@2@K@Z 1003b318 f i xerces-c_3_1:AbstractDOMParser.cpp.obj
 0001:0003a364       ??_G?$BaseRefVectorOf@VDOMDocumentImpl@xercesc_3_1@@@xercesc_3_1@@UAEPAXI@Z 1003b364 f i xerces-c_3_1:AbstractDOMParser.cpp.obj
 0001:0003a364       ??_E?$BaseRefVectorOf@VDOMDocumentImpl@xercesc_3_1@@@xercesc_3_1@@UAEPAXI@Z 1003b364 f i  CIL library: CIL module
 0001:0003a384       ??_E?$RefVectorOf@VDOMDocumentImpl@xercesc_3_1@@@xercesc_3_1@@UAEPAXI@Z 1003b384 f i  CIL library: CIL module
 0001:0003a384       ??_G?$RefVectorOf@VDOMDocumentImpl@xercesc_3_1@@@xercesc_3_1@@UAEPAXI@Z 1003b384 f i xerces-c_3_1:AbstractDOMParser.cpp.obj
 0001:0003a3f7       ??_EAbstractDOMParser@xercesc_3_1@@W3AEPAXI@Z 1003b3f7 f i xerces-c_3_1:AbstractDOMParser.cpp.obj
 0001:0003a3ff       ??_EAbstractDOMParser@xercesc_3_1@@W7AEPAXI@Z 1003b3ff f i xerces-c_3_1:AbstractDOMParser.cpp.obj
 0001:0003a407       ??_EAbstractDOMParser@xercesc_3_1@@WM@AEPAXI@Z 1003b407 f i xerces-c_3_1:AbstractDOMParser.cpp.obj
 0001:0003a40f       ??_EAbstractDOMParser@xercesc_3_1@@WBA@AEPAXI@Z 1003b40f f i xerces-c_3_1:AbstractDOMParser.cpp.obj
 0001:0003a417       ??_GSAXParseException@xercesc_3_1@@UAEPAXI@Z 1003b417 f i xerces-c_3_1:SAXParseException.cpp.obj
 0001:0003a417       ??_ESAXParseException@xercesc_3_1@@UAEPAXI@Z 1003b417 f i  CIL library: CIL module
 0001:0003a436       ??0SAXParseException@xercesc_3_1@@QAE@QB_W00_K1QAVMemoryManager@1@@Z 1003b436 f   xerces-c_3_1:SAXParseException.cpp.obj
 0001:0003a4a8       ??0SAXParseException@xercesc_3_1@@QAE@ABV01@@Z 1003b4a8 f   xerces-c_3_1:SAXParseException.cpp.obj
 0001:0003a51e       ??1SAXParseException@xercesc_3_1@@UAE@XZ 1003b51e f   xerces-c_3_1:SAXParseException.cpp.obj
 0001:0003a571       ?validateRegion@XMLString@xercesc_3_1@@CA_NQB_WH0HK@Z 1003b571 f i xerces-c_3_1:XMLString.cpp.obj
 0001:0003a5a6       ??0IllegalArgumentException@xercesc_3_1@@QAE@ABV01@@Z 1003b5a6 f i xerces-c_3_1:XMLString.cpp.obj
 0001:0003a5c1       ??1IllegalArgumentException@xercesc_3_1@@UAE@XZ 1003b5c1 f i xerces-c_3_1:XMLString.cpp.obj
 0001:0003a5cc       ?duplicate@IllegalArgumentException@xercesc_3_1@@UBEPAVXMLException@2@XZ 1003b5cc f i xerces-c_3_1:XMLString.cpp.obj
 0001:0003a616       ?getType@IllegalArgumentException@xercesc_3_1@@UBEPB_WXZ 1003b616 f i xerces-c_3_1:XMLString.cpp.obj
 0001:0003a61c       ??_EIllegalArgumentException@xercesc_3_1@@UAEPAXI@Z 1003b61c f i  CIL library: CIL module
 0001:0003a61c       ??_GIllegalArgumentException@xercesc_3_1@@UAEPAXI@Z 1003b61c f i xerces-c_3_1:XMLString.cpp.obj
 0001:0003a641       ??0NumberFormatException@xercesc_3_1@@QAE@ABV01@@Z 1003b641 f i xerces-c_3_1:XMLString.cpp.obj
 0001:0003a65c       ??1NumberFormatException@xercesc_3_1@@UAE@XZ 1003b65c f i xerces-c_3_1:XMLString.cpp.obj
 0001:0003a667       ?duplicate@NumberFormatException@xercesc_3_1@@UBEPAVXMLException@2@XZ 1003b667 f i xerces-c_3_1:XMLString.cpp.obj
 0001:0003a6b1       ?getType@NumberFormatException@xercesc_3_1@@UBEPB_WXZ 1003b6b1 f i xerces-c_3_1:XMLString.cpp.obj
 0001:0003a6b7       ??_GNumberFormatException@xercesc_3_1@@UAEPAXI@Z 1003b6b7 f i xerces-c_3_1:XMLString.cpp.obj
 0001:0003a6b7       ??_ENumberFormatException@xercesc_3_1@@UAEPAXI@Z 1003b6b7 f i  CIL library: CIL module
 0001:0003a6dc       ?cut@XMLString@xercesc_3_1@@SAXQA_WK@Z 1003b6dc f   xerces-c_3_1:XMLString.cpp.obj
 0001:0003a706       ?replaceTokens@XMLString@xercesc_3_1@@SAKQA_WKQB_W111QAVMemoryManager@2@@Z 1003b706 f   xerces-c_3_1:XMLString.cpp.obj
 0001:0003a7e9       ?replicate@XMLString@xercesc_3_1@@SAPADQBDQAVMemoryManager@2@@Z 1003b7e9 f   xerces-c_3_1:XMLString.cpp.obj
 0001:0003a823       ?transcode@XMLString@xercesc_3_1@@SAPADQB_WQAVMemoryManager@2@@Z 1003b823 f   xerces-c_3_1:XMLString.cpp.obj
 0001:0003a839       ?transcode@XMLString@xercesc_3_1@@SAPA_WQBDQAVMemoryManager@2@@Z 1003b839 f   xerces-c_3_1:XMLString.cpp.obj
 0001:0003a84f       ?isValidNOTATION@XMLString@xercesc_3_1@@SA_NQB_WQAVMemoryManager@2@@Z 1003b84f f   xerces-c_3_1:XMLString.cpp.obj
 0001:0003a91e       ?isValidEncName@XMLString@xercesc_3_1@@SA_NQB_W@Z 1003b91e f   xerces-c_3_1:XMLString.cpp.obj
 0001:0003a970       ?isAlpha@XMLString@xercesc_3_1@@SA_N_W@Z 1003b970 f   xerces-c_3_1:XMLString.cpp.obj
 0001:0003a98b       ?isAlphaNum@XMLString@xercesc_3_1@@SA_N_W@Z 1003b98b f   xerces-c_3_1:XMLString.cpp.obj
 0001:0003a9a6       ?isHex@XMLString@xercesc_3_1@@SA_N_W@Z 1003b9a6 f   xerces-c_3_1:XMLString.cpp.obj
 0001:0003a9ce       ?sizeToText@XMLString@xercesc_3_1@@SAXKQA_WKIQAVMemoryManager@2@@Z 1003b9ce f   xerces-c_3_1:XMLString.cpp.obj
 0001:0003ab0f       ?binToText@XMLString@xercesc_3_1@@SAXKQA_WKIQAVMemoryManager@2@@Z 1003bb0f f   xerces-c_3_1:XMLString.cpp.obj
 0001:0003acba       ?binToText@XMLString@xercesc_3_1@@SAXHQA_WKIQAVMemoryManager@2@@Z 1003bcba f   xerces-c_3_1:XMLString.cpp.obj
 0001:0003ace7       ?catString@XMLString@xercesc_3_1@@SAXQA_WQB_W@Z 1003bce7 f   xerces-c_3_1:XMLString.cpp.obj
 0001:0003ad0c       ?compareIStringASCII@XMLString@xercesc_3_1@@SAHQB_W0@Z 1003bd0c f   xerces-c_3_1:XMLString.cpp.obj
 0001:0003ad74       ?compareNString@XMLString@xercesc_3_1@@SAHQB_W0K@Z 1003bd74 f   xerces-c_3_1:XMLString.cpp.obj
 0001:0003ada7       ?compareNIString@XMLString@xercesc_3_1@@SAHQB_W0K@Z 1003bda7 f   xerces-c_3_1:XMLString.cpp.obj
 0001:0003adc0       ?compareString@XMLString@xercesc_3_1@@SAHQB_W0@Z 1003bdc0 f   xerces-c_3_1:XMLString.cpp.obj
 0001:0003adfd       ?regionMatches@XMLString@xercesc_3_1@@SA_NQB_WH0HK@Z 1003bdfd f   xerces-c_3_1:XMLString.cpp.obj
 0001:0003ae37       ?regionIMatches@XMLString@xercesc_3_1@@SA_NQB_WH0HK@Z 1003be37 f   xerces-c_3_1:XMLString.cpp.obj
 0001:0003ae75       ?copyString@XMLString@xercesc_3_1@@SAXQA_WQB_W@Z 1003be75 f   xerces-c_3_1:XMLString.cpp.obj
 0001:0003ae9e       ?copyNString@XMLString@xercesc_3_1@@SA_NQA_WQB_WK@Z 1003be9e f   xerces-c_3_1:XMLString.cpp.obj
 0001:0003aedf       ?findAny@XMLString@xercesc_3_1@@SAPA_WQA_WQB_W@Z 1003bedf f   xerces-c_3_1:XMLString.cpp.obj
 0001:0003aedf       ?findAny@XMLString@xercesc_3_1@@SAPB_WQB_W0@Z 1003bedf f   xerces-c_3_1:XMLString.cpp.obj
 0001:0003af17       ?patternMatch@XMLString@xercesc_3_1@@SAHQB_W0@Z 1003bf17 f   xerces-c_3_1:XMLString.cpp.obj
 0001:0003af73       ?indexOf@XMLString@xercesc_3_1@@SAHQB_W_W@Z 1003bf73 f   xerces-c_3_1:XMLString.cpp.obj
 0001:0003afa0       ?indexOf@XMLString@xercesc_3_1@@SAHQB_W_WKQAVMemoryManager@2@@Z 1003bfa0 f   xerces-c_3_1:XMLString.cpp.obj
 0001:0003b022       ?lastIndexOf@XMLString@xercesc_3_1@@SAH_WQB_WK@Z 1003c022 f   xerces-c_3_1:XMLString.cpp.obj
 0001:0003b048       ?textToBin@XMLString@xercesc_3_1@@SA_NQB_WAAIQAVMemoryManager@2@@Z 1003c048 f   xerces-c_3_1:XMLString.cpp.obj
 0001:0003b132       ?parseInt@XMLString@xercesc_3_1@@SAHQB_WQAVMemoryManager@2@@Z 1003c132 f   xerces-c_3_1:XMLString.cpp.obj
 0001:0003b307       ?trim@XMLString@xercesc_3_1@@SAXQA_W@Z 1003c307 f   xerces-c_3_1:XMLString.cpp.obj
 0001:0003b370       ?upperCaseASCII@XMLString@xercesc_3_1@@SAXQA_W@Z 1003c370 f   xerces-c_3_1:XMLString.cpp.obj
 0001:0003b38f       ?subString@XMLString@xercesc_3_1@@SAXQA_WQB_WKKQAVMemoryManager@2@@Z 1003c38f f   xerces-c_3_1:XMLString.cpp.obj
 0001:0003b3b1       ?subString@XMLString@xercesc_3_1@@SAXQA_WQB_WKKKQAVMemoryManager@2@@Z 1003c3b1 f   xerces-c_3_1:XMLString.cpp.obj
 0001:0003b48d       ?tokenizeString@XMLString@xercesc_3_1@@SAPAV?$BaseRefVectorOf@_W@2@QB_W_WQAVMemoryManager@2@@Z 1003c48d f   xerces-c_3_1:XMLString.cpp.obj
 0001:0003b598       ?tokenizeString@XMLString@xercesc_3_1@@SAPAV?$BaseRefVectorOf@_W@2@QB_WQAVMemoryManager@2@@Z 1003c598 f   xerces-c_3_1:XMLString.cpp.obj
 0001:0003b6a9       ?isInList@XMLString@xercesc_3_1@@SA_NQB_W0@Z 1003c6a9 f   xerces-c_3_1:XMLString.cpp.obj
 0001:0003b715       ?isWSReplaced@XMLString@xercesc_3_1@@SA_NQB_W@Z 1003c715 f   xerces-c_3_1:XMLString.cpp.obj
 0001:0003b73e       ?replaceWS@XMLString@xercesc_3_1@@SAXPA_WQAVMemoryManager@2@@Z 1003c73e f   xerces-c_3_1:XMLString.cpp.obj
 0001:0003b763       ?isWSCollapsed@XMLString@xercesc_3_1@@SA_NQB_W@Z 1003c763 f   xerces-c_3_1:XMLString.cpp.obj
 0001:0003b7ba       ?collapseWS@XMLString@xercesc_3_1@@SAXPA_WQAVMemoryManager@2@@Z 1003c7ba f   xerces-c_3_1:XMLString.cpp.obj
 0001:0003b871       ?removeWS@XMLString@xercesc_3_1@@SAXPA_WQAVMemoryManager@2@@Z 1003c871 f   xerces-c_3_1:XMLString.cpp.obj
 0001:0003b8a5       ?removeChar@XMLString@xercesc_3_1@@SAXQB_WAB_WAAVXMLBuffer@2@@Z 1003c8a5 f   xerces-c_3_1:XMLString.cpp.obj
 0001:0003b8d9       ?fixURI@XMLString@xercesc_3_1@@SAXQB_WQA_W@Z 1003c8d9 f   xerces-c_3_1:XMLString.cpp.obj
 0001:0003b9e0       ??1?$BaseRefVectorOf@_W@xercesc_3_1@@UAE@XZ 1003c9e0 f i xerces-c_3_1:XMLString.cpp.obj
 0001:0003b9e7       ?setElementAt@?$BaseRefVectorOf@_W@xercesc_3_1@@UAEXQA_WK@Z 1003c9e7 f i xerces-c_3_1:XMLString.cpp.obj
 0001:0003ba62       ?removeAllElements@?$BaseRefVectorOf@_W@xercesc_3_1@@UAEXXZ 1003ca62 f i xerces-c_3_1:XMLString.cpp.obj
 0001:0003ba93       ?removeElementAt@?$BaseRefVectorOf@_W@xercesc_3_1@@UAEXK@Z 1003ca93 f i xerces-c_3_1:XMLString.cpp.obj
 0001:0003bb41       ?removeLastElement@?$BaseRefVectorOf@_W@xercesc_3_1@@UAEXXZ 1003cb41 f i xerces-c_3_1:XMLString.cpp.obj
 0001:0003bb5f       ?cleanup@?$BaseRefVectorOf@_W@xercesc_3_1@@UAEXXZ 1003cb5f f i xerces-c_3_1:XMLString.cpp.obj
 0001:0003bb90       ??0?$RefArrayVectorOf@_W@xercesc_3_1@@QAE@K_NQAVMemoryManager@1@@Z 1003cb90 f i xerces-c_3_1:XMLString.cpp.obj
 0001:0003bba4       ?setElementAt@?$RefArrayVectorOf@_W@xercesc_3_1@@UAEXQA_WK@Z 1003cba4 f i xerces-c_3_1:XMLString.cpp.obj
 0001:0003bc21       ?removeAllElements@?$RefArrayVectorOf@_W@xercesc_3_1@@UAEXXZ 1003cc21 f i xerces-c_3_1:XMLString.cpp.obj
 0001:0003bc54       ?removeElementAt@?$RefArrayVectorOf@_W@xercesc_3_1@@UAEXK@Z 1003cc54 f i xerces-c_3_1:XMLString.cpp.obj
 0001:0003bd01       ?removeLastElement@?$RefArrayVectorOf@_W@xercesc_3_1@@UAEXXZ 1003cd01 f i xerces-c_3_1:XMLString.cpp.obj
 0001:0003bd27       ?cleanup@?$RefArrayVectorOf@_W@xercesc_3_1@@UAEXXZ 1003cd27 f i xerces-c_3_1:XMLString.cpp.obj
 0001:0003bd5a       ??_E?$BaseRefVectorOf@_W@xercesc_3_1@@UAEPAXI@Z 1003cd5a f i  CIL library: CIL module
 0001:0003bd5a       ??_G?$BaseRefVectorOf@_W@xercesc_3_1@@UAEPAXI@Z 1003cd5a f i xerces-c_3_1:XMLString.cpp.obj
 0001:0003bd7a       ??_G?$RefArrayVectorOf@_W@xercesc_3_1@@UAEPAXI@Z 1003cd7a f i xerces-c_3_1:XMLString.cpp.obj
 0001:0003bd7a       ??_E?$RefArrayVectorOf@_W@xercesc_3_1@@UAEPAXI@Z 1003cd7a f i  CIL library: CIL module
 0001:0003bdeb       ??0?$BaseRefVectorOf@_W@xercesc_3_1@@QAE@K_NQAVMemoryManager@1@@Z 1003cdeb f i xerces-c_3_1:XMLString.cpp.obj
 0001:0003be25       ??2XMemory@xercesc_3_1@@SAPAXI@Z 1003ce25 f   xerces-c_3_1:XMemory.cpp.obj
 0001:0003be40       ??3XMemory@xercesc_3_1@@SAXPAXPAVMemoryManager@1@@Z 1003ce40 f   xerces-c_3_1:XMemory.cpp.obj
 0001:0003be40       ??3XMemory@xercesc_3_1@@SAXPAX@Z 1003ce40 f   xerces-c_3_1:XMemory.cpp.obj
 0001:0003be50       ??1BinInputStream@xercesc_3_1@@UAE@XZ 1003ce50 f   xerces-c_3_1:BinInputStream.cpp.obj
 0001:0003be57       ??_GBinInputStream@xercesc_3_1@@UAEPAXI@Z 1003ce57 f i xerces-c_3_1:BinInputStream.cpp.obj
 0001:0003be57       ??_EBinInputStream@xercesc_3_1@@UAEPAXI@Z 1003ce57 f i  CIL library: CIL module
 0001:0003be77       ??1InputSource@xercesc_3_1@@UAE@XZ 1003ce77 f   xerces-c_3_1:InputSource.cpp.obj
 0001:0003bea3       ??_GInputSource@xercesc_3_1@@UAEPAXI@Z 1003cea3 f i xerces-c_3_1:InputSource.cpp.obj
 0001:0003bea3       ??_EInputSource@xercesc_3_1@@UAEPAXI@Z 1003cea3 f i  CIL library: CIL module
 0001:0003bec2       ?setEncoding@InputSource@xercesc_3_1@@UAEXQB_W@Z 1003cec2 f   xerces-c_3_1:InputSource.cpp.obj
 0001:0003bee9       ?setPublicId@InputSource@xercesc_3_1@@UAEXQB_W@Z 1003cee9 f   xerces-c_3_1:InputSource.cpp.obj
 0001:0003bf10       ?setSystemId@InputSource@xercesc_3_1@@UAEXQB_W@Z 1003cf10 f   xerces-c_3_1:InputSource.cpp.obj
 0001:0003bf37       ??0BinFileInputStream@xercesc_3_1@@QAE@QB_WQAVMemoryManager@1@@Z 1003cf37 f   xerces-c_3_1:BinFileInputStream.cpp.obj
 0001:0003bfb6       ??_GBinFileInputStream@xercesc_3_1@@UAEPAXI@Z 1003cfb6 f i xerces-c_3_1:BinFileInputStream.cpp.obj
 0001:0003bfb6       ??_EBinFileInputStream@xercesc_3_1@@UAEPAXI@Z 1003cfb6 f i  CIL library: CIL module
 0001:0003bfd5       ??1BinFileInputStream@xercesc_3_1@@UAE@XZ 1003cfd5 f   xerces-c_3_1:BinFileInputStream.cpp.obj
 0001:0003c028       ?getSize@BinFileInputStream@xercesc_3_1@@QBE_KXZ 1003d028 f   xerces-c_3_1:BinFileInputStream.cpp.obj
 0001:0003c096       ?curPos@BinFileInputStream@xercesc_3_1@@UBE_KXZ 1003d096 f   xerces-c_3_1:BinFileInputStream.cpp.obj
 0001:0003c101       ?readBytes@BinFileInputStream@xercesc_3_1@@UAEKQAEK@Z 1003d101 f   xerces-c_3_1:BinFileInputStream.cpp.obj
 0001:0003c174       ??0LocalFileInputSource@xercesc_3_1@@QAE@QB_W0QAVMemoryManager@1@@Z 1003d174 f   xerces-c_3_1:LocalFileInputSource.cpp.obj
 0001:0003c20c       ??_GLocalFileInputSource@xercesc_3_1@@UAEPAXI@Z 1003d20c f i xerces-c_3_1:LocalFileInputSource.cpp.obj
 0001:0003c20c       ??_ELocalFileInputSource@xercesc_3_1@@UAEPAXI@Z 1003d20c f i  CIL library: CIL module
 0001:0003c231       ??0LocalFileInputSource@xercesc_3_1@@QAE@QB_WQAVMemoryManager@1@@Z 1003d231 f   xerces-c_3_1:LocalFileInputSource.cpp.obj
 0001:0003c32c       ??1LocalFileInputSource@xercesc_3_1@@UAE@XZ 1003d32c f   xerces-c_3_1:LocalFileInputSource.cpp.obj
 0001:0003c337       ?makeStream@LocalFileInputSource@xercesc_3_1@@UBEPAVBinInputStream@2@XZ 1003d337 f   xerces-c_3_1:LocalFileInputSource.cpp.obj
 0001:0003c399       ?panic@DefaultPanicHandler@xercesc_3_1@@UAEXW4PanicReasons@PanicHandler@2@@Z 1003d399 f   xerces-c_3_1:DefaultPanicHandler.cpp.obj
 0001:0003c42d       ??0OutOfMemoryException@xercesc_3_1@@QAE@ABV01@@Z 1003d42d f i xerces-c_3_1:MemoryManagerImpl.cpp.obj
 0001:0003c432       ?getExceptionMemoryManager@MemoryManagerImpl@xercesc_3_1@@UAEPAVMemoryManager@2@XZ 1003d432 f   xerces-c_3_1:MemoryManagerImpl.cpp.obj
 0001:0003c435       ?allocate@MemoryManagerImpl@xercesc_3_1@@UAEPAXK@Z 1003d435 f   xerces-c_3_1:MemoryManagerImpl.cpp.obj
 0001:0003c489       ?deallocate@MemoryManagerImpl@xercesc_3_1@@UAEXPAX@Z 1003d489 f   xerces-c_3_1:MemoryManagerImpl.cpp.obj
 0001:0003c49f       ??1ENameMap@xercesc_3_1@@UAE@XZ 1003d49f f i xerces-c_3_1:TransService.cpp.obj
 0001:0003c4b5       ??0ENameMap@xercesc_3_1@@IAE@QB_W@Z 1003d4b5 f i xerces-c_3_1:TransService.cpp.obj
 0001:0003c4d8       ??_GENameMap@xercesc_3_1@@UAEPAXI@Z 1003d4d8 f i xerces-c_3_1:TransService.cpp.obj
 0001:0003c4d8       ??_EENameMap@xercesc_3_1@@UAEPAXI@Z 1003d4d8 f i  CIL library: CIL module
 0001:0003c4f7       ??0TranscodingException@xercesc_3_1@@QAE@ABV01@@Z 1003d4f7 f i xerces-c_3_1:TransService.cpp.obj
 0001:0003c512       ??1TranscodingException@xercesc_3_1@@UAE@XZ 1003d512 f i xerces-c_3_1:TransService.cpp.obj
 0001:0003c51d       ?duplicate@TranscodingException@xercesc_3_1@@UBEPAVXMLException@2@XZ 1003d51d f i xerces-c_3_1:TransService.cpp.obj
 0001:0003c567       ?getType@TranscodingException@xercesc_3_1@@UBEPB_WXZ 1003d567 f i xerces-c_3_1:TransService.cpp.obj
 0001:0003c56d       ??_GTranscodingException@xercesc_3_1@@UAEPAXI@Z 1003d56d f i xerces-c_3_1:TransService.cpp.obj
 0001:0003c56d       ??_ETranscodingException@xercesc_3_1@@UAEPAXI@Z 1003d56d f i  CIL library: CIL module
 0001:0003c592       ?initializeTransService@XMLInitializer@xercesc_3_1@@KAXXZ 1003d592 f   xerces-c_3_1:TransService.cpp.obj
 0001:0003c5f9       ??_GXMLTransService@xercesc_3_1@@UAEPAXI@Z 1003d5f9 f i xerces-c_3_1:TransService.cpp.obj
 0001:0003c5f9       ??_EXMLTransService@xercesc_3_1@@UAEPAXI@Z 1003d5f9 f i  CIL library: CIL module
 0001:0003c619       ??1XMLTransService@xercesc_3_1@@UAE@XZ 1003d619 f   xerces-c_3_1:TransService.cpp.obj
 0001:0003c620       ?makeNewTranscoderFor@XMLTransService@xercesc_3_1@@QAEPAVXMLTranscoder@2@QBDAAW4Codes@12@KQAVMemoryManager@2@@Z 1003d620 f   xerces-c_3_1:TransService.cpp.obj
 0001:0003c67d       ?makeNewTranscoderFor@XMLTransService@xercesc_3_1@@QAEPAVXMLTranscoder@2@QB_WAAW4Codes@12@KQAVMemoryManager@2@@Z 1003d67d f   xerces-c_3_1:TransService.cpp.obj
 0001:0003c75b       ?makeNewTranscoderFor@XMLTransService@xercesc_3_1@@QAEPAVXMLTranscoder@2@W4Encodings@XMLRecognizer@2@AAW4Codes@12@KQAVMemoryManager@2@@Z 1003d75b f   xerces-c_3_1:TransService.cpp.obj
 0001:0003c838       ?initTransService@XMLTransService@xercesc_3_1@@MAEXXZ 1003d838 f   xerces-c_3_1:TransService.cpp.obj
 0001:0003d46b       ??1XMLTranscoder@xercesc_3_1@@UAE@XZ 1003e46b f   xerces-c_3_1:TransService.cpp.obj
 0001:0003d47f       ??_GXMLTranscoder@xercesc_3_1@@UAEPAXI@Z 1003e47f f i xerces-c_3_1:TransService.cpp.obj
 0001:0003d47f       ??_EXMLTranscoder@xercesc_3_1@@UAEPAXI@Z 1003e47f f i  CIL library: CIL module
 0001:0003d49e       ??0XMLTranscoder@xercesc_3_1@@IAE@QB_WKQAVMemoryManager@1@@Z 1003e49e f   xerces-c_3_1:TransService.cpp.obj
 0001:0003d4c7       ??0TranscodeToStr@xercesc_3_1@@QAE@PB_WPAVXMLTranscoder@1@PAVMemoryManager@1@@Z 1003e4c7 f   xerces-c_3_1:TransService.cpp.obj
 0001:0003d50f       ??1TranscodeToStr@xercesc_3_1@@QAE@XZ 1003e50f f   xerces-c_3_1:TransService.cpp.obj
 0001:0003d514       ?transcode@TranscodeToStr@xercesc_3_1@@AAEXPB_WKPAVXMLTranscoder@2@@Z 1003e514 f   xerces-c_3_1:TransService.cpp.obj
 0001:0003d67a       ?transcode@TranscodeFromStr@xercesc_3_1@@AAEXPBEKPAVXMLTranscoder@2@@Z 1003e67a f   xerces-c_3_1:TransService.cpp.obj
 0001:0003d825       ?reset@?$ArrayJanitor@E@xercesc_3_1@@QAEXPAEQAVMemoryManager@2@@Z 1003e825 f i xerces-c_3_1:TransService.cpp.obj
 0001:0003d825       ?reset@?$ArrayJanitor@_W@xercesc_3_1@@QAEXPA_WQAVMemoryManager@2@@Z 1003e825 f i xerces-c_3_1:TransService.cpp.obj
 0001:0003d857       ??0?$RefHashTableOf@VENameMap@xercesc_3_1@@UStringHasher@2@@xercesc_3_1@@QAE@KQAVMemoryManager@1@@Z 1003e857 f i xerces-c_3_1:TransService.cpp.obj
 0001:0003d89b       ?put@?$RefHashTableOf@VENameMap@xercesc_3_1@@UStringHasher@2@@xercesc_3_1@@QAEXPAXQAVENameMap@2@@Z 1003e89b f i xerces-c_3_1:TransService.cpp.obj
 0001:0003d922       ??1?$BaseRefVectorOf@VENameMap@xercesc_3_1@@@xercesc_3_1@@UAE@XZ 1003e922 f i xerces-c_3_1:TransService.cpp.obj
 0001:0003d929       ?addElement@?$BaseRefVectorOf@VENameMap@xercesc_3_1@@@xercesc_3_1@@QAEXQAVENameMap@2@@Z 1003e929 f i xerces-c_3_1:TransService.cpp.obj
 0001:0003d9a9       ??0?$RefVectorOf@VENameMap@xercesc_3_1@@@xercesc_3_1@@QAE@K_NQAVMemoryManager@1@@Z 1003e9a9 f i xerces-c_3_1:TransService.cpp.obj
 0001:0003d9f0       ?makeNew@?$ENameMapFor@VXMLChTranscoder@xercesc_3_1@@@xercesc_3_1@@UBEPAVXMLTranscoder@2@KQAVMemoryManager@2@@Z 1003e9f0 f i xerces-c_3_1:TransService.cpp.obj
 0001:0003da42       ?makeNew@?$ENameMapFor@VXMLASCIITranscoder@xercesc_3_1@@@xercesc_3_1@@UBEPAVXMLTranscoder@2@KQAVMemoryManager@2@@Z 1003ea42 f i xerces-c_3_1:TransService.cpp.obj
 0001:0003da94       ?makeNew@?$ENameMapFor@VXMLUTF8Transcoder@xercesc_3_1@@@xercesc_3_1@@UBEPAVXMLTranscoder@2@KQAVMemoryManager@2@@Z 1003ea94 f i xerces-c_3_1:TransService.cpp.obj
 0001:0003dae6       ?makeNew@?$ENameMapFor@VXML88591Transcoder@xercesc_3_1@@@xercesc_3_1@@UBEPAVXMLTranscoder@2@KQAVMemoryManager@2@@Z 1003eae6 f i xerces-c_3_1:TransService.cpp.obj
 0001:0003db38       ??0?$EEndianNameMapFor@VXMLUTF16Transcoder@xercesc_3_1@@@xercesc_3_1@@QAE@QB_W_N@Z 1003eb38 f i xerces-c_3_1:TransService.cpp.obj
 0001:0003db59       ?makeNew@?$EEndianNameMapFor@VXMLUTF16Transcoder@xercesc_3_1@@@xercesc_3_1@@UBEPAVXMLTranscoder@2@KQAVMemoryManager@2@@Z 1003eb59 f i xerces-c_3_1:TransService.cpp.obj
 0001:0003dbb8       ??0?$EEndianNameMapFor@VXMLUCS4Transcoder@xercesc_3_1@@@xercesc_3_1@@QAE@QB_W_N@Z 1003ebb8 f i xerces-c_3_1:TransService.cpp.obj
 0001:0003dbd9       ?makeNew@?$EEndianNameMapFor@VXMLUCS4Transcoder@xercesc_3_1@@@xercesc_3_1@@UBEPAVXMLTranscoder@2@KQAVMemoryManager@2@@Z 1003ebd9 f i xerces-c_3_1:TransService.cpp.obj
 0001:0003dc38       ?makeNew@?$ENameMapFor@VXMLEBCDICTranscoder@xercesc_3_1@@@xercesc_3_1@@UBEPAVXMLTranscoder@2@KQAVMemoryManager@2@@Z 1003ec38 f i xerces-c_3_1:TransService.cpp.obj
 0001:0003dc9f       ?makeNew@?$ENameMapFor@VXMLIBM1047Transcoder@xercesc_3_1@@@xercesc_3_1@@UBEPAVXMLTranscoder@2@KQAVMemoryManager@2@@Z 1003ec9f f i xerces-c_3_1:TransService.cpp.obj
 0001:0003dd06       ?makeNew@?$ENameMapFor@VXMLIBM1140Transcoder@xercesc_3_1@@@xercesc_3_1@@UBEPAVXMLTranscoder@2@KQAVMemoryManager@2@@Z 1003ed06 f i xerces-c_3_1:TransService.cpp.obj
 0001:0003dd6d       ?makeNew@?$ENameMapFor@VXMLWin1252Transcoder@xercesc_3_1@@@xercesc_3_1@@UBEPAVXMLTranscoder@2@KQAVMemoryManager@2@@Z 1003ed6d f i xerces-c_3_1:TransService.cpp.obj
 0001:0003ddd4       ??_G?$BaseRefVectorOf@VENameMap@xercesc_3_1@@@xercesc_3_1@@UAEPAXI@Z 1003edd4 f i xerces-c_3_1:TransService.cpp.obj
 0001:0003ddd4       ??_E?$BaseRefVectorOf@VENameMap@xercesc_3_1@@@xercesc_3_1@@UAEPAXI@Z 1003edd4 f i  CIL library: CIL module
 0001:0003ddf4       ??_G?$RefVectorOf@VENameMap@xercesc_3_1@@@xercesc_3_1@@UAEPAXI@Z 1003edf4 f i xerces-c_3_1:TransService.cpp.obj
 0001:0003ddf4       ??_E?$RefVectorOf@VENameMap@xercesc_3_1@@@xercesc_3_1@@UAEPAXI@Z 1003edf4 f i  CIL library: CIL module
 0001:0003de67       ??_G?$ENameMapFor@VXMLChTranscoder@xercesc_3_1@@@xercesc_3_1@@UAEPAXI@Z 1003ee67 f i xerces-c_3_1:TransService.cpp.obj
 0001:0003de67       ??_E?$ENameMapFor@VXMLChTranscoder@xercesc_3_1@@@xercesc_3_1@@UAEPAXI@Z 1003ee67 f i  CIL library: CIL module
 0001:0003de8c       ??_G?$ENameMapFor@VXMLASCIITranscoder@xercesc_3_1@@@xercesc_3_1@@UAEPAXI@Z 1003ee8c f i xerces-c_3_1:TransService.cpp.obj
 0001:0003de8c       ??_E?$ENameMapFor@VXMLASCIITranscoder@xercesc_3_1@@@xercesc_3_1@@UAEPAXI@Z 1003ee8c f i  CIL library: CIL module
 0001:0003deb1       ??_G?$ENameMapFor@VXMLUTF8Transcoder@xercesc_3_1@@@xercesc_3_1@@UAEPAXI@Z 1003eeb1 f i xerces-c_3_1:TransService.cpp.obj
 0001:0003deb1       ??_E?$ENameMapFor@VXMLUTF8Transcoder@xercesc_3_1@@@xercesc_3_1@@UAEPAXI@Z 1003eeb1 f i  CIL library: CIL module
 0001:0003ded6       ??_E?$ENameMapFor@VXML88591Transcoder@xercesc_3_1@@@xercesc_3_1@@UAEPAXI@Z 1003eed6 f i  CIL library: CIL module
 0001:0003ded6       ??_G?$ENameMapFor@VXML88591Transcoder@xercesc_3_1@@@xercesc_3_1@@UAEPAXI@Z 1003eed6 f i xerces-c_3_1:TransService.cpp.obj
 0001:0003defb       ??_G?$EEndianNameMapFor@VXMLUTF16Transcoder@xercesc_3_1@@@xercesc_3_1@@UAEPAXI@Z 1003eefb f i xerces-c_3_1:TransService.cpp.obj
 0001:0003defb       ??_E?$EEndianNameMapFor@VXMLUTF16Transcoder@xercesc_3_1@@@xercesc_3_1@@UAEPAXI@Z 1003eefb f i  CIL library: CIL module
 0001:0003df20       ??_G?$EEndianNameMapFor@VXMLUCS4Transcoder@xercesc_3_1@@@xercesc_3_1@@UAEPAXI@Z 1003ef20 f i xerces-c_3_1:TransService.cpp.obj
 0001:0003df20       ??_E?$EEndianNameMapFor@VXMLUCS4Transcoder@xercesc_3_1@@@xercesc_3_1@@UAEPAXI@Z 1003ef20 f i  CIL library: CIL module
 0001:0003df45       ??_G?$ENameMapFor@VXMLEBCDICTranscoder@xercesc_3_1@@@xercesc_3_1@@UAEPAXI@Z 1003ef45 f i xerces-c_3_1:TransService.cpp.obj
 0001:0003df45       ??_E?$ENameMapFor@VXMLEBCDICTranscoder@xercesc_3_1@@@xercesc_3_1@@UAEPAXI@Z 1003ef45 f i  CIL library: CIL module
 0001:0003df6a       ??_E?$ENameMapFor@VXMLIBM1047Transcoder@xercesc_3_1@@@xercesc_3_1@@UAEPAXI@Z 1003ef6a f i  CIL library: CIL module
 0001:0003df6a       ??_G?$ENameMapFor@VXMLIBM1047Transcoder@xercesc_3_1@@@xercesc_3_1@@UAEPAXI@Z 1003ef6a f i xerces-c_3_1:TransService.cpp.obj
 0001:0003df8f       ??_E?$ENameMapFor@VXMLIBM1140Transcoder@xercesc_3_1@@@xercesc_3_1@@UAEPAXI@Z 1003ef8f f i  CIL library: CIL module
 0001:0003df8f       ??_G?$ENameMapFor@VXMLIBM1140Transcoder@xercesc_3_1@@@xercesc_3_1@@UAEPAXI@Z 1003ef8f f i xerces-c_3_1:TransService.cpp.obj
 0001:0003dfb4       ??_E?$ENameMapFor@VXMLWin1252Transcoder@xercesc_3_1@@@xercesc_3_1@@UAEPAXI@Z 1003efb4 f i  CIL library: CIL module
 0001:0003dfb4       ??_G?$ENameMapFor@VXMLWin1252Transcoder@xercesc_3_1@@@xercesc_3_1@@UAEPAXI@Z 1003efb4 f i xerces-c_3_1:TransService.cpp.obj
 0001:0003dfd9       ?isAllSpaces@XMLChar1_0@xercesc_3_1@@SA_NQB_WK@Z 1003efd9 f   xerces-c_3_1:XMLChar.cpp.obj
 0001:0003dffd       ?isValidNCName@XMLChar1_0@xercesc_3_1@@SA_NQB_WK@Z 1003effd f   xerces-c_3_1:XMLChar.cpp.obj
 0001:0003e033       ?isValidName@XMLChar1_0@xercesc_3_1@@SA_NQB_W@Z 1003f033 f   xerces-c_3_1:XMLChar.cpp.obj
 0001:0003e05d       ?isValidQName@XMLChar1_0@xercesc_3_1@@SA_NQB_WK@Z 1003f05d f   xerces-c_3_1:XMLChar.cpp.obj
 0001:0003e0c6       ?isAllSpaces@XMLChar1_1@xercesc_3_1@@SA_NQB_WK@Z 1003f0c6 f   xerces-c_3_1:XMLChar.cpp.obj
 0001:0003e0ea       ?isValidName@XMLChar1_1@xercesc_3_1@@SA_NQB_W@Z 1003f0ea f   xerces-c_3_1:XMLChar.cpp.obj
 0001:0003e18c       ??1XMLException@xercesc_3_1@@UAE@XZ 1003f18c f   xerces-c_3_1:XMLException.cpp.obj
 0001:0003e1ad       ??_EXMLException@xercesc_3_1@@UAEPAXI@Z 1003f1ad f i  CIL library: CIL module
 0001:0003e1ad       ??_GXMLException@xercesc_3_1@@UAEPAXI@Z 1003f1ad f i xerces-c_3_1:XMLException.cpp.obj
 0001:0003e1cc       ??0XMLException@xercesc_3_1@@QAE@QBD_KQAVMemoryManager@1@@Z 1003f1cc f   xerces-c_3_1:XMLException.cpp.obj
 0001:0003e213       ??0XMLException@xercesc_3_1@@QAE@ABV01@@Z 1003f213 f   xerces-c_3_1:XMLException.cpp.obj
 0001:0003e269       ?loadExceptText@XMLException@xercesc_3_1@@IAEXW4Codes@XMLExcepts@2@@Z 1003f269 f   xerces-c_3_1:XMLException.cpp.obj
 0001:0003e2b8       ?loadExceptText@XMLException@xercesc_3_1@@IAEXW4Codes@XMLExcepts@2@QB_W111@Z 1003f2b8 f   xerces-c_3_1:XMLException.cpp.obj
 0001:0003e315       ?loadExceptText@XMLException@xercesc_3_1@@IAEXW4Codes@XMLExcepts@2@QBD111@Z 1003f315 f   xerces-c_3_1:XMLException.cpp.obj
 0001:0003e372       ?setLocale@XMLMsgLoader@xercesc_3_1@@SAXQBD@Z 1003f372 f   xerces-c_3_1:XMLMsgLoader.cpp.obj
 0001:0003e3c2       ?setNLSHome@XMLMsgLoader@xercesc_3_1@@SAXQBD@Z 1003f3c2 f   xerces-c_3_1:XMLMsgLoader.cpp.obj
 0001:0003e3df       ??_EXMLFileMgr@xercesc_3_1@@UAEPAXI@Z 1003f3df f i  CIL library: CIL module
 0001:0003e3df       ??_EWindowsFileMgr@xercesc_3_1@@UAEPAXI@Z 1003f3df f i  CIL library: CIL module
 0001:0003e3df       ??_GXMLFileMgr@xercesc_3_1@@UAEPAXI@Z 1003f3df f i xerces-c_3_1:WindowsFileMgr.cpp.obj
 0001:0003e3df       ??_GWindowsFileMgr@xercesc_3_1@@UAEPAXI@Z 1003f3df f i xerces-c_3_1:WindowsFileMgr.cpp.obj
 0001:0003e3ff       ?fileOpen@WindowsFileMgr@xercesc_3_1@@UAEPAXPB_W_NQAVMemoryManager@2@@Z 1003f3ff f   xerces-c_3_1:WindowsFileMgr.cpp.obj
 0001:0003e58e       ?fileOpen@WindowsFileMgr@xercesc_3_1@@UAEPAXPBD_NQAVMemoryManager@2@@Z 1003f58e f   xerces-c_3_1:WindowsFileMgr.cpp.obj
 0001:0003e5e2       ?openStdIn@WindowsFileMgr@xercesc_3_1@@UAEPAXQAVMemoryManager@2@@Z 1003f5e2 f   xerces-c_3_1:WindowsFileMgr.cpp.obj
 0001:0003e6f9       ?fileClose@WindowsFileMgr@xercesc_3_1@@UAEXPAXQAVMemoryManager@2@@Z 1003f6f9 f   xerces-c_3_1:WindowsFileMgr.cpp.obj
 0001:0003e7b7       ?fileReset@WindowsFileMgr@xercesc_3_1@@UAEXPAXQAVMemoryManager@2@@Z 1003f7b7 f   xerces-c_3_1:WindowsFileMgr.cpp.obj
 0001:0003e879       ?curPos@WindowsFileMgr@xercesc_3_1@@UAE_KPAXQAVMemoryManager@2@@Z 1003f879 f   xerces-c_3_1:WindowsFileMgr.cpp.obj
 0001:0003e962       ?fileSize@WindowsFileMgr@xercesc_3_1@@UAE_KPAXQAVMemoryManager@2@@Z 1003f962 f   xerces-c_3_1:WindowsFileMgr.cpp.obj
 0001:0003ea43       ?fileRead@WindowsFileMgr@xercesc_3_1@@UAEKPAXKPAEQAVMemoryManager@2@@Z 1003fa43 f   xerces-c_3_1:WindowsFileMgr.cpp.obj
 0001:0003eb2a       ?fileWrite@WindowsFileMgr@xercesc_3_1@@UAEXPAXKPBEQAVMemoryManager@2@@Z 1003fb2a f   xerces-c_3_1:WindowsFileMgr.cpp.obj
 0001:0003ec13       ?getFullPath@WindowsFileMgr@xercesc_3_1@@UAEPA_WQB_WQAVMemoryManager@2@@Z 1003fc13 f   xerces-c_3_1:WindowsFileMgr.cpp.obj
 0001:0003ecc8       ?getCurrentDirectory@WindowsFileMgr@xercesc_3_1@@UAEPA_WQAVMemoryManager@2@@Z 1003fcc8 f   xerces-c_3_1:WindowsFileMgr.cpp.obj
 0001:0003ed30       ?isRelative@WindowsFileMgr@xercesc_3_1@@UAE_NQB_WQAVMemoryManager@2@@Z 1003fd30 f   xerces-c_3_1:WindowsFileMgr.cpp.obj
 0001:0003ed80       ??0MalformedURLException@xercesc_3_1@@QAE@ABV01@@Z 1003fd80 f i xerces-c_3_1:WinSockNetAccessor.cpp.obj
 0001:0003ed9b       ??1MalformedURLException@xercesc_3_1@@UAE@XZ 1003fd9b f i xerces-c_3_1:WinSockNetAccessor.cpp.obj
 0001:0003eda6       ?duplicate@MalformedURLException@xercesc_3_1@@UBEPAVXMLException@2@XZ 1003fda6 f i xerces-c_3_1:WinSockNetAccessor.cpp.obj
 0001:0003edf0       ?getType@MalformedURLException@xercesc_3_1@@UBEPB_WXZ 1003fdf0 f i xerces-c_3_1:WinSockNetAccessor.cpp.obj
 0001:0003edf6       ??_GMalformedURLException@xercesc_3_1@@UAEPAXI@Z 1003fdf6 f i xerces-c_3_1:WinSockNetAccessor.cpp.obj
 0001:0003edf6       ??_EMalformedURLException@xercesc_3_1@@UAEPAXI@Z 1003fdf6 f i  CIL library: CIL module
 0001:0003ee1b       ??1XMLNetAccessor@xercesc_3_1@@UAE@XZ 1003fe1b f i xerces-c_3_1:WinSockNetAccessor.cpp.obj
 0001:0003ee22       ??_EXMLNetAccessor@xercesc_3_1@@UAEPAXI@Z 1003fe22 f i  CIL library: CIL module
 0001:0003ee22       ??_GXMLNetAccessor@xercesc_3_1@@UAEPAXI@Z 1003fe22 f i xerces-c_3_1:WinSockNetAccessor.cpp.obj
 0001:0003ee42       ?getId@WinSockNetAccessor@xercesc_3_1@@UBEPB_WXZ 1003fe42 f i xerces-c_3_1:WinSockNetAccessor.cpp.obj
 0001:0003ee48       ??_GWinSockNetAccessor@xercesc_3_1@@UAEPAXI@Z 1003fe48 f i xerces-c_3_1:WinSockNetAccessor.cpp.obj
 0001:0003ee48       ??_EWinSockNetAccessor@xercesc_3_1@@UAEPAXI@Z 1003fe48 f i  CIL library: CIL module
 0001:0003ee90       ?makeNew@WinSockNetAccessor@xercesc_3_1@@UAEPAVBinInputStream@2@ABVXMLURL@2@PBVXMLNetHTTPInfo@2@@Z 1003fe90 f   xerces-c_3_1:WinSockNetAccessor.cpp.obj
 0001:0003ef36       ?isAlias@xercesc_3_1@@YA_NQAUHKEY__@@QADI@Z 1003ff36 f   xerces-c_3_1:Win32TransService.cpp.obj
 0001:0003ef60       ??0CPMapEntry@xercesc_3_1@@QAE@QBDIPAVMemoryManager@1@@Z 1003ff60 f   xerces-c_3_1:Win32TransService.cpp.obj
 0001:0003efc3       ??0Win32TransService@xercesc_3_1@@QAE@PAVMemoryManager@1@@Z 1003ffc3 f   xerces-c_3_1:Win32TransService.cpp.obj
 0001:0003f38e       ??_EWin32TransService@xercesc_3_1@@UAEPAXI@Z 1004038e f i  CIL library: CIL module
 0001:0003f38e       ??_GWin32TransService@xercesc_3_1@@UAEPAXI@Z 1004038e f i xerces-c_3_1:Win32TransService.cpp.obj
 0001:0003f3ad       ??1Win32TransService@xercesc_3_1@@UAE@XZ 100403ad f   xerces-c_3_1:Win32TransService.cpp.obj
 0001:0003f3fe       ?compareIString@Win32TransService@xercesc_3_1@@UAEHQB_W0@Z 100403fe f   xerces-c_3_1:Win32TransService.cpp.obj
 0001:0003f412       ?compareNIString@Win32TransService@xercesc_3_1@@UAEHQB_W0K@Z 10040412 f   xerces-c_3_1:Win32TransService.cpp.obj
 0001:0003f42a       ?getId@Win32TransService@xercesc_3_1@@UBEPB_WXZ 1004042a f   xerces-c_3_1:Win32TransService.cpp.obj
 0001:0003f430       ?makeNewLCPTranscoder@Win32TransService@xercesc_3_1@@UAEPAVXMLLCPTranscoder@2@PAVMemoryManager@2@@Z 10040430 f   xerces-c_3_1:Win32TransService.cpp.obj
 0001:0003f456       ?upperCase@Win32TransService@xercesc_3_1@@UAEXQA_W@Z 10040456 f   xerces-c_3_1:Win32TransService.cpp.obj
 0001:0003f466       ?lowerCase@Win32TransService@xercesc_3_1@@UAEXQA_W@Z 10040466 f   xerces-c_3_1:Win32TransService.cpp.obj
 0001:0003f476       ?makeNewXMLTranscoder@Win32TransService@xercesc_3_1@@MAEPAVXMLTranscoder@2@QB_WAAW4Codes@XMLTransService@2@KQAVMemoryManager@2@@Z 10040476 f   xerces-c_3_1:Win32TransService.cpp.obj
 0001:0003f50e       ?getFlagsValue@xercesc_3_1@@YAKIK@Z 1004050e f i xerces-c_3_1:Win32TransService.cpp.obj
 0001:0003f54e       ??0Win32Transcoder@xercesc_3_1@@QAE@QB_WIKQAVMemoryManager@1@@Z 1004054e f   xerces-c_3_1:Win32TransService.cpp.obj
 0001:0003f5a3       ??_GWin32Transcoder@xercesc_3_1@@UAEPAXI@Z 100405a3 f i xerces-c_3_1:Win32TransService.cpp.obj
 0001:0003f5a3       ??_EWin32Transcoder@xercesc_3_1@@UAEPAXI@Z 100405a3 f i  CIL library: CIL module
 0001:0003f5c8       ?transcodeFrom@Win32Transcoder@xercesc_3_1@@UAEKQBEKQA_WKAAKQAE@Z 100405c8 f   xerces-c_3_1:Win32TransService.cpp.obj
 0001:0003f758       ?transcodeTo@Win32Transcoder@xercesc_3_1@@UAEKQB_WKQAEKAAKW4UnRepOpts@XMLTranscoder@2@@Z 10040758 f   xerces-c_3_1:Win32TransService.cpp.obj
 0001:0003f866       ?canTranscodeTo@Win32Transcoder@xercesc_3_1@@UAE_NI@Z 10040866 f   xerces-c_3_1:Win32TransService.cpp.obj
 0001:0003f8d7       ??_EWin32LCPTranscoder@xercesc_3_1@@UAEPAXI@Z 100408d7 f i  CIL library: CIL module
 0001:0003f8d7       ??_EXMLLCPTranscoder@xercesc_3_1@@UAEPAXI@Z 100408d7 f i  CIL library: CIL module
 0001:0003f8d7       ??_GXMLLCPTranscoder@xercesc_3_1@@UAEPAXI@Z 100408d7 f i xerces-c_3_1:TransService.cpp.obj
 0001:0003f8d7       ??_GWin32LCPTranscoder@xercesc_3_1@@UAEPAXI@Z 100408d7 f i xerces-c_3_1:Win32TransService.cpp.obj
 0001:0003f8f7       ?calcRequiredSize@Win32LCPTranscoder@xercesc_3_1@@UAEKQBDQAVMemoryManager@2@@Z 100408f7 f   xerces-c_3_1:Win32TransService.cpp.obj
 0001:0003f915       ?calcRequiredSize@Win32LCPTranscoder@xercesc_3_1@@UAEKQB_WQAVMemoryManager@2@@Z 10040915 f   xerces-c_3_1:Win32TransService.cpp.obj
 0001:0003f934       ?transcode@Win32LCPTranscoder@xercesc_3_1@@UAEPADQB_WQAVMemoryManager@2@@Z 10040934 f   xerces-c_3_1:Win32TransService.cpp.obj
 0001:0003f995       ?transcode@Win32LCPTranscoder@xercesc_3_1@@UAEPA_WQBDQAVMemoryManager@2@@Z 10040995 f   xerces-c_3_1:Win32TransService.cpp.obj
 0001:0003fa09       ?transcode@Win32LCPTranscoder@xercesc_3_1@@UAE_NQBDQA_WKQAVMemoryManager@2@@Z 10040a09 f   xerces-c_3_1:Win32TransService.cpp.obj
 0001:0003fa46       ?transcode@Win32LCPTranscoder@xercesc_3_1@@UAE_NQB_WQADKQAVMemoryManager@2@@Z 10040a46 f   xerces-c_3_1:Win32TransService.cpp.obj
 0001:0003fa91       ??0?$RefHashTableOf@VCPMapEntry@xercesc_3_1@@UStringHasher@2@@xercesc_3_1@@QAE@KQAVMemoryManager@1@@Z 10040a91 f i xerces-c_3_1:Win32TransService.cpp.obj
 0001:0003fad5       ?put@?$RefHashTableOf@VCPMapEntry@xercesc_3_1@@UStringHasher@2@@xercesc_3_1@@QAEXPAXQAVCPMapEntry@2@@Z 10040ad5 f i xerces-c_3_1:Win32TransService.cpp.obj
 0001:0003fb63       ?removeAll@?$RefHashTableOf@VCPMapEntry@xercesc_3_1@@UStringHasher@2@@xercesc_3_1@@QAEXXZ 10040b63 f i xerces-c_3_1:Win32TransService.cpp.obj
 0001:0003fbd1       ??0EmptyStackException@xercesc_3_1@@QAE@ABV01@@Z 10040bd1 f i xerces-c_3_1:DOMDocumentImpl.cpp.obj
 0001:0003fbec       ??1EmptyStackException@xercesc_3_1@@UAE@XZ 10040bec f i xerces-c_3_1:DOMDocumentImpl.cpp.obj
 0001:0003fbf7       ?duplicate@EmptyStackException@xercesc_3_1@@UBEPAVXMLException@2@XZ 10040bf7 f i xerces-c_3_1:DOMDocumentImpl.cpp.obj
 0001:0003fc41       ?getType@EmptyStackException@xercesc_3_1@@UBEPB_WXZ 10040c41 f i xerces-c_3_1:DOMDocumentImpl.cpp.obj
 0001:0003fc47       ??_GEmptyStackException@xercesc_3_1@@UAEPAXI@Z 10040c47 f i xerces-c_3_1:DOMDocumentImpl.cpp.obj
 0001:0003fc47       ??_EEmptyStackException@xercesc_3_1@@UAEPAXI@Z 10040c47 f i  CIL library: CIL module
 0001:0003fc6c       ??0NoSuchElementException@xercesc_3_1@@QAE@ABV01@@Z 10040c6c f i xerces-c_3_1:DOMDocumentImpl.cpp.obj
 0001:0003fc87       ??1NoSuchElementException@xercesc_3_1@@UAE@XZ 10040c87 f i xerces-c_3_1:DOMDocumentImpl.cpp.obj
 0001:0003fc92       ?duplicate@NoSuchElementException@xercesc_3_1@@UBEPAVXMLException@2@XZ 10040c92 f i xerces-c_3_1:DOMDocumentImpl.cpp.obj
 0001:0003fcdc       ?getType@NoSuchElementException@xercesc_3_1@@UBEPB_WXZ 10040cdc f i xerces-c_3_1:DOMDocumentImpl.cpp.obj
 0001:0003fce2       ??_GNoSuchElementException@xercesc_3_1@@UAEPAXI@Z 10040ce2 f i xerces-c_3_1:DOMDocumentImpl.cpp.obj
 0001:0003fce2       ??_ENoSuchElementException@xercesc_3_1@@UAEPAXI@Z 10040ce2 f i  CIL library: CIL module
 0001:0003fd07       ??0NullPointerException@xercesc_3_1@@QAE@ABV01@@Z 10040d07 f i xerces-c_3_1:DOMDocumentImpl.cpp.obj
 0001:0003fd22       ??1NullPointerException@xercesc_3_1@@UAE@XZ 10040d22 f i xerces-c_3_1:DOMDocumentImpl.cpp.obj
 0001:0003fd2d       ?duplicate@NullPointerException@xercesc_3_1@@UBEPAVXMLException@2@XZ 10040d2d f i xerces-c_3_1:DOMDocumentImpl.cpp.obj
 0001:0003fd77       ?getType@NullPointerException@xercesc_3_1@@UBEPB_WXZ 10040d77 f i xerces-c_3_1:DOMDocumentImpl.cpp.obj
 0001:0003fd7d       ??_ENullPointerException@xercesc_3_1@@UAEPAXI@Z 10040d7d f i  CIL library: CIL module
 0001:0003fd7d       ??_GNullPointerException@xercesc_3_1@@UAEPAXI@Z 10040d7d f i xerces-c_3_1:DOMDocumentImpl.cpp.obj
 0001:0003fda2       ??_GDOMNotationImpl@xercesc_3_1@@UAEPAXI@Z 10040da2 f i xerces-c_3_1:DOMNotationImpl.cpp.obj
 0001:0003fda2       ??_GDOMNode@xercesc_3_1@@UAEPAXI@Z 10040da2 f i xerces-c_3_1:DOMDocumentImpl.cpp.obj
 0001:0003fda2       ??_GDOMProcessingInstructionImpl@xercesc_3_1@@UAEPAXI@Z 10040da2 f i xerces-c_3_1:DOMProcessingInstructionImpl.cpp.obj
 0001:0003fda2       ??_GDOMTextImpl@xercesc_3_1@@UAEPAXI@Z 10040da2 f i xerces-c_3_1:DOMTextImpl.cpp.obj
 0001:0003fda2       ??_EDOMCommentImpl@xercesc_3_1@@UAEPAXI@Z 10040da2 f i  CIL library: CIL module
 0001:0003fda2       ??_EDOMCDATASectionImpl@xercesc_3_1@@UAEPAXI@Z 10040da2 f i  CIL library: CIL module
 0001:0003fda2       ??_EDOMNode@xercesc_3_1@@UAEPAXI@Z 10040da2 f i  CIL library: CIL module
 0001:0003fda2       ??_EDOMNotationImpl@xercesc_3_1@@UAEPAXI@Z 10040da2 f i  CIL library: CIL module
 0001:0003fda2       ??_GDOMCDATASectionImpl@xercesc_3_1@@UAEPAXI@Z 10040da2 f i xerces-c_3_1:DOMCDATASectionImpl.cpp.obj
 0001:0003fda2       ??_EDOMProcessingInstructionImpl@xercesc_3_1@@UAEPAXI@Z 10040da2 f i  CIL library: CIL module
 0001:0003fda2       ??_GDOMCommentImpl@xercesc_3_1@@UAEPAXI@Z 10040da2 f i xerces-c_3_1:DOMCommentImpl.cpp.obj
 0001:0003fda2       ??_EDOMTextImpl@xercesc_3_1@@UAEPAXI@Z 10040da2 f i  CIL library: CIL module
 0001:0003fdc2       ??_EDOMDocumentRange@xercesc_3_1@@UAEPAXI@Z 10040dc2 f i  CIL library: CIL module
 0001:0003fdc2       ??_GDOMDocumentRange@xercesc_3_1@@UAEPAXI@Z 10040dc2 f i xerces-c_3_1:DOMDocumentImpl.cpp.obj
 0001:0003fde2       ??_EDOMDocumentTraversal@xercesc_3_1@@UAEPAXI@Z 10040de2 f i  CIL library: CIL module
 0001:0003fde2       ??_GDOMDocumentTraversal@xercesc_3_1@@UAEPAXI@Z 10040de2 f i xerces-c_3_1:DOMDocumentImpl.cpp.obj
 0001:0003fe02       ??_GDOMXPathEvaluator@xercesc_3_1@@UAEPAXI@Z 10040e02 f i xerces-c_3_1:DOMDocumentImpl.cpp.obj
 0001:0003fe02       ??_EDOMXPathEvaluator@xercesc_3_1@@UAEPAXI@Z 10040e02 f i  CIL library: CIL module
 0001:0003fe22       ??0DOMDocument@xercesc_3_1@@IAE@XZ 10040e22 f i xerces-c_3_1:DOMDocumentImpl.cpp.obj
 0001:0003fe53       ??1DOMDocument@xercesc_3_1@@UAE@XZ 10040e53 f i xerces-c_3_1:DOMDocumentImpl.cpp.obj
 0001:0003fe6f       ?createDocumentType@DOMDocument@xercesc_3_1@@UAEPAVDOMDocumentType@2@PB_W00@Z 10040e6f f i xerces-c_3_1:DOMDocumentImpl.cpp.obj
 0001:0003fe81       ??_GDOMDocument@xercesc_3_1@@UAEPAXI@Z 10040e81 f i xerces-c_3_1:DOMDocumentImpl.cpp.obj
 0001:0003fe81       ??_EDOMDocument@xercesc_3_1@@UAEPAXI@Z 10040e81 f i  CIL library: CIL module
 0001:0003feb6       ??1DOMMemoryManager@xercesc_3_1@@UAE@XZ 10040eb6 f i xerces-c_3_1:DOMDocumentImpl.cpp.obj
 0001:0003febd       ??_GDOMMemoryManager@xercesc_3_1@@UAEPAXI@Z 10040ebd f i xerces-c_3_1:DOMDocumentImpl.cpp.obj
 0001:0003febd       ??_EDOMMemoryManager@xercesc_3_1@@UAEPAXI@Z 10040ebd f i  CIL library: CIL module
 0001:0003fedd       ??0DOMDocumentImpl@xercesc_3_1@@QAE@PAVDOMImplementation@1@QAVMemoryManager@1@@Z 10040edd f   xerces-c_3_1:DOMDocumentImpl.cpp.obj
 0001:00040012       ??_GDOMDocumentImpl@xercesc_3_1@@UAEPAXI@Z 10041012 f i xerces-c_3_1:DOMDocumentImpl.cpp.obj
 0001:00040012       ??_EDOMDocumentImpl@xercesc_3_1@@UAEPAXI@Z 10041012 f i  CIL library: CIL module
 0001:00040031       ??1DOMParentNode@xercesc_3_1@@QAE@XZ 10041031 f i xerces-c_3_1:DOMDocumentImpl.cpp.obj
 0001:00040039       ??0DOMDocumentImpl@xercesc_3_1@@QAE@PB_W0PAVDOMDocumentType@1@PAVDOMImplementation@1@QAVMemoryManager@1@@Z 10041039 f   xerces-c_3_1:DOMDocumentImpl.cpp.obj
 0001:000401d1       ?setDocumentType@DOMDocumentImpl@xercesc_3_1@@QAEXPAVDOMDocumentType@2@@Z 100411d1 f   xerces-c_3_1:DOMDocumentImpl.cpp.obj
 0001:0004023a       ??1DOMDocumentImpl@xercesc_3_1@@UAE@XZ 1004123a f   xerces-c_3_1:DOMDocumentImpl.cpp.obj
 0001:00040396       ??_G?$RefHash2KeysTableOf@V?$KeyRefPair@XVDOMUserDataHandler@xercesc_3_1@@@xercesc_3_1@@UPtrHasher@2@@xercesc_3_1@@QAEPAXI@Z 10041396 f i xerces-c_3_1:DOMDocumentImpl.cpp.obj
 0001:00040401       ?cloneNode@DOMDocumentImpl@xercesc_3_1@@UBEPAVDOMNode@2@_N@Z 10041401 f   xerces-c_3_1:DOMDocumentImpl.cpp.obj
 0001:000404ec       ?getNodeName@DOMDocumentImpl@xercesc_3_1@@UBEPB_WXZ 100414ec f   xerces-c_3_1:DOMDocumentImpl.cpp.obj
 0001:000404f2       ?getNodeType@DOMDocumentImpl@xercesc_3_1@@UBE?AW4NodeType@DOMNode@2@XZ 100414f2 f   xerces-c_3_1:DOMDocumentImpl.cpp.obj
 0001:000404f6       ?createAttribute@DOMDocumentImpl@xercesc_3_1@@UAEPAVDOMAttr@2@PB_W@Z 100414f6 f   xerces-c_3_1:DOMDocumentImpl.cpp.obj
 0001:00040576       ?createCDATASection@DOMDocumentImpl@xercesc_3_1@@UAEPAVDOMCDATASection@2@PB_W@Z 10041576 f   xerces-c_3_1:DOMDocumentImpl.cpp.obj
 0001:000405fc       ?createComment@DOMDocumentImpl@xercesc_3_1@@UAEPAVDOMComment@2@PB_W@Z 100415fc f   xerces-c_3_1:DOMDocumentImpl.cpp.obj
 0001:00040682       ?createDocumentFragment@DOMDocumentImpl@xercesc_3_1@@UAEPAVDOMDocumentFragment@2@XZ 10041682 f   xerces-c_3_1:DOMDocumentImpl.cpp.obj
 0001:000406d6       ?createDocumentType@DOMDocumentImpl@xercesc_3_1@@UAEPAVDOMDocumentType@2@PB_W@Z 100416d6 f   xerces-c_3_1:DOMDocumentImpl.cpp.obj
 0001:00040759       ?createDocumentType@DOMDocumentImpl@xercesc_3_1@@UAEPAVDOMDocumentType@2@PB_W00@Z 10041759 f   xerces-c_3_1:DOMDocumentImpl.cpp.obj
 0001:000407e2       ?createElement@DOMDocumentImpl@xercesc_3_1@@UAEPAVDOMElement@2@PB_W@Z 100417e2 f   xerces-c_3_1:DOMDocumentImpl.cpp.obj
 0001:00040864       ?createElementNoCheck@DOMDocumentImpl@xercesc_3_1@@UAEPAVDOMElement@2@PB_W@Z 10041864 f   xerces-c_3_1:DOMDocumentImpl.cpp.obj
 0001:000408a1       ?createEntity@DOMDocumentImpl@xercesc_3_1@@UAEPAVDOMEntity@2@PB_W@Z 100418a1 f   xerces-c_3_1:DOMDocumentImpl.cpp.obj
 0001:00040923       ?createEntityReference@DOMDocumentImpl@xercesc_3_1@@UAEPAVDOMEntityReference@2@PB_W@Z 10041923 f   xerces-c_3_1:DOMDocumentImpl.cpp.obj
 0001:000409a6       ?createNotation@DOMDocumentImpl@xercesc_3_1@@UAEPAVDOMNotation@2@PB_W@Z 100419a6 f   xerces-c_3_1:DOMDocumentImpl.cpp.obj
 0001:00040a28       ?createProcessingInstruction@DOMDocumentImpl@xercesc_3_1@@UAEPAVDOMProcessingInstruction@2@PB_W0@Z 10041a28 f   xerces-c_3_1:DOMDocumentImpl.cpp.obj
 0001:00040aad       ?createTextNode@DOMDocumentImpl@xercesc_3_1@@UAEPAVDOMText@2@PB_W@Z 10041aad f   xerces-c_3_1:DOMDocumentImpl.cpp.obj
 0001:00040b33       ?createNodeIterator@DOMDocumentImpl@xercesc_3_1@@UAEPAVDOMNodeIterator@2@PAVDOMNode@2@KPAVDOMNodeFilter@2@_N@Z 10041b33 f   xerces-c_3_1:DOMDocumentImpl.cpp.obj
 0001:00040c40       ?getNodeIterators@DOMDocumentImpl@xercesc_3_1@@UBEPAV?$RefVectorOf@VDOMNodeIteratorImpl@xercesc_3_1@@@2@XZ 10041c40 f   xerces-c_3_1:DOMDocumentImpl.cpp.obj
 0001:00040c47       ?removeNodeIterator@DOMDocumentImpl@xercesc_3_1@@UAEXPAVDOMNodeIteratorImpl@2@@Z 10041c47 f   xerces-c_3_1:DOMDocumentImpl.cpp.obj
 0001:00040ca4       ?createExpression@DOMDocumentImpl@xercesc_3_1@@UAEPAVDOMXPathExpression@2@PB_WPBVDOMXPathNSResolver@2@@Z 10041ca4 f   xerces-c_3_1:DOMDocumentImpl.cpp.obj
 0001:00040cf8       ?createNSResolver@DOMDocumentImpl@xercesc_3_1@@UAEPAVDOMXPathNSResolver@2@PBVDOMNode@2@@Z 10041cf8 f   xerces-c_3_1:DOMDocumentImpl.cpp.obj
 0001:00040d49       ?evaluate@DOMDocumentImpl@xercesc_3_1@@UAEPAVDOMXPathResult@2@PB_WPBVDOMNode@2@PBVDOMXPathNSResolver@2@W4ResultType@32@PAV32@@Z 10041d49 f   xerces-c_3_1:DOMDocumentImpl.cpp.obj
 0001:00040da8       ?createTreeWalker@DOMDocumentImpl@xercesc_3_1@@UAEPAVDOMTreeWalker@2@PAVDOMNode@2@KPAVDOMNodeFilter@2@_N@Z 10041da8 f   xerces-c_3_1:DOMDocumentImpl.cpp.obj
 0001:00040e0a       ?getDoctype@DOMDocumentImpl@xercesc_3_1@@UBEPAVDOMDocumentType@2@XZ 10041e0a f   xerces-c_3_1:DOMDocumentImpl.cpp.obj
 0001:00040e11       ?getDocumentElement@DOMDocumentImpl@xercesc_3_1@@UBEPAVDOMElement@2@XZ 10041e11 f   xerces-c_3_1:DOMDocumentImpl.cpp.obj
 0001:00040e18       ?getElementsByTagName@DOMDocumentImpl@xercesc_3_1@@UBEPAVDOMNodeList@2@PB_W@Z 10041e18 f   xerces-c_3_1:DOMDocumentImpl.cpp.obj
 0001:00040e39       ?getImplementation@DOMDocumentImpl@xercesc_3_1@@UBEPAVDOMImplementation@2@XZ 10041e39 f   xerces-c_3_1:DOMDocumentImpl.cpp.obj
 0001:00040e40       ?insertBefore@DOMDocumentImpl@xercesc_3_1@@UAEPAVDOMNode@2@PAV32@0@Z 10041e40 f   xerces-c_3_1:DOMDocumentImpl.cpp.obj
 0001:00040ef5       ?replaceChild@DOMDocumentImpl@xercesc_3_1@@UAEPAVDOMNode@2@PAV32@0@Z 10041ef5 f   xerces-c_3_1:DOMDocumentImpl.cpp.obj
 0001:00040fa5       ?isXMLName@DOMDocumentImpl@xercesc_3_1@@QAE_NPB_W@Z 10041fa5 f   xerces-c_3_1:DOMDocumentImpl.cpp.obj
 0001:00040fba       ?removeChild@DOMDocumentImpl@xercesc_3_1@@UAEPAVDOMNode@2@PAV32@@Z 10041fba f   xerces-c_3_1:DOMDocumentImpl.cpp.obj
 0001:00040ff9       ?importNode@DOMDocumentImpl@xercesc_3_1@@UAEPAVDOMNode@2@PBV32@_N@Z 10041ff9 f   xerces-c_3_1:DOMDocumentImpl.cpp.obj
 0001:00041010       ?createElementNS@DOMDocumentImpl@xercesc_3_1@@UAEPAVDOMElement@2@PB_W0@Z 10042010 f   xerces-c_3_1:DOMDocumentImpl.cpp.obj
 0001:00041095       ?createElementNS@DOMDocumentImpl@xercesc_3_1@@UAEPAVDOMElement@2@PB_W0_K1@Z 10042095 f   xerces-c_3_1:DOMDocumentImpl.cpp.obj
 0001:0004113a       ?createAttributeNS@DOMDocumentImpl@xercesc_3_1@@UAEPAVDOMAttr@2@PB_W0@Z 1004213a f   xerces-c_3_1:DOMDocumentImpl.cpp.obj
 0001:000411d5       ?getElementsByTagNameNS@DOMDocumentImpl@xercesc_3_1@@UBEPAVDOMNodeList@2@PB_W0@Z 100421d5 f   xerces-c_3_1:DOMDocumentImpl.cpp.obj
 0001:000411f9       ?getElementById@DOMDocumentImpl@xercesc_3_1@@UBEPAVDOMElement@2@PB_W@Z 100421f9 f   xerces-c_3_1:DOMDocumentImpl.cpp.obj
 0001:00041223       ?createRange@DOMDocumentImpl@xercesc_3_1@@UAEPAVDOMRange@2@XZ 10042223 f   xerces-c_3_1:DOMDocumentImpl.cpp.obj
 0001:000412e5       ?getRanges@DOMDocumentImpl@xercesc_3_1@@UBEPAV?$RefVectorOf@VDOMRangeImpl@xercesc_3_1@@@2@XZ 100422e5 f   xerces-c_3_1:DOMDocumentImpl.cpp.obj
 0001:000412ec       ?removeRange@DOMDocumentImpl@xercesc_3_1@@UAEXPAVDOMRangeImpl@2@@Z 100422ec f   xerces-c_3_1:DOMDocumentImpl.cpp.obj
 0001:00041349       ?isKidOK@DOMDocumentImpl@xercesc_3_1@@SA_NPAVDOMNode@2@0@Z 10042349 f   xerces-c_3_1:DOMDocumentImpl.cpp.obj
 0001:0004142c       ?changed@DOMDocumentImpl@xercesc_3_1@@UAEXXZ 1004242c f   xerces-c_3_1:DOMDocumentImpl.cpp.obj
 0001:00041433       ?changes@DOMDocumentImpl@xercesc_3_1@@UBEHXZ 10042433 f   xerces-c_3_1:DOMDocumentImpl.cpp.obj
 0001:0004143a       ?appendChild@DOMDocumentImpl@xercesc_3_1@@UAEPAVDOMNode@2@PAV32@@Z 1004243a f   xerces-c_3_1:DOMDocumentImpl.cpp.obj
 0001:0004144b       ?setPrefix@DOMDocumentImpl@xercesc_3_1@@UAEXPB_W@Z 1004244b f   xerces-c_3_1:DOMDocumentImpl.cpp.obj
 0001:0004144b       ?setPrefix@DOMEntityImpl@xercesc_3_1@@UAEXPB_W@Z 1004244b f   xerces-c_3_1:DOMEntityImpl.cpp.obj
 0001:0004144b       ?setPrefix@DOMCDATASectionImpl@xercesc_3_1@@UAEXPB_W@Z 1004244b f   xerces-c_3_1:DOMCDATASectionImpl.cpp.obj
 0001:0004144b       ?setPrefix@DOMDocumentTypeImpl@xercesc_3_1@@UAEXPB_W@Z 1004244b f   xerces-c_3_1:DOMDocumentTypeImpl.cpp.obj
 0001:0004144b       ?setPrefix@DOMNotationImpl@xercesc_3_1@@UAEXPB_W@Z 1004244b f   xerces-c_3_1:DOMNotationImpl.cpp.obj
 0001:0004144b       ?setPrefix@DOMAttrImpl@xercesc_3_1@@UAEXPB_W@Z 1004244b f   xerces-c_3_1:DOMAttrImpl.cpp.obj
 0001:0004144b       ?setPrefix@DOMTextImpl@xercesc_3_1@@UAEXPB_W@Z 1004244b f   xerces-c_3_1:DOMTextImpl.cpp.obj
 0001:0004144b       ?setPrefix@DOMEntityReferenceImpl@xercesc_3_1@@UAEXPB_W@Z 1004244b f   xerces-c_3_1:DOMEntityReferenceImpl.cpp.obj
 0001:0004144b       ?setPrefix@DOMCommentImpl@xercesc_3_1@@UAEXPB_W@Z 1004244b f   xerces-c_3_1:DOMCommentImpl.cpp.obj
 0001:0004144b       ?setPrefix@DOMElementImpl@xercesc_3_1@@UAEXPB_W@Z 1004244b f   xerces-c_3_1:DOMElementImpl.cpp.obj
 0001:0004144b       ?setPrefix@DOMDocumentFragmentImpl@xercesc_3_1@@UAEXPB_W@Z 1004244b f   xerces-c_3_1:DOMDocumentFragmentImpl.cpp.obj
 0001:0004144b       ?setPrefix@DOMProcessingInstructionImpl@xercesc_3_1@@UAEXPB_W@Z 1004244b f   xerces-c_3_1:DOMProcessingInstructionImpl.cpp.obj
 0001:00041455       ?cloneString@DOMDocumentImpl@xercesc_3_1@@UAEPA_WPB_W@Z 10042455 f   xerces-c_3_1:DOMDocumentImpl.cpp.obj
 0001:00041493       ?getMemoryAllocationBlockSize@DOMDocumentImpl@xercesc_3_1@@UBEKXZ 10042493 f   xerces-c_3_1:DOMDocumentImpl.cpp.obj
 0001:00041497       ?setMemoryAllocationBlockSize@DOMDocumentImpl@xercesc_3_1@@UAEXK@Z 10042497 f   xerces-c_3_1:DOMDocumentImpl.cpp.obj
 0001:000414ab       ?allocate@DOMDocumentImpl@xercesc_3_1@@UAEPAXK@Z 100424ab f   xerces-c_3_1:DOMDocumentImpl.cpp.obj
 0001:00041546       ?deleteHeap@DOMDocumentImpl@xercesc_3_1@@QAEXXZ 10042546 f   xerces-c_3_1:DOMDocumentImpl.cpp.obj
 0001:00041567       ?getDeepNodeList@DOMDocumentImpl@xercesc_3_1@@QAEPAVDOMNodeList@2@PBVDOMNode@2@PB_W@Z 10042567 f   xerces-c_3_1:DOMDocumentImpl.cpp.obj
 0001:00041664       ?getDeepNodeList@DOMDocumentImpl@xercesc_3_1@@QAEPAVDOMNodeList@2@PBVDOMNode@2@PB_W1@Z 10042664 f   xerces-c_3_1:DOMDocumentImpl.cpp.obj
 0001:00041767       ?getNotations@DOMDocumentTypeImpl@xercesc_3_1@@UBEPAVDOMNamedNodeMap@2@XZ 10042767 f   xerces-c_3_1:DOMDocumentTypeImpl.cpp.obj
 0001:00041767       ?getGrammarDescription@SchemaGrammar@xercesc_3_1@@UBEPAVXMLGrammarDescription@2@XZ 10042767 f   xerces-c_3_1:SchemaGrammar.cpp.obj
 0001:00041767       ?getPrefix@DOMAttrNSImpl@xercesc_3_1@@UBEPB_WXZ 10042767 f   xerces-c_3_1:DOMAttrNSImpl.cpp.obj
 0001:00041767       ?getNodeName@DOMElementImpl@xercesc_3_1@@UBEPB_WXZ 10042767 f   xerces-c_3_1:DOMElementImpl.cpp.obj
 0001:00041767       ?getInputEncoding@DOMDocumentImpl@xercesc_3_1@@UBEPB_WXZ 10042767 f   xerces-c_3_1:DOMDocumentImpl.cpp.obj
 0001:00041767       ?getTagName@DOMElementImpl@xercesc_3_1@@UBEPB_WXZ 10042767 f   xerces-c_3_1:DOMElementImpl.cpp.obj
 0001:00041767       ?getEntityRef@DOMEntityImpl@xercesc_3_1@@UBEPAVDOMEntityReference@2@XZ 10042767 f   xerces-c_3_1:DOMEntityImpl.cpp.obj
 0001:0004176b       ?setXmlStandalone@DOMDocumentImpl@xercesc_3_1@@UAEX_N@Z 1004276b f   xerces-c_3_1:DOMDocumentImpl.cpp.obj
 0001:0004176b       ?setValidated@SchemaGrammar@xercesc_3_1@@UAEX_N@Z 1004276b f   xerces-c_3_1:SchemaGrammar.cpp.obj
 0001:00041778       ?setXmlVersion@DOMDocumentImpl@xercesc_3_1@@UAEXPB_W@Z 10042778 f   xerces-c_3_1:DOMDocumentImpl.cpp.obj
 0001:000417ed       ?setDocumentURI@DOMDocumentImpl@xercesc_3_1@@UAEXPB_W@Z 100427ed f   xerces-c_3_1:DOMDocumentImpl.cpp.obj
 0001:0004182f       ?getStrictErrorChecking@DOMDocumentImpl@xercesc_3_1@@UBE_NXZ 1004282f f   xerces-c_3_1:DOMDocumentImpl.cpp.obj
 0001:00041836       ?setStrictErrorChecking@DOMDocumentImpl@xercesc_3_1@@UAEX_N@Z 10042836 f   xerces-c_3_1:DOMDocumentImpl.cpp.obj
 0001:00041846       ?adoptNode@DOMDocumentImpl@xercesc_3_1@@UAEPAVDOMNode@2@PAV32@@Z 10042846 f   xerces-c_3_1:DOMDocumentImpl.cpp.obj
 0001:000418e0       ?normalizeDocument@DOMDocumentImpl@xercesc_3_1@@UAEXXZ 100428e0 f   xerces-c_3_1:DOMDocumentImpl.cpp.obj
 0001:000419a7       ?getDOMConfig@DOMDocumentImpl@xercesc_3_1@@UBEPAVDOMConfiguration@2@XZ 100429a7 f   xerces-c_3_1:DOMDocumentImpl.cpp.obj
 0001:000419ef       ?importNode@DOMDocumentImpl@xercesc_3_1@@MAEPAVDOMNode@2@PBV32@_N1@Z 100429ef f   xerces-c_3_1:DOMDocumentImpl.cpp.obj
 0001:0004211f       ?setUserData@DOMDocumentImpl@xercesc_3_1@@QAEPAXPAVDOMNodeImpl@2@PB_WPAXPAVDOMUserDataHandler@2@@Z 1004311f f   xerces-c_3_1:DOMDocumentImpl.cpp.obj
 0001:00042272       ?callUserDataHandlers@DOMDocumentImpl@xercesc_3_1@@QBEXPBVDOMNodeImpl@2@W4DOMOperationType@DOMUserDataHandler@2@PBVDOMNode@2@PAV62@@Z 10043272 f   xerces-c_3_1:DOMDocumentImpl.cpp.obj
 0001:00042453       ?transferUserData@DOMDocumentImpl@xercesc_3_1@@QAEXPAVDOMNodeImpl@2@0@Z 10043453 f   xerces-c_3_1:DOMDocumentImpl.cpp.obj
 0001:0004247d       ?renameNode@DOMDocumentImpl@xercesc_3_1@@UAEPAVDOMNode@2@PAV32@PB_W1@Z 1004347d f   xerces-c_3_1:DOMDocumentImpl.cpp.obj
 0001:00042501       ?release@DOMDocumentImpl@xercesc_3_1@@UAEXXZ 10043501 f   xerces-c_3_1:DOMDocumentImpl.cpp.obj
 0001:00042568       ?releaseDocNotifyUserData@DOMDocumentImpl@xercesc_3_1@@QAEXPAVDOMNode@2@@Z 10043568 f   xerces-c_3_1:DOMDocumentImpl.cpp.obj
 0001:000425f0       ?release@DOMDocumentImpl@xercesc_3_1@@UAEXPAVDOMNode@2@W4NodeObjectType@DOMMemoryManager@2@@Z 100435f0 f   xerces-c_3_1:DOMDocumentImpl.cpp.obj
 0001:000426fc       ?popBuffer@DOMDocumentImpl@xercesc_3_1@@QAEPAVDOMBuffer@2@K@Z 100436fc f   xerces-c_3_1:DOMDocumentImpl.cpp.obj
 0001:000427f2       ?allocate@DOMDocumentImpl@xercesc_3_1@@UAEPAXKW4NodeObjectType@DOMMemoryManager@2@@Z 100437f2 f   xerces-c_3_1:DOMDocumentImpl.cpp.obj
 0001:0004283e       ?isSupported@DOMDocumentImpl@xercesc_3_1@@UBE_NPB_W0@Z 1004383e f   xerces-c_3_1:DOMDocumentImpl.cpp.obj
 0001:000428a8       ?getFeature@DOMDocumentImpl@xercesc_3_1@@UBEPAXPB_W0@Z 100438a8 f   xerces-c_3_1:DOMDocumentImpl.cpp.obj
 0001:000428dc       ??1?$XMLEnumerator@V?$KeyRefPair@XVDOMUserDataHandler@xercesc_3_1@@@xercesc_3_1@@@xercesc_3_1@@UAE@XZ 100438dc f i xerces-c_3_1:DOMDocumentImpl.cpp.obj
 0001:000428e3       ??1?$XMLEnumerator@H@xercesc_3_1@@UAE@XZ 100438e3 f i xerces-c_3_1:DOMDocumentImpl.cpp.obj
 0001:000428ea       ??_G?$XMLEnumerator@V?$KeyRefPair@XVDOMUserDataHandler@xercesc_3_1@@@xercesc_3_1@@@xercesc_3_1@@UAEPAXI@Z 100438ea f i xerces-c_3_1:DOMDocumentImpl.cpp.obj
 0001:000428ea       ??_E?$XMLEnumerator@V?$KeyRefPair@XVDOMUserDataHandler@xercesc_3_1@@@xercesc_3_1@@@xercesc_3_1@@UAEPAXI@Z 100438ea f i  CIL library: CIL module
 0001:0004290a       ??_E?$XMLEnumerator@H@xercesc_3_1@@UAEPAXI@Z 1004390a f i  CIL library: CIL module
 0001:0004290a       ??_G?$XMLEnumerator@H@xercesc_3_1@@UAEPAXI@Z 1004390a f i xerces-c_3_1:DOMDocumentImpl.cpp.obj
 0001:0004292a       ??0?$DOMDeepNodeListPool@VDOMDeepNodeListImpl@xercesc_3_1@@UPtrHasher@2@@xercesc_3_1@@QAE@K_NK@Z 1004392a f i xerces-c_3_1:DOMDocumentImpl.cpp.obj
 0001:00042994       ?cleanup@?$DOMDeepNodeListPool@VDOMDeepNodeListImpl@xercesc_3_1@@UPtrHasher@2@@xercesc_3_1@@QAEXXZ 10043994 f i xerces-c_3_1:DOMDocumentImpl.cpp.obj
 0001:00042a14       ?put@?$DOMDeepNodeListPool@VDOMDeepNodeListImpl@xercesc_3_1@@UPtrHasher@2@@xercesc_3_1@@QAEKPAXPA_W1QAVDOMDeepNodeListImpl@2@@Z 10043a14 f i xerces-c_3_1:DOMDocumentImpl.cpp.obj
 0001:00042b7e       ??1?$BaseRefVectorOf@VDOMRangeImpl@xercesc_3_1@@@xercesc_3_1@@UAE@XZ 10043b7e f i xerces-c_3_1:DOMDocumentImpl.cpp.obj
 0001:00042b85       ??1?$BaseRefVectorOf@VDOMNodeIteratorImpl@xercesc_3_1@@@xercesc_3_1@@UAE@XZ 10043b85 f i xerces-c_3_1:DOMDocumentImpl.cpp.obj
 0001:00042b8c       ?removeKey@?$RefHash2KeysTableOf@V?$KeyRefPair@XVDOMUserDataHandler@xercesc_3_1@@@xercesc_3_1@@UPtrHasher@2@@xercesc_3_1@@QAEXQBX@Z 10043b8c f i xerces-c_3_1:DOMDocumentImpl.cpp.obj
 0001:00042bf6       ?removeKey@?$RefHash2KeysTableOf@V?$KeyRefPair@XVDOMUserDataHandler@xercesc_3_1@@@xercesc_3_1@@UPtrHasher@2@@xercesc_3_1@@QAEXQBXH@Z 10043bf6 f i xerces-c_3_1:DOMDocumentImpl.cpp.obj
 0001:00042ca6       ?transferElement@?$RefHash2KeysTableOf@V?$KeyRefPair@XVDOMUserDataHandler@xercesc_3_1@@@xercesc_3_1@@UPtrHasher@2@@xercesc_3_1@@QAEXQBXPAX@Z 10043ca6 f i xerces-c_3_1:DOMDocumentImpl.cpp.obj
 0001:00042d8c       ?put@?$RefHash2KeysTableOf@V?$KeyRefPair@XVDOMUserDataHandler@xercesc_3_1@@@xercesc_3_1@@UPtrHasher@2@@xercesc_3_1@@QAEXPAXHQAV?$KeyRefPair@XVDOMUserDataHandler@xercesc_3_1@@@2@@Z 10043d8c f i xerces-c_3_1:DOMDocumentImpl.cpp.obj
 0001:00042e16       ??A?$RefArrayOf@V?$RefStackOf@VDOMNode@xercesc_3_1@@@xercesc_3_1@@@xercesc_3_1@@QAEAAPAV?$RefStackOf@VDOMNode@xercesc_3_1@@@1@K@Z 10043e16 f i xerces-c_3_1:DOMDocumentImpl.cpp.obj
 0001:00042e5f       ??1?$BaseRefVectorOf@VDOMBuffer@xercesc_3_1@@@xercesc_3_1@@UAE@XZ 10043e5f f i xerces-c_3_1:DOMDocumentImpl.cpp.obj
 0001:00042e66       ?setElementAt@?$BaseRefVectorOf@VDOMBuffer@xercesc_3_1@@@xercesc_3_1@@UAEXQAVDOMBuffer@2@K@Z 10043e66 f i xerces-c_3_1:DOMDocumentImpl.cpp.obj
 0001:00042ee6       ?removeAllElements@?$BaseRefVectorOf@VDOMBuffer@xercesc_3_1@@@xercesc_3_1@@UAEXXZ 10043ee6 f i xerces-c_3_1:DOMDocumentImpl.cpp.obj
 0001:00042f1c       ?removeElementAt@?$BaseRefVectorOf@VDOMBuffer@xercesc_3_1@@@xercesc_3_1@@UAEXK@Z 10043f1c f i xerces-c_3_1:DOMDocumentImpl.cpp.obj
 0001:00042fcf       ?removeLastElement@?$BaseRefVectorOf@VDOMBuffer@xercesc_3_1@@@xercesc_3_1@@UAEXXZ 10043fcf f i xerces-c_3_1:DOMDocumentImpl.cpp.obj
 0001:00042ff2       ?cleanup@?$BaseRefVectorOf@VDOMBuffer@xercesc_3_1@@@xercesc_3_1@@UAEXXZ 10043ff2 f i xerces-c_3_1:DOMDocumentImpl.cpp.obj
 0001:00043028       ??1?$RefVectorOf@VDOMBuffer@xercesc_3_1@@@xercesc_3_1@@UAE@XZ 10044028 f i xerces-c_3_1:DOMDocumentImpl.cpp.obj
 0001:00043086       ??0?$RefStackOf@VDOMBuffer@xercesc_3_1@@@xercesc_3_1@@QAE@K_NQAVMemoryManager@1@@Z 10044086 f i xerces-c_3_1:DOMDocumentImpl.cpp.obj
 0001:000430c6       ?popAt@?$RefStackOf@VDOMBuffer@xercesc_3_1@@@xercesc_3_1@@QAEPAVDOMBuffer@2@K@Z 100440c6 f i xerces-c_3_1:DOMDocumentImpl.cpp.obj
 0001:00043122       ??0?$RefHash2KeysTableOfEnumerator@V?$KeyRefPair@XVDOMUserDataHandler@xercesc_3_1@@@xercesc_3_1@@UPtrHasher@2@@xercesc_3_1@@QAE@QAV?$RefHash2KeysTableOf@V?$KeyRefPair@XVDOMUserDataHandler@xercesc_3_1@@@xercesc_3_1@@UPtrHasher@2@@1@_NQAVMemoryManager@1@@Z 10044122 f i xerces-c_3_1:DOMDocumentImpl.cpp.obj
 0001:000431a7       ??1?$RefHash2KeysTableOfEnumerator@V?$KeyRefPair@XVDOMUserDataHandler@xercesc_3_1@@@xercesc_3_1@@UPtrHasher@2@@xercesc_3_1@@UAE@XZ 100441a7 f i xerces-c_3_1:DOMDocumentImpl.cpp.obj
 0001:000431e9       ?nextElement@?$RefHash2KeysTableOfEnumerator@V?$KeyRefPair@XVDOMUserDataHandler@xercesc_3_1@@@xercesc_3_1@@UPtrHasher@2@@xercesc_3_1@@UAEAAV?$KeyRefPair@XVDOMUserDataHandler@xercesc_3_1@@@2@XZ 100441e9 f i xerces-c_3_1:DOMDocumentImpl.cpp.obj
 0001:00043257       ?Reset@?$RefHash2KeysTableOfEnumerator@V?$KeyRefPair@XVDOMUserDataHandler@xercesc_3_1@@@xercesc_3_1@@UPtrHasher@2@@xercesc_3_1@@UAEXXZ 10044257 f i xerces-c_3_1:DOMDocumentImpl.cpp.obj
 0001:0004327c       ??1?$ValueVectorOf@_N@xercesc_3_1@@QAE@XZ 1004427c f i xerces-c_3_1:IGXMLScanner.cpp.obj
 0001:0004327c       ??1?$ValueStackOf@VformatNodeHolder@xercesc_3_1@@@xercesc_3_1@@QAE@XZ 1004427c f i xerces-c_3_1:ContentSpecNode.cpp.obj
 0001:0004327c       ??1?$ValueStackOf@PAVContentSpecNode@xercesc_3_1@@@xercesc_3_1@@QAE@XZ 1004427c f i xerces-c_3_1:ContentSpecNode.cpp.obj
 0001:0004327c       ??1?$ValueVectorOf@PA_W@xercesc_3_1@@QAE@XZ 1004427c f i xerces-c_3_1:GrammarResolver.cpp.obj
 0001:0004327c       ??1?$ValueVectorOf@PAVQName@xercesc_3_1@@@xercesc_3_1@@QAE@XZ 1004427c f i xerces-c_3_1:MixedContentModel.cpp.obj
 0001:0004327c       ??1?$ValueVectorOf@I@xercesc_3_1@@QAE@XZ 1004427c f i xerces-c_3_1:SchemaAttDef.cpp.obj
 0001:0004327c       ??1?$ValueVectorOf@W4NodeTypes@ContentSpecNode@xercesc_3_1@@@xercesc_3_1@@QAE@XZ 1004427c f i xerces-c_3_1:MixedContentModel.cpp.obj
 0001:0004327c       ??1?$ValueVectorOf@PAVContentSpecNode@xercesc_3_1@@@xercesc_3_1@@QAE@XZ 1004427c f i xerces-c_3_1:ContentSpecNode.cpp.obj
 0001:0004327c       ??1?$ValueVectorOf@PAX@xercesc_3_1@@QAE@XZ 1004427c f i xerces-c_3_1:XSerializeEngine.cpp.obj
 0001:0004327c       ??1?$ValueVectorOf@H@xercesc_3_1@@QAE@XZ 1004427c f i xerces-c_3_1:DOMDocumentImpl.cpp.obj
 0001:0004327c       ??1?$ValueVectorOf@PAVXercesAttGroupInfo@xercesc_3_1@@@xercesc_3_1@@QAE@XZ 1004427c f i xerces-c_3_1:TraverseSchema.cpp.obj
 0001:00043288       ??1?$ValueVectorEnumerator@H@xercesc_3_1@@UAE@XZ 10044288 f i xerces-c_3_1:DOMDocumentImpl.cpp.obj
 0001:000432d7       ?hasMoreElements@?$ValueVectorEnumerator@H@xercesc_3_1@@UBE_NXZ 100442d7 f i xerces-c_3_1:DOMDocumentImpl.cpp.obj
 0001:000432e4       ?nextElement@?$ValueVectorEnumerator@H@xercesc_3_1@@UAEAAHXZ 100442e4 f i xerces-c_3_1:DOMDocumentImpl.cpp.obj
 0001:00043306       ??1?$BaseRefVectorOf@VDOMNode@xercesc_3_1@@@xercesc_3_1@@UAE@XZ 10044306 f i xerces-c_3_1:DOMDocumentImpl.cpp.obj
 0001:0004330d       ?removeAllElements@?$BaseRefVectorOf@VXSAttributeUse@xercesc_3_1@@@xercesc_3_1@@UAEXXZ 1004430d f i xerces-c_3_1:XSObjectFactory.cpp.obj
 0001:0004330d       ?removeAllElements@?$BaseRefVectorOf@VToken@xercesc_3_1@@@xercesc_3_1@@UAEXXZ 1004430d f i xerces-c_3_1:TokenFactory.cpp.obj
 0001:0004330d       ?removeAllElements@?$BaseRefVectorOf@VIdentityConstraint@xercesc_3_1@@@xercesc_3_1@@UAEXXZ 1004430d f i xerces-c_3_1:XTemplateSerializer.cpp.obj
 0001:0004330d       ?removeAllElements@?$BaseRefVectorOf@VSchemaElementDecl@xercesc_3_1@@@xercesc_3_1@@UAEXXZ 1004430d f i xerces-c_3_1:XTemplateSerializer.cpp.obj
 0001:0004330d       ?removeAllElements@?$BaseRefVectorOf@VOp@xercesc_3_1@@@xercesc_3_1@@UAEXXZ 1004430d f i xerces-c_3_1:OpFactory.cpp.obj
 0001:0004330d       ?removeAllElements@?$BaseRefVectorOf@VXMLNumber@xercesc_3_1@@@xercesc_3_1@@UAEXXZ 1004430d f i xerces-c_3_1:XTemplateSerializer.cpp.obj
 0001:0004330d       ?removeAllElements@?$BaseRefVectorOf@VDOMImplementationSource@xercesc_3_1@@@xercesc_3_1@@UAEXXZ 1004430d f i xerces-c_3_1:DOMImplementationRegistry.cpp.obj
 0001:0004330d       ?removeAllElements@?$BaseRefVectorOf@VXercesStep@xercesc_3_1@@@xercesc_3_1@@UAEXXZ 1004430d f i xerces-c_3_1:XercesXPath.cpp.obj
 0001:0004330d       ?removeAllElements@?$BaseRefVectorOf@VXMLEntityDecl@xercesc_3_1@@@xercesc_3_1@@UAEXXZ 1004430d f i xerces-c_3_1:ReaderMgr.cpp.obj
 0001:0004330d       ?removeAllElements@?$BaseRefVectorOf@VDOMDocumentImpl@xercesc_3_1@@@xercesc_3_1@@UAEXXZ 1004430d f i xerces-c_3_1:AbstractDOMParser.cpp.obj
 0001:0004330d       ?removeAllElements@?$BaseRefVectorOf@VXPathMatcher@xercesc_3_1@@@xercesc_3_1@@UAEXXZ 1004430d f i xerces-c_3_1:XPathMatcherStack.cpp.obj
 0001:0004330d       ?removeAllElements@?$BaseRefVectorOf@VDOMRangeImpl@xercesc_3_1@@@xercesc_3_1@@UAEXXZ 1004430d f i xerces-c_3_1:DOMDocumentImpl.cpp.obj
 0001:0004330d       ?removeAllElements@?$BaseRefVectorOf@VENameMap@xercesc_3_1@@@xercesc_3_1@@UAEXXZ 1004430d f i xerces-c_3_1:TransService.cpp.obj
 0001:0004330d       ?removeAllElements@?$BaseRefVectorOf@VIC_Field@xercesc_3_1@@@xercesc_3_1@@UAEXXZ 1004430d f i xerces-c_3_1:XTemplateSerializer.cpp.obj
 0001:0004330d       ?removeAllElements@?$BaseRefVectorOf@VDOMImplementation@xercesc_3_1@@@xercesc_3_1@@UAEXXZ 1004430d f i xerces-c_3_1:DOMImplementationListImpl.cpp.obj
 0001:0004330d       ?removeAllElements@?$BaseRefVectorOf@VXSObject@xercesc_3_1@@@xercesc_3_1@@UAEXXZ 1004430d f i xerces-c_3_1:XSModel.cpp.obj
 0001:0004330d       ?removeAllElements@?$BaseRefVectorOf@VDatatypeValidator@xercesc_3_1@@@xercesc_3_1@@UAEXXZ 1004430d f i xerces-c_3_1:XTemplateSerializer.cpp.obj
 0001:0004330d       ?removeAllElements@?$BaseRefVectorOf@VXSAnnotation@xercesc_3_1@@@xercesc_3_1@@UAEXXZ 1004430d f i xerces-c_3_1:XSModel.cpp.obj
 0001:0004330d       ?removeAllElements@?$BaseRefVectorOf@VDOMNode@xercesc_3_1@@@xercesc_3_1@@UAEXXZ 1004430d f i xerces-c_3_1:DOMDocumentImpl.cpp.obj
 0001:0004330d       ?removeAllElements@?$BaseRefVectorOf@VDOMNodeIteratorImpl@xercesc_3_1@@@xercesc_3_1@@UAEXXZ 1004430d f i xerces-c_3_1:DOMDocumentImpl.cpp.obj
 0001:0004330d       ?removeAllElements@?$BaseRefVectorOf@VSchemaAttDef@xercesc_3_1@@@xercesc_3_1@@UAEXXZ 1004430d f i xerces-c_3_1:XTemplateSerializer.cpp.obj
 0001:0004330d       ?removeAllElements@?$BaseRefVectorOf@VXSParticle@xercesc_3_1@@@xercesc_3_1@@UAEXXZ 1004430d f i xerces-c_3_1:XSObjectFactory.cpp.obj
 0001:0004330d       ?removeAllElements@?$BaseRefVectorOf@VXSFacet@xercesc_3_1@@@xercesc_3_1@@UAEXXZ 1004430d f i xerces-c_3_1:XSObjectFactory.cpp.obj
 0001:0004330d       ?removeAllElements@?$BaseRefVectorOf@VXSSimpleTypeDefinition@xercesc_3_1@@@xercesc_3_1@@UAEXXZ 1004430d f i xerces-c_3_1:XSObjectFactory.cpp.obj
 0001:0004330d       ?removeAllElements@?$BaseRefVectorOf@VXercesLocationPath@xercesc_3_1@@@xercesc_3_1@@UAEXXZ 1004430d f i xerces-c_3_1:XercesXPath.cpp.obj
 0001:0004330d       ?removeAllElements@?$BaseRefVectorOf@VXMLElementDecl@xercesc_3_1@@@xercesc_3_1@@UAEXXZ 1004430d f i xerces-c_3_1:WFXMLScanner.cpp.obj
 0001:0004330d       ?removeAllElements@?$BaseRefVectorOf@VKVStringPair@xercesc_3_1@@@xercesc_3_1@@UAEXXZ 1004430d f i xerces-c_3_1:IGXMLScanner.cpp.obj
 0001:0004330d       ?removeAllElements@?$BaseRefVectorOf@VXSMultiValueFacet@xercesc_3_1@@@xercesc_3_1@@UAEXXZ 1004430d f i xerces-c_3_1:XSObjectFactory.cpp.obj
 0001:0004330d       ?removeAllElements@?$BaseRefVectorOf@VXSIDCDefinition@xercesc_3_1@@@xercesc_3_1@@UAEXXZ 1004430d f i xerces-c_3_1:XSObjectFactory.cpp.obj
 0001:00043342       ?removeElementAt@?$BaseRefVectorOf@VXSFacet@xercesc_3_1@@@xercesc_3_1@@UAEXK@Z 10044342 f i xerces-c_3_1:XSObjectFactory.cpp.obj
 0001:00043342       ?removeElementAt@?$BaseRefVectorOf@VXSObject@xercesc_3_1@@@xercesc_3_1@@UAEXK@Z 10044342 f i xerces-c_3_1:XSModel.cpp.obj
 0001:00043342       ?removeElementAt@?$BaseRefVectorOf@VDatatypeValidator@xercesc_3_1@@@xercesc_3_1@@UAEXK@Z 10044342 f i xerces-c_3_1:XTemplateSerializer.cpp.obj
 0001:00043342       ?removeElementAt@?$BaseRefVectorOf@VDOMImplementation@xercesc_3_1@@@xercesc_3_1@@UAEXK@Z 10044342 f i xerces-c_3_1:DOMImplementationListImpl.cpp.obj
 0001:00043342       ?removeElementAt@?$BaseRefVectorOf@VXSAnnotation@xercesc_3_1@@@xercesc_3_1@@UAEXK@Z 10044342 f i xerces-c_3_1:XSModel.cpp.obj
 0001:00043342       ?removeElementAt@?$BaseRefVectorOf@VENameMap@xercesc_3_1@@@xercesc_3_1@@UAEXK@Z 10044342 f i xerces-c_3_1:TransService.cpp.obj
 0001:00043342       ?removeElementAt@?$BaseRefVectorOf@VSchemaElementDecl@xercesc_3_1@@@xercesc_3_1@@UAEXK@Z 10044342 f i xerces-c_3_1:XTemplateSerializer.cpp.obj
 0001:00043342       ?removeElementAt@?$BaseRefVectorOf@VXMLNumber@xercesc_3_1@@@xercesc_3_1@@UAEXK@Z 10044342 f i xerces-c_3_1:XTemplateSerializer.cpp.obj
 0001:00043342       ?removeElementAt@?$BaseRefVectorOf@VDOMNodeIteratorImpl@xercesc_3_1@@@xercesc_3_1@@UAEXK@Z 10044342 f i xerces-c_3_1:DOMDocumentImpl.cpp.obj
 0001:00043342       ?removeElementAt@?$BaseRefVectorOf@VXSAttributeUse@xercesc_3_1@@@xercesc_3_1@@UAEXK@Z 10044342 f i xerces-c_3_1:XSObjectFactory.cpp.obj
 0001:00043342       ?removeElementAt@?$BaseRefVectorOf@VToken@xercesc_3_1@@@xercesc_3_1@@UAEXK@Z 10044342 f i xerces-c_3_1:TokenFactory.cpp.obj
 0001:00043342       ?removeElementAt@?$BaseRefVectorOf@VOp@xercesc_3_1@@@xercesc_3_1@@UAEXK@Z 10044342 f i xerces-c_3_1:OpFactory.cpp.obj
 0001:00043342       ?removeElementAt@?$BaseRefVectorOf@VIdentityConstraint@xercesc_3_1@@@xercesc_3_1@@UAEXK@Z 10044342 f i xerces-c_3_1:XTemplateSerializer.cpp.obj
 0001:00043342       ?removeElementAt@?$BaseRefVectorOf@VDOMNode@xercesc_3_1@@@xercesc_3_1@@UAEXK@Z 10044342 f i xerces-c_3_1:DOMDocumentImpl.cpp.obj
 0001:00043342       ?removeElementAt@?$BaseRefVectorOf@VXSSimpleTypeDefinition@xercesc_3_1@@@xercesc_3_1@@UAEXK@Z 10044342 f i xerces-c_3_1:XSObjectFactory.cpp.obj
 0001:00043342       ?removeElementAt@?$BaseRefVectorOf@VDOMDocumentImpl@xercesc_3_1@@@xercesc_3_1@@UAEXK@Z 10044342 f i xerces-c_3_1:AbstractDOMParser.cpp.obj
 0001:00043342       ?removeElementAt@?$BaseRefVectorOf@VSchemaAttDef@xercesc_3_1@@@xercesc_3_1@@UAEXK@Z 10044342 f i xerces-c_3_1:XTemplateSerializer.cpp.obj
 0001:00043342       ?removeElementAt@?$BaseRefVectorOf@VIC_Field@xercesc_3_1@@@xercesc_3_1@@UAEXK@Z 10044342 f i xerces-c_3_1:XTemplateSerializer.cpp.obj
 0001:00043342       ?removeElementAt@?$BaseRefVectorOf@VKVStringPair@xercesc_3_1@@@xercesc_3_1@@UAEXK@Z 10044342 f i xerces-c_3_1:IGXMLScanner.cpp.obj
 0001:00043342       ?removeElementAt@?$BaseRefVectorOf@VXMLElementDecl@xercesc_3_1@@@xercesc_3_1@@UAEXK@Z 10044342 f i xerces-c_3_1:WFXMLScanner.cpp.obj
 0001:00043342       ?removeElementAt@?$BaseRefVectorOf@VXPathMatcher@xercesc_3_1@@@xercesc_3_1@@UAEXK@Z 10044342 f i xerces-c_3_1:XPathMatcherStack.cpp.obj
 0001:00043342       ?removeElementAt@?$BaseRefVectorOf@VDOMRangeImpl@xercesc_3_1@@@xercesc_3_1@@UAEXK@Z 10044342 f i xerces-c_3_1:DOMDocumentImpl.cpp.obj
 0001:00043342       ?removeElementAt@?$BaseRefVectorOf@VXercesLocationPath@xercesc_3_1@@@xercesc_3_1@@UAEXK@Z 10044342 f i xerces-c_3_1:XercesXPath.cpp.obj
 0001:00043342       ?removeElementAt@?$BaseRefVectorOf@VDOMImplementationSource@xercesc_3_1@@@xercesc_3_1@@UAEXK@Z 10044342 f i xerces-c_3_1:DOMImplementationRegistry.cpp.obj
 0001:00043342       ?removeElementAt@?$BaseRefVectorOf@VXSParticle@xercesc_3_1@@@xercesc_3_1@@UAEXK@Z 10044342 f i xerces-c_3_1:XSObjectFactory.cpp.obj
 0001:00043342       ?removeElementAt@?$BaseRefVectorOf@VXMLEntityDecl@xercesc_3_1@@@xercesc_3_1@@UAEXK@Z 10044342 f i xerces-c_3_1:ReaderMgr.cpp.obj
 0001:00043342       ?removeElementAt@?$BaseRefVectorOf@VXSMultiValueFacet@xercesc_3_1@@@xercesc_3_1@@UAEXK@Z 10044342 f i xerces-c_3_1:XSObjectFactory.cpp.obj
 0001:00043342       ?removeElementAt@?$BaseRefVectorOf@VXercesStep@xercesc_3_1@@@xercesc_3_1@@UAEXK@Z 10044342 f i xerces-c_3_1:XercesXPath.cpp.obj
 0001:00043342       ?removeElementAt@?$BaseRefVectorOf@VXSIDCDefinition@xercesc_3_1@@@xercesc_3_1@@UAEXK@Z 10044342 f i xerces-c_3_1:XSObjectFactory.cpp.obj
 0001:000433f4       ??1?$RefVectorOf@VDOMNode@xercesc_3_1@@@xercesc_3_1@@UAE@XZ 100443f4 f i xerces-c_3_1:DOMDocumentImpl.cpp.obj
 0001:00043451       ??_G?$BaseRefVectorOf@VDOMRangeImpl@xercesc_3_1@@@xercesc_3_1@@UAEPAXI@Z 10044451 f i xerces-c_3_1:DOMDocumentImpl.cpp.obj
 0001:00043451       ??_E?$BaseRefVectorOf@VDOMRangeImpl@xercesc_3_1@@@xercesc_3_1@@UAEPAXI@Z 10044451 f i  CIL library: CIL module
 0001:00043471       ??_G?$RefVectorOf@VDOMRangeImpl@xercesc_3_1@@@xercesc_3_1@@UAEPAXI@Z 10044471 f i xerces-c_3_1:DOMDocumentImpl.cpp.obj
 0001:00043471       ??_E?$RefVectorOf@VDOMRangeImpl@xercesc_3_1@@@xercesc_3_1@@UAEPAXI@Z 10044471 f i  CIL library: CIL module
 0001:000434e4       ??_E?$BaseRefVectorOf@VDOMNodeIteratorImpl@xercesc_3_1@@@xercesc_3_1@@UAEPAXI@Z 100444e4 f i  CIL library: CIL module
 0001:000434e4       ??_G?$BaseRefVectorOf@VDOMNodeIteratorImpl@xercesc_3_1@@@xercesc_3_1@@UAEPAXI@Z 100444e4 f i xerces-c_3_1:DOMDocumentImpl.cpp.obj
 0001:00043504       ??_G?$RefVectorOf@VDOMNodeIteratorImpl@xercesc_3_1@@@xercesc_3_1@@UAEPAXI@Z 10044504 f i xerces-c_3_1:DOMDocumentImpl.cpp.obj
 0001:00043504       ??_E?$RefVectorOf@VDOMNodeIteratorImpl@xercesc_3_1@@@xercesc_3_1@@UAEPAXI@Z 10044504 f i  CIL library: CIL module
 0001:00043577       ??_G?$BaseRefVectorOf@VDOMBuffer@xercesc_3_1@@@xercesc_3_1@@UAEPAXI@Z 10044577 f i xerces-c_3_1:DOMDocumentImpl.cpp.obj
 0001:00043577       ??_E?$BaseRefVectorOf@VDOMBuffer@xercesc_3_1@@@xercesc_3_1@@UAEPAXI@Z 10044577 f i  CIL library: CIL module
 0001:00043597       ??_G?$RefVectorOf@VDOMBuffer@xercesc_3_1@@@xercesc_3_1@@UAEPAXI@Z 10044597 f i xerces-c_3_1:DOMDocumentImpl.cpp.obj
 0001:00043597       ??_E?$RefVectorOf@VDOMBuffer@xercesc_3_1@@@xercesc_3_1@@UAEPAXI@Z 10044597 f i  CIL library: CIL module
 0001:000435b7       ??_E?$RefHash2KeysTableOfEnumerator@V?$KeyRefPair@XVDOMUserDataHandler@xercesc_3_1@@@xercesc_3_1@@UPtrHasher@2@@xercesc_3_1@@UAEPAXI@Z 100445b7 f i  CIL library: CIL module
 0001:000435b7       ??_G?$RefHash2KeysTableOfEnumerator@V?$KeyRefPair@XVDOMUserDataHandler@xercesc_3_1@@@xercesc_3_1@@UPtrHasher@2@@xercesc_3_1@@UAEPAXI@Z 100445b7 f i xerces-c_3_1:DOMDocumentImpl.cpp.obj
 0001:000435d6       ??_G?$ValueVectorEnumerator@H@xercesc_3_1@@UAEPAXI@Z 100445d6 f i xerces-c_3_1:DOMDocumentImpl.cpp.obj
 0001:000435d6       ??_E?$ValueVectorEnumerator@H@xercesc_3_1@@UAEPAXI@Z 100445d6 f i  CIL library: CIL module
 0001:000435f5       ??_E?$BaseRefVectorOf@VDOMNode@xercesc_3_1@@@xercesc_3_1@@UAEPAXI@Z 100445f5 f i  CIL library: CIL module
 0001:000435f5       ??_G?$BaseRefVectorOf@VDOMNode@xercesc_3_1@@@xercesc_3_1@@UAEPAXI@Z 100445f5 f i xerces-c_3_1:DOMDocumentImpl.cpp.obj
 0001:00043615       ??_E?$RefVectorOf@VDOMNode@xercesc_3_1@@@xercesc_3_1@@UAEPAXI@Z 10044615 f i  CIL library: CIL module
 0001:00043615       ??_G?$RefVectorOf@VDOMNode@xercesc_3_1@@@xercesc_3_1@@UAEPAXI@Z 10044615 f i xerces-c_3_1:DOMDocumentImpl.cpp.obj
 0001:00043635       ?findBucketElem@?$DOMDeepNodeListPool@VDOMDeepNodeListImpl@xercesc_3_1@@UPtrHasher@2@@xercesc_3_1@@AAEPAU?$DOMDeepNodeListPoolTableBucketElem@VDOMDeepNodeListImpl@xercesc_3_1@@@2@QBXQB_W1AAK@Z 10044635 f i xerces-c_3_1:DOMDocumentImpl.cpp.obj
 0001:000436ac       ?findBucketElem@?$RefHash2KeysTableOf@V?$KeyRefPair@XVDOMUserDataHandler@xercesc_3_1@@@xercesc_3_1@@UPtrHasher@2@@xercesc_3_1@@AAEPAU?$RefHash2KeysTableBucketElem@V?$KeyRefPair@XVDOMUserDataHandler@xercesc_3_1@@@xercesc_3_1@@@2@QBXHAAK@Z 100446ac f i xerces-c_3_1:DOMDocumentImpl.cpp.obj
 0001:000436db       ?rehash@?$RefHash2KeysTableOf@VValueStore@xercesc_3_1@@UPtrHasher@2@@xercesc_3_1@@AAEXXZ 100446db f i xerces-c_3_1:ValueStoreCache.cpp.obj
 0001:000436db       ?rehash@?$RefHash2KeysTableOf@V?$KeyRefPair@XVDOMUserDataHandler@xercesc_3_1@@@xercesc_3_1@@UPtrHasher@2@@xercesc_3_1@@AAEXXZ 100446db f i xerces-c_3_1:DOMDocumentImpl.cpp.obj
 0001:00043784       ?addElement@?$BaseRefVectorOf@VXSParticle@xercesc_3_1@@@xercesc_3_1@@QAEXQAVXSParticle@2@@Z 10044784 f i xerces-c_3_1:XSObjectFactory.cpp.obj
 0001:00043784       ?addElement@?$BaseRefVectorOf@VXSNamespaceItem@xercesc_3_1@@@xercesc_3_1@@QAEXQAVXSNamespaceItem@2@@Z 10044784 f i xerces-c_3_1:XSModel.cpp.obj
 0001:00043784       ?addElement@?$BaseRefVectorOf@VXMLElementDecl@xercesc_3_1@@@xercesc_3_1@@QAEXQAVXMLElementDecl@2@@Z 10044784 f i xerces-c_3_1:WFXMLScanner.cpp.obj
 0001:00043784       ?addElement@?$BaseRefVectorOf@VReferencePosition@RegxParser@xercesc_3_1@@@xercesc_3_1@@QAEXQAVReferencePosition@RegxParser@2@@Z 10044784 f i xerces-c_3_1:RegxParser.cpp.obj
 0001:00043784       ?addElement@?$BaseRefVectorOf@VXSAnnotation@xercesc_3_1@@@xercesc_3_1@@QAEXQAVXSAnnotation@2@@Z 10044784 f i xerces-c_3_1:XSModel.cpp.obj
 0001:00043784       ?addElement@?$BaseRefVectorOf@VToken@xercesc_3_1@@@xercesc_3_1@@QAEXQAVToken@2@@Z 10044784 f i xerces-c_3_1:TokenFactory.cpp.obj
 0001:00043784       ?addElement@?$BaseRefVectorOf@VXSFacet@xercesc_3_1@@@xercesc_3_1@@QAEXQAVXSFacet@2@@Z 10044784 f i xerces-c_3_1:XSObjectFactory.cpp.obj
 0001:00043784       ?addElement@?$BaseRefVectorOf@VOp@xercesc_3_1@@@xercesc_3_1@@QAEXQAVOp@2@@Z 10044784 f i xerces-c_3_1:OpFactory.cpp.obj
 0001:00043784       ?addElement@?$BaseRefVectorOf@VXercesLocationPath@xercesc_3_1@@@xercesc_3_1@@QAEXQAVXercesLocationPath@2@@Z 10044784 f i xerces-c_3_1:XercesXPath.cpp.obj
 0001:00043784       ?addElement@?$BaseRefVectorOf@VXSMultiValueFacet@xercesc_3_1@@@xercesc_3_1@@QAEXQAVXSMultiValueFacet@2@@Z 10044784 f i xerces-c_3_1:XSObjectFactory.cpp.obj
 0001:00043784       ?addElement@?$BaseRefVectorOf@VXMLEntityDecl@xercesc_3_1@@@xercesc_3_1@@QAEXQAVXMLEntityDecl@2@@Z 10044784 f i xerces-c_3_1:ReaderMgr.cpp.obj
 0001:00043784       ?addElement@?$BaseRefVectorOf@VKVStringPair@xercesc_3_1@@@xercesc_3_1@@QAEXQAVKVStringPair@2@@Z 10044784 f i xerces-c_3_1:IGXMLScanner.cpp.obj
 0001:00043784       ?addElement@?$BaseRefVectorOf@VPSVIAttributeStorage@xercesc_3_1@@@xercesc_3_1@@QAEXQAVPSVIAttributeStorage@2@@Z 10044784 f i xerces-c_3_1:SGXMLScanner.cpp.obj
 0001:00043784       ?addElement@?$BaseRefVectorOf@V?$RefHashTableOf@_WUStringHasher@xercesc_3_1@@@xercesc_3_1@@@xercesc_3_1@@QAEXQAV?$RefHashTableOf@_WUStringHasher@xercesc_3_1@@@2@@Z 10044784 f i xerces-c_3_1:DOMLSSerializerImpl.cpp.obj
 0001:00043784       ?addElement@?$BaseRefVectorOf@VValueStore@xercesc_3_1@@@xercesc_3_1@@QAEXQAVValueStore@2@@Z 10044784 f i xerces-c_3_1:ValueStoreCache.cpp.obj
 0001:00043784       ?addElement@?$BaseRefVectorOf@VScope@InScopeNamespaces@DOMNormalizer@xercesc_3_1@@@xercesc_3_1@@QAEXQAVScope@InScopeNamespaces@DOMNormalizer@2@@Z 10044784 f i xerces-c_3_1:DOMNormalizer.cpp.obj
 0001:00043784       ?addElement@?$BaseRefVectorOf@VXMLReader@xercesc_3_1@@@xercesc_3_1@@QAEXQAVXMLReader@2@@Z 10044784 f i xerces-c_3_1:ReaderMgr.cpp.obj
 0001:00043784       ?addElement@?$BaseRefVectorOf@VDOMDocumentImpl@xercesc_3_1@@@xercesc_3_1@@QAEXQAVDOMDocumentImpl@2@@Z 10044784 f i xerces-c_3_1:AbstractDOMParser.cpp.obj
 0001:00043784       ?addElement@?$BaseRefVectorOf@VIC_Field@xercesc_3_1@@@xercesc_3_1@@QAEXQAVIC_Field@2@@Z 10044784 f i xerces-c_3_1:XTemplateSerializer.cpp.obj
 0001:00043784       ?addElement@?$BaseRefVectorOf@VSchemaInfo@xercesc_3_1@@@xercesc_3_1@@QAEXQAVSchemaInfo@2@@Z 10044784 f i xerces-c_3_1:TraverseSchema.cpp.obj
 0001:00043784       ?addElement@?$BaseRefVectorOf@VDOMNodeIteratorImpl@xercesc_3_1@@@xercesc_3_1@@QAEXQAVDOMNodeIteratorImpl@2@@Z 10044784 f i xerces-c_3_1:DOMDocumentImpl.cpp.obj
 0001:00043784       ?addElement@?$BaseRefVectorOf@VDOMRangeImpl@xercesc_3_1@@@xercesc_3_1@@QAEXQAVDOMRangeImpl@2@@Z 10044784 f i xerces-c_3_1:DOMDocumentImpl.cpp.obj
 0001:00043784       ?addElement@?$BaseRefVectorOf@VDOMNode@xercesc_3_1@@@xercesc_3_1@@QAEXQAVDOMNode@2@@Z 10044784 f i xerces-c_3_1:DOMDocumentImpl.cpp.obj
 0001:00043784       ?addElement@?$BaseRefVectorOf@VIdentityConstraint@xercesc_3_1@@@xercesc_3_1@@QAEXQAVIdentityConstraint@2@@Z 10044784 f i xerces-c_3_1:XTemplateSerializer.cpp.obj
 0001:00043784       ?addElement@?$BaseRefVectorOf@VXSSimpleTypeDefinition@xercesc_3_1@@@xercesc_3_1@@QAEXQAVXSSimpleTypeDefinition@2@@Z 10044784 f i xerces-c_3_1:XSObjectFactory.cpp.obj
 0001:00043784       ?addElement@?$BaseRefVectorOf@VSchemaElementDecl@xercesc_3_1@@@xercesc_3_1@@QAEXQAVSchemaElementDecl@2@@Z 10044784 f i xerces-c_3_1:XTemplateSerializer.cpp.obj
 0001:00043784       ?addElement@?$BaseRefVectorOf@VSchemaAttDef@xercesc_3_1@@@xercesc_3_1@@QAEXQAVSchemaAttDef@2@@Z 10044784 f i xerces-c_3_1:XTemplateSerializer.cpp.obj
 0001:00043784       ?addElement@?$BaseRefVectorOf@V?$ValueStackOf@K@xercesc_3_1@@@xercesc_3_1@@QAEXQAV?$ValueStackOf@K@2@@Z 10044784 f i xerces-c_3_1:XPathMatcher.cpp.obj
 0001:00043784       ?addElement@?$BaseRefVectorOf@VDOMBuffer@xercesc_3_1@@@xercesc_3_1@@QAEXQAVDOMBuffer@2@@Z 10044784 f i xerces-c_3_1:DOMDocumentImpl.cpp.obj
 0001:00043784       ?addElement@?$BaseRefVectorOf@VDOMImplementation@xercesc_3_1@@@xercesc_3_1@@QAEXQAVDOMImplementation@2@@Z 10044784 f i xerces-c_3_1:DOMImplementationListImpl.cpp.obj
 0001:00043784       ?addElement@?$BaseRefVectorOf@_W@xercesc_3_1@@QAEXQA_W@Z 10044784 f i xerces-c_3_1:XMLString.cpp.obj
 0001:00043784       ?addElement@?$BaseRefVectorOf@VXSAttributeUse@xercesc_3_1@@@xercesc_3_1@@QAEXQAVXSAttributeUse@2@@Z 10044784 f i xerces-c_3_1:XSObjectFactory.cpp.obj
 0001:00043784       ?addElement@?$BaseRefVectorOf@VXMLAttr@xercesc_3_1@@@xercesc_3_1@@QAEXQAVXMLAttr@2@@Z 10044784 f i xerces-c_3_1:DOMXPathExpressionImpl.cpp.obj
 0001:00043784       ?addElement@?$BaseRefVectorOf@VXSObject@xercesc_3_1@@@xercesc_3_1@@QAEXQAVXSObject@2@@Z 10044784 f i xerces-c_3_1:XSModel.cpp.obj
 0001:00043784       ?addElement@?$BaseRefVectorOf@VDatatypeValidator@xercesc_3_1@@@xercesc_3_1@@QAEXQAVDatatypeValidator@2@@Z 10044784 f i xerces-c_3_1:XTemplateSerializer.cpp.obj
 0001:00043784       ?addElement@?$BaseRefVectorOf@VXPathMatcher@xercesc_3_1@@@xercesc_3_1@@QAEXQAVXPathMatcher@2@@Z 10044784 f i xerces-c_3_1:IdentityConstraintHandler.cpp.obj
 0001:00043784       ?addElement@?$BaseRefVectorOf@V?$RefHashTableOf@VValueStore@xercesc_3_1@@UPtrHasher@2@@xercesc_3_1@@@xercesc_3_1@@QAEXQAV?$RefHashTableOf@VValueStore@xercesc_3_1@@UPtrHasher@2@@2@@Z 10044784 f i xerces-c_3_1:ValueStoreCache.cpp.obj
 0001:00043784       ?addElement@?$BaseRefVectorOf@VXSIDCDefinition@xercesc_3_1@@@xercesc_3_1@@QAEXQAVXSIDCDefinition@2@@Z 10044784 f i xerces-c_3_1:XSObjectFactory.cpp.obj
 0001:00043800       ?findNext@?$RefHash2KeysTableOfEnumerator@V?$KeyRefPair@XVDOMUserDataHandler@xercesc_3_1@@@xercesc_3_1@@UPtrHasher@2@@xercesc_3_1@@AAEXXZ 10044800 f i xerces-c_3_1:DOMDocumentImpl.cpp.obj
 0001:00043889       ??0?$RefVectorOf@VDOMNode@xercesc_3_1@@@xercesc_3_1@@QAE@K_NQAVMemoryManager@1@@Z 10044889 f i xerces-c_3_1:DOMDocumentImpl.cpp.obj
 0001:000438ca       ??_EDOMDocumentImpl@xercesc_3_1@@W3AEPAXI@Z 100448ca f i xerces-c_3_1:DOMDocumentImpl.cpp.obj
 0001:000438d2       ??_EDOMDocumentImpl@xercesc_3_1@@W7AEPAXI@Z 100448d2 f i xerces-c_3_1:DOMDocumentImpl.cpp.obj
 0001:000438da       ??_EDOMDocument@xercesc_3_1@@W3AEPAXI@Z 100448da f i xerces-c_3_1:DOMDocumentImpl.cpp.obj
 0001:000438e2       ??_EDOMDocumentImpl@xercesc_3_1@@WM@AEPAXI@Z 100448e2 f i xerces-c_3_1:DOMDocumentImpl.cpp.obj
 0001:000438ea       ??_EDOMDocument@xercesc_3_1@@W7AEPAXI@Z 100448ea f i xerces-c_3_1:DOMDocumentImpl.cpp.obj
 0001:000438f2       ??_9DOMXPathExpression@xercesc_3_1@@$B7AE 100448f2 f i xerces-c_3_1:DOMDocumentImpl.cpp.obj
 0001:000438f7       ??_EDOMDocumentImpl@xercesc_3_1@@WBA@AEPAXI@Z 100448f7 f i xerces-c_3_1:DOMDocumentImpl.cpp.obj
 0001:000438ff       ??_EDOMDocument@xercesc_3_1@@WM@AEPAXI@Z 100448ff f i xerces-c_3_1:DOMDocumentImpl.cpp.obj
 0001:00043907       ?initializeStaticData@XMLInitializer@xercesc_3_1@@KAXXZ 10044907 f   xerces-c_3_1:XMLInitializer.cpp.obj
 0001:00043c60       ?terminateStaticData@XMLInitializer@xercesc_3_1@@KAXXZ 10044c60 f   xerces-c_3_1:XMLInitializer.cpp.obj
 0001:00043efa       ??1XMLMsgLoader@xercesc_3_1@@UAE@XZ 10044efa f i xerces-c_3_1:InMemMsgLoader.cpp.obj
 0001:00043f01       ??_GXMLMsgLoader@xercesc_3_1@@UAEPAXI@Z 10044f01 f i xerces-c_3_1:InMemMsgLoader.cpp.obj
 0001:00043f01       ??_EXMLMsgLoader@xercesc_3_1@@UAEPAXI@Z 10044f01 f i  CIL library: CIL module
 0001:00043f21       ??0InMemMsgLoader@xercesc_3_1@@QAE@QB_W@Z 10044f21 f   xerces-c_3_1:InMemMsgLoader.cpp.obj
 0001:00043fa8       ??_GInMemMsgLoader@xercesc_3_1@@UAEPAXI@Z 10044fa8 f i xerces-c_3_1:InMemMsgLoader.cpp.obj
 0001:00043fa8       ??_EInMemMsgLoader@xercesc_3_1@@UAEPAXI@Z 10044fa8 f i  CIL library: CIL module
 0001:00043ff9       ?loadMsg@InMemMsgLoader@xercesc_3_1@@UAE_NIQA_WK@Z 10044ff9 f   xerces-c_3_1:InMemMsgLoader.cpp.obj
 0001:000440d3       ?loadMsg@InMemMsgLoader@xercesc_3_1@@UAE_NIQA_WKQB_W111QAVMemoryManager@2@@Z 100450d3 f   xerces-c_3_1:InMemMsgLoader.cpp.obj
 0001:0004410b       ?loadMsg@InMemMsgLoader@xercesc_3_1@@UAE_NIQA_WKQBD111QAVMemoryManager@2@@Z 1004510b f   xerces-c_3_1:InMemMsgLoader.cpp.obj
 0001:000441d5       ??0XMLMutex@xercesc_3_1@@QAE@QAVMemoryManager@1@@Z 100451d5 f   xerces-c_3_1:Mutexes.cpp.obj
 0001:000441fe       ??1XMLMutex@xercesc_3_1@@QAE@XZ 100451fe f   xerces-c_3_1:Mutexes.cpp.obj
 0001:0004422e       ??0XMLMutexLock@xercesc_3_1@@QAE@QAVXMLMutex@1@@Z 1004522e f   xerces-c_3_1:Mutexes.cpp.obj
 0001:00044255       ??1XMLMutexLock@xercesc_3_1@@QAE@XZ 10045255 f   xerces-c_3_1:Mutexes.cpp.obj
 0001:0004427a       ??_GWindowsMutexMgr@xercesc_3_1@@UAEPAXI@Z 1004527a f i xerces-c_3_1:WindowsMutexMgr.cpp.obj
 0001:0004427a       ??_EWindowsMutexMgr@xercesc_3_1@@UAEPAXI@Z 1004527a f i  CIL library: CIL module
 0001:0004427a       ??_GXMLMutexMgr@xercesc_3_1@@UAEPAXI@Z 1004527a f i xerces-c_3_1:WindowsMutexMgr.cpp.obj
 0001:0004427a       ??_EXMLMutexMgr@xercesc_3_1@@UAEPAXI@Z 1004527a f i  CIL library: CIL module
 0001:0004429a       ?create@WindowsMutexMgr@xercesc_3_1@@UAEPAXQAVMemoryManager@2@@Z 1004529a f   xerces-c_3_1:WindowsMutexMgr.cpp.obj
 0001:000442b8       ?destroy@WindowsMutexMgr@xercesc_3_1@@UAEXPAXQAVMemoryManager@2@@Z 100452b8 f   xerces-c_3_1:WindowsMutexMgr.cpp.obj
 0001:000442d3       ?lock@WindowsMutexMgr@xercesc_3_1@@UAEXPAX@Z 100452d3 f   xerces-c_3_1:WindowsMutexMgr.cpp.obj
 0001:000442dd       ?unlock@WindowsMutexMgr@xercesc_3_1@@UAEXPAX@Z 100452dd f   xerces-c_3_1:WindowsMutexMgr.cpp.obj
 0001:000442e7       ?getErrorType@XMLException@xercesc_3_1@@QBE?AW4ErrTypes@XMLErrorReporter@2@XZ 100452e7 f i xerces-c_3_1:XMLScanner.cpp.obj
 0001:0004431d       ??0XMLBuffer@xercesc_3_1@@QAE@KQAVMemoryManager@1@@Z 1004531d f i xerces-c_3_1:XMLScanner.cpp.obj
 0001:00044348       ??1XMLBuffer@xercesc_3_1@@QAE@XZ 10045348 f i xerces-c_3_1:XMLScanner.cpp.obj
 0001:00044354       ?setFullHandler@XMLBuffer@xercesc_3_1@@QAEXPAVXMLBufferFullHandler@2@K@Z 10045354 f i xerces-c_3_1:XMLScanner.cpp.obj
 0001:00044387       ??1XMLBufferFullHandler@xercesc_3_1@@UAE@XZ 10045387 f i xerces-c_3_1:XMLScanner.cpp.obj
 0001:0004438e       ??_EXMLBufferFullHandler@xercesc_3_1@@UAEPAXI@Z 1004538e f i  CIL library: CIL module
 0001:0004438e       ??_GXMLBufferFullHandler@xercesc_3_1@@UAEPAXI@Z 1004538e f i xerces-c_3_1:XMLScanner.cpp.obj
 0001:000443ae       ?errorType@XMLErrs@xercesc_3_1@@SA?AW4ErrTypes@XMLErrorReporter@2@W4Codes@12@@Z 100453ae f i xerces-c_3_1:XMLScanner.cpp.obj
 0001:000443dc       ?setXMLVersion@XMLReader@xercesc_3_1@@QAEXW4XMLVersion@12@@Z 100453dc f i xerces-c_3_1:XMLScanner.cpp.obj
 0001:0004440f       ?lookingAtSpace@ReaderMgr@xercesc_3_1@@QAE_NXZ 1004540f f i xerces-c_3_1:XMLScanner.cpp.obj
 0001:0004442b       ?skipPastChar@ReaderMgr@xercesc_3_1@@QAEX_W@Z 1004542b f i xerces-c_3_1:XMLScanner.cpp.obj
 0001:00044448       ?peekString@ReaderMgr@xercesc_3_1@@QAE_NQB_W@Z 10045448 f i xerces-c_3_1:XMLScanner.cpp.obj
 0001:000444a7       ??1ThrowEOEJanitor@xercesc_3_1@@QAE@XZ 100454a7 f i xerces-c_3_1:XMLScanner.cpp.obj
 0001:000444b0       ?bufferFull@XMLScanner@xercesc_3_1@@UAE_NAAVXMLBuffer@2@@Z 100454b0 f i xerces-c_3_1:XMLScanner.cpp.obj
 0001:000444c1       ??0UnexpectedEOFException@xercesc_3_1@@QAE@ABV01@@Z 100454c1 f i xerces-c_3_1:XMLScanner.cpp.obj
 0001:000444dc       ??1UnexpectedEOFException@xercesc_3_1@@UAE@XZ 100454dc f i xerces-c_3_1:XMLScanner.cpp.obj
 0001:000444e7       ?duplicate@UnexpectedEOFException@xercesc_3_1@@UBEPAVXMLException@2@XZ 100454e7 f i xerces-c_3_1:XMLScanner.cpp.obj
 0001:00044531       ?getType@UnexpectedEOFException@xercesc_3_1@@UBEPB_WXZ 10045531 f i xerces-c_3_1:XMLScanner.cpp.obj
 0001:00044537       ??_EUnexpectedEOFException@xercesc_3_1@@UAEPAXI@Z 10045537 f i  CIL library: CIL module
 0001:00044537       ??_GUnexpectedEOFException@xercesc_3_1@@UAEPAXI@Z 10045537 f i xerces-c_3_1:XMLScanner.cpp.obj
 0001:0004455c       ??0XMLScanner@xercesc_3_1@@QAE@QAVXMLValidator@1@QAVGrammarResolver@1@QAVMemoryManager@1@@Z 1004555c f   xerces-c_3_1:XMLScanner.cpp.obj
 0001:00044767       ??_EXMLScanner@xercesc_3_1@@UAEPAXI@Z 10045767 f i  CIL library: CIL module
 0001:00044767       ??_GXMLScanner@xercesc_3_1@@UAEPAXI@Z 10045767 f i xerces-c_3_1:XMLScanner.cpp.obj
 0001:00044786       ??1XMLScanner@xercesc_3_1@@UAE@XZ 10045786 f   xerces-c_3_1:XMLScanner.cpp.obj
 0001:00044880       ?scanDocument@XMLScanner@xercesc_3_1@@QAEXQB_W@Z 10045880 f   xerces-c_3_1:XMLScanner.cpp.obj
 0001:00044acf       ?scanDocument@XMLScanner@xercesc_3_1@@QAEXQBD@Z 10045acf f   xerces-c_3_1:XMLScanner.cpp.obj
 0001:00044b1e       ?setParseSettings@XMLScanner@xercesc_3_1@@QAEXQAV12@@Z 10045b1e f   xerces-c_3_1:XMLScanner.cpp.obj
 0001:00044c2f       ?commonInit@XMLScanner@xercesc_3_1@@AAEXXZ 10045c2f f   xerces-c_3_1:XMLScanner.cpp.obj
 0001:00044d6e       ?cleanUp@XMLScanner@xercesc_3_1@@AAEXXZ 10045d6e f   xerces-c_3_1:XMLScanner.cpp.obj
 0001:00044e13       ?initValidator@XMLScanner@xercesc_3_1@@IAEXPAVXMLValidator@2@@Z 10045e13 f   xerces-c_3_1:XMLScanner.cpp.obj
 0001:00044e2f       ?emitErrorWillThrowException@XMLScanner@xercesc_3_1@@QAE_NW4Codes@XMLErrs@2@@Z 10045e2f f   xerces-c_3_1:XMLScanner.cpp.obj
 0001:00044e4f       ?emitError@XMLScanner@xercesc_3_1@@QAEXW4Codes@XMLErrs@2@@Z 10045e4f f   xerces-c_3_1:XMLScanner.cpp.obj
 0001:00044ef4       ?emitError@XMLScanner@xercesc_3_1@@QAEXW4Codes@XMLErrs@2@QB_W111@Z 10045ef4 f   xerces-c_3_1:XMLScanner.cpp.obj
 0001:00044fae       ?emitError@XMLScanner@xercesc_3_1@@QAEXW4Codes@XMLErrs@2@QBD111@Z 10045fae f   xerces-c_3_1:XMLScanner.cpp.obj
 0001:00045068       ?emitError@XMLScanner@xercesc_3_1@@QAEXW4Codes@XMLErrs@2@W43XMLExcepts@2@QB_W222@Z 10046068 f   xerces-c_3_1:XMLScanner.cpp.obj
 0001:0004511e       ?scanMiscellaneous@XMLScanner@xercesc_3_1@@IAEXXZ 1004611e f   xerces-c_3_1:XMLScanner.cpp.obj
 0001:000452ca       ?scanPI@XMLScanner@xercesc_3_1@@IAEXXZ 100462ca f   xerces-c_3_1:XMLScanner.cpp.obj
 0001:0004562b       ?scanProlog@XMLScanner@xercesc_3_1@@IAEXXZ 1004662b f   xerces-c_3_1:XMLScanner.cpp.obj
 0001:00045832       ?scanXMLDecl@XMLScanner@xercesc_3_1@@IAEXW4DeclTypes@12@@Z 10046832 f   xerces-c_3_1:XMLScanner.cpp.obj
 0001:00045e72       ?getURIText@XMLScanner@xercesc_3_1@@QBEPB_WI@Z 10046e72 f   xerces-c_3_1:XMLScanner.cpp.obj
 0001:00045ea6       ?getURIText@XMLScanner@xercesc_3_1@@QBE_NIAAVXMLBuffer@2@@Z 10046ea6 f   xerces-c_3_1:XMLScanner.cpp.obj
 0001:00045ef0       ?checkXMLDecl@XMLScanner@xercesc_3_1@@QAE_N_N@Z 10046ef0 f   xerces-c_3_1:XMLScanner.cpp.obj
 0001:0004606d       ?loadGrammar@XMLScanner@xercesc_3_1@@QAEPAVGrammar@2@QB_WF_N@Z 1004706d f   xerces-c_3_1:XMLScanner.cpp.obj
 0001:0004631f       ?loadGrammar@XMLScanner@xercesc_3_1@@QAEPAVGrammar@2@QBDF_N@Z 1004731f f   xerces-c_3_1:XMLScanner.cpp.obj
 0001:0004637c       ?setURIStringPool@XMLScanner@xercesc_3_1@@QAEXQAVXMLStringPool@2@@Z 1004737c f   xerces-c_3_1:XMLScanner.cpp.obj
 0001:000463c9       ?checkInternalDTD@XMLScanner@xercesc_3_1@@IAEX_NQB_W1@Z 100473c9 f   xerces-c_3_1:XMLScanner.cpp.obj
 0001:000464ea       ?checkIDRefs@XMLScanner@xercesc_3_1@@IAEXXZ 100474ea f   xerces-c_3_1:XMLScanner.cpp.obj
 0001:0004657f       ?isLegalToken@XMLScanner@xercesc_3_1@@IAE_NABVXMLPScanToken@2@@Z 1004757f f   xerces-c_3_1:XMLScanner.cpp.obj
 0001:00046595       ?senseNextToken@XMLScanner@xercesc_3_1@@IAE?AW4XMLTokens@12@AAK@Z 10047595 f   xerces-c_3_1:XMLScanner.cpp.obj
 0001:000466a1       ?scanCharRef@XMLScanner@xercesc_3_1@@IAE_NAA_W0@Z 100476a1 f   xerces-c_3_1:XMLScanner.cpp.obj
 0001:00046860       ?scanComment@XMLScanner@xercesc_3_1@@IAEXXZ 10047860 f   xerces-c_3_1:XMLScanner.cpp.obj
 0001:00046aa0       ?scanEq@XMLScanner@xercesc_3_1@@IAE_N_N@Z 10047aa0 f   xerces-c_3_1:XMLScanner.cpp.obj
 0001:00046b03       ?getNewUIntPtr@XMLScanner@xercesc_3_1@@IAEPAIXZ 10047b03 f   xerces-c_3_1:XMLScanner.cpp.obj
 0001:00046bbe       ?resetUIntPool@XMLScanner@xercesc_3_1@@IAEXXZ 10047bbe f   xerces-c_3_1:XMLScanner.cpp.obj
 0001:00046bde       ?recreateUIntPool@XMLScanner@xercesc_3_1@@IAEXXZ 10047bde f   xerces-c_3_1:XMLScanner.cpp.obj
 0001:00046c58       ?resolvePrefix@XMLScanner@xercesc_3_1@@IAEIQB_WW4MapModes@ElemStack@2@@Z 10047c58 f   xerces-c_3_1:XMLScanner.cpp.obj
 0001:00046d09       ?resolveQName@XMLScanner@xercesc_3_1@@QAEIQB_WAAVXMLBuffer@2@W4MapModes@ElemStack@2@AAH@Z 10047d09 f   xerces-c_3_1:XMLScanner.cpp.obj
 0001:00046d2e       ?resolveQNameWithColon@XMLScanner@xercesc_3_1@@IAEIQB_WAAVXMLBuffer@2@W4MapModes@ElemStack@2@H@Z 10047d2e f   xerces-c_3_1:XMLScanner.cpp.obj
 0001:00046d75       ??1?$XMLEnumerator@VXMLRefInfo@xercesc_3_1@@@xercesc_3_1@@UAE@XZ 10047d75 f i xerces-c_3_1:XMLScanner.cpp.obj
 0001:00046d7c       ??_E?$XMLEnumerator@VXMLRefInfo@xercesc_3_1@@@xercesc_3_1@@UAEPAXI@Z 10047d7c f i  CIL library: CIL module
 0001:00046d7c       ??_G?$XMLEnumerator@VXMLRefInfo@xercesc_3_1@@@xercesc_3_1@@UAEPAXI@Z 10047d7c f i xerces-c_3_1:XMLScanner.cpp.obj
 0001:00046d9c       ?removeAll@?$RefHash2KeysTableOf@VXMLAttr@xercesc_3_1@@UStringHasher@2@@xercesc_3_1@@QAEXXZ 10047d9c f i xerces-c_3_1:XMLScanner.cpp.obj
 0001:00046dfd       ??1?$BaseRefVectorOf@VXMLAttr@xercesc_3_1@@@xercesc_3_1@@UAE@XZ 10047dfd f i xerces-c_3_1:XMLScanner.cpp.obj
 0001:00046e04       ?setElementAt@?$BaseRefVectorOf@VXMLAttr@xercesc_3_1@@@xercesc_3_1@@UAEXQAVXMLAttr@2@K@Z 10047e04 f i xerces-c_3_1:XMLScanner.cpp.obj
 0001:00046e8d       ?removeAllElements@?$BaseRefVectorOf@VXMLAttr@xercesc_3_1@@@xercesc_3_1@@UAEXXZ 10047e8d f i xerces-c_3_1:XMLScanner.cpp.obj
 0001:00046ecc       ?removeElementAt@?$BaseRefVectorOf@VXMLAttr@xercesc_3_1@@@xercesc_3_1@@UAEXK@Z 10047ecc f i xerces-c_3_1:XMLScanner.cpp.obj
 0001:00046f88       ?removeLastElement@?$BaseRefVectorOf@VXMLAttr@xercesc_3_1@@@xercesc_3_1@@UAEXXZ 10047f88 f i xerces-c_3_1:XMLScanner.cpp.obj
 0001:00046fb5       ?cleanup@?$BaseRefVectorOf@VXMLAttr@xercesc_3_1@@@xercesc_3_1@@UAEXXZ 10047fb5 f i xerces-c_3_1:XMLScanner.cpp.obj
 0001:00046ff4       ??0?$RefVectorOf@VXMLAttr@xercesc_3_1@@@xercesc_3_1@@QAE@K_NQAVMemoryManager@1@@Z 10047ff4 f i xerces-c_3_1:XMLScanner.cpp.obj
 0001:00047035       ??1?$RefVectorOf@VXMLAttr@xercesc_3_1@@@xercesc_3_1@@UAE@XZ 10048035 f i xerces-c_3_1:XMLScanner.cpp.obj
 0001:0004709b       ??0?$RefHashTableOfEnumerator@VXMLRefInfo@xercesc_3_1@@UStringHasher@2@@xercesc_3_1@@QAE@QAV?$RefHashTableOf@VXMLRefInfo@xercesc_3_1@@UStringHasher@2@@1@_NQAVMemoryManager@1@@Z 1004809b f i xerces-c_3_1:XMLScanner.cpp.obj
 0001:0004711d       ??1?$RefHashTableOfEnumerator@VXMLRefInfo@xercesc_3_1@@UStringHasher@2@@xercesc_3_1@@UAE@XZ 1004811d f i xerces-c_3_1:XMLScanner.cpp.obj
 0001:0004715d       ??_E?$BaseRefVectorOf@VXMLAttr@xercesc_3_1@@@xercesc_3_1@@UAEPAXI@Z 1004815d f i  CIL library: CIL module
 0001:0004715d       ??_G?$BaseRefVectorOf@VXMLAttr@xercesc_3_1@@@xercesc_3_1@@UAEPAXI@Z 1004815d f i xerces-c_3_1:XMLScanner.cpp.obj
 0001:0004717d       ??_G?$RefVectorOf@VXMLAttr@xercesc_3_1@@@xercesc_3_1@@UAEPAXI@Z 1004817d f i xerces-c_3_1:XMLScanner.cpp.obj
 0001:0004717d       ??_E?$RefVectorOf@VXMLAttr@xercesc_3_1@@@xercesc_3_1@@UAEPAXI@Z 1004817d f i  CIL library: CIL module
 0001:0004719d       ??_E?$RefHashTableOfEnumerator@VXMLRefInfo@xercesc_3_1@@UStringHasher@2@@xercesc_3_1@@UAEPAXI@Z 1004819d f i  CIL library: CIL module
 0001:0004719d       ??_G?$RefHashTableOfEnumerator@VXMLRefInfo@xercesc_3_1@@UStringHasher@2@@xercesc_3_1@@UAEPAXI@Z 1004819d f i xerces-c_3_1:XMLScanner.cpp.obj
 0001:000471bc       ??_G?$RefHashTableOf@VDatatypeValidator@xercesc_3_1@@UStringHasher@2@@xercesc_3_1@@QAEPAXI@Z 100481bc f i xerces-c_3_1:DatatypeValidatorFactory.cpp.obj
 0001:000471bc       ??_G?$RefHashTableOf@VGrammar@xercesc_3_1@@UStringHasher@2@@xercesc_3_1@@QAEPAXI@Z 100481bc f i xerces-c_3_1:GrammarResolver.cpp.obj
 0001:000471bc       ??_G?$RefHashTableOf@VXMLRefInfo@xercesc_3_1@@UStringHasher@2@@xercesc_3_1@@QAEPAXI@Z 100481bc f i xerces-c_3_1:XMLScanner.cpp.obj
 0001:000471dd       ?swapBytes@BitOps@xercesc_3_1@@SAII@Z 100481dd f i xerces-c_3_1:XMLReader.cpp.obj
 0001:00047201       ?isAllSpaces@XMLReader@xercesc_3_1@@QBE_NQB_WK@Z 10048201 f   xerces-c_3_1:XMLReader.cpp.obj
 0001:00047232       ?containsWhiteSpace@XMLReader@xercesc_3_1@@QBE_NQB_WK@Z 10048232 f   xerces-c_3_1:XMLReader.cpp.obj
 0001:00047263       ??0XMLReader@xercesc_3_1@@QAE@QB_W0QAVBinInputStream@1@W4RefFrom@01@W4Types@01@W4Sources@01@_N5KW4XMLVersion@01@QAVMemoryManager@1@@Z 10048263 f   xerces-c_3_1:XMLReader.cpp.obj
 0001:000473b6       ??0XMLReader@xercesc_3_1@@QAE@QB_W0QAVBinInputStream@1@0W4RefFrom@01@W4Types@01@W4Sources@01@_N5KW4XMLVersion@01@QAVMemoryManager@1@@Z 100483b6 f   xerces-c_3_1:XMLReader.cpp.obj
 0001:000476f1       ??0XMLReader@xercesc_3_1@@QAE@QB_W0QAVBinInputStream@1@W4Encodings@XMLRecognizer@1@W4RefFrom@01@W4Types@01@W4Sources@01@_N6KW4XMLVersion@01@QAVMemoryManager@1@@Z 100486f1 f   xerces-c_3_1:XMLReader.cpp.obj
 0001:0004790e       ?refreshCharBuffer@XMLReader@xercesc_3_1@@QAE_NXZ 1004890e f   xerces-c_3_1:XMLReader.cpp.obj
 0001:00047b58       ?getName@XMLReader@xercesc_3_1@@QAE_NAAVXMLBuffer@2@_N@Z 10048b58 f   xerces-c_3_1:XMLReader.cpp.obj
 0001:00047cb9       ?getNCName@XMLReader@xercesc_3_1@@QAE_NAAVXMLBuffer@2@@Z 10048cb9 f   xerces-c_3_1:XMLReader.cpp.obj
 0001:00047e37       ?getUpToCharOrWS@XMLReader@xercesc_3_1@@QAE_NAAVXMLBuffer@2@_W@Z 10048e37 f   xerces-c_3_1:XMLReader.cpp.obj
 0001:00047eae       ?skipSpaces@XMLReader@xercesc_3_1@@QAE_NAA_N_N@Z 10048eae f   xerces-c_3_1:XMLReader.cpp.obj
 0001:00047f1d       ?skippedString@XMLReader@xercesc_3_1@@QAE_NQB_W@Z 10048f1d f   xerces-c_3_1:XMLReader.cpp.obj
 0001:00047f8e       ?skippedStringLong@XMLReader@xercesc_3_1@@QAE_NPB_W@Z 10048f8e f   xerces-c_3_1:XMLReader.cpp.obj
 0001:00048025       ?setEncoding@XMLReader@xercesc_3_1@@QAE_NQB_W@Z 10049025 f   xerces-c_3_1:XMLReader.cpp.obj
 0001:000482c0       ?checkForSwapped@XMLReader@xercesc_3_1@@AAEXXZ 100492c0 f   xerces-c_3_1:XMLReader.cpp.obj
 0001:000482f2       ?doInitDecode@XMLReader@xercesc_3_1@@AAEXXZ 100492f2 f   xerces-c_3_1:XMLReader.cpp.obj
 0001:000487ad       ?refreshRawBuffer@XMLReader@xercesc_3_1@@AAEXXZ 100497ad f   xerces-c_3_1:XMLReader.cpp.obj
 0001:00048807       ?xcodeMoreChars@XMLReader@xercesc_3_1@@AAEKQA_WQAEK@Z 10049807 f   xerces-c_3_1:XMLReader.cpp.obj
 0001:00048898       ?handleEOL@XMLReader@xercesc_3_1@@AAEXAA_W_N@Z 10049898 f   xerces-c_3_1:XMLReader.cpp.obj
 0001:000489f9       ?getDatatypeValidator@DatatypeValidatorFactory@xercesc_3_1@@QBEPAVDatatypeValidator@2@QB_W@Z 100499f9 f i xerces-c_3_1:GrammarResolver.cpp.obj
 0001:00048a3d       ??0GrammarResolver@xercesc_3_1@@QAE@QAVXMLGrammarPool@1@QAVMemoryManager@1@@Z 10049a3d f   xerces-c_3_1:GrammarResolver.cpp.obj
 0001:00048b7e       ??1GrammarResolver@xercesc_3_1@@QAE@XZ 10049b7e f   xerces-c_3_1:GrammarResolver.cpp.obj
 0001:00048bec       ?getDatatypeValidator@GrammarResolver@xercesc_3_1@@QAEPAVDatatypeValidator@2@QB_W0@Z 10049bec f   xerces-c_3_1:GrammarResolver.cpp.obj
 0001:00048ce3       ?getGrammar@GrammarResolver@xercesc_3_1@@QAEPAVGrammar@2@QB_W@Z 10049ce3 f   xerces-c_3_1:GrammarResolver.cpp.obj
 0001:00048d76       ?getGrammar@GrammarResolver@xercesc_3_1@@QAEPAVGrammar@2@QAVXMLGrammarDescription@2@@Z 10049d76 f   xerces-c_3_1:GrammarResolver.cpp.obj
 0001:00048ddd       ?getGrammarEnumerator@GrammarResolver@xercesc_3_1@@QBE?AV?$RefHashTableOfEnumerator@VGrammar@xercesc_3_1@@UStringHasher@2@@2@XZ 10049ddd f   xerces-c_3_1:GrammarResolver.cpp.obj
 0001:00048dfa       ?putGrammar@GrammarResolver@xercesc_3_1@@QAEXQAVGrammar@2@@Z 10049dfa f   xerces-c_3_1:GrammarResolver.cpp.obj
 0001:00048e51       ?cacheGrammars@GrammarResolver@xercesc_3_1@@QAEXXZ 10049e51 f   xerces-c_3_1:GrammarResolver.cpp.obj
 0001:00048f82       ?cacheGrammarFromParse@GrammarResolver@xercesc_3_1@@QAEX_N@Z 10049f82 f   xerces-c_3_1:GrammarResolver.cpp.obj
 0001:00048fb8       ?orphanGrammar@GrammarResolver@xercesc_3_1@@QAEPAVGrammar@2@QB_W@Z 10049fb8 f   xerces-c_3_1:GrammarResolver.cpp.obj
 0001:00049025       ?getXSModel@GrammarResolver@xercesc_3_1@@QAEPAVXSModel@2@XZ 1004a025 f   xerces-c_3_1:GrammarResolver.cpp.obj
 0001:0004927e       ??1?$XMLEnumerator@VGrammar@xercesc_3_1@@@xercesc_3_1@@UAE@XZ 1004a27e f i xerces-c_3_1:GrammarResolver.cpp.obj
 0001:00049285       ??_G?$XMLEnumerator@VGrammar@xercesc_3_1@@@xercesc_3_1@@UAEPAXI@Z 1004a285 f i xerces-c_3_1:GrammarResolver.cpp.obj
 0001:00049285       ??_E?$XMLEnumerator@VGrammar@xercesc_3_1@@@xercesc_3_1@@UAEPAXI@Z 1004a285 f i  CIL library: CIL module
 0001:000492a5       ?get@?$RefHashTableOf@VXercesAttGroupInfo@xercesc_3_1@@UStringHasher@2@@xercesc_3_1@@QAEPAVXercesAttGroupInfo@2@QBX@Z 1004a2a5 f i xerces-c_3_1:XTemplateSerializer.cpp.obj
 0001:000492a5       ?get@?$RefHashTableOf@VXMLRefInfo@xercesc_3_1@@UStringHasher@2@@xercesc_3_1@@QAEPAVXMLRefInfo@2@QBX@Z 1004a2a5 f i xerces-c_3_1:ValidationContextImpl.cpp.obj
 0001:000492a5       ?get@?$RefHashTableOf@VXSObject@xercesc_3_1@@UStringHasher@2@@xercesc_3_1@@QAEPAVXSObject@2@QBX@Z 1004a2a5 f i xerces-c_3_1:XSNamespaceItem.cpp.obj
 0001:000492a5       ?get@?$RefHashTableOf@VXercesGroupInfo@xercesc_3_1@@UStringHasher@2@@xercesc_3_1@@QAEPAVXercesGroupInfo@2@QBX@Z 1004a2a5 f i xerces-c_3_1:XTemplateSerializer.cpp.obj
 0001:000492a5       ?get@?$RefHashTableOf@VXMLAttDef@xercesc_3_1@@UStringHasher@2@@xercesc_3_1@@QAEPAVXMLAttDef@2@QBX@Z 1004a2a5 f i xerces-c_3_1:SGXMLScanner.cpp.obj
 0001:000492a5       ?get@?$RefHashTableOf@VDTDAttDef@xercesc_3_1@@UStringHasher@2@@xercesc_3_1@@QAEPAVDTDAttDef@2@QBX@Z 1004a2a5 f i xerces-c_3_1:XTemplateSerializer.cpp.obj
 0001:000492a5       ?get@?$RefHashTableOf@VGrammar@xercesc_3_1@@UStringHasher@2@@xercesc_3_1@@QAEPAVGrammar@2@QBX@Z 1004a2a5 f i xerces-c_3_1:GrammarResolver.cpp.obj
 0001:000492a5       ?get@?$RefHashTableOf@VKVStringPair@xercesc_3_1@@UStringHasher@2@@xercesc_3_1@@QAEPAVKVStringPair@2@QBX@Z 1004a2a5 f i xerces-c_3_1:DOMXPathNSResolverImpl.cpp.obj
 0001:000492a5       ?get@?$RefHashTableOf@_WUStringHasher@xercesc_3_1@@@xercesc_3_1@@QAEPA_WQBX@Z 1004a2a5 f i xerces-c_3_1:DOMNormalizer.cpp.obj
 0001:000492a5       ?get@?$RefHashTableOf@VDatatypeValidator@xercesc_3_1@@UStringHasher@2@@xercesc_3_1@@QAEPAVDatatypeValidator@2@QBX@Z 1004a2a5 f i xerces-c_3_1:GrammarResolver.cpp.obj
 0001:000492a5       ?get@?$RefHashTableOf@VRangeFactory@xercesc_3_1@@UStringHasher@2@@xercesc_3_1@@QAEPAVRangeFactory@2@QBX@Z 1004a2a5 f i xerces-c_3_1:RangeTokenMap.cpp.obj
 0001:000492a5       ?get@?$RefHashTableOf@VComplexTypeInfo@xercesc_3_1@@UStringHasher@2@@xercesc_3_1@@QAEPAVComplexTypeInfo@2@QBX@Z 1004a2a5 f i xerces-c_3_1:XTemplateSerializer.cpp.obj
 0001:000492c5       ??0?$RefHashTableOf@VGrammar@xercesc_3_1@@UStringHasher@2@@xercesc_3_1@@QAE@K_NQAVMemoryManager@1@@Z 1004a2c5 f i xerces-c_3_1:GrammarResolver.cpp.obj
 0001:00049354       ?containsKey@?$RefHashTableOf@VXercesGroupInfo@xercesc_3_1@@UStringHasher@2@@xercesc_3_1@@QBE_NQBX@Z 1004a354 f i xerces-c_3_1:TraverseSchema.cpp.obj
 0001:00049354       ?containsKey@?$RefHashTableOf@VGrammar@xercesc_3_1@@UStringHasher@2@@xercesc_3_1@@QBE_NQBX@Z 1004a354 f i xerces-c_3_1:GrammarResolver.cpp.obj
 0001:00049354       ?containsKey@?$RefHashTableOf@VKVStringPair@xercesc_3_1@@UStringHasher@2@@xercesc_3_1@@QBE_NQBX@Z 1004a354 f i xerces-c_3_1:TraverseSchema.cpp.obj
 0001:00049354       ?containsKey@?$RefHashTableOf@VRangeTokenElemMap@xercesc_3_1@@UStringHasher@2@@xercesc_3_1@@QBE_NQBX@Z 1004a354 f i xerces-c_3_1:RangeTokenMap.cpp.obj
 0001:00049354       ?containsKey@?$RefHashTableOf@VDatatypeValidator@xercesc_3_1@@UStringHasher@2@@xercesc_3_1@@QBE_NQBX@Z 1004a354 f i xerces-c_3_1:GrammarResolver.cpp.obj
 0001:00049354       ?containsKey@?$RefHashTableOf@VXercesAttGroupInfo@xercesc_3_1@@UStringHasher@2@@xercesc_3_1@@QBE_NQBX@Z 1004a354 f i xerces-c_3_1:TraverseSchema.cpp.obj
 0001:00049354       ?containsKey@?$RefHashTableOf@VXMLAttDef@xercesc_3_1@@UStringHasher@2@@xercesc_3_1@@QBE_NQBX@Z 1004a354 f i xerces-c_3_1:TraverseSchema.cpp.obj
 0001:00049390       ?removeKey@?$RefHashTableOf@VGrammar@xercesc_3_1@@UStringHasher@2@@xercesc_3_1@@QAEXQBX@Z 1004a390 f i xerces-c_3_1:GrammarResolver.cpp.obj
 0001:00049451       ?orphanKey@?$RefHashTableOf@VGrammar@xercesc_3_1@@UStringHasher@2@@xercesc_3_1@@QAEPAVGrammar@2@QBX@Z 1004a451 f i xerces-c_3_1:GrammarResolver.cpp.obj
 0001:00049506       ??0?$RefHashTableOfEnumerator@VGrammar@xercesc_3_1@@UStringHasher@2@@xercesc_3_1@@QAE@QAV?$RefHashTableOf@VGrammar@xercesc_3_1@@UStringHasher@2@@1@_NQAVMemoryManager@1@@Z 1004a506 f i xerces-c_3_1:GrammarResolver.cpp.obj
 0001:00049588       ??1?$RefHashTableOfEnumerator@VGrammar@xercesc_3_1@@UStringHasher@2@@xercesc_3_1@@UAE@XZ 1004a588 f i xerces-c_3_1:GrammarResolver.cpp.obj
 0001:000495c8       ??_G?$RefHashTableOfEnumerator@VGrammar@xercesc_3_1@@UStringHasher@2@@xercesc_3_1@@UAEPAXI@Z 1004a5c8 f i xerces-c_3_1:GrammarResolver.cpp.obj
 0001:000495c8       ??_E?$RefHashTableOfEnumerator@VGrammar@xercesc_3_1@@UStringHasher@2@@xercesc_3_1@@UAEPAXI@Z 1004a5c8 f i  CIL library: CIL module
 0001:000495e7       ??1DOMTypeInfo@xercesc_3_1@@UAE@XZ 1004a5e7 f i xerces-c_3_1:DOMTypeInfoImpl.cpp.obj
 0001:000495ee       ??_EDOMTypeInfo@xercesc_3_1@@UAEPAXI@Z 1004a5ee f i  CIL library: CIL module
 0001:000495ee       ??_GDOMTypeInfo@xercesc_3_1@@UAEPAXI@Z 1004a5ee f i xerces-c_3_1:DOMTypeInfoImpl.cpp.obj
 0001:0004960e       ??1DOMPSVITypeInfo@xercesc_3_1@@UAE@XZ 1004a60e f i xerces-c_3_1:DOMTypeInfoImpl.cpp.obj
 0001:00049615       ??_GDOMPSVITypeInfo@xercesc_3_1@@UAEPAXI@Z 1004a615 f i xerces-c_3_1:DOMTypeInfoImpl.cpp.obj
 0001:00049615       ??_EDOMPSVITypeInfo@xercesc_3_1@@UAEPAXI@Z 1004a615 f i  CIL library: CIL module
 0001:00049635       ??0DOMTypeInfoImpl@xercesc_3_1@@QAE@PB_W0@Z 1004a635 f   xerces-c_3_1:DOMTypeInfoImpl.cpp.obj
 0001:0004966a       ??_EDOMTypeInfoImpl@xercesc_3_1@@UAEPAXI@Z 1004a66a f i  CIL library: CIL module
 0001:0004966a       ??_GDOMTypeInfoImpl@xercesc_3_1@@UAEPAXI@Z 1004a66a f i xerces-c_3_1:DOMTypeInfoImpl.cpp.obj
 0001:00049691       ??0DOMTypeInfoImpl@xercesc_3_1@@QAE@PAVDOMDocumentImpl@1@PBVDOMPSVITypeInfo@1@@Z 1004a691 f   xerces-c_3_1:DOMTypeInfoImpl.cpp.obj
 0001:000497d9       ?getTypeName@DOMTypeInfoImpl@xercesc_3_1@@UBEPB_WXZ 1004a7d9 f   xerces-c_3_1:DOMTypeInfoImpl.cpp.obj
 0001:00049808       ?getTypeNamespace@DOMTypeInfoImpl@xercesc_3_1@@UBEPB_WXZ 1004a808 f   xerces-c_3_1:DOMTypeInfoImpl.cpp.obj
 0001:0004983b       ?isDerivedFrom@DOMTypeInfoImpl@xercesc_3_1@@UBE_NPB_W0W4DerivationMethods@DOMTypeInfo@2@@Z 1004a83b f   xerces-c_3_1:DOMTypeInfoImpl.cpp.obj
 0001:00049884       ?getStringProperty@DOMTypeInfoImpl@xercesc_3_1@@UBEPB_WW4PSVIProperty@DOMPSVITypeInfo@2@@Z 1004a884 f   xerces-c_3_1:DOMTypeInfoImpl.cpp.obj
 0001:000498c5       ?getNumericProperty@DOMTypeInfoImpl@xercesc_3_1@@UBEHW4PSVIProperty@DOMPSVITypeInfo@2@@Z 1004a8c5 f   xerces-c_3_1:DOMTypeInfoImpl.cpp.obj
 0001:00049932       ?setStringProperty@DOMTypeInfoImpl@xercesc_3_1@@UAEXW4PSVIProperty@DOMPSVITypeInfo@2@PB_W@Z 1004a932 f   xerces-c_3_1:DOMTypeInfoImpl.cpp.obj
 0001:00049981       ?setNumericProperty@DOMTypeInfoImpl@xercesc_3_1@@UAEXW4PSVIProperty@DOMPSVITypeInfo@2@H@Z 1004a981 f   xerces-c_3_1:DOMTypeInfoImpl.cpp.obj
 0001:00049a01       ??_EDOMTypeInfoImpl@xercesc_3_1@@W3AEPAXI@Z 1004aa01 f i xerces-c_3_1:DOMTypeInfoImpl.cpp.obj
 0001:00049a09       ??2@YAPAXIPAVDOMDocument@xercesc_3_1@@W4NodeObjectType@DOMMemoryManager@1@@Z 1004aa09 f i xerces-c_3_1:DOMTextImpl.cpp.obj
 0001:00049a33       ?cloneNode@DOMTextImpl@xercesc_3_1@@UBEPAVDOMNode@2@_N@Z 1004aa33 f   xerces-c_3_1:DOMTextImpl.cpp.obj
 0001:00049ac1       ?getNodeName@DOMTextImpl@xercesc_3_1@@UBEPB_WXZ 1004aac1 f   xerces-c_3_1:DOMTextImpl.cpp.obj
 0001:00049ac7       ?getNodeType@DOMTextImpl@xercesc_3_1@@UBE?AW4NodeType@DOMNode@2@XZ 1004aac7 f   xerces-c_3_1:DOMTextImpl.cpp.obj
 0001:00049acb       ?splitText@DOMTextImpl@xercesc_3_1@@UAEPAVDOMText@2@K@Z 1004aacb f   xerces-c_3_1:DOMTextImpl.cpp.obj
 0001:00049c57       ?isIgnorableWhitespace@DOMTextImpl@xercesc_3_1@@UBE_NXZ 1004ac57 f   xerces-c_3_1:DOMTextImpl.cpp.obj
 0001:00049c57       ?isIgnorableWhitespace@DOMCDATASectionImpl@xercesc_3_1@@UBE_NXZ 1004ac57 f   xerces-c_3_1:DOMCDATASectionImpl.cpp.obj
 0001:00049c62       ?setIgnorableWhitespace@DOMTextImpl@xercesc_3_1@@MAEX_N@Z 1004ac62 f   xerces-c_3_1:DOMTextImpl.cpp.obj
 0001:00049c7f       ?getWholeText@DOMTextImpl@xercesc_3_1@@UBEPB_WXZ 1004ac7f f   xerces-c_3_1:DOMTextImpl.cpp.obj
 0001:00049c7f       ?getWholeText@DOMCDATASectionImpl@xercesc_3_1@@UBEPB_WXZ 1004ac7f f   xerces-c_3_1:DOMCDATASectionImpl.cpp.obj
 0001:00049e42       ?replaceWholeText@DOMTextImpl@xercesc_3_1@@UAEPAVDOMText@2@PB_W@Z 1004ae42 f   xerces-c_3_1:DOMTextImpl.cpp.obj
 0001:00049e42       ?replaceWholeText@DOMCDATASectionImpl@xercesc_3_1@@UAEPAVDOMText@2@PB_W@Z 1004ae42 f   xerces-c_3_1:DOMCDATASectionImpl.cpp.obj
 0001:0004a0b0       ?release@DOMTextImpl@xercesc_3_1@@UAEXXZ 1004b0b0 f   xerces-c_3_1:DOMTextImpl.cpp.obj
 0001:0004a15c       ?getChildNodes@DOMCDATASectionImpl@xercesc_3_1@@UBEPAVDOMNodeList@2@XZ 1004b15c f   xerces-c_3_1:DOMCDATASectionImpl.cpp.obj
 0001:0004a15c       ?getChildNodes@DOMProcessingInstructionImpl@xercesc_3_1@@UBEPAVDOMNodeList@2@XZ 1004b15c f   xerces-c_3_1:DOMProcessingInstructionImpl.cpp.obj
 0001:0004a15c       ?getChildNodes@DOMCommentImpl@xercesc_3_1@@UBEPAVDOMNodeList@2@XZ 1004b15c f   xerces-c_3_1:DOMCommentImpl.cpp.obj
 0001:0004a15c       ?getChildNodes@DOMNotationImpl@xercesc_3_1@@UBEPAVDOMNodeList@2@XZ 1004b15c f   xerces-c_3_1:DOMNotationImpl.cpp.obj
 0001:0004a15c       ?getChildNodes@DOMTextImpl@xercesc_3_1@@UBEPAVDOMNodeList@2@XZ 1004b15c f   xerces-c_3_1:DOMTextImpl.cpp.obj
 0001:0004a162       ?getData@DOMCommentImpl@xercesc_3_1@@UBEPB_WXZ 1004b162 f   xerces-c_3_1:DOMCommentImpl.cpp.obj
 0001:0004a162       ?getData@DOMProcessingInstructionImpl@xercesc_3_1@@UBEPB_WXZ 1004b162 f   xerces-c_3_1:DOMProcessingInstructionImpl.cpp.obj
 0001:0004a162       ?getNodeValue@DOMTextImpl@xercesc_3_1@@UBEPB_WXZ 1004b162 f   xerces-c_3_1:DOMTextImpl.cpp.obj
 0001:0004a162       ?getData@DOMTextImpl@xercesc_3_1@@UBEPB_WXZ 1004b162 f   xerces-c_3_1:DOMTextImpl.cpp.obj
 0001:0004a162       ?getNodeValue@DOMProcessingInstructionImpl@xercesc_3_1@@UBEPB_WXZ 1004b162 f   xerces-c_3_1:DOMProcessingInstructionImpl.cpp.obj
 0001:0004a162       ?getNodeValue@DOMCommentImpl@xercesc_3_1@@UBEPB_WXZ 1004b162 f   xerces-c_3_1:DOMCommentImpl.cpp.obj
 0001:0004a162       ?getNodeValue@DOMCDATASectionImpl@xercesc_3_1@@UBEPB_WXZ 1004b162 f   xerces-c_3_1:DOMCDATASectionImpl.cpp.obj
 0001:0004a162       ?getData@DOMCDATASectionImpl@xercesc_3_1@@UBEPB_WXZ 1004b162 f   xerces-c_3_1:DOMCDATASectionImpl.cpp.obj
 0001:0004a175       ?replaceChild@DOMNotationImpl@xercesc_3_1@@UAEPAVDOMNode@2@PAV32@0@Z 1004b175 f   xerces-c_3_1:DOMNotationImpl.cpp.obj
 0001:0004a175       ?appendChild@DOMTextImpl@xercesc_3_1@@UAEPAVDOMNode@2@PAV32@@Z 1004b175 f   xerces-c_3_1:DOMTextImpl.cpp.obj
 0001:0004a175       ?appendChild@DOMCommentImpl@xercesc_3_1@@UAEPAVDOMNode@2@PAV32@@Z 1004b175 f   xerces-c_3_1:DOMCommentImpl.cpp.obj
 0001:0004a175       ?replaceChild@DOMTextImpl@xercesc_3_1@@UAEPAVDOMNode@2@PAV32@0@Z 1004b175 f   xerces-c_3_1:DOMTextImpl.cpp.obj
 0001:0004a175       ?appendChild@DOMCDATASectionImpl@xercesc_3_1@@UAEPAVDOMNode@2@PAV32@@Z 1004b175 f   xerces-c_3_1:DOMCDATASectionImpl.cpp.obj
 0001:0004a175       ?insertBefore@DOMCommentImpl@xercesc_3_1@@UAEPAVDOMNode@2@PAV32@0@Z 1004b175 f   xerces-c_3_1:DOMCommentImpl.cpp.obj
 0001:0004a175       ?insertBefore@DOMNotationImpl@xercesc_3_1@@UAEPAVDOMNode@2@PAV32@0@Z 1004b175 f   xerces-c_3_1:DOMNotationImpl.cpp.obj
 0001:0004a175       ?replaceChild@DOMCDATASectionImpl@xercesc_3_1@@UAEPAVDOMNode@2@PAV32@0@Z 1004b175 f   xerces-c_3_1:DOMCDATASectionImpl.cpp.obj
 0001:0004a175       ?replaceChild@DOMCommentImpl@xercesc_3_1@@UAEPAVDOMNode@2@PAV32@0@Z 1004b175 f   xerces-c_3_1:DOMCommentImpl.cpp.obj
 0001:0004a175       ?insertBefore@DOMCDATASectionImpl@xercesc_3_1@@UAEPAVDOMNode@2@PAV32@0@Z 1004b175 f   xerces-c_3_1:DOMCDATASectionImpl.cpp.obj
 0001:0004a175       ?appendChild@DOMNotationImpl@xercesc_3_1@@UAEPAVDOMNode@2@PAV32@@Z 1004b175 f   xerces-c_3_1:DOMNotationImpl.cpp.obj
 0001:0004a175       ?appendChild@DOMProcessingInstructionImpl@xercesc_3_1@@UAEPAVDOMNode@2@PAV32@@Z 1004b175 f   xerces-c_3_1:DOMProcessingInstructionImpl.cpp.obj
 0001:0004a175       ?replaceChild@DOMProcessingInstructionImpl@xercesc_3_1@@UAEPAVDOMNode@2@PAV32@0@Z 1004b175 f   xerces-c_3_1:DOMProcessingInstructionImpl.cpp.obj
 0001:0004a175       ?insertBefore@DOMProcessingInstructionImpl@xercesc_3_1@@UAEPAVDOMNode@2@PAV32@0@Z 1004b175 f   xerces-c_3_1:DOMProcessingInstructionImpl.cpp.obj
 0001:0004a175       ?insertBefore@DOMTextImpl@xercesc_3_1@@UAEPAVDOMNode@2@PAV32@0@Z 1004b175 f   xerces-c_3_1:DOMTextImpl.cpp.obj
 0001:0004a17f       ?getBaseURI@DOMAttrImpl@xercesc_3_1@@UBEPB_WXZ 1004b17f f   xerces-c_3_1:DOMAttrImpl.cpp.obj
 0001:0004a17f       ?getBaseURI@DOMTextImpl@xercesc_3_1@@UBEPB_WXZ 1004b17f f   xerces-c_3_1:DOMTextImpl.cpp.obj
 0001:0004a17f       ?getBaseURI@DOMDocumentTypeImpl@xercesc_3_1@@UBEPB_WXZ 1004b17f f   xerces-c_3_1:DOMDocumentTypeImpl.cpp.obj
 0001:0004a17f       ?getBaseURI@DOMDocumentFragmentImpl@xercesc_3_1@@UBEPB_WXZ 1004b17f f   xerces-c_3_1:DOMDocumentFragmentImpl.cpp.obj
 0001:0004a17f       ?getBaseURI@DOMCommentImpl@xercesc_3_1@@UBEPB_WXZ 1004b17f f   xerces-c_3_1:DOMCommentImpl.cpp.obj
 0001:0004a17f       ?getBaseURI@DOMCDATASectionImpl@xercesc_3_1@@UBEPB_WXZ 1004b17f f   xerces-c_3_1:DOMCDATASectionImpl.cpp.obj
 0001:0004a187       ?getLength@DOMCommentImpl@xercesc_3_1@@UBEKXZ 1004b187 f   xerces-c_3_1:DOMCommentImpl.cpp.obj
 0001:0004a187       ?getLength@DOMCDATASectionImpl@xercesc_3_1@@UBEKXZ 1004b187 f   xerces-c_3_1:DOMCDATASectionImpl.cpp.obj
 0001:0004a187       ?getName@XSIDCDefinition@xercesc_3_1@@UBEPB_WXZ 1004b187 f   xerces-c_3_1:XSIDCDefinition.cpp.obj
 0001:0004a187       ?getLength@DOMTextImpl@xercesc_3_1@@UBEKXZ 1004b187 f   xerces-c_3_1:DOMTextImpl.cpp.obj
 0001:0004a18e       ?substringData@DOMCDATASectionImpl@xercesc_3_1@@UBEPB_WKK@Z 1004b18e f   xerces-c_3_1:DOMCDATASectionImpl.cpp.obj
 0001:0004a18e       ?substringData@DOMCommentImpl@xercesc_3_1@@UBEPB_WKK@Z 1004b18e f   xerces-c_3_1:DOMCommentImpl.cpp.obj
 0001:0004a18e       ?substringData@DOMTextImpl@xercesc_3_1@@UBEPB_WKK@Z 1004b18e f   xerces-c_3_1:DOMTextImpl.cpp.obj
 0001:0004a1a4       ?appendData@DOMCDATASectionImpl@xercesc_3_1@@UAEXPB_W@Z 1004b1a4 f   xerces-c_3_1:DOMCDATASectionImpl.cpp.obj
 0001:0004a1a4       ?appendData@DOMCommentImpl@xercesc_3_1@@UAEXPB_W@Z 1004b1a4 f   xerces-c_3_1:DOMCommentImpl.cpp.obj
 0001:0004a1a4       ?appendData@DOMTextImpl@xercesc_3_1@@UAEXPB_W@Z 1004b1a4 f   xerces-c_3_1:DOMTextImpl.cpp.obj
 0001:0004a1b0       ?insertData@DOMCDATASectionImpl@xercesc_3_1@@UAEXKPB_W@Z 1004b1b0 f   xerces-c_3_1:DOMCDATASectionImpl.cpp.obj
 0001:0004a1b0       ?insertData@DOMTextImpl@xercesc_3_1@@UAEXKPB_W@Z 1004b1b0 f   xerces-c_3_1:DOMTextImpl.cpp.obj
 0001:0004a1b0       ?insertData@DOMCommentImpl@xercesc_3_1@@UAEXKPB_W@Z 1004b1b0 f   xerces-c_3_1:DOMCommentImpl.cpp.obj
 0001:0004a1c6       ?deleteData@DOMCommentImpl@xercesc_3_1@@UAEXKK@Z 1004b1c6 f   xerces-c_3_1:DOMCommentImpl.cpp.obj
 0001:0004a1c6       ?deleteData@DOMTextImpl@xercesc_3_1@@UAEXKK@Z 1004b1c6 f   xerces-c_3_1:DOMTextImpl.cpp.obj
 0001:0004a1c6       ?deleteData@DOMCDATASectionImpl@xercesc_3_1@@UAEXKK@Z 1004b1c6 f   xerces-c_3_1:DOMCDATASectionImpl.cpp.obj
 0001:0004a1dd       ?appendData@DOMTextImpl@xercesc_3_1@@UAEXPB_WK@Z 1004b1dd f   xerces-c_3_1:DOMTextImpl.cpp.obj
 0001:0004a25c       ?getPooledNString@DOMDocumentImpl@xercesc_3_1@@QAEPB_WPB_WK@Z 1004b25c f i xerces-c_3_1:DOMAttrNSImpl.cpp.obj
 0001:0004a357       ?removeAttrFromIDNodeMap@DOMAttrImpl@xercesc_3_1@@UAEXXZ 1004b357 f i xerces-c_3_1:DOMAttrNSImpl.cpp.obj
 0001:0004a386       ?addAttrToIDNodeMap@DOMAttrImpl@xercesc_3_1@@UAEXXZ 1004b386 f i xerces-c_3_1:DOMAttrNSImpl.cpp.obj
 0001:0004a3f7       ??0DOMAttrNSImpl@xercesc_3_1@@QAE@PAVDOMDocument@1@PB_W111@Z 1004b3f7 f   xerces-c_3_1:DOMAttrNSImpl.cpp.obj
 0001:0004a49b       ?cloneNode@DOMAttrNSImpl@xercesc_3_1@@UBEPAVDOMNode@2@_N@Z 1004b49b f   xerces-c_3_1:DOMAttrNSImpl.cpp.obj
 0001:0004a507       ?getNotationName@DOMEntityImpl@xercesc_3_1@@UBEPB_WXZ 1004b507 f   xerces-c_3_1:DOMEntityImpl.cpp.obj
 0001:0004a507       ?getLocalName@DOMAttrNSImpl@xercesc_3_1@@UBEPB_WXZ 1004b507 f   xerces-c_3_1:DOMAttrNSImpl.cpp.obj
 0001:0004a507       ?getDefaultAttributes@DOMElementImpl@xercesc_3_1@@UBEPAVDOMAttrMapImpl@2@XZ 1004b507 f   xerces-c_3_1:DOMElementImpl.cpp.obj
 0001:0004a507       ?getBaseURI@DOMEntityReferenceImpl@xercesc_3_1@@UBEPB_WXZ 1004b507 f   xerces-c_3_1:DOMEntityReferenceImpl.cpp.obj
 0001:0004a507       ?getURI@DOMLocatorImpl@xercesc_3_1@@UBEPB_WXZ 1004b507 f   xerces-c_3_1:DOMLocatorImpl.cpp.obj
 0001:0004a507       ?getEntities@DOMDocumentTypeImpl@xercesc_3_1@@UBEPAVDOMNamedNodeMap@2@XZ 1004b507 f   xerces-c_3_1:DOMDocumentTypeImpl.cpp.obj
 0001:0004a50b       ?setPrefix@DOMAttrNSImpl@xercesc_3_1@@UAEXPB_W@Z 1004b50b f   xerces-c_3_1:DOMAttrNSImpl.cpp.obj
 0001:0004a73a       ?release@DOMAttrNSImpl@xercesc_3_1@@UAEXXZ 1004b73a f   xerces-c_3_1:DOMAttrNSImpl.cpp.obj
 0001:0004a7e1       ?rename@DOMAttrNSImpl@xercesc_3_1@@UAEPAVDOMNode@2@PB_W0@Z 1004b7e1 f   xerces-c_3_1:DOMAttrNSImpl.cpp.obj
 0001:0004a825       ?setName@DOMAttrNSImpl@xercesc_3_1@@QAEXPB_W0@Z 1004b825 f   xerces-c_3_1:DOMAttrNSImpl.cpp.obj
 0001:0004a96b       ??0DOMEntityImpl@xercesc_3_1@@QAE@PAVDOMDocument@1@PB_W@Z 1004b96b f   xerces-c_3_1:DOMEntityImpl.cpp.obj
 0001:0004aa02       ??0DOMEntityImpl@xercesc_3_1@@QAE@ABV01@_N@Z 1004ba02 f   xerces-c_3_1:DOMEntityImpl.cpp.obj
 0001:0004aab1       ?cloneNode@DOMEntityImpl@xercesc_3_1@@UBEPAVDOMNode@2@_N@Z 1004bab1 f   xerces-c_3_1:DOMEntityImpl.cpp.obj
 0001:0004ab05       ?getName@DOMAttrImpl@xercesc_3_1@@UBEPB_WXZ 1004bb05 f   xerces-c_3_1:DOMAttrImpl.cpp.obj
 0001:0004ab05       ?getNodeName@DOMAttrImpl@xercesc_3_1@@UBEPB_WXZ 1004bb05 f   xerces-c_3_1:DOMAttrImpl.cpp.obj
 0001:0004ab05       ?getNodeName@DOMEntityImpl@xercesc_3_1@@UBEPB_WXZ 1004bb05 f   xerces-c_3_1:DOMEntityImpl.cpp.obj
 0001:0004ab09       ?getNodeType@DOMEntityImpl@xercesc_3_1@@UBE?AW4NodeType@DOMNode@2@XZ 1004bb09 f   xerces-c_3_1:DOMEntityImpl.cpp.obj
 0001:0004ab0d       ?getNextSibling@DOMElementImpl@xercesc_3_1@@UBEPAVDOMNode@2@XZ 1004bb0d f   xerces-c_3_1:DOMElementImpl.cpp.obj
 0001:0004ab0d       ?getNextSibling@DOMDocumentTypeImpl@xercesc_3_1@@UBEPAVDOMNode@2@XZ 1004bb0d f   xerces-c_3_1:DOMDocumentTypeImpl.cpp.obj
 0001:0004ab0d       ?getPublicId@DOMEntityImpl@xercesc_3_1@@UBEPB_WXZ 1004bb0d f   xerces-c_3_1:DOMEntityImpl.cpp.obj
 0001:0004ab0d       ?getTypeDefinition@PSVIAttribute@xercesc_3_1@@UAEPAVXSTypeDefinition@2@XZ 1004bb0d f   xerces-c_3_1:PSVIAttribute.cpp.obj
 0001:0004ab0d       ?getTypeDefinition@PSVIElement@xercesc_3_1@@UAEPAVXSTypeDefinition@2@XZ 1004bb0d f   xerces-c_3_1:PSVIElement.cpp.obj
 0001:0004ab0d       ?getContentSpec@DTDElementDecl@xercesc_3_1@@UBEPBVContentSpecNode@2@XZ 1004bb0d f   xerces-c_3_1:DTDElementDecl.cpp.obj
 0001:0004ab0d       ?getContentSpec@DTDElementDecl@xercesc_3_1@@UAEPAVContentSpecNode@2@XZ 1004bb0d f   xerces-c_3_1:DTDElementDecl.cpp.obj
 0001:0004ab0d       ?getInitialDepth@SelectorMatcher@xercesc_3_1@@UBEHXZ 1004bb0d f   xerces-c_3_1:IC_Selector.cpp.obj
 0001:0004ab0d       ?getNextSibling@DOMEntityReferenceImpl@xercesc_3_1@@UBEPAVDOMNode@2@XZ 1004bb0d f   xerces-c_3_1:DOMEntityReferenceImpl.cpp.obj
 0001:0004ab11       ?getSystemId@DOMEntityImpl@xercesc_3_1@@UBEPB_WXZ 1004bb11 f   xerces-c_3_1:DOMEntityImpl.cpp.obj
 0001:0004ab11       ?getNodeName@DOMDocumentTypeImpl@xercesc_3_1@@UBEPB_WXZ 1004bb11 f   xerces-c_3_1:DOMDocumentTypeImpl.cpp.obj
 0001:0004ab11       ?getNodeName@DOMEntityReferenceImpl@xercesc_3_1@@UBEPB_WXZ 1004bb11 f   xerces-c_3_1:DOMEntityReferenceImpl.cpp.obj
 0001:0004ab11       ?getFullName@DTDAttDef@xercesc_3_1@@UBEPB_WXZ 1004bb11 f   xerces-c_3_1:DTDAttDef.cpp.obj
 0001:0004ab11       ?getNamespaceURI@DOMAttrNSImpl@xercesc_3_1@@UBEPB_WXZ 1004bb11 f   xerces-c_3_1:DOMAttrNSImpl.cpp.obj
 0001:0004ab11       ?getRelatedNode@DOMLocatorImpl@xercesc_3_1@@UBEPAVDOMNode@2@XZ 1004bb11 f   xerces-c_3_1:DOMLocatorImpl.cpp.obj
 0001:0004ab11       ?getName@DOMDocumentTypeImpl@xercesc_3_1@@UBEPB_WXZ 1004bb11 f   xerces-c_3_1:DOMDocumentTypeImpl.cpp.obj
 0001:0004ab11       ?getAttributes@DOMElementImpl@xercesc_3_1@@UBEPAVDOMNamedNodeMap@2@XZ 1004bb11 f   xerces-c_3_1:DOMElementImpl.cpp.obj
 0001:0004ab11       ?getMemberTypeDefinition@PSVIElement@xercesc_3_1@@UAEPAVXSSimpleTypeDefinition@2@XZ 1004bb11 f   xerces-c_3_1:PSVIElement.cpp.obj
 0001:0004ab11       ?getMemberTypeDefinition@PSVIAttribute@xercesc_3_1@@UAEPAVXSSimpleTypeDefinition@2@XZ 1004bb11 f   xerces-c_3_1:PSVIAttribute.cpp.obj
 0001:0004ab15       ?setNotationName@DOMEntityImpl@xercesc_3_1@@UAEXPB_W@Z 1004bb15 f   xerces-c_3_1:DOMEntityImpl.cpp.obj
 0001:0004ab39       ?setPublicId@DOMEntityImpl@xercesc_3_1@@UAEXPB_W@Z 1004bb39 f   xerces-c_3_1:DOMEntityImpl.cpp.obj
 0001:0004ab5d       ?setSystemId@DOMEntityImpl@xercesc_3_1@@UAEXPB_W@Z 1004bb5d f   xerces-c_3_1:DOMEntityImpl.cpp.obj
 0001:0004ab81       ?setBaseURI@DOMEntityImpl@xercesc_3_1@@UAEXPB_W@Z 1004bb81 f   xerces-c_3_1:DOMEntityImpl.cpp.obj
 0001:0004abcf       ?setEntityRef@DOMEntityImpl@xercesc_3_1@@UAEXPAVDOMEntityReference@2@@Z 1004bbcf f   xerces-c_3_1:DOMEntityImpl.cpp.obj
 0001:0004abdc       ?cloneEntityRefTree@DOMEntityImpl@xercesc_3_1@@IBEXXZ 1004bbdc f   xerces-c_3_1:DOMEntityImpl.cpp.obj
 0001:0004ac17       ?getFirstChild@DOMEntityImpl@xercesc_3_1@@UBEPAVDOMNode@2@XZ 1004bc17 f   xerces-c_3_1:DOMEntityImpl.cpp.obj
 0001:0004ac24       ?getLastChild@DOMEntityImpl@xercesc_3_1@@UBEPAVDOMNode@2@XZ 1004bc24 f   xerces-c_3_1:DOMEntityImpl.cpp.obj
 0001:0004ac35       ?getChildNodes@DOMEntityImpl@xercesc_3_1@@UBEPAVDOMNodeList@2@XZ 1004bc35 f   xerces-c_3_1:DOMEntityImpl.cpp.obj
 0001:0004ac42       ?hasChildNodes@DOMEntityImpl@xercesc_3_1@@UBE_NXZ 1004bc42 f   xerces-c_3_1:DOMEntityImpl.cpp.obj
 0001:0004ac54       ?release@DOMEntityImpl@xercesc_3_1@@UAEXXZ 1004bc54 f   xerces-c_3_1:DOMEntityImpl.cpp.obj
 0001:0004acfb       ?appendChild@DOMEntityImpl@xercesc_3_1@@UAEPAVDOMNode@2@PAV32@@Z 1004bcfb f   xerces-c_3_1:DOMEntityImpl.cpp.obj
 0001:0004ad18       ?insertBefore@DOMEntityImpl@xercesc_3_1@@UAEPAVDOMNode@2@PAV32@0@Z 1004bd18 f   xerces-c_3_1:DOMEntityImpl.cpp.obj
 0001:0004ad36       ?normalize@DOMEntityImpl@xercesc_3_1@@UAEXXZ 1004bd36 f   xerces-c_3_1:DOMEntityImpl.cpp.obj
 0001:0004ad49       ?removeChild@DOMEntityImpl@xercesc_3_1@@UAEPAVDOMNode@2@PAV32@@Z 1004bd49 f   xerces-c_3_1:DOMEntityImpl.cpp.obj
 0001:0004ad65       ?replaceChild@DOMEntityImpl@xercesc_3_1@@UAEPAVDOMNode@2@PAV32@0@Z 1004bd65 f   xerces-c_3_1:DOMEntityImpl.cpp.obj
 0001:0004ad84       ?isEqualNode@DOMEntityImpl@xercesc_3_1@@UBE_NPBVDOMNode@2@@Z 1004bd84 f   xerces-c_3_1:DOMEntityImpl.cpp.obj
 0001:0004ad9f       ?setUserData@DOMAttrImpl@xercesc_3_1@@UAEPAXPB_WPAXPAVDOMUserDataHandler@2@@Z 1004bd9f f   xerces-c_3_1:DOMAttrImpl.cpp.obj
 0001:0004ad9f       ?setUserData@DOMTextImpl@xercesc_3_1@@UAEPAXPB_WPAXPAVDOMUserDataHandler@2@@Z 1004bd9f f   xerces-c_3_1:DOMTextImpl.cpp.obj
 0001:0004ad9f       ?setUserData@DOMElementImpl@xercesc_3_1@@UAEPAXPB_WPAXPAVDOMUserDataHandler@2@@Z 1004bd9f f   xerces-c_3_1:DOMElementImpl.cpp.obj
 0001:0004ad9f       ?setUserData@DOMNotationImpl@xercesc_3_1@@UAEPAXPB_WPAXPAVDOMUserDataHandler@2@@Z 1004bd9f f   xerces-c_3_1:DOMNotationImpl.cpp.obj
 0001:0004ad9f       ?setUserData@DOMProcessingInstructionImpl@xercesc_3_1@@UAEPAXPB_WPAXPAVDOMUserDataHandler@2@@Z 1004bd9f f   xerces-c_3_1:DOMProcessingInstructionImpl.cpp.obj
 0001:0004ad9f       ?setUserData@DOMEntityReferenceImpl@xercesc_3_1@@UAEPAXPB_WPAXPAVDOMUserDataHandler@2@@Z 1004bd9f f   xerces-c_3_1:DOMEntityReferenceImpl.cpp.obj
 0001:0004ad9f       ?setUserData@DOMDocumentFragmentImpl@xercesc_3_1@@UAEPAXPB_WPAXPAVDOMUserDataHandler@2@@Z 1004bd9f f   xerces-c_3_1:DOMDocumentFragmentImpl.cpp.obj
 0001:0004ad9f       ?setUserData@DOMDocumentTypeImpl@xercesc_3_1@@UAEPAXPB_WPAXPAVDOMUserDataHandler@2@@Z 1004bd9f f   xerces-c_3_1:DOMDocumentTypeImpl.cpp.obj
 0001:0004ad9f       ?setUserData@DOMCommentImpl@xercesc_3_1@@UAEPAXPB_WPAXPAVDOMUserDataHandler@2@@Z 1004bd9f f   xerces-c_3_1:DOMCommentImpl.cpp.obj
 0001:0004ad9f       ?setUserData@DOMEntityImpl@xercesc_3_1@@UAEPAXPB_WPAXPAVDOMUserDataHandler@2@@Z 1004bd9f f   xerces-c_3_1:DOMEntityImpl.cpp.obj
 0001:0004ad9f       ?setUserData@DOMCDATASectionImpl@xercesc_3_1@@UAEPAXPB_WPAXPAVDOMUserDataHandler@2@@Z 1004bd9f f   xerces-c_3_1:DOMCDATASectionImpl.cpp.obj
 0001:0004ad9f       ?setUserData@DOMDocumentImpl@xercesc_3_1@@UAEPAXPB_WPAXPAVDOMUserDataHandler@2@@Z 1004bd9f f   xerces-c_3_1:DOMDocumentImpl.cpp.obj
 0001:0004adb9       ?getPublicId@DOMDocumentTypeImpl@xercesc_3_1@@UBEPB_WXZ 1004bdb9 f   xerces-c_3_1:DOMDocumentTypeImpl.cpp.obj
 0001:0004adb9       ?getLocalName@DOMElementNSImpl@xercesc_3_1@@UBEPB_WXZ 1004bdb9 f   xerces-c_3_1:DOMElementNSImpl.cpp.obj
 0001:0004adb9       ?getXmlEncoding@DOMEntityImpl@xercesc_3_1@@UBEPB_WXZ 1004bdb9 f   xerces-c_3_1:DOMEntityImpl.cpp.obj
 0001:0004adbd       ?getXmlVersion@DOMEntityImpl@xercesc_3_1@@UBEPB_WXZ 1004bdbd f   xerces-c_3_1:DOMEntityImpl.cpp.obj
 0001:0004adbd       ?getXmlVersion@DOMDocumentImpl@xercesc_3_1@@UBEPB_WXZ 1004bdbd f   xerces-c_3_1:DOMDocumentImpl.cpp.obj
 0001:0004adbd       ?getPrefix@DOMElementNSImpl@xercesc_3_1@@UBEPB_WXZ 1004bdbd f   xerces-c_3_1:DOMElementNSImpl.cpp.obj
 0001:0004adbd       ?getSystemId@DOMDocumentTypeImpl@xercesc_3_1@@UBEPB_WXZ 1004bdbd f   xerces-c_3_1:DOMDocumentTypeImpl.cpp.obj
 0001:0004adc1       ??1XMLInternalErrorHandler@xercesc_3_1@@UAE@XZ 1004bdc1 f i xerces-c_3_1:XIncludeUtils.cpp.obj
 0001:0004adc8       ??_GXMLInternalErrorHandler@xercesc_3_1@@UAEPAXI@Z 1004bdc8 f i xerces-c_3_1:XIncludeUtils.cpp.obj
 0001:0004adc8       ??_EXMLInternalErrorHandler@xercesc_3_1@@UAEPAXI@Z 1004bdc8 f i  CIL library: CIL module
 0001:0004ade8       ?warning@XMLInternalErrorHandler@xercesc_3_1@@UAEXABVSAXParseException@2@@Z 1004bde8 f i xerces-c_3_1:XIncludeUtils.cpp.obj
 0001:0004ae00       ?error@XMLInternalErrorHandler@xercesc_3_1@@UAEXABVSAXParseException@2@@Z 1004be00 f i xerces-c_3_1:XIncludeUtils.cpp.obj
 0001:0004ae18       ?fatalError@XMLInternalErrorHandler@xercesc_3_1@@UAEXABVSAXParseException@2@@Z 1004be18 f i xerces-c_3_1:XIncludeUtils.cpp.obj
 0001:0004ae30       ?resetErrors@XMLInternalErrorHandler@xercesc_3_1@@UAEXXZ 1004be30 f i xerces-c_3_1:XIncludeUtils.cpp.obj
 0001:0004ae3c       ??1XIncludeUtils@xercesc_3_1@@AAE@XZ 1004be3c f   xerces-c_3_1:XIncludeUtils.cpp.obj
 0001:0004ae7a       ?parseDOMNodeDoingXInclude@XIncludeUtils@xercesc_3_1@@AAE_NPAVDOMNode@2@PAVDOMDocument@2@PAVXMLEntityHandler@2@@Z 1004be7a f   xerces-c_3_1:XIncludeUtils.cpp.obj
 0001:0004b002       ?doDOMNodeXInclude@XIncludeUtils@xercesc_3_1@@AAE_NPAVDOMNode@2@PAVDOMDocument@2@PAVXMLEntityHandler@2@@Z 1004c002 f   xerces-c_3_1:XIncludeUtils.cpp.obj
 0001:0004b9fd       ?doXIncludeXMLFileDOM@XIncludeUtils@xercesc_3_1@@AAEPAVDOMDocument@2@PB_W0PAVDOMNode@2@PAV32@PAVXMLEntityHandler@2@@Z 1004c9fd f   xerces-c_3_1:XIncludeUtils.cpp.obj
 0001:0004bcf8       ?doXIncludeTEXTFileDOM@XIncludeUtils@xercesc_3_1@@AAEPAVDOMText@2@PB_W00PAVDOMNode@2@PAVDOMDocument@2@PAVXMLEntityHandler@2@@Z 1004ccf8 f   xerces-c_3_1:XIncludeUtils.cpp.obj
 0001:0004bfd2       ?isXIIncludeDOMNode@XIncludeUtils@xercesc_3_1@@CA_NPAVDOMNode@2@@Z 1004cfd2 f   xerces-c_3_1:XIncludeUtils.cpp.obj
 0001:0004c019       ?isXIFallbackDOMNode@XIncludeUtils@xercesc_3_1@@CA_NPAVDOMNode@2@@Z 1004d019 f   xerces-c_3_1:XIncludeUtils.cpp.obj
 0001:0004c060       ?reportError@XIncludeUtils@xercesc_3_1@@AAE_NQBVDOMNode@2@W4Codes@XMLErrs@2@QB_W2@Z 1004d060 f   xerces-c_3_1:XIncludeUtils.cpp.obj
 0001:0004c0f6       ??0DOMElementNSImpl@xercesc_3_1@@QAE@PAVDOMDocument@1@PB_W1@Z 1004d0f6 f   xerces-c_3_1:DOMElementNSImpl.cpp.obj
 0001:0004c139       ??0DOMElementNSImpl@xercesc_3_1@@QAE@PAVDOMDocument@1@PB_W111@Z 1004d139 f   xerces-c_3_1:DOMElementNSImpl.cpp.obj
 0001:0004c1e0       ??0DOMElementNSImpl@xercesc_3_1@@QAE@ABV01@_N@Z 1004d1e0 f   xerces-c_3_1:DOMElementNSImpl.cpp.obj
 0001:0004c212       ?cloneNode@DOMElementNSImpl@xercesc_3_1@@UBEPAVDOMNode@2@_N@Z 1004d212 f   xerces-c_3_1:DOMElementNSImpl.cpp.obj
 0001:0004c266       ?getNamespaceURI@DOMElementNSImpl@xercesc_3_1@@UBEPB_WXZ 1004d266 f   xerces-c_3_1:DOMElementNSImpl.cpp.obj
 0001:0004c266       ?getXmlEncoding@DOMDocumentImpl@xercesc_3_1@@UBEPB_WXZ 1004d266 f   xerces-c_3_1:DOMDocumentImpl.cpp.obj
 0001:0004c266       ?getInputEncoding@DOMEntityImpl@xercesc_3_1@@UBEPB_WXZ 1004d266 f   xerces-c_3_1:DOMEntityImpl.cpp.obj
 0001:0004c266       ?getBaseURI@DOMDocumentImpl@xercesc_3_1@@UBEPB_WXZ 1004d266 f   xerces-c_3_1:DOMDocumentImpl.cpp.obj
 0001:0004c266       ?getElements@DOMDocumentTypeImpl@xercesc_3_1@@UBEPAVDOMNamedNodeMap@2@XZ 1004d266 f   xerces-c_3_1:DOMDocumentTypeImpl.cpp.obj
 0001:0004c26a       ?setPrefix@DOMElementNSImpl@xercesc_3_1@@UAEXPB_W@Z 1004d26a f   xerces-c_3_1:DOMElementNSImpl.cpp.obj
 0001:0004c495       ?release@DOMElementNSImpl@xercesc_3_1@@UAEXXZ 1004d495 f   xerces-c_3_1:DOMElementNSImpl.cpp.obj
 0001:0004c53c       ?rename@DOMElementNSImpl@xercesc_3_1@@UAEPAVDOMNode@2@PB_W0@Z 1004d53c f   xerces-c_3_1:DOMElementNSImpl.cpp.obj
 0001:0004c578       ?setName@DOMElementNSImpl@xercesc_3_1@@QAEXPB_W0@Z 1004d578 f   xerces-c_3_1:DOMElementNSImpl.cpp.obj
 0001:0004c68a       ?getSchemaTypeInfo@DOMElementNSImpl@xercesc_3_1@@UBEPBVDOMTypeInfo@2@XZ 1004d68a f   xerces-c_3_1:DOMElementNSImpl.cpp.obj
 0001:0004c697       ?setSchemaTypeInfo@DOMElementNSImpl@xercesc_3_1@@UAEXPBVDOMTypeInfoImpl@2@@Z 1004d697 f   xerces-c_3_1:DOMElementNSImpl.cpp.obj
 0001:0004c6a4       ?getFeature@DOMElementNSImpl@xercesc_3_1@@UBEPAXPB_W0@Z 1004d6a4 f   xerces-c_3_1:DOMElementNSImpl.cpp.obj
 0001:0004c6ce       ??_GXSerializable@xercesc_3_1@@UAEPAXI@Z 1004d6ce f i xerces-c_3_1:QName.cpp.obj
 0001:0004c6ce       ??_EXSerializable@xercesc_3_1@@UAEPAXI@Z 1004d6ce f i  CIL library: CIL module
 0001:0004c6ee       ??0QName@xercesc_3_1@@QAE@QAVMemoryManager@1@@Z 1004d6ee f   xerces-c_3_1:QName.cpp.obj
 0001:0004c718       ??_GQName@xercesc_3_1@@UAEPAXI@Z 1004d718 f i xerces-c_3_1:QName.cpp.obj
 0001:0004c718       ??_EQName@xercesc_3_1@@UAEPAXI@Z 1004d718 f i  CIL library: CIL module
 0001:0004c738       ??0QName@xercesc_3_1@@QAE@QB_W0IQAVMemoryManager@1@@Z 1004d738 f   xerces-c_3_1:QName.cpp.obj
 0001:0004c7b3       ??0QName@xercesc_3_1@@QAE@QB_WIQAVMemoryManager@1@@Z 1004d7b3 f   xerces-c_3_1:QName.cpp.obj
 0001:0004c82b       ??1QName@xercesc_3_1@@UAE@XZ 1004d82b f   xerces-c_3_1:QName.cpp.obj
 0001:0004c85f       ??0QName@xercesc_3_1@@QAE@ABV01@@Z 1004d85f f   xerces-c_3_1:QName.cpp.obj
 0001:0004c90e       ?getRawName@QName@xercesc_3_1@@QBEPB_WXZ 1004d90e f   xerces-c_3_1:QName.cpp.obj
 0001:0004c90e       ?getRawName@QName@xercesc_3_1@@QAEPA_WXZ 1004d90e f   xerces-c_3_1:QName.cpp.obj
 0001:0004c99b       ?setName@QName@xercesc_3_1@@QAEXQB_W0I@Z 1004d99b f   xerces-c_3_1:QName.cpp.obj
 0001:0004c9d8       ?setName@QName@xercesc_3_1@@QAEXQB_WI@Z 1004d9d8 f   xerces-c_3_1:QName.cpp.obj
 0001:0004ca83       ?setNPrefix@QName@xercesc_3_1@@QAEXPB_WK@Z 1004da83 f   xerces-c_3_1:QName.cpp.obj
 0001:0004cad8       ?setNLocalPart@QName@xercesc_3_1@@QAEXPB_WK@Z 1004dad8 f   xerces-c_3_1:QName.cpp.obj
 0001:0004cb2d       ?setValues@QName@xercesc_3_1@@QAEXABV12@@Z 1004db2d f   xerces-c_3_1:QName.cpp.obj
 0001:0004cb5a       ??8QName@xercesc_3_1@@QBE_NABV01@@Z 1004db5a f   xerces-c_3_1:QName.cpp.obj
 0001:0004cbb1       ?cleanUp@QName@xercesc_3_1@@QAEXXZ 1004dbb1 f   xerces-c_3_1:QName.cpp.obj
 0001:0004cbe2       ?createObject@QName@xercesc_3_1@@SAPAVXSerializable@2@PAVMemoryManager@2@@Z 1004dbe2 f   xerces-c_3_1:QName.cpp.obj
 0001:0004cc06       ?getProtoType@QName@xercesc_3_1@@UBEPAVXProtoType@2@XZ 1004dc06 f   xerces-c_3_1:QName.cpp.obj
 0001:0004cc0c       ?serialize@QName@xercesc_3_1@@UAEXAAVXSerializeEngine@2@@Z 1004dc0c f   xerces-c_3_1:QName.cpp.obj
 0001:0004cc86       ?isSpecified@DOMNodeImpl@xercesc_3_1@@QAEX_N@Z 1004dc86 f i xerces-c_3_1:DOMAttrMapImpl.cpp.obj
 0001:0004cca3       ??1DOMNamedNodeMap@xercesc_3_1@@UAE@XZ 1004dca3 f i xerces-c_3_1:DOMAttrMapImpl.cpp.obj
 0001:0004ccaa       ??_GDOMAttrMapImpl@xercesc_3_1@@UAEPAXI@Z 1004dcaa f i xerces-c_3_1:DOMAttrMapImpl.cpp.obj
 0001:0004ccaa       ??_GDOMNamedNodeMapImpl@xercesc_3_1@@UAEPAXI@Z 1004dcaa f i xerces-c_3_1:DOMNamedNodeMapImpl.cpp.obj
 0001:0004ccaa       ??_GDOMNamedNodeMap@xercesc_3_1@@UAEPAXI@Z 1004dcaa f i xerces-c_3_1:DOMAttrMapImpl.cpp.obj
 0001:0004ccaa       ??_EDOMNamedNodeMapImpl@xercesc_3_1@@UAEPAXI@Z 1004dcaa f i  CIL library: CIL module
 0001:0004ccaa       ??_EDOMNamedNodeMap@xercesc_3_1@@UAEPAXI@Z 1004dcaa f i  CIL library: CIL module
 0001:0004ccaa       ??_EDOMAttrMapImpl@xercesc_3_1@@UAEPAXI@Z 1004dcaa f i  CIL library: CIL module
 0001:0004ccca       ?hasDefaults@DOMAttrMapImpl@xercesc_3_1@@UAE_NXZ 1004dcca f i xerces-c_3_1:DOMAttrMapImpl.cpp.obj
 0001:0004ccce       ?hasDefaults@DOMAttrMapImpl@xercesc_3_1@@UAEX_N@Z 1004dcce f i xerces-c_3_1:DOMAttrMapImpl.cpp.obj
 0001:0004ccdb       ??0DOMAttrMapImpl@xercesc_3_1@@QAE@PAVDOMNode@1@PBV01@@Z 1004dcdb f   xerces-c_3_1:DOMAttrMapImpl.cpp.obj
 0001:0004cd29       ?cloneContent@DOMAttrMapImpl@xercesc_3_1@@MAEXPBV12@@Z 1004dd29 f   xerces-c_3_1:DOMAttrMapImpl.cpp.obj
 0001:0004ce12       ?cloneAttrMap@DOMAttrMapImpl@xercesc_3_1@@UAEPAV12@PAVDOMNode@2@@Z 1004de12 f   xerces-c_3_1:DOMAttrMapImpl.cpp.obj
 0001:0004ce59       ?setReadOnly@DOMAttrMapImpl@xercesc_3_1@@UAEX_N0@Z 1004de59 f   xerces-c_3_1:DOMAttrMapImpl.cpp.obj
 0001:0004cea2       ?findNamePoint@DOMAttrMapImpl@xercesc_3_1@@UBEHPB_W@Z 1004dea2 f   xerces-c_3_1:DOMAttrMapImpl.cpp.obj
 0001:0004cf14       ?getNamedItem@DOMAttrMapImpl@xercesc_3_1@@UBEPAVDOMNode@2@PB_W@Z 1004df14 f   xerces-c_3_1:DOMAttrMapImpl.cpp.obj
 0001:0004cf3c       ?setNamedItem@DOMAttrMapImpl@xercesc_3_1@@UAEPAVDOMNode@2@PAV32@@Z 1004df3c f   xerces-c_3_1:DOMAttrMapImpl.cpp.obj
 0001:0004d193       ?findNamePoint@DOMAttrMapImpl@xercesc_3_1@@UBEHPB_W0@Z 1004e193 f   xerces-c_3_1:DOMAttrMapImpl.cpp.obj
 0001:0004d22c       ?getNamedItemNS@DOMAttrMapImpl@xercesc_3_1@@UBEPAVDOMNode@2@PB_W0@Z 1004e22c f   xerces-c_3_1:DOMAttrMapImpl.cpp.obj
 0001:0004d257       ?setNamedItemNS@DOMAttrMapImpl@xercesc_3_1@@UAEPAVDOMNode@2@PAV32@@Z 1004e257 f   xerces-c_3_1:DOMAttrMapImpl.cpp.obj
 0001:0004d4ba       ?removeNamedItem@DOMAttrMapImpl@xercesc_3_1@@UAEPAVDOMNode@2@PB_W@Z 1004e4ba f   xerces-c_3_1:DOMAttrMapImpl.cpp.obj
 0001:0004d5ea       ?removeNamedItemNS@DOMAttrMapImpl@xercesc_3_1@@UAEPAVDOMNode@2@PB_W0@Z 1004e5ea f   xerces-c_3_1:DOMAttrMapImpl.cpp.obj
 0001:0004d720       ?removeNamedItemAt@DOMAttrMapImpl@xercesc_3_1@@UAEPAVDOMNode@2@K@Z 1004e720 f   xerces-c_3_1:DOMAttrMapImpl.cpp.obj
 0001:0004d87d       ?reconcileDefaultAttributes@DOMAttrMapImpl@xercesc_3_1@@QAEXPBV12@@Z 1004e87d f   xerces-c_3_1:DOMAttrMapImpl.cpp.obj
 0001:0004d930       ?moveSpecifiedAttributes@DOMAttrMapImpl@xercesc_3_1@@QAEXPAV12@@Z 1004e930 f   xerces-c_3_1:DOMAttrMapImpl.cpp.obj
 0001:0004d98c       ?getLength@DOMAttrMapImpl@xercesc_3_1@@UBEKXZ 1004e98c f   xerces-c_3_1:DOMAttrMapImpl.cpp.obj
 0001:0004d99a       ?item@DOMAttrMapImpl@xercesc_3_1@@UBEPAVDOMNode@2@K@Z 1004e99a f   xerces-c_3_1:DOMAttrMapImpl.cpp.obj
 0001:0004d9b9       ?reserve@DOMAttrMapImpl@xercesc_3_1@@QAEXK@Z 1004e9b9 f   xerces-c_3_1:DOMAttrMapImpl.cpp.obj
 0001:0004da15       ??0DOMAttrImpl@xercesc_3_1@@QAE@PAVDOMDocument@1@PB_W@Z 1004ea15 f   xerces-c_3_1:DOMAttrImpl.cpp.obj
 0001:0004da95       ??0DOMAttrImpl@xercesc_3_1@@QAE@ABV01@_N@Z 1004ea95 f   xerces-c_3_1:DOMAttrImpl.cpp.obj
 0001:0004db4c       ??1DOMAttrImpl@xercesc_3_1@@UAE@XZ 1004eb4c f   xerces-c_3_1:DOMAttrImpl.cpp.obj
 0001:0004db4c       ??1DOMElementImpl@xercesc_3_1@@UAE@XZ 1004eb4c f   xerces-c_3_1:DOMElementImpl.cpp.obj
 0001:0004db5a       ?cloneNode@DOMAttrImpl@xercesc_3_1@@UBEPAVDOMNode@2@_N@Z 1004eb5a f   xerces-c_3_1:DOMAttrImpl.cpp.obj
 0001:0004dbaa       ?getNodeValue@DOMAttrImpl@xercesc_3_1@@UBEPB_WXZ 1004ebaa f   xerces-c_3_1:DOMAttrImpl.cpp.obj
 0001:0004dbb2       ?getSpecified@DOMAttrImpl@xercesc_3_1@@UBE_NXZ 1004ebb2 f   xerces-c_3_1:DOMAttrImpl.cpp.obj
 0001:0004dbbd       ?getValue@DOMAttrImpl@xercesc_3_1@@UBEPB_WXZ 1004ebbd f   xerces-c_3_1:DOMAttrImpl.cpp.obj
 0001:0004dc95       ?getTextValue@DOMAttrImpl@xercesc_3_1@@IBEXPAVDOMNode@2@AAVXMLBuffer@2@@Z 1004ec95 f   xerces-c_3_1:DOMAttrImpl.cpp.obj
 0001:0004dcff       ?setNodeValue@DOMAttrImpl@xercesc_3_1@@UAEXPB_W@Z 1004ecff f   xerces-c_3_1:DOMAttrImpl.cpp.obj
 0001:0004dd0b       ?setSpecified@DOMAttrImpl@xercesc_3_1@@UAEX_N@Z 1004ed0b f   xerces-c_3_1:DOMAttrImpl.cpp.obj
 0001:0004dd17       ?setValue@DOMAttrImpl@xercesc_3_1@@UAEXPB_W@Z 1004ed17 f   xerces-c_3_1:DOMAttrImpl.cpp.obj
 0001:0004de03       ?setValueFast@DOMAttrImpl@xercesc_3_1@@UAEXPB_W@Z 1004ee03 f   xerces-c_3_1:DOMAttrImpl.cpp.obj
 0001:0004de37       ?getOwnerElement@DOMAttrImpl@xercesc_3_1@@UBEPAVDOMElement@2@XZ 1004ee37 f   xerces-c_3_1:DOMAttrImpl.cpp.obj
 0001:0004de48       ?release@DOMAttrImpl@xercesc_3_1@@UAEXXZ 1004ee48 f   xerces-c_3_1:DOMAttrImpl.cpp.obj
 0001:0004deef       ?isId@DOMAttrImpl@xercesc_3_1@@UBE_NXZ 1004eeef f   xerces-c_3_1:DOMAttrImpl.cpp.obj
 0001:0004defa       ?rename@DOMAttrImpl@xercesc_3_1@@UAEPAVDOMNode@2@PB_W0@Z 1004eefa f   xerces-c_3_1:DOMAttrImpl.cpp.obj
 0001:0004dfd4       ?getSchemaTypeInfo@DOMAttrImpl@xercesc_3_1@@UBEPBVDOMTypeInfo@2@XZ 1004efd4 f   xerces-c_3_1:DOMAttrImpl.cpp.obj
 0001:0004dfe1       ?setSchemaTypeInfo@DOMAttrImpl@xercesc_3_1@@UAEXPBVDOMTypeInfoImpl@2@@Z 1004efe1 f   xerces-c_3_1:DOMAttrImpl.cpp.obj
 0001:0004dfee       ?isSupported@DOMElementNSImpl@xercesc_3_1@@UBE_NPB_W0@Z 1004efee f   xerces-c_3_1:DOMElementNSImpl.cpp.obj
 0001:0004dfee       ?isSupported@DOMAttrImpl@xercesc_3_1@@UBE_NPB_W0@Z 1004efee f   xerces-c_3_1:DOMAttrImpl.cpp.obj
 0001:0004e028       ?getFeature@DOMAttrImpl@xercesc_3_1@@UBEPAXPB_W0@Z 1004f028 f   xerces-c_3_1:DOMAttrImpl.cpp.obj
 0001:0004e052       ?getChild@ChildOp@xercesc_3_1@@UBEPBVOp@2@XZ 1004f052 f   xerces-c_3_1:Op.cpp.obj
 0001:0004e052       ?getLocationHints@XMLSchemaDescriptionImpl@xercesc_3_1@@UBEPBV?$RefArrayVectorOf@_W@2@XZ 1004f052 f   xerces-c_3_1:XMLSchemaDescriptionImpl.cpp.obj
 0001:0004e052       ?getRoot@DOMTreeWalkerImpl@xercesc_3_1@@UAEPAVDOMNode@2@XZ 1004f052 f   xerces-c_3_1:DOMTreeWalkerImpl.cpp.obj
 0001:0004e052       ?getToken@RangeOp@xercesc_3_1@@UBEPBVToken@2@XZ 1004f052 f   xerces-c_3_1:Op.cpp.obj
 0001:0004e052       ?getOwnerDocument@DOMEntityReferenceImpl@xercesc_3_1@@UBEPAVDOMDocument@2@XZ 1004f052 f   xerces-c_3_1:DOMEntityReferenceImpl.cpp.obj
 0001:0004e052       ?getOwnerDocument@DOMDocumentFragmentImpl@xercesc_3_1@@UBEPAVDOMDocument@2@XZ 1004f052 f   xerces-c_3_1:DOMDocumentFragmentImpl.cpp.obj
 0001:0004e052       ?getPublicId@DOMLSInputImpl@xercesc_3_1@@UBEPB_WXZ 1004f052 f   xerces-c_3_1:DOMLSInputImpl.cpp.obj
 0001:0004e052       ?getId@XSObject@xercesc_3_1@@UBEKXZ 1004f052 f   xerces-c_3_1:XSObject.cpp.obj
 0001:0004e052       ?getNextSibling@DOMProcessingInstructionImpl@xercesc_3_1@@UBEPAVDOMNode@2@XZ 1004f052 f   xerces-c_3_1:DOMProcessingInstructionImpl.cpp.obj
 0001:0004e052       ?getNextSibling@DOMTextImpl@xercesc_3_1@@UBEPAVDOMNode@2@XZ 1004f052 f   xerces-c_3_1:DOMTextImpl.cpp.obj
 0001:0004e052       ?getLocation@DOMErrorImpl@xercesc_3_1@@UBEPAVDOMLocator@2@XZ 1004f052 f   xerces-c_3_1:DOMErrorImpl.cpp.obj
 0001:0004e052       ?getNextSibling@DOMCDATASectionImpl@xercesc_3_1@@UBEPAVDOMNode@2@XZ 1004f052 f   xerces-c_3_1:DOMCDATASectionImpl.cpp.obj
 0001:0004e052       ?getString@StringToken@xercesc_3_1@@UBEPB_WXZ 1004f052 f   xerces-c_3_1:StringToken.cpp.obj
 0001:0004e052       ?getOwnerDocument@DOMDocumentTypeImpl@xercesc_3_1@@UBEPAVDOMDocument@2@XZ 1004f052 f   xerces-c_3_1:DOMDocumentTypeImpl.cpp.obj
 0001:0004e052       ?getData@CharOp@xercesc_3_1@@UBEHXZ 1004f052 f   xerces-c_3_1:Op.cpp.obj
 0001:0004e052       ?getOwnerDocument@DOMEntityImpl@xercesc_3_1@@UBEPAVDOMDocument@2@XZ 1004f052 f   xerces-c_3_1:DOMEntityImpl.cpp.obj
 0001:0004e052       ?getNextSibling@DOMCommentImpl@xercesc_3_1@@UBEPAVDOMNode@2@XZ 1004f052 f   xerces-c_3_1:DOMCommentImpl.cpp.obj
 0001:0004e052       ?getPublicId@DOMNotationImpl@xercesc_3_1@@UBEPB_WXZ 1004f052 f   xerces-c_3_1:DOMNotationImpl.cpp.obj
 0001:0004e052       ?getOwnerDocument@DOMElementImpl@xercesc_3_1@@UBEPAVDOMDocument@2@XZ 1004f052 f   xerces-c_3_1:DOMElementImpl.cpp.obj
 0001:0004e052       ?getFilter@DOMNodeIteratorImpl@xercesc_3_1@@UAEPAVDOMNodeFilter@2@XZ 1004f052 f   xerces-c_3_1:DOMNodeIteratorImpl.cpp.obj
 0001:0004e052       ?getOwnerDocument@DOMAttrImpl@xercesc_3_1@@UBEPAVDOMDocument@2@XZ 1004f052 f   xerces-c_3_1:DOMAttrImpl.cpp.obj
 0001:0004e052       ?getLiteral@StringOp@xercesc_3_1@@UBEPB_WXZ 1004f052 f   xerces-c_3_1:Op.cpp.obj
 0001:0004e052       ?getMax@ClosureToken@xercesc_3_1@@UBEHXZ 1004f052 f   xerces-c_3_1:ClosureToken.cpp.obj
 0001:0004e056       ?getAttributes@DOMTextImpl@xercesc_3_1@@UBEPAVDOMNamedNodeMap@2@XZ 1004f056 f   xerces-c_3_1:DOMTextImpl.cpp.obj
 0001:0004e056       ?getNextSibling@DOMEntityImpl@xercesc_3_1@@UBEPAVDOMNode@2@XZ 1004f056 f   xerces-c_3_1:DOMEntityImpl.cpp.obj
 0001:0004e056       ?createObject@XMLDTDDescription@xercesc_3_1@@SAPAVXSerializable@2@PAVMemoryManager@2@@Z 1004f056 f   xerces-c_3_1:XMLDTDDescription.cpp.obj
 0001:0004e056       ?getAttributes@DOMAttrImpl@xercesc_3_1@@UBEPAVDOMNamedNodeMap@2@XZ 1004f056 f   xerces-c_3_1:DOMAttrImpl.cpp.obj
 0001:0004e056       ?getLocalName@DOMEntityReferenceImpl@xercesc_3_1@@UBEPB_WXZ 1004f056 f   xerces-c_3_1:DOMEntityReferenceImpl.cpp.obj
 0001:0004e056       ?getEncoding@BinInputStream@xercesc_3_1@@UBEPB_WXZ 1004f056 f   xerces-c_3_1:BinInputStream.cpp.obj
 0001:0004e056       ?getFirstChild@DOMProcessingInstructionImpl@xercesc_3_1@@UBEPAVDOMNode@2@XZ 1004f056 f   xerces-c_3_1:DOMProcessingInstructionImpl.cpp.obj
 0001:0004e056       ?getNamespaceURI@DOMTextImpl@xercesc_3_1@@UBEPB_WXZ 1004f056 f   xerces-c_3_1:DOMTextImpl.cpp.obj
 0001:0004e056       ?getRelatedException@DOMErrorImpl@xercesc_3_1@@UBEPAXXZ 1004f056 f   xerces-c_3_1:DOMErrorImpl.cpp.obj
 0001:0004e056       ?getLocalName@DOMNotationImpl@xercesc_3_1@@UBEPB_WXZ 1004f056 f   xerces-c_3_1:DOMNotationImpl.cpp.obj
 0001:0004e056       ?createObject@XMLGrammarDescription@xercesc_3_1@@SAPAVXSerializable@2@PAVMemoryManager@2@@Z 1004f056 f   xerces-c_3_1:XMLGrammarDescription.cpp.obj
 0001:0004e056       ?getNamespaceURI@DOMProcessingInstructionImpl@xercesc_3_1@@UBEPB_WXZ 1004f056 f   xerces-c_3_1:DOMProcessingInstructionImpl.cpp.obj
 0001:0004e056       ?getLastChild@DOMNotationImpl@xercesc_3_1@@UBEPAVDOMNode@2@XZ 1004f056 f   xerces-c_3_1:DOMNotationImpl.cpp.obj
 0001:0004e056       ?getPreviousSibling@DOMAttrImpl@xercesc_3_1@@UBEPAVDOMNode@2@XZ 1004f056 f   xerces-c_3_1:DOMAttrImpl.cpp.obj
 0001:0004e056       ?getParentNode@DOMEntityImpl@xercesc_3_1@@UBEPAVDOMNode@2@XZ 1004f056 f   xerces-c_3_1:DOMEntityImpl.cpp.obj
 0001:0004e056       ?getNamespaceURI@DOMCDATASectionImpl@xercesc_3_1@@UBEPB_WXZ 1004f056 f   xerces-c_3_1:DOMCDATASectionImpl.cpp.obj
 0001:0004e056       ?getNamespaceURI@DOMDocumentFragmentImpl@xercesc_3_1@@UBEPB_WXZ 1004f056 f   xerces-c_3_1:DOMDocumentFragmentImpl.cpp.obj
 0001:0004e056       ?getLocalName@DOMDocumentTypeImpl@xercesc_3_1@@UBEPB_WXZ 1004f056 f   xerces-c_3_1:DOMDocumentTypeImpl.cpp.obj
 0001:0004e056       ?getAttributes@DOMDocumentFragmentImpl@xercesc_3_1@@UBEPAVDOMNamedNodeMap@2@XZ 1004f056 f   xerces-c_3_1:DOMDocumentFragmentImpl.cpp.obj
 0001:0004e056       ?getParentNode@DOMDocumentImpl@xercesc_3_1@@UBEPAVDOMNode@2@XZ 1004f056 f   xerces-c_3_1:DOMDocumentImpl.cpp.obj
 0001:0004e056       ?getLocalName@DOMCDATASectionImpl@xercesc_3_1@@UBEPB_WXZ 1004f056 f   xerces-c_3_1:DOMCDATASectionImpl.cpp.obj
 0001:0004e056       ?getAttributes@DOMNotationImpl@xercesc_3_1@@UBEPAVDOMNamedNodeMap@2@XZ 1004f056 f   xerces-c_3_1:DOMNotationImpl.cpp.obj
 0001:0004e056       ?getAttributes@DOMEntityImpl@xercesc_3_1@@UBEPAVDOMNamedNodeMap@2@XZ 1004f056 f   xerces-c_3_1:DOMEntityImpl.cpp.obj
 0001:0004e056       ?getPreviousSibling@DOMDocumentFragmentImpl@xercesc_3_1@@UBEPAVDOMNode@2@XZ 1004f056 f   xerces-c_3_1:DOMDocumentFragmentImpl.cpp.obj
 0001:0004e056       ?getLocalName@DOMDocumentImpl@xercesc_3_1@@UBEPB_WXZ 1004f056 f   xerces-c_3_1:DOMDocumentImpl.cpp.obj
 0001:0004e056       ?getEnumString@BooleanDatatypeValidator@xercesc_3_1@@UBEPBV?$RefArrayVectorOf@_W@2@XZ 1004f056 f   xerces-c_3_1:BooleanDatatypeValidator.cpp.obj
 0001:0004e056       ?getEntityDeclPool@WFXMLScanner@xercesc_3_1@@UAEPAV?$NameIdPool@VDTDEntityDecl@xercesc_3_1@@@2@XZ 1004f056 f   xerces-c_3_1:WFXMLScanner.cpp.obj
 0001:0004e056       ?getAttributes@DOMCDATASectionImpl@xercesc_3_1@@UBEPAVDOMNamedNodeMap@2@XZ 1004f056 f   xerces-c_3_1:DOMCDATASectionImpl.cpp.obj
 0001:0004e056       ?getNamespaceURI@DOMDocumentTypeImpl@xercesc_3_1@@UBEPB_WXZ 1004f056 f   xerces-c_3_1:DOMDocumentTypeImpl.cpp.obj
 0001:0004e056       ?getLocalName@DOMProcessingInstructionImpl@xercesc_3_1@@UBEPB_WXZ 1004f056 f   xerces-c_3_1:DOMProcessingInstructionImpl.cpp.obj
 0001:0004e056       ?getNodeValue@DOMNotationImpl@xercesc_3_1@@UBEPB_WXZ 1004f056 f   xerces-c_3_1:DOMNotationImpl.cpp.obj
 0001:0004e056       ?getName@XSObject@xercesc_3_1@@UBEPB_WXZ 1004f056 f   xerces-c_3_1:XSObject.cpp.obj
 0001:0004e056       ?getParentNode@DOMAttrImpl@xercesc_3_1@@UBEPAVDOMNode@2@XZ 1004f056 f   xerces-c_3_1:DOMAttrImpl.cpp.obj
 0001:0004e056       ?getContentLeafNameTypeVector@MixedContentModel@xercesc_3_1@@UBEPAVContentLeafNameTypeVector@2@XZ 1004f056 f   xerces-c_3_1:MixedContentModel.cpp.obj
 0001:0004e056       ?getNodeValue@DOMEntityImpl@xercesc_3_1@@UBEPB_WXZ 1004f056 f   xerces-c_3_1:DOMEntityImpl.cpp.obj
 0001:0004e056       ?getCurrentGrammarType@DGXMLScanner@xercesc_3_1@@UBE?AW4GrammarType@Grammar@2@XZ 1004f056 f   xerces-c_3_1:DGXMLScanner.cpp.obj
 0001:0004e056       ?getParentNode@DOMDocumentFragmentImpl@xercesc_3_1@@UBEPAVDOMNode@2@XZ 1004f056 f   xerces-c_3_1:DOMDocumentFragmentImpl.cpp.obj
 0001:0004e056       ?getNodeValue@DOMDocumentImpl@xercesc_3_1@@UBEPB_WXZ 1004f056 f   xerces-c_3_1:DOMDocumentImpl.cpp.obj
 0001:0004e056       ?getParentNode@DOMNotationImpl@xercesc_3_1@@UBEPAVDOMNode@2@XZ 1004f056 f   xerces-c_3_1:DOMNotationImpl.cpp.obj
 0001:0004e056       ?getPrefix@DOMEntityImpl@xercesc_3_1@@UBEPB_WXZ 1004f056 f   xerces-c_3_1:DOMEntityImpl.cpp.obj
 0001:0004e056       ?createObject@XMLAbstractDoubleFloat@xercesc_3_1@@SAPAVXSerializable@2@PAVMemoryManager@2@@Z 1004f056 f   xerces-c_3_1:XMLAbstractDoubleFloat.cpp.obj
 0001:0004e056       ?size@Token@xercesc_3_1@@UBEKXZ 1004f056 f   xerces-c_3_1:RangeToken.cpp.obj
 0001:0004e056       ?getPrefix@DOMDocumentFragmentImpl@xercesc_3_1@@UBEPB_WXZ 1004f056 f   xerces-c_3_1:DOMDocumentFragmentImpl.cpp.obj
 0001:0004e056       ?createObject@DateTimeValidator@xercesc_3_1@@SAPAVXSerializable@2@PAVMemoryManager@2@@Z 1004f056 f   xerces-c_3_1:DateTimeValidator.cpp.obj
 0001:0004e056       ?getReferenceNo@Token@xercesc_3_1@@UBEHXZ 1004f056 f   xerces-c_3_1:RangeToken.cpp.obj
 0001:0004e056       ?getPrefix@DOMProcessingInstructionImpl@xercesc_3_1@@UBEPB_WXZ 1004f056 f   xerces-c_3_1:DOMProcessingInstructionImpl.cpp.obj
 0001:0004e056       ?getFirstChild@DOMTextImpl@xercesc_3_1@@UBEPAVDOMNode@2@XZ 1004f056 f   xerces-c_3_1:DOMTextImpl.cpp.obj
 0001:0004e056       ?getObjectType@SchemaElementDecl@xercesc_3_1@@UBE?AW4objectType@XMLElementDecl@2@XZ 1004f056 f   xerces-c_3_1:SchemaElementDecl.cpp.obj
 0001:0004e056       ?createObject@XMLAttDefList@xercesc_3_1@@SAPAVXSerializable@2@PAVMemoryManager@2@@Z 1004f056 f   xerces-c_3_1:XMLAttDefList.cpp.obj
 0001:0004e056       ?createObject@XMLEntityDecl@xercesc_3_1@@SAPAVXSerializable@2@PAVMemoryManager@2@@Z 1004f056 f   xerces-c_3_1:XMLEntityDecl.cpp.obj
 0001:0004e056       ?getPrefix@DOMAttrImpl@xercesc_3_1@@UBEPB_WXZ 1004f056 f   xerces-c_3_1:DOMAttrImpl.cpp.obj
 0001:0004e056       ?getPrefix@DOMEntityReferenceImpl@xercesc_3_1@@UBEPB_WXZ 1004f056 f   xerces-c_3_1:DOMEntityReferenceImpl.cpp.obj
 0001:0004e056       ?createObject@IdentityConstraint@xercesc_3_1@@SAPAVXSerializable@2@PAVMemoryManager@2@@Z 1004f056 f   xerces-c_3_1:IdentityConstraint.cpp.obj
 0001:0004e056       ?getLastChild@DOMCommentImpl@xercesc_3_1@@UBEPAVDOMNode@2@XZ 1004f056 f   xerces-c_3_1:DOMCommentImpl.cpp.obj
 0001:0004e056       ?getNamespaceURI@DOMDocumentImpl@xercesc_3_1@@UBEPB_WXZ 1004f056 f   xerces-c_3_1:DOMDocumentImpl.cpp.obj
 0001:0004e056       ?getAttributes@DOMDocumentImpl@xercesc_3_1@@UBEPAVDOMNamedNodeMap@2@XZ 1004f056 f   xerces-c_3_1:DOMDocumentImpl.cpp.obj
 0001:0004e056       ?getPrefix@DOMElementImpl@xercesc_3_1@@UBEPB_WXZ 1004f056 f   xerces-c_3_1:DOMElementImpl.cpp.obj
 0001:0004e056       ?getContentLeafNameTypeVector@SimpleContentModel@xercesc_3_1@@UBEPAVContentLeafNameTypeVector@2@XZ 1004f056 f   xerces-c_3_1:SimpleContentModel.cpp.obj
 0001:0004e056       ?getPreviousSibling@DOMDocumentImpl@xercesc_3_1@@UBEPAVDOMNode@2@XZ 1004f056 f   xerces-c_3_1:DOMDocumentImpl.cpp.obj
 0001:0004e056       ?getPrefix@DOMCDATASectionImpl@xercesc_3_1@@UBEPB_WXZ 1004f056 f   xerces-c_3_1:DOMCDATASectionImpl.cpp.obj
 0001:0004e056       ?getFirstChild@DOMCommentImpl@xercesc_3_1@@UBEPAVDOMNode@2@XZ 1004f056 f   xerces-c_3_1:DOMCommentImpl.cpp.obj
 0001:0004e056       ?getNamespaceURI@DOMEntityImpl@xercesc_3_1@@UBEPB_WXZ 1004f056 f   xerces-c_3_1:DOMEntityImpl.cpp.obj
 0001:0004e056       ?getNamespace@XSObject@xercesc_3_1@@UAEPB_WXZ 1004f056 f   xerces-c_3_1:XSObject.cpp.obj
 0001:0004e056       ?getLastChild@DOMCDATASectionImpl@xercesc_3_1@@UBEPAVDOMNode@2@XZ 1004f056 f   xerces-c_3_1:DOMCDATASectionImpl.cpp.obj
 0001:0004e056       ?getAttributes@DOMCommentImpl@xercesc_3_1@@UBEPAVDOMNamedNodeMap@2@XZ 1004f056 f   xerces-c_3_1:DOMCommentImpl.cpp.obj
 0001:0004e056       ?getNamespaceItem@XSObject@xercesc_3_1@@UAEPAVXSNamespaceItem@2@XZ 1004f056 f   xerces-c_3_1:XSObject.cpp.obj
 0001:0004e056       ?getNodeValue@DOMEntityReferenceImpl@xercesc_3_1@@UBEPB_WXZ 1004f056 f   xerces-c_3_1:DOMEntityReferenceImpl.cpp.obj
 0001:0004e056       ?getLocalName@DOMCommentImpl@xercesc_3_1@@UBEPB_WXZ 1004f056 f   xerces-c_3_1:DOMCommentImpl.cpp.obj
 0001:0004e056       ?getNextSibling@DOMDocumentFragmentImpl@xercesc_3_1@@UBEPAVDOMNode@2@XZ 1004f056 f   xerces-c_3_1:DOMDocumentFragmentImpl.cpp.obj
 0001:0004e056       ?getFirstChild@DOMCDATASectionImpl@xercesc_3_1@@UBEPAVDOMNode@2@XZ 1004f056 f   xerces-c_3_1:DOMCDATASectionImpl.cpp.obj
 0001:0004e056       ?getAttributes@DOMEntityReferenceImpl@xercesc_3_1@@UBEPAVDOMNamedNodeMap@2@XZ 1004f056 f   xerces-c_3_1:DOMEntityReferenceImpl.cpp.obj
 0001:0004e056       ?getPreviousSibling@DOMEntityImpl@xercesc_3_1@@UBEPAVDOMNode@2@XZ 1004f056 f   xerces-c_3_1:DOMEntityImpl.cpp.obj
 0001:0004e056       ?getPrefix@DOMDocumentTypeImpl@xercesc_3_1@@UBEPB_WXZ 1004f056 f   xerces-c_3_1:DOMDocumentTypeImpl.cpp.obj
 0001:0004e056       ?getType@IC_Unique@xercesc_3_1@@UBEFXZ 1004f056 f   xerces-c_3_1:IC_Unique.cpp.obj
 0001:0004e056       ?getGrammarType@XMLDTDDescription@xercesc_3_1@@UBE?AW4GrammarType@Grammar@2@XZ 1004f056 f   xerces-c_3_1:XMLDTDDescriptionImpl.cpp.obj
 0001:0004e056       ?getEntityDeclPool@SGXMLScanner@xercesc_3_1@@UAEPAV?$NameIdPool@VDTDEntityDecl@xercesc_3_1@@@2@XZ 1004f056 f   xerces-c_3_1:SGXMLScanner.cpp.obj
 0001:0004e056       ?createObject@Grammar@xercesc_3_1@@SAPAVXSerializable@2@PAVMemoryManager@2@@Z 1004f056 f   xerces-c_3_1:Grammar.cpp.obj
 0001:0004e056       ?getNamespaceURI@DOMCommentImpl@xercesc_3_1@@UBEPB_WXZ 1004f056 f   xerces-c_3_1:DOMCommentImpl.cpp.obj
 0001:0004e056       ?getPrefix@DOMNotationImpl@xercesc_3_1@@UBEPB_WXZ 1004f056 f   xerces-c_3_1:DOMNotationImpl.cpp.obj
 0001:0004e056       ?createObject@XMLSchemaDescription@xercesc_3_1@@SAPAVXSerializable@2@PAVMemoryManager@2@@Z 1004f056 f   xerces-c_3_1:XMLSchemaDescription.cpp.obj
 0001:0004e056       ?getFirstChild@DOMNotationImpl@xercesc_3_1@@UBEPAVDOMNode@2@XZ 1004f056 f   xerces-c_3_1:DOMNotationImpl.cpp.obj
 0001:0004e056       ?createObject@XMLNumber@xercesc_3_1@@SAPAVXSerializable@2@PAVMemoryManager@2@@Z 1004f056 f   xerces-c_3_1:XMLNumber.cpp.obj
 0001:0004e056       ?getNextSibling@DOMNotationImpl@xercesc_3_1@@UBEPAVDOMNode@2@XZ 1004f056 f   xerces-c_3_1:DOMNotationImpl.cpp.obj
 0001:0004e056       ?getPrefix@DOMTextImpl@xercesc_3_1@@UBEPB_WXZ 1004f056 f   xerces-c_3_1:DOMTextImpl.cpp.obj
 0001:0004e056       ?getPrefix@DOMCommentImpl@xercesc_3_1@@UBEPB_WXZ 1004f056 f   xerces-c_3_1:DOMCommentImpl.cpp.obj
 0001:0004e056       ?getGrammarType@DTDGrammar@xercesc_3_1@@UBE?AW4GrammarType@Grammar@2@XZ 1004f056 f   xerces-c_3_1:DTDGrammar.cpp.obj
 0001:0004e056       ?createObject@XMLElementDecl@xercesc_3_1@@SAPAVXSerializable@2@PAVMemoryManager@2@@Z 1004f056 f   xerces-c_3_1:XMLElementDecl.cpp.obj
 0001:0004e056       ?getPrefix@DOMDocumentImpl@xercesc_3_1@@UBEPB_WXZ 1004f056 f   xerces-c_3_1:DOMDocumentImpl.cpp.obj
 0001:0004e056       ?getNoParen@Token@xercesc_3_1@@UBEHXZ 1004f056 f   xerces-c_3_1:RangeToken.cpp.obj
 0001:0004e056       ?getNodeValue@DOMDocumentTypeImpl@xercesc_3_1@@UBEPB_WXZ 1004f056 f   xerces-c_3_1:DOMDocumentTypeImpl.cpp.obj
 0001:0004e056       ?getSign@XMLDateTime@xercesc_3_1@@UBEHXZ 1004f056 f   xerces-c_3_1:XMLDateTime.cpp.obj
 0001:0004e056       __matherr                  1004f056 f   LIBCMT:_matherr_.obj
 0001:0004e056       ?getContentLeafNameTypeVector@AllContentModel@xercesc_3_1@@UBEPAVContentLeafNameTypeVector@2@XZ 1004f056 f   xerces-c_3_1:AllContentModel.cpp.obj
 0001:0004e056       ?getString@Token@xercesc_3_1@@UBEPB_WXZ 1004f056 f   xerces-c_3_1:RangeToken.cpp.obj
 0001:0004e056       ?getEntityDeclPool@WFXMLScanner@xercesc_3_1@@UBEPBV?$NameIdPool@VDTDEntityDecl@xercesc_3_1@@@2@XZ 1004f056 f   xerces-c_3_1:WFXMLScanner.cpp.obj
 0001:0004e056       ?getLocalName@DOMElementImpl@xercesc_3_1@@UBEPB_WXZ 1004f056 f   xerces-c_3_1:DOMElementImpl.cpp.obj
 0001:0004e056       ?createObject@AbstractNumericValidator@xercesc_3_1@@SAPAVXSerializable@2@PAVMemoryManager@2@@Z 1004f056 f   xerces-c_3_1:AbstractNumericValidator.cpp.obj
 0001:0004e056       ?getLocalName@DOMAttrImpl@xercesc_3_1@@UBEPB_WXZ 1004f056 f   xerces-c_3_1:DOMAttrImpl.cpp.obj
 0001:0004e056       ?getNextSibling@DOMAttrImpl@xercesc_3_1@@UBEPAVDOMNode@2@XZ 1004f056 f   xerces-c_3_1:DOMAttrImpl.cpp.obj
 0001:0004e056       ?getNamespaceURI@DOMElementImpl@xercesc_3_1@@UBEPB_WXZ 1004f056 f   xerces-c_3_1:DOMElementImpl.cpp.obj
 0001:0004e056       ?getPreviousSibling@DOMNotationImpl@xercesc_3_1@@UBEPAVDOMNode@2@XZ 1004f056 f   xerces-c_3_1:DOMNotationImpl.cpp.obj
 0001:0004e056       ?getLocalName@DOMTextImpl@xercesc_3_1@@UBEPB_WXZ 1004f056 f   xerces-c_3_1:DOMTextImpl.cpp.obj
 0001:0004e056       ?createObject@AbstractNumericFacetValidator@xercesc_3_1@@SAPAVXSerializable@2@PAVMemoryManager@2@@Z 1004f056 f   xerces-c_3_1:AbstractNumericFacetValidator.cpp.obj
 0001:0004e056       ?getAttributes@DOMDocumentTypeImpl@xercesc_3_1@@UBEPAVDOMNamedNodeMap@2@XZ 1004f056 f   xerces-c_3_1:DOMDocumentTypeImpl.cpp.obj
 0001:0004e056       ?createObject@AbstractStringValidator@xercesc_3_1@@SAPAVXSerializable@2@PAVMemoryManager@2@@Z 1004f056 f   xerces-c_3_1:AbstractStringValidator.cpp.obj
 0001:0004e056       ?getLocalName@DOMDocumentFragmentImpl@xercesc_3_1@@UBEPB_WXZ 1004f056 f   xerces-c_3_1:DOMDocumentFragmentImpl.cpp.obj
 0001:0004e056       ?getAttributes@DOMProcessingInstructionImpl@xercesc_3_1@@UBEPAVDOMNamedNodeMap@2@XZ 1004f056 f   xerces-c_3_1:DOMProcessingInstructionImpl.cpp.obj
 0001:0004e056       ?getNamespaceURI@DOMNotationImpl@xercesc_3_1@@UBEPB_WXZ 1004f056 f   xerces-c_3_1:DOMNotationImpl.cpp.obj
 0001:0004e056       ?getLastChild@DOMProcessingInstructionImpl@xercesc_3_1@@UBEPAVDOMNode@2@XZ 1004f056 f   xerces-c_3_1:DOMProcessingInstructionImpl.cpp.obj
 0001:0004e056       ?getLocalName@DOMEntityImpl@xercesc_3_1@@UBEPB_WXZ 1004f056 f   xerces-c_3_1:DOMEntityImpl.cpp.obj
 0001:0004e056       ?createObject@XMLAttDef@xercesc_3_1@@SAPAVXSerializable@2@PAVMemoryManager@2@@Z 1004f056 f   xerces-c_3_1:XMLAttDef.cpp.obj
 0001:0004e056       ?getOwnerDocument@DOMDocumentImpl@xercesc_3_1@@UBEPAVDOMDocument@2@XZ 1004f056 f   xerces-c_3_1:DOMDocumentImpl.cpp.obj
 0001:0004e056       ?getNamespaceURI@DOMAttrImpl@xercesc_3_1@@UBEPB_WXZ 1004f056 f   xerces-c_3_1:DOMAttrImpl.cpp.obj
 0001:0004e056       ?getNodeValue@DOMDocumentFragmentImpl@xercesc_3_1@@UBEPB_WXZ 1004f056 f   xerces-c_3_1:DOMDocumentFragmentImpl.cpp.obj
 0001:0004e056       ?getNextSibling@DOMDocumentImpl@xercesc_3_1@@UBEPAVDOMNode@2@XZ 1004f056 f   xerces-c_3_1:DOMDocumentImpl.cpp.obj
 0001:0004e056       ?getEntityDeclPool@SGXMLScanner@xercesc_3_1@@UBEPBV?$NameIdPool@VDTDEntityDecl@xercesc_3_1@@@2@XZ 1004f056 f   xerces-c_3_1:SGXMLScanner.cpp.obj
 0001:0004e056       ?getContentType@BinFileInputStream@xercesc_3_1@@UBEPB_WXZ 1004f056 f   xerces-c_3_1:BinFileInputStream.cpp.obj
 0001:0004e056       ?createObject@DatatypeValidator@xercesc_3_1@@SAPAVXSerializable@2@PAVMemoryManager@2@@Z 1004f056 f   xerces-c_3_1:DatatypeValidator.cpp.obj
 0001:0004e056       ?getNamespaceURI@DOMEntityReferenceImpl@xercesc_3_1@@UBEPB_WXZ 1004f056 f   xerces-c_3_1:DOMEntityReferenceImpl.cpp.obj
 0001:0004e056       ?getContentType@BinMemInputStream@xercesc_3_1@@UBEPB_WXZ 1004f056 f   xerces-c_3_1:BinMemInputStream.cpp.obj
 0001:0004e056       ?getNodeValue@DOMElementImpl@xercesc_3_1@@UBEPB_WXZ 1004f056 f   xerces-c_3_1:DOMElementImpl.cpp.obj
 0001:0004e056       ?getEnumString@AnySimpleTypeDatatypeValidator@xercesc_3_1@@UBEPBV?$RefArrayVectorOf@_W@2@XZ 1004f056 f   xerces-c_3_1:AnySimpleTypeDatatypeValidator.cpp.obj
 0001:0004e056       ?getLastChild@DOMTextImpl@xercesc_3_1@@UBEPAVDOMNode@2@XZ 1004f056 f   xerces-c_3_1:DOMTextImpl.cpp.obj
 0001:0004e059       ?hasChildNodes@DOMDocumentFragmentImpl@xercesc_3_1@@UBE_NXZ 1004f059 f   xerces-c_3_1:DOMDocumentFragmentImpl.cpp.obj
 0001:0004e059       ?hasChildNodes@DOMEntityReferenceImpl@xercesc_3_1@@UBE_NXZ 1004f059 f   xerces-c_3_1:DOMEntityReferenceImpl.cpp.obj
 0001:0004e059       ?hasChildNodes@DOMDocumentImpl@xercesc_3_1@@UBE_NXZ 1004f059 f   xerces-c_3_1:DOMDocumentImpl.cpp.obj
 0001:0004e059       ?hasChildNodes@DOMAttrImpl@xercesc_3_1@@UBE_NXZ 1004f059 f   xerces-c_3_1:DOMAttrImpl.cpp.obj
 0001:0004e059       ?hasChildNodes@DOMDocumentTypeImpl@xercesc_3_1@@UBE_NXZ 1004f059 f   xerces-c_3_1:DOMDocumentTypeImpl.cpp.obj
 0001:0004e059       ?hasChildNodes@DOMElementImpl@xercesc_3_1@@UBE_NXZ 1004f059 f   xerces-c_3_1:DOMElementImpl.cpp.obj
 0001:0004e062       ?lookupNamespaceURI@DOMTextImpl@xercesc_3_1@@UBEPB_WPB_W@Z 1004f062 f   xerces-c_3_1:DOMTextImpl.cpp.obj
 0001:0004e062       ?lookupNamespaceURI@DOMCDATASectionImpl@xercesc_3_1@@UBEPB_WPB_W@Z 1004f062 f   xerces-c_3_1:DOMCDATASectionImpl.cpp.obj
 0001:0004e062       ?lookupNamespaceURI@DOMElementImpl@xercesc_3_1@@UBEPB_WPB_W@Z 1004f062 f   xerces-c_3_1:DOMElementImpl.cpp.obj
 0001:0004e062       ?lookupNamespaceURI@DOMEntityReferenceImpl@xercesc_3_1@@UBEPB_WPB_W@Z 1004f062 f   xerces-c_3_1:DOMEntityReferenceImpl.cpp.obj
 0001:0004e062       ?lookupNamespaceURI@DOMNotationImpl@xercesc_3_1@@UBEPB_WPB_W@Z 1004f062 f   xerces-c_3_1:DOMNotationImpl.cpp.obj
 0001:0004e062       ?lookupNamespaceURI@DOMDocumentImpl@xercesc_3_1@@UBEPB_WPB_W@Z 1004f062 f   xerces-c_3_1:DOMDocumentImpl.cpp.obj
 0001:0004e062       ?lookupNamespaceURI@DOMDocumentFragmentImpl@xercesc_3_1@@UBEPB_WPB_W@Z 1004f062 f   xerces-c_3_1:DOMDocumentFragmentImpl.cpp.obj
 0001:0004e062       ?lookupNamespaceURI@DOMProcessingInstructionImpl@xercesc_3_1@@UBEPB_WPB_W@Z 1004f062 f   xerces-c_3_1:DOMProcessingInstructionImpl.cpp.obj
 0001:0004e062       ?lookupNamespaceURI@DOMDocumentTypeImpl@xercesc_3_1@@UBEPB_WPB_W@Z 1004f062 f   xerces-c_3_1:DOMDocumentTypeImpl.cpp.obj
 0001:0004e062       ?lookupNamespaceURI@DOMCommentImpl@xercesc_3_1@@UBEPB_WPB_W@Z 1004f062 f   xerces-c_3_1:DOMCommentImpl.cpp.obj
 0001:0004e062       ?lookupNamespaceURI@DOMEntityImpl@xercesc_3_1@@UBEPB_WPB_W@Z 1004f062 f   xerces-c_3_1:DOMEntityImpl.cpp.obj
 0001:0004e062       ?lookupNamespaceURI@DOMAttrImpl@xercesc_3_1@@UBEPB_WPB_W@Z 1004f062 f   xerces-c_3_1:DOMAttrImpl.cpp.obj
 0001:0004e06e       ??0XSElementDeclaration@xercesc_3_1@@QAE@QAVSchemaElementDecl@1@QAVXSTypeDefinition@1@QAV01@QAVXSAnnotation@1@QAV?$XSNamedMap@VXSIDCDefinition@xercesc_3_1@@@1@QAVXSModel@1@W4SCOPE@XSConstants@1@QAVXSComplexTypeDefinition@1@QAVMemoryManager@1@@Z 1004f06e f   xerces-c_3_1:XSElementDeclaration.cpp.obj
 0001:0004e0fc       ??_EXSElementDeclaration@xercesc_3_1@@UAEPAXI@Z 1004f0fc f i  CIL library: CIL module
 0001:0004e0fc       ??_GXSElementDeclaration@xercesc_3_1@@UAEPAXI@Z 1004f0fc f i xerces-c_3_1:XSElementDeclaration.cpp.obj
 0001:0004e16a       ?getName@XSElementDeclaration@xercesc_3_1@@UBEPB_WXZ 1004f16a f   xerces-c_3_1:XSElementDeclaration.cpp.obj
 0001:0004e174       ?getNamespace@XSElementDeclaration@xercesc_3_1@@UAEPB_WXZ 1004f174 f   xerces-c_3_1:XSElementDeclaration.cpp.obj
 0001:0004e18c       ??_EDOMImplementationLS@xercesc_3_1@@UAEPAXI@Z 1004f18c f i  CIL library: CIL module
 0001:0004e18c       ??_GDOMImplementationLS@xercesc_3_1@@UAEPAXI@Z 1004f18c f i xerces-c_3_1:DOMImplementationImpl.cpp.obj
 0001:0004e1ac       ??_GDOMImplementationSource@xercesc_3_1@@UAEPAXI@Z 1004f1ac f i xerces-c_3_1:DOMImplementationImpl.cpp.obj
 0001:0004e1ac       ??_EDOMImplementationSource@xercesc_3_1@@UAEPAXI@Z 1004f1ac f i  CIL library: CIL module
 0001:0004e1cc       ??_GDOMImplementationImpl@xercesc_3_1@@UAEPAXI@Z 1004f1cc f i xerces-c_3_1:DOMImplementationImpl.cpp.obj
 0001:0004e1cc       ??_EDOMImplementationImpl@xercesc_3_1@@UAEPAXI@Z 1004f1cc f i  CIL library: CIL module
 0001:0004e1f3       ?hasFeature@DOMImplementationImpl@xercesc_3_1@@UBE_NPB_W0@Z 1004f1f3 f   xerces-c_3_1:DOMImplementationImpl.cpp.obj
 0001:0004e314       ?createDocumentType@DOMImplementationImpl@xercesc_3_1@@UAEPAVDOMDocumentType@2@PB_W00@Z 1004f314 f   xerces-c_3_1:DOMImplementationImpl.cpp.obj
 0001:0004e385       ?createDocument@DOMImplementationImpl@xercesc_3_1@@UAEPAVDOMDocument@2@PB_W0PAVDOMDocumentType@2@QAVMemoryManager@2@@Z 1004f385 f   xerces-c_3_1:DOMImplementationImpl.cpp.obj
 0001:0004e3e2       ?createDocument@DOMImplementationImpl@xercesc_3_1@@UAEPAVDOMDocument@2@QAVMemoryManager@2@@Z 1004f3e2 f   xerces-c_3_1:DOMImplementationImpl.cpp.obj
 0001:0004e436       ?createLSParser@DOMImplementationImpl@xercesc_3_1@@UAEPAVDOMLSParser@2@W4DOMImplementationLSMode@DOMImplementationLS@2@QB_WQAVMemoryManager@2@QAVXMLGrammarPool@2@@Z 1004f436 f   xerces-c_3_1:DOMImplementationImpl.cpp.obj
 0001:0004e4ae       ?createLSSerializer@DOMImplementationImpl@xercesc_3_1@@UAEPAVDOMLSSerializer@2@QAVMemoryManager@2@@Z 1004f4ae f   xerces-c_3_1:DOMImplementationImpl.cpp.obj
 0001:0004e4f0       ?createLSInput@DOMImplementationImpl@xercesc_3_1@@UAEPAVDOMLSInput@2@QAVMemoryManager@2@@Z 1004f4f0 f   xerces-c_3_1:DOMImplementationImpl.cpp.obj
 0001:0004e533       ?createLSOutput@DOMImplementationImpl@xercesc_3_1@@UAEPAVDOMLSOutput@2@QAVMemoryManager@2@@Z 1004f533 f   xerces-c_3_1:DOMImplementationImpl.cpp.obj
 0001:0004e569       ?getDOMImplementation@DOMImplementationImpl@xercesc_3_1@@UBEPAVDOMImplementation@2@PB_W@Z 1004f569 f   xerces-c_3_1:DOMImplementationImpl.cpp.obj
 0001:0004e63c       ?getDOMImplementationList@DOMImplementationImpl@xercesc_3_1@@UBEPAVDOMImplementationList@2@PB_W@Z 1004f63c f   xerces-c_3_1:DOMImplementationImpl.cpp.obj
 0001:0004e697       ??_EDOMImplementationImpl@xercesc_3_1@@W3AEPAXI@Z 1004f697 f i xerces-c_3_1:DOMImplementationImpl.cpp.obj
 0001:0004e69f       ??0XMLAttr@xercesc_3_1@@QAE@QAVMemoryManager@1@@Z 1004f69f f   xerces-c_3_1:XMLAttr.cpp.obj
 0001:0004e6d8       ??0XMLAttr@xercesc_3_1@@QAE@IQB_W00W4AttTypes@XMLAttDef@1@_NQAVMemoryManager@1@PAVDatatypeValidator@1@2@Z 1004f6d8 f   xerces-c_3_1:XMLAttr.cpp.obj
 0001:0004e773       ??0XMLAttr@xercesc_3_1@@QAE@IQB_W0W4AttTypes@XMLAttDef@1@_NQAVMemoryManager@1@PAVDatatypeValidator@1@2@Z 1004f773 f   xerces-c_3_1:XMLAttr.cpp.obj
 0001:0004e80b       ?setValue@XMLAttr@xercesc_3_1@@QAEXQB_W@Z 1004f80b f   xerces-c_3_1:XMLAttr.cpp.obj
 0001:0004e861       ?cleanUp@XMLAttr@xercesc_3_1@@AAEXXZ 1004f861 f   xerces-c_3_1:XMLAttr.cpp.obj
 0001:0004e87e       ??1?$JanitorMemFunCall@VValueStoreCache@xercesc_3_1@@@xercesc_3_1@@QAE@XZ 1004f87e f i xerces-c_3_1:ValueStoreCache.cpp.obj
 0001:0004e87e       ??1?$JanitorMemFunCall@VDOMXPathExpression@xercesc_3_1@@@xercesc_3_1@@QAE@XZ 1004f87e f i xerces-c_3_1:DOMDocumentImpl.cpp.obj
 0001:0004e87e       ??1?$JanitorMemFunCall@VXPathMatcherStack@xercesc_3_1@@@xercesc_3_1@@QAE@XZ 1004f87e f i xerces-c_3_1:XPathMatcherStack.cpp.obj
 0001:0004e87e       ??1?$JanitorMemFunCall@VXMLStringTokenizer@xercesc_3_1@@@xercesc_3_1@@QAE@XZ 1004f87e f i xerces-c_3_1:XMLStringTokenizer.cpp.obj
 0001:0004e87e       ??1?$JanitorMemFunCall@VRangeTokenMap@xercesc_3_1@@@xercesc_3_1@@QAE@XZ 1004f87e f i xerces-c_3_1:RangeTokenMap.cpp.obj
 0001:0004e87e       ??1?$JanitorMemFunCall@VFieldValueMap@xercesc_3_1@@@xercesc_3_1@@QAE@XZ 1004f87e f i xerces-c_3_1:FieldValueMap.cpp.obj
 0001:0004e87e       ??1?$JanitorMemFunCall@VBMPattern@xercesc_3_1@@@xercesc_3_1@@QAE@XZ 1004f87e f i xerces-c_3_1:BMPattern.cpp.obj
 0001:0004e87e       ??1?$JanitorMemFunCall@VTraverseSchema@xercesc_3_1@@@xercesc_3_1@@QAE@XZ 1004f87e f i xerces-c_3_1:TraverseSchema.cpp.obj
 0001:0004e87e       ??1?$JanitorMemFunCall@VXMLAttr@xercesc_3_1@@@xercesc_3_1@@QAE@XZ 1004f87e f i xerces-c_3_1:XMLAttr.cpp.obj
 0001:0004e891       ??0DOMNodeImpl@xercesc_3_1@@QAE@ABV01@@Z 1004f891 f   xerces-c_3_1:DOMNodeImpl.cpp.obj
 0001:0004e8bc       ?getOwnerDocument@DOMNodeImpl@xercesc_3_1@@QBEPAVDOMDocument@2@XZ 1004f8bc f   xerces-c_3_1:DOMNodeImpl.cpp.obj
 0001:0004e8f3       ?removeChild@DOMNodeImpl@xercesc_3_1@@QAEPAVDOMNode@2@PAV32@@Z 1004f8f3 f   xerces-c_3_1:DOMNodeImpl.cpp.obj
 0001:0004e954       ?insertBefore@DOMNodeImpl@xercesc_3_1@@QAEPAVDOMNode@2@PAV32@0@Z 1004f954 f   xerces-c_3_1:DOMNodeImpl.cpp.obj
 0001:0004e954       ?appendChild@DOMNodeImpl@xercesc_3_1@@QAEPAVDOMNode@2@PAV32@@Z 1004f954 f   xerces-c_3_1:DOMNodeImpl.cpp.obj
 0001:0004e954       ?replaceChild@DOMNodeImpl@xercesc_3_1@@QAEPAVDOMNode@2@PAV32@0@Z 1004f954 f   xerces-c_3_1:DOMNodeImpl.cpp.obj
 0001:0004e9b5       ?setReadOnly@DOMNodeImpl@xercesc_3_1@@QAEX_N0@Z 1004f9b5 f   xerces-c_3_1:DOMNodeImpl.cpp.obj
 0001:0004ea2f       ?setPrefix@DOMNodeImpl@xercesc_3_1@@QAEXPB_W@Z 1004fa2f f   xerces-c_3_1:DOMNodeImpl.cpp.obj
 0001:0004ea90       ?mapPrefix@DOMNodeImpl@xercesc_3_1@@SAPB_WPB_W0F@Z 1004fa90 f   xerces-c_3_1:DOMNodeImpl.cpp.obj
 0001:0004eb17       ?setUserData@DOMNodeImpl@xercesc_3_1@@QAEPAXPB_WPAXPAVDOMUserDataHandler@2@@Z 1004fb17 f   xerces-c_3_1:DOMNodeImpl.cpp.obj
 0001:0004eb63       ?getUserData@DOMNodeImpl@xercesc_3_1@@QBEPAXPB_W@Z 1004fb63 f   xerces-c_3_1:DOMNodeImpl.cpp.obj
 0001:0004ebc4       ?callUserDataHandlers@DOMNodeImpl@xercesc_3_1@@QBEXW4DOMOperationType@DOMUserDataHandler@2@PBVDOMNode@2@PAV52@@Z 1004fbc4 f   xerces-c_3_1:DOMNodeImpl.cpp.obj
 0001:0004ebe8       ?isEqualNode@DOMNodeImpl@xercesc_3_1@@QBE_NPBVDOMNode@2@@Z 1004fbe8 f   xerces-c_3_1:DOMNodeImpl.cpp.obj
 0001:0004ecb1       ?lookupPrefix@DOMNodeImpl@xercesc_3_1@@QBEPB_WPB_W@Z 1004fcb1 f   xerces-c_3_1:DOMNodeImpl.cpp.obj
 0001:0004ed33       ?getElementAncestor@DOMNodeImpl@xercesc_3_1@@QBEPAVDOMNode@2@PBV32@@Z 1004fd33 f   xerces-c_3_1:DOMNodeImpl.cpp.obj
 0001:0004ed58       ?lookupPrefix@DOMNodeImpl@xercesc_3_1@@QBEPB_WQB_WPAVDOMElement@2@@Z 1004fd58 f   xerces-c_3_1:DOMNodeImpl.cpp.obj
 0001:0004ee9f       ?lookupNamespaceURI@DOMNodeImpl@xercesc_3_1@@QBEPB_WPB_W@Z 1004fe9f f   xerces-c_3_1:DOMNodeImpl.cpp.obj
 0001:0004f03e       ?getBaseURI@DOMNodeImpl@xercesc_3_1@@QBEPB_WXZ 1005003e f   xerces-c_3_1:DOMNodeImpl.cpp.obj
 0001:0004f054       ?getTreeParentNode@DOMNodeImpl@xercesc_3_1@@QBEPBVDOMNode@2@PBV32@@Z 10050054 f   xerces-c_3_1:DOMNodeImpl.cpp.obj
 0001:0004f085       ?compareDocumentPosition@DOMNodeImpl@xercesc_3_1@@QBEFPBVDOMNode@2@@Z 10050085 f   xerces-c_3_1:DOMNodeImpl.cpp.obj
 0001:0004f29a       ?getTextContent@DOMNodeImpl@xercesc_3_1@@QBEPB_WXZ 1005029a f   xerces-c_3_1:DOMNodeImpl.cpp.obj
 0001:0004f2f0       ?getTextContent@DOMNodeImpl@xercesc_3_1@@QBEPB_WPA_WAAK@Z 100502f0 f   xerces-c_3_1:DOMNodeImpl.cpp.obj
 0001:0004f3ef       ?setTextContent@DOMNodeImpl@xercesc_3_1@@QAEXPB_W@Z 100503ef f   xerces-c_3_1:DOMNodeImpl.cpp.obj
 0001:0004f58b       ?isDefaultNamespace@DOMNodeImpl@xercesc_3_1@@QBE_NPB_W@Z 1005058b f   xerces-c_3_1:DOMNodeImpl.cpp.obj
 0001:0004f657       ??0EndOfEntityException@xercesc_3_1@@QAE@ABV01@@Z 10050657 f i xerces-c_3_1:ReaderMgr.cpp.obj
 0001:0004f66d       ?getNextChar@XMLReader@xercesc_3_1@@QAE_NAA_W@Z 1005066d f i xerces-c_3_1:ReaderMgr.cpp.obj
 0001:0004f6cd       ?peekNextChar@XMLReader@xercesc_3_1@@QAE_NAA_W@Z 100506cd f i xerces-c_3_1:ReaderMgr.cpp.obj
 0001:0004f728       ??_GLocator@xercesc_3_1@@UAEPAXI@Z 10050728 f i xerces-c_3_1:ReaderMgr.cpp.obj
 0001:0004f728       ??_ELocator@xercesc_3_1@@UAEPAXI@Z 10050728 f i  CIL library: CIL module
 0001:0004f748       ??0ReaderMgr@xercesc_3_1@@QAE@QAVMemoryManager@1@@Z 10050748 f   xerces-c_3_1:ReaderMgr.cpp.obj
 0001:0004f77c       ??_EReaderMgr@xercesc_3_1@@UAEPAXI@Z 1005077c f i  CIL library: CIL module
 0001:0004f77c       ??_GReaderMgr@xercesc_3_1@@UAEPAXI@Z 1005077c f i xerces-c_3_1:ReaderMgr.cpp.obj
 0001:0004f79c       ??1ReaderMgr@xercesc_3_1@@UAE@XZ 1005079c f   xerces-c_3_1:ReaderMgr.cpp.obj
 0001:0004f7ff       ??_GXMLReader@xercesc_3_1@@QAEPAXI@Z 100507ff f i xerces-c_3_1:ReaderMgr.cpp.obj
 0001:0004f85c       ?getNextChar@ReaderMgr@xercesc_3_1@@QAE_WXZ 1005085c f   xerces-c_3_1:ReaderMgr.cpp.obj
 0001:0004f899       ?getSpaces@ReaderMgr@xercesc_3_1@@QAEXAAVXMLBuffer@2@@Z 10050899 f   xerces-c_3_1:ReaderMgr.cpp.obj
 0001:0004f923       ?peekNextChar@ReaderMgr@xercesc_3_1@@QAE_WXZ 10050923 f   xerces-c_3_1:ReaderMgr.cpp.obj
 0001:0004f960       ?skippedChar@ReaderMgr@xercesc_3_1@@QAE_N_W@Z 10050960 f   xerces-c_3_1:ReaderMgr.cpp.obj
 0001:0004f9bf       ?skippedSpace@ReaderMgr@xercesc_3_1@@QAE_NXZ 100509bf f   xerces-c_3_1:ReaderMgr.cpp.obj
 0001:0004fa41       ?skipIfQuote@ReaderMgr@xercesc_3_1@@QAE_NAA_W@Z 10050a41 f   xerces-c_3_1:ReaderMgr.cpp.obj
 0001:0004faaa       ?skipPastSpaces@ReaderMgr@xercesc_3_1@@QAEXAA_N_N@Z 10050aaa f   xerces-c_3_1:ReaderMgr.cpp.obj
 0001:0004fada       ?skipPastSpaces@ReaderMgr@xercesc_3_1@@QAEXXZ 10050ada f   xerces-c_3_1:ReaderMgr.cpp.obj
 0001:0004fb03       ?skipQuotedString@ReaderMgr@xercesc_3_1@@QAEX_W@Z 10050b03 f   xerces-c_3_1:ReaderMgr.cpp.obj
 0001:0004fb22       ?skipUntilIn@ReaderMgr@xercesc_3_1@@QAE_WQB_W@Z 10050b22 f   xerces-c_3_1:ReaderMgr.cpp.obj
 0001:0004fb59       ?skipUntilInOrWS@ReaderMgr@xercesc_3_1@@QAE_WQB_W@Z 10050b59 f   xerces-c_3_1:ReaderMgr.cpp.obj
 0001:0004fb9e       ?atEOF@ReaderMgr@xercesc_3_1@@QBE_NXZ 10050b9e f   xerces-c_3_1:ReaderMgr.cpp.obj
 0001:0004fbba       ?cleanStackBackTo@ReaderMgr@xercesc_3_1@@QAEXK@Z 10050bba f   xerces-c_3_1:ReaderMgr.cpp.obj
 0001:0004fc67       ?createReader@ReaderMgr@xercesc_3_1@@QAEPAVXMLReader@2@ABVInputSource@2@_NW4RefFrom@32@W4Types@32@W4Sources@32@1K@Z 10050c67 f   xerces-c_3_1:ReaderMgr.cpp.obj
 0001:0004fd90       ?createReader@ReaderMgr@xercesc_3_1@@QAEPAVXMLReader@2@QB_W0_NW4RefFrom@32@W4Types@32@W4Sources@32@AAPAVInputSource@2@1K1@Z 10050d90 f   xerces-c_3_1:ReaderMgr.cpp.obj
 0001:000500b1       ?createReader@ReaderMgr@xercesc_3_1@@QAEPAVXMLReader@2@QB_W00_NW4RefFrom@32@W4Types@32@W4Sources@32@AAPAVInputSource@2@1K1@Z 100510b1 f   xerces-c_3_1:ReaderMgr.cpp.obj
 0001:000503cd       ?createIntEntReader@ReaderMgr@xercesc_3_1@@QAEPAVXMLReader@2@QB_WW4RefFrom@32@W4Types@32@0K_N3K@Z 100513cd f   xerces-c_3_1:ReaderMgr.cpp.obj
 0001:00050482       ?getLastExtEntityInfo@ReaderMgr@xercesc_3_1@@QBEXAAULastExtEntityInfo@12@@Z 10051482 f   xerces-c_3_1:ReaderMgr.cpp.obj
 0001:000504ee       ?pushReader@ReaderMgr@xercesc_3_1@@QAE_NQAVXMLReader@2@QAVXMLEntityDecl@2@@Z 100514ee f   xerces-c_3_1:ReaderMgr.cpp.obj
 0001:000505f1       ?reset@ReaderMgr@xercesc_3_1@@QAEXXZ 100515f1 f   xerces-c_3_1:ReaderMgr.cpp.obj
 0001:00050628       ?getPublicId@ReaderMgr@xercesc_3_1@@UBEPB_WXZ 10051628 f   xerces-c_3_1:ReaderMgr.cpp.obj
 0001:00050654       ?getSystemId@ReaderMgr@xercesc_3_1@@UBEPB_WXZ 10051654 f   xerces-c_3_1:ReaderMgr.cpp.obj
 0001:00050680       ?getColumnNumber@ReaderMgr@xercesc_3_1@@UBE_KXZ 10051680 f   xerces-c_3_1:ReaderMgr.cpp.obj
 0001:000506b3       ?getLineNumber@ReaderMgr@xercesc_3_1@@UBE_KXZ 100516b3 f   xerces-c_3_1:ReaderMgr.cpp.obj
 0001:000506e6       ?getLastExtEntity@ReaderMgr@xercesc_3_1@@ABEPBVXMLReader@2@AAPBVXMLEntityDecl@2@@Z 100516e6 f   xerces-c_3_1:ReaderMgr.cpp.obj
 0001:00050746       ?popReader@ReaderMgr@xercesc_3_1@@AAE_NXZ 10051746 f   xerces-c_3_1:ReaderMgr.cpp.obj
 0001:00050819       ??1?$BaseRefVectorOf@VXMLReader@xercesc_3_1@@@xercesc_3_1@@UAE@XZ 10051819 f i xerces-c_3_1:ReaderMgr.cpp.obj
 0001:00050820       ?setElementAt@?$BaseRefVectorOf@VXMLReader@xercesc_3_1@@@xercesc_3_1@@UAEXQAVXMLReader@2@K@Z 10051820 f i xerces-c_3_1:ReaderMgr.cpp.obj
 0001:000508a0       ?removeAllElements@?$BaseRefVectorOf@VXMLReader@xercesc_3_1@@@xercesc_3_1@@UAEXXZ 100518a0 f i xerces-c_3_1:ReaderMgr.cpp.obj
 0001:000508d6       ?removeElementAt@?$BaseRefVectorOf@VXMLReader@xercesc_3_1@@@xercesc_3_1@@UAEXK@Z 100518d6 f i xerces-c_3_1:ReaderMgr.cpp.obj
 0001:00050985       ?removeLastElement@?$BaseRefVectorOf@VXMLReader@xercesc_3_1@@@xercesc_3_1@@UAEXXZ 10051985 f i xerces-c_3_1:ReaderMgr.cpp.obj
 0001:000509aa       ?cleanup@?$BaseRefVectorOf@VXMLReader@xercesc_3_1@@@xercesc_3_1@@UAEXXZ 100519aa f i xerces-c_3_1:ReaderMgr.cpp.obj
 0001:000509e0       ??1?$RefVectorOf@VXMLReader@xercesc_3_1@@@xercesc_3_1@@UAE@XZ 100519e0 f i xerces-c_3_1:ReaderMgr.cpp.obj
 0001:00050a3c       ??0?$RefStackOf@VXMLReader@xercesc_3_1@@@xercesc_3_1@@QAE@K_NQAVMemoryManager@1@@Z 10051a3c f i xerces-c_3_1:ReaderMgr.cpp.obj
 0001:00050a7c       ?elementAt@?$RefStackOf@VXMLReader@xercesc_3_1@@@xercesc_3_1@@QBEPBVXMLReader@2@K@Z 10051a7c f i xerces-c_3_1:ReaderMgr.cpp.obj
 0001:00050ae0       ??1?$BaseRefVectorOf@VXMLEntityDecl@xercesc_3_1@@@xercesc_3_1@@UAE@XZ 10051ae0 f i xerces-c_3_1:ReaderMgr.cpp.obj
 0001:00050ae7       ??1?$RefVectorOf@VXMLEntityDecl@xercesc_3_1@@@xercesc_3_1@@UAE@XZ 10051ae7 f i xerces-c_3_1:ReaderMgr.cpp.obj
 0001:00050b44       ??0?$RefStackOf@VXMLEntityDecl@xercesc_3_1@@@xercesc_3_1@@QAE@K_NQAVMemoryManager@1@@Z 10051b44 f i xerces-c_3_1:ReaderMgr.cpp.obj
 0001:00050b84       ?elementAt@?$RefStackOf@VXMLEntityDecl@xercesc_3_1@@@xercesc_3_1@@QBEPBVXMLEntityDecl@2@K@Z 10051b84 f i xerces-c_3_1:ReaderMgr.cpp.obj
 0001:00050c00       ?pop@?$RefStackOf@VXMLEntityDecl@xercesc_3_1@@@xercesc_3_1@@QAEPAVXMLEntityDecl@2@XZ 10051c00 f i xerces-c_3_1:ReaderMgr.cpp.obj
 0001:00050c00       ?pop@?$RefStackOf@VXMLReader@xercesc_3_1@@@xercesc_3_1@@QAEPAVXMLReader@2@XZ 10051c00 f i xerces-c_3_1:ReaderMgr.cpp.obj
 0001:00050c00       ?pop@?$RefStackOf@V?$RefHashTableOf@VValueStore@xercesc_3_1@@UPtrHasher@2@@xercesc_3_1@@@xercesc_3_1@@QAEPAV?$RefHashTableOf@VValueStore@xercesc_3_1@@UPtrHasher@2@@2@XZ 10051c00 f i xerces-c_3_1:ValueStoreCache.cpp.obj
 0001:00050c00       ?pop@?$RefStackOf@VDOMNode@xercesc_3_1@@@xercesc_3_1@@QAEPAVDOMNode@2@XZ 10051c00 f i xerces-c_3_1:DOMDocumentImpl.cpp.obj
 0001:00050c60       ??_G?$BaseRefVectorOf@VXMLReader@xercesc_3_1@@@xercesc_3_1@@UAEPAXI@Z 10051c60 f i xerces-c_3_1:ReaderMgr.cpp.obj
 0001:00050c60       ??_E?$BaseRefVectorOf@VXMLReader@xercesc_3_1@@@xercesc_3_1@@UAEPAXI@Z 10051c60 f i  CIL library: CIL module
 0001:00050c80       ??_G?$RefVectorOf@VXMLReader@xercesc_3_1@@@xercesc_3_1@@UAEPAXI@Z 10051c80 f i xerces-c_3_1:ReaderMgr.cpp.obj
 0001:00050c80       ??_E?$RefVectorOf@VXMLReader@xercesc_3_1@@@xercesc_3_1@@UAEPAXI@Z 10051c80 f i  CIL library: CIL module
 0001:00050ca0       ??_G?$BaseRefVectorOf@VXMLEntityDecl@xercesc_3_1@@@xercesc_3_1@@UAEPAXI@Z 10051ca0 f i xerces-c_3_1:ReaderMgr.cpp.obj
 0001:00050ca0       ??_E?$BaseRefVectorOf@VXMLEntityDecl@xercesc_3_1@@@xercesc_3_1@@UAEPAXI@Z 10051ca0 f i  CIL library: CIL module
 0001:00050cc0       ??_G?$RefVectorOf@VXMLEntityDecl@xercesc_3_1@@@xercesc_3_1@@UAEPAXI@Z 10051cc0 f i xerces-c_3_1:ReaderMgr.cpp.obj
 0001:00050cc0       ??_E?$RefVectorOf@VXMLEntityDecl@xercesc_3_1@@@xercesc_3_1@@UAEPAXI@Z 10051cc0 f i  CIL library: CIL module
 0001:00050ce0       ?cloneNode@DOMCDATASectionImpl@xercesc_3_1@@UBEPAVDOMNode@2@_N@Z 10051ce0 f   xerces-c_3_1:DOMCDATASectionImpl.cpp.obj
 0001:00050d61       ?getNodeName@DOMCDATASectionImpl@xercesc_3_1@@UBEPB_WXZ 10051d61 f   xerces-c_3_1:DOMCDATASectionImpl.cpp.obj
 0001:00050d67       ?getNodeType@DOMCDATASectionImpl@xercesc_3_1@@UBE?AW4NodeType@DOMNode@2@XZ 10051d67 f   xerces-c_3_1:DOMCDATASectionImpl.cpp.obj
 0001:00050d6b       ?splitText@DOMCDATASectionImpl@xercesc_3_1@@UAEPAVDOMText@2@K@Z 10051d6b f   xerces-c_3_1:DOMCDATASectionImpl.cpp.obj
 0001:00050ef7       ?getIsElementContentWhitespace@DOMTextImpl@xercesc_3_1@@UBE_NXZ 10051ef7 f   xerces-c_3_1:DOMTextImpl.cpp.obj
 0001:00050ef7       ?getIsElementContentWhitespace@DOMCDATASectionImpl@xercesc_3_1@@UBE_NXZ 10051ef7 f   xerces-c_3_1:DOMCDATASectionImpl.cpp.obj
 0001:00050eff       ?release@DOMCDATASectionImpl@xercesc_3_1@@UAEXXZ 10051eff f   xerces-c_3_1:DOMCDATASectionImpl.cpp.obj
 0001:00050fab       ?getParentNode@DOMElementImpl@xercesc_3_1@@UBEPAVDOMNode@2@XZ 10051fab f   xerces-c_3_1:DOMElementImpl.cpp.obj
 0001:00050fab       ?getParentNode@DOMCDATASectionImpl@xercesc_3_1@@UBEPAVDOMNode@2@XZ 10051fab f   xerces-c_3_1:DOMCDATASectionImpl.cpp.obj
 0001:00050fab       ?getParentNode@DOMEntityReferenceImpl@xercesc_3_1@@UBEPAVDOMNode@2@XZ 10051fab f   xerces-c_3_1:DOMEntityReferenceImpl.cpp.obj
 0001:00050fab       ?getParentNode@DOMDocumentTypeImpl@xercesc_3_1@@UBEPAVDOMNode@2@XZ 10051fab f   xerces-c_3_1:DOMDocumentTypeImpl.cpp.obj
 0001:00050fab       ?getParentNode@DOMProcessingInstructionImpl@xercesc_3_1@@UBEPAVDOMNode@2@XZ 10051fab f   xerces-c_3_1:DOMProcessingInstructionImpl.cpp.obj
 0001:00050fab       ?getParentNode@DOMTextImpl@xercesc_3_1@@UBEPAVDOMNode@2@XZ 10051fab f   xerces-c_3_1:DOMTextImpl.cpp.obj
 0001:00050fab       ?getParentNode@DOMCommentImpl@xercesc_3_1@@UBEPAVDOMNode@2@XZ 10051fab f   xerces-c_3_1:DOMCommentImpl.cpp.obj
 0001:00050fb2       ?setTextContent@DOMCommentImpl@xercesc_3_1@@UAEXPB_W@Z 10051fb2 f   xerces-c_3_1:DOMCommentImpl.cpp.obj
 0001:00050fb2       ?setTextContent@DOMDocumentTypeImpl@xercesc_3_1@@UAEXPB_W@Z 10051fb2 f   xerces-c_3_1:DOMDocumentTypeImpl.cpp.obj
 0001:00050fb2       ?setTextContent@DOMCDATASectionImpl@xercesc_3_1@@UAEXPB_W@Z 10051fb2 f   xerces-c_3_1:DOMCDATASectionImpl.cpp.obj
 0001:00050fb2       ?setTextContent@DOMDocumentImpl@xercesc_3_1@@UAEXPB_W@Z 10051fb2 f   xerces-c_3_1:DOMDocumentImpl.cpp.obj
 0001:00050fb2       ?setTextContent@DOMElementImpl@xercesc_3_1@@UAEXPB_W@Z 10051fb2 f   xerces-c_3_1:DOMElementImpl.cpp.obj
 0001:00050fb2       ?setTextContent@DOMDocumentFragmentImpl@xercesc_3_1@@UAEXPB_W@Z 10051fb2 f   xerces-c_3_1:DOMDocumentFragmentImpl.cpp.obj
 0001:00050fb2       ?setTextContent@DOMTextImpl@xercesc_3_1@@UAEXPB_W@Z 10051fb2 f   xerces-c_3_1:DOMTextImpl.cpp.obj
 0001:00050fb2       ?setTextContent@DOMEntityImpl@xercesc_3_1@@UAEXPB_W@Z 10051fb2 f   xerces-c_3_1:DOMEntityImpl.cpp.obj
 0001:00050fb2       ?setTextContent@DOMEntityReferenceImpl@xercesc_3_1@@UAEXPB_W@Z 10051fb2 f   xerces-c_3_1:DOMEntityReferenceImpl.cpp.obj
 0001:00050fb2       ?setTextContent@DOMAttrImpl@xercesc_3_1@@UAEXPB_W@Z 10051fb2 f   xerces-c_3_1:DOMAttrImpl.cpp.obj
 0001:00050fb2       ?setTextContent@DOMNotationImpl@xercesc_3_1@@UAEXPB_W@Z 10051fb2 f   xerces-c_3_1:DOMNotationImpl.cpp.obj
 0001:00050fb2       ?setTextContent@DOMProcessingInstructionImpl@xercesc_3_1@@UAEXPB_W@Z 10051fb2 f   xerces-c_3_1:DOMProcessingInstructionImpl.cpp.obj
 0001:00050fc6       ?replaceData@DOMTextImpl@xercesc_3_1@@UAEXKKPB_W@Z 10051fc6 f   xerces-c_3_1:DOMTextImpl.cpp.obj
 0001:00050fc6       ?replaceData@DOMCommentImpl@xercesc_3_1@@UAEXKKPB_W@Z 10051fc6 f   xerces-c_3_1:DOMCommentImpl.cpp.obj
 0001:00050fc6       ?replaceData@DOMCDATASectionImpl@xercesc_3_1@@UAEXKKPB_W@Z 10051fc6 f   xerces-c_3_1:DOMCDATASectionImpl.cpp.obj
 0001:00050fd4       ?setData@DOMProcessingInstructionImpl@xercesc_3_1@@UAEXPB_W@Z 10051fd4 f   xerces-c_3_1:DOMProcessingInstructionImpl.cpp.obj
 0001:00050fd4       ?setNodeValue@DOMTextImpl@xercesc_3_1@@UAEXPB_W@Z 10051fd4 f   xerces-c_3_1:DOMTextImpl.cpp.obj
 0001:00050fd4       ?setData@DOMCommentImpl@xercesc_3_1@@UAEXPB_W@Z 10051fd4 f   xerces-c_3_1:DOMCommentImpl.cpp.obj
 0001:00050fd4       ?setNodeValue@DOMCommentImpl@xercesc_3_1@@UAEXPB_W@Z 10051fd4 f   xerces-c_3_1:DOMCommentImpl.cpp.obj
 0001:00050fd4       ?setNodeValue@DOMProcessingInstructionImpl@xercesc_3_1@@UAEXPB_W@Z 10051fd4 f   xerces-c_3_1:DOMProcessingInstructionImpl.cpp.obj
 0001:00050fd4       ?setData@DOMTextImpl@xercesc_3_1@@UAEXPB_W@Z 10051fd4 f   xerces-c_3_1:DOMTextImpl.cpp.obj
 0001:00050fd4       ?setData@DOMCDATASectionImpl@xercesc_3_1@@UAEXPB_W@Z 10051fd4 f   xerces-c_3_1:DOMCDATASectionImpl.cpp.obj
 0001:00050fd4       ?setNodeValue@DOMCDATASectionImpl@xercesc_3_1@@UAEXPB_W@Z 10051fd4 f   xerces-c_3_1:DOMCDATASectionImpl.cpp.obj
 0001:00050fe0       ?getDefaultScanner@XMLScannerResolver@xercesc_3_1@@SAPAVXMLScanner@2@QAVXMLValidator@2@QAVGrammarResolver@2@QAVMemoryManager@2@@Z 10051fe0 f   xerces-c_3_1:XMLScannerResolver.cpp.obj
 0001:00051024       ?resolveScanner@XMLScannerResolver@xercesc_3_1@@SAPAVXMLScanner@2@QB_WQAVXMLValidator@2@QAVGrammarResolver@2@QAVMemoryManager@2@@Z 10052024 f   xerces-c_3_1:XMLScannerResolver.cpp.obj
 0001:00051138       ??0DOMElementImpl@xercesc_3_1@@QAE@PAVDOMDocument@1@PB_W@Z 10052138 f   xerces-c_3_1:DOMElementImpl.cpp.obj
 0001:00051224       ??_EDOMDocumentTypeImpl@xercesc_3_1@@UAEPAXI@Z 10052224 f i  CIL library: CIL module
 0001:00051224       ??_GDOMElementNSImpl@xercesc_3_1@@UAEPAXI@Z 10052224 f i xerces-c_3_1:DOMElementNSImpl.cpp.obj
 0001:00051224       ??_GDOMEntityImpl@xercesc_3_1@@UAEPAXI@Z 10052224 f i xerces-c_3_1:DOMEntityImpl.cpp.obj
 0001:00051224       ??_EDOMEntityReferenceImpl@xercesc_3_1@@UAEPAXI@Z 10052224 f i  CIL library: CIL module
 0001:00051224       ??_EXSDElementNSImpl@xercesc_3_1@@UAEPAXI@Z 10052224 f i  CIL library: CIL module
 0001:00051224       ??_GDOMAttrNSImpl@xercesc_3_1@@UAEPAXI@Z 10052224 f i xerces-c_3_1:DOMAttrNSImpl.cpp.obj
 0001:00051224       ??_EDOMAttrImpl@xercesc_3_1@@UAEPAXI@Z 10052224 f i  CIL library: CIL module
 0001:00051224       ??_GDOMAttrImpl@xercesc_3_1@@UAEPAXI@Z 10052224 f i xerces-c_3_1:DOMAttrImpl.cpp.obj
 0001:00051224       ??_EDOMDocumentFragmentImpl@xercesc_3_1@@UAEPAXI@Z 10052224 f i  CIL library: CIL module
 0001:00051224       ??_GDOMDocumentTypeImpl@xercesc_3_1@@UAEPAXI@Z 10052224 f i xerces-c_3_1:DOMDocumentTypeImpl.cpp.obj
 0001:00051224       ??_EDOMEntityImpl@xercesc_3_1@@UAEPAXI@Z 10052224 f i  CIL library: CIL module
 0001:00051224       ??_GDOMDocumentFragmentImpl@xercesc_3_1@@UAEPAXI@Z 10052224 f i xerces-c_3_1:DOMDocumentFragmentImpl.cpp.obj
 0001:00051224       ??_GDOMEntityReferenceImpl@xercesc_3_1@@UAEPAXI@Z 10052224 f i xerces-c_3_1:DOMEntityReferenceImpl.cpp.obj
 0001:00051224       ??_GDOMElementImpl@xercesc_3_1@@UAEPAXI@Z 10052224 f i xerces-c_3_1:DOMElementImpl.cpp.obj
 0001:00051224       ??_EDOMElementImpl@xercesc_3_1@@UAEPAXI@Z 10052224 f i  CIL library: CIL module
 0001:00051224       ??_GXSDElementNSImpl@xercesc_3_1@@UAEPAXI@Z 10052224 f i xerces-c_3_1:XSDElementNSImpl.cpp.obj
 0001:00051224       ??_EDOMElementNSImpl@xercesc_3_1@@UAEPAXI@Z 10052224 f i  CIL library: CIL module
 0001:00051224       ??_EDOMAttrNSImpl@xercesc_3_1@@UAEPAXI@Z 10052224 f i  CIL library: CIL module
 0001:0005124b       ??0DOMElementImpl@xercesc_3_1@@QAE@ABV01@_N@Z 1005224b f   xerces-c_3_1:DOMElementImpl.cpp.obj
 0001:0005138e       ?cloneNode@DOMElementImpl@xercesc_3_1@@UBEPAVDOMNode@2@_N@Z 1005238e f   xerces-c_3_1:DOMElementImpl.cpp.obj
 0001:000513e3       ?getAttribute@DOMElementImpl@xercesc_3_1@@UBEPB_WPB_W@Z 100523e3 f   xerces-c_3_1:DOMElementImpl.cpp.obj
 0001:00051407       ?getAttributeNode@DOMElementImpl@xercesc_3_1@@UBEPAVDOMAttr@2@PB_W@Z 10052407 f   xerces-c_3_1:DOMElementImpl.cpp.obj
 0001:00051413       ?getElementsByTagName@DOMElementImpl@xercesc_3_1@@UBEPAVDOMNodeList@2@PB_W@Z 10052413 f   xerces-c_3_1:DOMElementImpl.cpp.obj
 0001:00051433       ?removeAttribute@DOMElementImpl@xercesc_3_1@@UAEXPB_W@Z 10052433 f   xerces-c_3_1:DOMElementImpl.cpp.obj
 0001:000514c4       ?removeAttributeNode@DOMElementImpl@xercesc_3_1@@UAEPAVDOMAttr@2@PAV32@@Z 100524c4 f   xerces-c_3_1:DOMElementImpl.cpp.obj
 0001:000515d1       ?setAttribute@DOMElementImpl@xercesc_3_1@@UAEXPB_W0@Z 100525d1 f   xerces-c_3_1:DOMElementImpl.cpp.obj
 0001:00051665       ?setIdAttribute@DOMElementImpl@xercesc_3_1@@UAEXPB_W_N@Z 10052665 f   xerces-c_3_1:DOMElementImpl.cpp.obj
 0001:0005172a       ?setIdAttributeNS@DOMElementImpl@xercesc_3_1@@UAEXPB_W0_N@Z 1005272a f   xerces-c_3_1:DOMElementImpl.cpp.obj
 0001:000517f2       ?setIdAttributeNode@DOMElementImpl@xercesc_3_1@@UAEXPBVDOMAttr@2@_N@Z 100527f2 f   xerces-c_3_1:DOMElementImpl.cpp.obj
 0001:000518ee       ?setAttributeNode@DOMElementImpl@xercesc_3_1@@UAEPAVDOMAttr@2@PAV32@@Z 100528ee f   xerces-c_3_1:DOMElementImpl.cpp.obj
 0001:000519a8       ?setReadOnly@DOMElementImpl@xercesc_3_1@@UAEX_N0@Z 100529a8 f   xerces-c_3_1:DOMElementImpl.cpp.obj
 0001:000519ce       ?getAttributeNS@DOMElementImpl@xercesc_3_1@@UBEPB_WPB_W0@Z 100529ce f   xerces-c_3_1:DOMElementImpl.cpp.obj
 0001:000519f8       ?setAttributeNS@DOMElementImpl@xercesc_3_1@@UAEXPB_W00@Z 100529f8 f   xerces-c_3_1:DOMElementImpl.cpp.obj
 0001:00051ae0       ?removeAttributeNS@DOMElementImpl@xercesc_3_1@@UAEXPB_W0@Z 10052ae0 f   xerces-c_3_1:DOMElementImpl.cpp.obj
 0001:00051b68       ?getAttributeNodeNS@DOMElementImpl@xercesc_3_1@@UBEPAVDOMAttr@2@PB_W0@Z 10052b68 f   xerces-c_3_1:DOMElementImpl.cpp.obj
 0001:00051b74       ?setAttributeNodeNS@DOMElementImpl@xercesc_3_1@@UAEPAVDOMAttr@2@PAV32@@Z 10052b74 f   xerces-c_3_1:DOMElementImpl.cpp.obj
 0001:00051c2e       ?getElementsByTagNameNS@DOMElementImpl@xercesc_3_1@@UBEPAVDOMNodeList@2@PB_W0@Z 10052c2e f   xerces-c_3_1:DOMElementImpl.cpp.obj
 0001:00051c51       ?hasAttributes@DOMElementImpl@xercesc_3_1@@UBE_NXZ 10052c51 f   xerces-c_3_1:DOMElementImpl.cpp.obj
 0001:00051c6a       ?hasAttribute@DOMElementImpl@xercesc_3_1@@UBE_NPB_W@Z 10052c6a f   xerces-c_3_1:DOMElementImpl.cpp.obj
 0001:00051c82       ?hasAttributeNS@DOMElementImpl@xercesc_3_1@@UBE_NPB_W0@Z 10052c82 f   xerces-c_3_1:DOMElementImpl.cpp.obj
 0001:00051c9d       ?setupDefaultAttributes@DOMElementImpl@xercesc_3_1@@MAEXXZ 10052c9d f   xerces-c_3_1:DOMElementImpl.cpp.obj
 0001:00051d2c       ?setDefaultAttributeNode@DOMElementImpl@xercesc_3_1@@UAEPAVDOMAttr@2@PAV32@@Z 10052d2c f   xerces-c_3_1:DOMElementImpl.cpp.obj
 0001:00051df4       ?setDefaultAttributeNodeNS@DOMElementImpl@xercesc_3_1@@UAEPAVDOMAttr@2@PAV32@@Z 10052df4 f   xerces-c_3_1:DOMElementImpl.cpp.obj
 0001:00051ebc       ?release@DOMElementImpl@xercesc_3_1@@UAEXXZ 10052ebc f   xerces-c_3_1:DOMElementImpl.cpp.obj
 0001:00051f8f       ?getBaseURI@DOMElementImpl@xercesc_3_1@@UBEPB_WXZ 10052f8f f   xerces-c_3_1:DOMElementImpl.cpp.obj
 0001:00052107       ?getLastChild@DOMDocumentTypeImpl@xercesc_3_1@@UBEPAVDOMNode@2@XZ 10053107 f   xerces-c_3_1:DOMDocumentTypeImpl.cpp.obj
 0001:00052107       ?getLastChild@DOMAttrImpl@xercesc_3_1@@UBEPAVDOMNode@2@XZ 10053107 f   xerces-c_3_1:DOMAttrImpl.cpp.obj
 0001:00052107       ?getLastChild@DOMDocumentFragmentImpl@xercesc_3_1@@UBEPAVDOMNode@2@XZ 10053107 f   xerces-c_3_1:DOMDocumentFragmentImpl.cpp.obj
 0001:00052107       ?getLastChild@DOMEntityReferenceImpl@xercesc_3_1@@UBEPAVDOMNode@2@XZ 10053107 f   xerces-c_3_1:DOMEntityReferenceImpl.cpp.obj
 0001:00052107       ?getLastChild@DOMElementImpl@xercesc_3_1@@UBEPAVDOMNode@2@XZ 10053107 f   xerces-c_3_1:DOMElementImpl.cpp.obj
 0001:00052107       ?getLastChild@DOMDocumentImpl@xercesc_3_1@@UBEPAVDOMNode@2@XZ 10053107 f   xerces-c_3_1:DOMDocumentImpl.cpp.obj
 0001:0005210f       ?isEqualNode@DOMElementImpl@xercesc_3_1@@UBE_NPBVDOMNode@2@@Z 1005310f f   xerces-c_3_1:DOMElementImpl.cpp.obj
 0001:00052205       ?rename@DOMElementImpl@xercesc_3_1@@UAEPAVDOMNode@2@PB_W0@Z 10053205 f   xerces-c_3_1:DOMElementImpl.cpp.obj
 0001:000522f8       ?getSchemaTypeInfo@DOMElementImpl@xercesc_3_1@@UBEPBVDOMTypeInfo@2@XZ 100532f8 f   xerces-c_3_1:DOMElementImpl.cpp.obj
 0001:000522fe       ?getFirstElementChild@DOMElementImpl@xercesc_3_1@@UBEPAVDOMElement@2@XZ 100532fe f   xerces-c_3_1:DOMElementImpl.cpp.obj
 0001:00052333       ?getLastElementChild@DOMElementImpl@xercesc_3_1@@UBEPAVDOMElement@2@XZ 10053333 f   xerces-c_3_1:DOMElementImpl.cpp.obj
 0001:00052368       ?getNextElementSibling@DOMElementImpl@xercesc_3_1@@UBEPAVDOMElement@2@XZ 10053368 f   xerces-c_3_1:DOMElementImpl.cpp.obj
 0001:0005239a       ?getPreviousElementSibling@DOMElementImpl@xercesc_3_1@@UBEPAVDOMElement@2@XZ 1005339a f   xerces-c_3_1:DOMElementImpl.cpp.obj
 0001:000523cc       ?getChildElementCount@DOMElementImpl@xercesc_3_1@@UBEKXZ 100533cc f   xerces-c_3_1:DOMElementImpl.cpp.obj
 0001:000523ec       ?getFirstElementChild@DOMElementImpl@xercesc_3_1@@IBEPAVDOMElement@2@PBVDOMNode@2@@Z 100533ec f   xerces-c_3_1:DOMElementImpl.cpp.obj
 0001:00052444       ?getLastElementChild@DOMElementImpl@xercesc_3_1@@IBEPAVDOMElement@2@PBVDOMNode@2@@Z 10053444 f   xerces-c_3_1:DOMElementImpl.cpp.obj
 0001:0005249c       ?getNextLogicalSibling@DOMElementImpl@xercesc_3_1@@IBEPAVDOMNode@2@PBV32@@Z 1005349c f   xerces-c_3_1:DOMElementImpl.cpp.obj
 0001:000524cd       ?getPreviousLogicalSibling@DOMElementImpl@xercesc_3_1@@IBEPAVDOMNode@2@PBV32@@Z 100534cd f   xerces-c_3_1:DOMElementImpl.cpp.obj
 0001:000524fe       ??0DOMDocumentTypeImpl@xercesc_3_1@@QAE@PAVDOMDocument@1@PB_W_N@Z 100534fe f   xerces-c_3_1:DOMDocumentTypeImpl.cpp.obj
 0001:0005269b       ??0DOMDocumentTypeImpl@xercesc_3_1@@QAE@PAVDOMDocument@1@PB_W11_N@Z 1005369b f   xerces-c_3_1:DOMDocumentTypeImpl.cpp.obj
 0001:000529c2       ??0DOMDocumentTypeImpl@xercesc_3_1@@QAE@ABV01@_N1@Z 100539c2 f   xerces-c_3_1:DOMDocumentTypeImpl.cpp.obj
 0001:00052aa5       ?cloneNode@DOMDocumentTypeImpl@xercesc_3_1@@UBEPAVDOMNode@2@_N@Z 10053aa5 f   xerces-c_3_1:DOMDocumentTypeImpl.cpp.obj
 0001:00052b54       ?setOwnerDocument@DOMDocumentTypeImpl@xercesc_3_1@@UAEXPAVDOMDocument@2@@Z 10053b54 f   xerces-c_3_1:DOMDocumentTypeImpl.cpp.obj
 0001:00052c07       ?getNodeType@DOMDocumentTypeImpl@xercesc_3_1@@UBE?AW4NodeType@DOMNode@2@XZ 10053c07 f   xerces-c_3_1:DOMDocumentTypeImpl.cpp.obj
 0001:00052c0b       ?setReadOnly@DOMDocumentTypeImpl@xercesc_3_1@@UAEX_N0@Z 10053c0b f   xerces-c_3_1:DOMDocumentTypeImpl.cpp.obj
 0001:00052c4a       ?setPublicId@DOMDocumentTypeImpl@xercesc_3_1@@MAEXPB_W@Z 10053c4a f   xerces-c_3_1:DOMDocumentTypeImpl.cpp.obj
 0001:00052ccb       ?setSystemId@DOMDocumentTypeImpl@xercesc_3_1@@MAEXPB_W@Z 10053ccb f   xerces-c_3_1:DOMDocumentTypeImpl.cpp.obj
 0001:00052d46       ?setInternalSubset@DOMDocumentTypeImpl@xercesc_3_1@@MAEXPB_W@Z 10053d46 f   xerces-c_3_1:DOMDocumentTypeImpl.cpp.obj
 0001:00052dc1       ?release@DOMDocumentTypeImpl@xercesc_3_1@@UAEXXZ 10053dc1 f   xerces-c_3_1:DOMDocumentTypeImpl.cpp.obj
 0001:00052e93       ?getPreviousSibling@DOMDocumentTypeImpl@xercesc_3_1@@UBEPAVDOMNode@2@XZ 10053e93 f   xerces-c_3_1:DOMDocumentTypeImpl.cpp.obj
 0001:00052e93       ?getPreviousSibling@DOMEntityReferenceImpl@xercesc_3_1@@UBEPAVDOMNode@2@XZ 10053e93 f   xerces-c_3_1:DOMEntityReferenceImpl.cpp.obj
 0001:00052e93       ?getPreviousSibling@DOMElementImpl@xercesc_3_1@@UBEPAVDOMNode@2@XZ 10053e93 f   xerces-c_3_1:DOMElementImpl.cpp.obj
 0001:00052e9f       ?normalize@DOMElementImpl@xercesc_3_1@@UAEXXZ 10053e9f f   xerces-c_3_1:DOMElementImpl.cpp.obj
 0001:00052e9f       ?normalize@DOMDocumentTypeImpl@xercesc_3_1@@UAEXXZ 10053e9f f   xerces-c_3_1:DOMDocumentTypeImpl.cpp.obj
 0001:00052e9f       ?normalize@DOMEntityReferenceImpl@xercesc_3_1@@UAEXXZ 10053e9f f   xerces-c_3_1:DOMEntityReferenceImpl.cpp.obj
 0001:00052e9f       ?normalize@DOMDocumentFragmentImpl@xercesc_3_1@@UAEXXZ 10053e9f f   xerces-c_3_1:DOMDocumentFragmentImpl.cpp.obj
 0001:00052e9f       ?normalize@DOMAttrImpl@xercesc_3_1@@UAEXXZ 10053e9f f   xerces-c_3_1:DOMAttrImpl.cpp.obj
 0001:00052e9f       ?normalize@DOMDocumentImpl@xercesc_3_1@@UAEXXZ 10053e9f f   xerces-c_3_1:DOMDocumentImpl.cpp.obj
 0001:00052ea9       ?replaceChild@DOMDocumentFragmentImpl@xercesc_3_1@@UAEPAVDOMNode@2@PAV32@0@Z 10053ea9 f   xerces-c_3_1:DOMDocumentFragmentImpl.cpp.obj
 0001:00052ea9       ?replaceChild@DOMDocumentTypeImpl@xercesc_3_1@@UAEPAVDOMNode@2@PAV32@0@Z 10053ea9 f   xerces-c_3_1:DOMDocumentTypeImpl.cpp.obj
 0001:00052ea9       ?replaceChild@DOMAttrImpl@xercesc_3_1@@UAEPAVDOMNode@2@PAV32@0@Z 10053ea9 f   xerces-c_3_1:DOMAttrImpl.cpp.obj
 0001:00052ea9       ?replaceChild@DOMEntityReferenceImpl@xercesc_3_1@@UAEPAVDOMNode@2@PAV32@0@Z 10053ea9 f   xerces-c_3_1:DOMEntityReferenceImpl.cpp.obj
 0001:00052ea9       ?replaceChild@DOMElementImpl@xercesc_3_1@@UAEPAVDOMNode@2@PAV32@0@Z 10053ea9 f   xerces-c_3_1:DOMElementImpl.cpp.obj
 0001:00052ebf       ?getTextContent@DOMCDATASectionImpl@xercesc_3_1@@UBEPB_WXZ 10053ebf f   xerces-c_3_1:DOMCDATASectionImpl.cpp.obj
 0001:00052ebf       ?getTextContent@DOMEntityReferenceImpl@xercesc_3_1@@UBEPB_WXZ 10053ebf f   xerces-c_3_1:DOMEntityReferenceImpl.cpp.obj
 0001:00052ebf       ?getTextContent@DOMTextImpl@xercesc_3_1@@UBEPB_WXZ 10053ebf f   xerces-c_3_1:DOMTextImpl.cpp.obj
 0001:00052ebf       ?getTextContent@DOMProcessingInstructionImpl@xercesc_3_1@@UBEPB_WXZ 10053ebf f   xerces-c_3_1:DOMProcessingInstructionImpl.cpp.obj
 0001:00052ebf       ?getTextContent@DOMDocumentFragmentImpl@xercesc_3_1@@UBEPB_WXZ 10053ebf f   xerces-c_3_1:DOMDocumentFragmentImpl.cpp.obj
 0001:00052ebf       ?getTextContent@DOMEntityImpl@xercesc_3_1@@UBEPB_WXZ 10053ebf f   xerces-c_3_1:DOMEntityImpl.cpp.obj
 0001:00052ebf       ?getTextContent@DOMCommentImpl@xercesc_3_1@@UBEPB_WXZ 10053ebf f   xerces-c_3_1:DOMCommentImpl.cpp.obj
 0001:00052ebf       ?getTextContent@DOMNotationImpl@xercesc_3_1@@UBEPB_WXZ 10053ebf f   xerces-c_3_1:DOMNotationImpl.cpp.obj
 0001:00052ebf       ?getTextContent@DOMDocumentTypeImpl@xercesc_3_1@@UBEPB_WXZ 10053ebf f   xerces-c_3_1:DOMDocumentTypeImpl.cpp.obj
 0001:00052ebf       ?getTextContent@DOMDocumentImpl@xercesc_3_1@@UBEPB_WXZ 10053ebf f   xerces-c_3_1:DOMDocumentImpl.cpp.obj
 0001:00052ebf       ?getTextContent@DOMElementImpl@xercesc_3_1@@UBEPB_WXZ 10053ebf f   xerces-c_3_1:DOMElementImpl.cpp.obj
 0001:00052ebf       ?getTextContent@DOMAttrImpl@xercesc_3_1@@UBEPB_WXZ 10053ebf f   xerces-c_3_1:DOMAttrImpl.cpp.obj
 0001:00052ec9       ?isEqualNode@DOMDocumentTypeImpl@xercesc_3_1@@UBE_NPBVDOMNode@2@@Z 10053ec9 f   xerces-c_3_1:DOMDocumentTypeImpl.cpp.obj
 0001:00053145       ?isSupported@DOMDocumentTypeImpl@xercesc_3_1@@UBE_NPB_W0@Z 10054145 f   xerces-c_3_1:DOMDocumentTypeImpl.cpp.obj
 0001:00053197       ?getFeature@DOMDocumentTypeImpl@xercesc_3_1@@UBEPAXPB_W0@Z 10054197 f   xerces-c_3_1:DOMDocumentTypeImpl.cpp.obj
 0001:000531b8       ??0DOMNodeIDMap@xercesc_3_1@@QAE@KPAVDOMDocument@1@@Z 100541b8 f   xerces-c_3_1:DOMNodeIDMap.cpp.obj
 0001:000531fe       ?add@DOMNodeIDMap@xercesc_3_1@@QAEXPAVDOMAttr@2@@Z 100541fe f   xerces-c_3_1:DOMNodeIDMap.cpp.obj
 0001:0005326c       ?remove@DOMNodeIDMap@xercesc_3_1@@QAEXPAVDOMAttr@2@@Z 1005426c f   xerces-c_3_1:DOMNodeIDMap.cpp.obj
 0001:000532bf       ?find@DOMNodeIDMap@xercesc_3_1@@QAEPAVDOMAttr@2@PB_W@Z 100542bf f   xerces-c_3_1:DOMNodeIDMap.cpp.obj
 0001:0005332a       ?growTable@DOMNodeIDMap@xercesc_3_1@@AAEXXZ 1005432a f   xerces-c_3_1:DOMNodeIDMap.cpp.obj
 0001:00053429       ?ensureCapacity@XMLBuffer@xercesc_3_1@@AAEXK@Z 10054429 f   xerces-c_3_1:XMLBuffer.cpp.obj
 0001:000534ed       ??0XMLBufferMgr@xercesc_3_1@@QAE@QAVMemoryManager@1@@Z 100544ed f   xerces-c_3_1:XMLBufferMgr.cpp.obj
 0001:0005351c       ??1XMLBufferMgr@xercesc_3_1@@QAE@XZ 1005451c f   xerces-c_3_1:XMLBufferMgr.cpp.obj
 0001:00053553       ?bidOnBuffer@XMLBufferMgr@xercesc_3_1@@QAEAAVXMLBuffer@2@XZ 10054553 f   xerces-c_3_1:XMLBufferMgr.cpp.obj
 0001:0005362f       ?releaseBuffer@XMLBufferMgr@xercesc_3_1@@QAEXAAVXMLBuffer@2@@Z 1005462f f   xerces-c_3_1:XMLBufferMgr.cpp.obj
 0001:000536a1       ??0PSVIAttributeList@xercesc_3_1@@QAE@QAVMemoryManager@1@@Z 100546a1 f   xerces-c_3_1:PSVIAttributeList.cpp.obj
 0001:000536ed       ?getAttributePSVIByName@PSVIAttributeList@xercesc_3_1@@QAEPAVPSVIAttribute@2@PB_W0@Z 100546ed f   xerces-c_3_1:PSVIAttributeList.cpp.obj
 0001:0005374c       ??1?$BaseRefVectorOf@VPSVIAttributeStorage@xercesc_3_1@@@xercesc_3_1@@UAE@XZ 1005474c f i xerces-c_3_1:PSVIAttributeList.cpp.obj
 0001:00053753       ?setElementAt@?$BaseRefVectorOf@VPSVIAttributeStorage@xercesc_3_1@@@xercesc_3_1@@UAEXQAVPSVIAttributeStorage@2@K@Z 10054753 f i xerces-c_3_1:PSVIAttributeList.cpp.obj
 0001:000537d3       ?removeAllElements@?$BaseRefVectorOf@VPSVIAttributeStorage@xercesc_3_1@@@xercesc_3_1@@UAEXXZ 100547d3 f i xerces-c_3_1:PSVIAttributeList.cpp.obj
 0001:00053809       ?removeElementAt@?$BaseRefVectorOf@VPSVIAttributeStorage@xercesc_3_1@@@xercesc_3_1@@UAEXK@Z 10054809 f i xerces-c_3_1:PSVIAttributeList.cpp.obj
 0001:000538b8       ?removeLastElement@?$BaseRefVectorOf@VPSVIAttributeStorage@xercesc_3_1@@@xercesc_3_1@@UAEXXZ 100548b8 f i xerces-c_3_1:PSVIAttributeList.cpp.obj
 0001:000538dd       ?cleanup@?$BaseRefVectorOf@VPSVIAttributeStorage@xercesc_3_1@@@xercesc_3_1@@UAEXXZ 100548dd f i xerces-c_3_1:PSVIAttributeList.cpp.obj
 0001:00053913       ??0?$RefVectorOf@VPSVIAttributeStorage@xercesc_3_1@@@xercesc_3_1@@QAE@K_NQAVMemoryManager@1@@Z 10054913 f i xerces-c_3_1:PSVIAttributeList.cpp.obj
 0001:00053953       ??_E?$BaseRefVectorOf@VPSVIAttributeStorage@xercesc_3_1@@@xercesc_3_1@@UAEPAXI@Z 10054953 f i  CIL library: CIL module
 0001:00053953       ??_G?$BaseRefVectorOf@VPSVIAttributeStorage@xercesc_3_1@@@xercesc_3_1@@UAEPAXI@Z 10054953 f i xerces-c_3_1:PSVIAttributeList.cpp.obj
 0001:00053973       ??_GPSVIAttributeStorage@xercesc_3_1@@QAEPAXI@Z 10054973 f i xerces-c_3_1:PSVIAttributeList.cpp.obj
 0001:00053989       ??_E?$RefVectorOf@VPSVIAttributeStorage@xercesc_3_1@@@xercesc_3_1@@UAEPAXI@Z 10054989 f i  CIL library: CIL module
 0001:00053989       ??_G?$RefVectorOf@VPSVIAttributeStorage@xercesc_3_1@@@xercesc_3_1@@UAEPAXI@Z 10054989 f i xerces-c_3_1:PSVIAttributeList.cpp.obj
 0001:000539fb       ?getDOMImplementation@DOMImplementationRegistry@xercesc_3_1@@SAPAVDOMImplementation@2@PB_W@Z 100549fb f   xerces-c_3_1:DOMImplementationRegistry.cpp.obj
 0001:00053abd       ??1?$BaseRefVectorOf@VDOMImplementationSource@xercesc_3_1@@@xercesc_3_1@@UAE@XZ 10054abd f i xerces-c_3_1:DOMImplementationRegistry.cpp.obj
 0001:00053ac4       ?addElement@?$BaseRefVectorOf@VDOMImplementationSource@xercesc_3_1@@@xercesc_3_1@@QAEXQAVDOMImplementationSource@2@@Z 10054ac4 f i xerces-c_3_1:DOMImplementationRegistry.cpp.obj
 0001:00053b60       ??0?$RefVectorOf@VDOMImplementationSource@xercesc_3_1@@@xercesc_3_1@@QAE@K_NQAVMemoryManager@1@@Z 10054b60 f i xerces-c_3_1:DOMImplementationRegistry.cpp.obj
 0001:00053ba7       ??_G?$BaseRefVectorOf@VDOMImplementationSource@xercesc_3_1@@@xercesc_3_1@@UAEPAXI@Z 10054ba7 f i xerces-c_3_1:DOMImplementationRegistry.cpp.obj
 0001:00053ba7       ??_E?$BaseRefVectorOf@VDOMImplementationSource@xercesc_3_1@@@xercesc_3_1@@UAEPAXI@Z 10054ba7 f i  CIL library: CIL module
 0001:00053bc7       ??_E?$RefVectorOf@VDOMImplementationSource@xercesc_3_1@@@xercesc_3_1@@UAEPAXI@Z 10054bc7 f i  CIL library: CIL module
 0001:00053bc7       ??_G?$RefVectorOf@VDOMImplementationSource@xercesc_3_1@@@xercesc_3_1@@UAEPAXI@Z 10054bc7 f i xerces-c_3_1:DOMImplementationRegistry.cpp.obj
 0001:00053c3a       ?isReservedOrUnreservedCharacter@XMLUri@xercesc_3_1@@CA_N_W@Z 10054c3a f i xerces-c_3_1:XMLUri.cpp.obj
 0001:00053c67       ?isUnreservedCharacter@XMLUri@xercesc_3_1@@CA_N_W@Z 10054c67 f i xerces-c_3_1:XMLUri.cpp.obj
 0001:00053c94       ??0XMLUri@xercesc_3_1@@QAE@QB_WQAVMemoryManager@1@@Z 10054c94 f   xerces-c_3_1:XMLUri.cpp.obj
 0001:00053d2a       ??_GXMLUri@xercesc_3_1@@UAEPAXI@Z 10054d2a f i xerces-c_3_1:XMLUri.cpp.obj
 0001:00053d2a       ??_EXMLUri@xercesc_3_1@@UAEPAXI@Z 10054d2a f i  CIL library: CIL module
 0001:00053d49       ??0XMLUri@xercesc_3_1@@QAE@QBV01@QB_WQAVMemoryManager@1@@Z 10054d49 f   xerces-c_3_1:XMLUri.cpp.obj
 0001:00053de1       ??1XMLUri@xercesc_3_1@@UAE@XZ 10054de1 f   xerces-c_3_1:XMLUri.cpp.obj
 0001:00053e14       ?cleanUp@XMLUri@xercesc_3_1@@AAEXXZ 10054e14 f   xerces-c_3_1:XMLUri.cpp.obj
 0001:00053eb0       ?initialize@XMLUri@xercesc_3_1@@AAEXABV12@@Z 10054eb0 f   xerces-c_3_1:XMLUri.cpp.obj
 0001:00053f2c       ?initialize@XMLUri@xercesc_3_1@@AAEXQBV12@QB_W@Z 10054f2c f   xerces-c_3_1:XMLUri.cpp.obj
 0001:0005471a       ?initializeAuthority@XMLUri@xercesc_3_1@@AAEXQB_W@Z 1005571a f   xerces-c_3_1:XMLUri.cpp.obj
 0001:000549da       ?initializeScheme@XMLUri@xercesc_3_1@@AAEXQB_W@Z 100559da f   xerces-c_3_1:XMLUri.cpp.obj
 0001:00054aa1       ?initializePath@XMLUri@xercesc_3_1@@AAEXQB_W@Z 10055aa1 f   xerces-c_3_1:XMLUri.cpp.obj
 0001:00055064       ?setScheme@XMLUri@xercesc_3_1@@QAEXQB_W@Z 10056064 f   xerces-c_3_1:XMLUri.cpp.obj
 0001:00055148       ?setHost@XMLUri@xercesc_3_1@@QAEXQB_W@Z 10056148 f   xerces-c_3_1:XMLUri.cpp.obj
 0001:00055248       ?isConformantSchemeName@XMLUri@xercesc_3_1@@CA_NQB_W@Z 10056248 f   xerces-c_3_1:XMLUri.cpp.obj
 0001:00055292       ?isValidServerBasedAuthority@XMLUri@xercesc_3_1@@CA_NQB_WKH0K@Z 10056292 f   xerces-c_3_1:XMLUri.cpp.obj
 0001:00055332       ?isValidServerBasedAuthority@XMLUri@xercesc_3_1@@CA_NQB_WH0QAVMemoryManager@2@@Z 10056332 f   xerces-c_3_1:XMLUri.cpp.obj
 0001:000553c3       ?isValidRegistryBasedAuthority@XMLUri@xercesc_3_1@@CA_NQB_WK@Z 100563c3 f   xerces-c_3_1:XMLUri.cpp.obj
 0001:00055453       ?isValidRegistryBasedAuthority@XMLUri@xercesc_3_1@@CA_NQB_W@Z 10056453 f   xerces-c_3_1:XMLUri.cpp.obj
 0001:000554b8       ?isURIString@XMLUri@xercesc_3_1@@SA_NQB_W@Z 100564b8 f   xerces-c_3_1:XMLUri.cpp.obj
 0001:0005550a       ?isWellFormedAddress@XMLUri@xercesc_3_1@@CA_NQB_WQAVMemoryManager@2@@Z 1005650a f   xerces-c_3_1:XMLUri.cpp.obj
 0001:0005564c       ?isWellFormedIPv4Address@XMLUri@xercesc_3_1@@CA_NQB_WK@Z 1005664c f   xerces-c_3_1:XMLUri.cpp.obj
 0001:000556d4       ?isWellFormedIPv6Reference@XMLUri@xercesc_3_1@@CA_NQB_WK@Z 100566d4 f   xerces-c_3_1:XMLUri.cpp.obj
 0001:00055797       ?scanHexSequence@XMLUri@xercesc_3_1@@CAHQB_WKKAAH@Z 10056797 f   xerces-c_3_1:XMLUri.cpp.obj
 0001:00055824       ?buildFullText@XMLUri@xercesc_3_1@@AAEXXZ 10056824 f   xerces-c_3_1:XMLUri.cpp.obj
 0001:000559cc       ?isValidURI@XMLUri@xercesc_3_1@@SA_N_NQB_W0@Z 100569cc f   xerces-c_3_1:XMLUri.cpp.obj
 0001:00055b23       ?isWellFormedAddress@XMLUri@xercesc_3_1@@CA_NQB_WK@Z 10056b23 f   xerces-c_3_1:XMLUri.cpp.obj
 0001:00055c1d       ?processScheme@XMLUri@xercesc_3_1@@CA_NQB_WAAK@Z 10056c1d f   xerces-c_3_1:XMLUri.cpp.obj
 0001:00055c4d       ?isConformantSchemeName@XMLUri@xercesc_3_1@@CA_NQB_WK@Z 10056c4d f   xerces-c_3_1:XMLUri.cpp.obj
 0001:00055c98       ?processAuthority@XMLUri@xercesc_3_1@@CA_NQB_WK@Z 10056c98 f   xerces-c_3_1:XMLUri.cpp.obj
 0001:00055dc5       ?processPath@XMLUri@xercesc_3_1@@CA_NQB_WK_N1@Z 10056dc5 f   xerces-c_3_1:XMLUri.cpp.obj
 0001:00055ee9       ?normalizeURI@XMLUri@xercesc_3_1@@SAXQB_WAAVXMLBuffer@2@@Z 10056ee9 f   xerces-c_3_1:XMLUri.cpp.obj
 0001:00055f2a       ?createObject@XMLUri@xercesc_3_1@@SAPAVXSerializable@2@PAVMemoryManager@2@@Z 10056f2a f   xerces-c_3_1:XMLUri.cpp.obj
 0001:00055f71       ?getProtoType@XMLUri@xercesc_3_1@@UBEPAVXProtoType@2@XZ 10056f71 f   xerces-c_3_1:XMLUri.cpp.obj
 0001:00055f77       ?serialize@XMLUri@xercesc_3_1@@UAEXAAVXSerializeEngine@2@@Z 10056f77 f   xerces-c_3_1:XMLUri.cpp.obj
 0001:000560a6       ?basicEncodingProbe@XMLRecognizer@xercesc_3_1@@SA?AW4Encodings@12@QBEK@Z 100570a6 f   xerces-c_3_1:XMLRecognizer.cpp.obj
 0001:000561bd       ?encodingForName@XMLRecognizer@xercesc_3_1@@SA?AW4Encodings@12@QB_W@Z 100571bd f   xerces-c_3_1:XMLRecognizer.cpp.obj
 0001:0005633b       ?nameForEncoding@XMLRecognizer@xercesc_3_1@@SAPB_WW4Encodings@12@QAVMemoryManager@2@@Z 1005733b f   xerces-c_3_1:XMLRecognizer.cpp.obj
 0001:00056381       ??_GXMLEBCDICTranscoder@xercesc_3_1@@UAEPAXI@Z 10057381 f i xerces-c_3_1:XMLEBCDICTranscoder.cpp.obj
 0001:00056381       ??_EXMLEBCDICTranscoder@xercesc_3_1@@UAEPAXI@Z 10057381 f i  CIL library: CIL module
 0001:00056381       ??_GXMLIBM1140Transcoder@xercesc_3_1@@UAEPAXI@Z 10057381 f i xerces-c_3_1:XMLIBM1140Transcoder.cpp.obj
 0001:00056381       ??_EXMLIBM1047Transcoder@xercesc_3_1@@UAEPAXI@Z 10057381 f i  CIL library: CIL module
 0001:00056381       ??_GXML256TableTranscoder@xercesc_3_1@@UAEPAXI@Z 10057381 f i xerces-c_3_1:XML256TableTranscoder.cpp.obj
 0001:00056381       ??_GXMLWin1252Transcoder@xercesc_3_1@@UAEPAXI@Z 10057381 f i xerces-c_3_1:XMLWin1252Transcoder.cpp.obj
 0001:00056381       ??_EXML256TableTranscoder@xercesc_3_1@@UAEPAXI@Z 10057381 f i  CIL library: CIL module
 0001:00056381       ??_GXMLIBM1047Transcoder@xercesc_3_1@@UAEPAXI@Z 10057381 f i xerces-c_3_1:XMLIBM1047Transcoder.cpp.obj
 0001:00056381       ??_EXMLWin1252Transcoder@xercesc_3_1@@UAEPAXI@Z 10057381 f i  CIL library: CIL module
 0001:00056381       ??_EXMLIBM1140Transcoder@xercesc_3_1@@UAEPAXI@Z 10057381 f i  CIL library: CIL module
 0001:000563a6       ??_GXML88591Transcoder@xercesc_3_1@@UAEPAXI@Z 100573a6 f i xerces-c_3_1:XML88591Transcoder.cpp.obj
 0001:000563a6       ??_EXML88591Transcoder@xercesc_3_1@@UAEPAXI@Z 100573a6 f i  CIL library: CIL module
 0001:000563cb       ?transcodeFrom@XML88591Transcoder@xercesc_3_1@@UAEKQBEKQA_WKAAKQAE@Z 100573cb f   xerces-c_3_1:XML88591Transcoder.cpp.obj
 0001:00056411       ?transcodeTo@XML88591Transcoder@xercesc_3_1@@UAEKQB_WKQAEKAAKW4UnRepOpts@XMLTranscoder@2@@Z 10057411 f   xerces-c_3_1:XML88591Transcoder.cpp.obj
 0001:000564ec       ?canTranscodeTo@XML88591Transcoder@xercesc_3_1@@UAE_NI@Z 100574ec f   xerces-c_3_1:XML88591Transcoder.cpp.obj
 0001:000564fe       ??_G?$ValueHashTableOf@_WUStringHasher@xercesc_3_1@@@xercesc_3_1@@QAEPAXI@Z 100574fe f i xerces-c_3_1:WFXMLScanner.cpp.obj
 0001:000564fe       ??_G?$ValueHashTableOf@_NUStringHasher@xercesc_3_1@@@xercesc_3_1@@QAEPAXI@Z 100574fe f i xerces-c_3_1:EncodingValidator.cpp.obj
 0001:000564fe       ??_G?$ValueHashTableOf@GUStringHasher@xercesc_3_1@@@xercesc_3_1@@QAEPAXI@Z 100574fe f i xerces-c_3_1:GeneralAttributeCheck.cpp.obj
 0001:000564fe       ??_G?$ValueHashTableOf@W4DataType@XSValue@xercesc_3_1@@UStringHasher@3@@xercesc_3_1@@QAEPAXI@Z 100574fe f i xerces-c_3_1:XSValue.cpp.obj
 0001:0005654f       ?initializeRegistry@EncodingValidator@xercesc_3_1@@AAEXXZ 1005754f f   xerces-c_3_1:EncodingValidator.cpp.obj
 0001:000565f3       ?put@?$ValueHashTableOf@_NUStringHasher@xercesc_3_1@@@xercesc_3_1@@QAEXPAXAB_N@Z 100575f3 f i xerces-c_3_1:EncodingValidator.cpp.obj
 0001:00056682       ?rehash@?$ValueHashTableOf@_NUStringHasher@xercesc_3_1@@@xercesc_3_1@@AAEXXZ 10057682 f i xerces-c_3_1:EncodingValidator.cpp.obj
 0001:00056739       ??1?$ArrayJanitor@H@xercesc_3_1@@QAE@XZ 10057739 f i xerces-c_3_1:XMLRangeFactory.cpp.obj
 0001:00056739       ??1?$ArrayJanitor@PAU?$RefHashTableBucketElem@VXMLCanRepGroup@xercesc_3_1@@@xercesc_3_1@@@xercesc_3_1@@QAE@XZ 10057739 f i xerces-c_3_1:DatatypeValidatorFactory.cpp.obj
 0001:00056739       ??1?$ArrayJanitor@_N@xercesc_3_1@@QAE@XZ 10057739 f i xerces-c_3_1:AllContentModel.cpp.obj
 0001:00056739       ??1?$ArrayJanitor@PAU?$RefHash2KeysTableBucketElem@V?$KeyRefPair@XVDOMUserDataHandler@xercesc_3_1@@@xercesc_3_1@@@xercesc_3_1@@@xercesc_3_1@@QAE@XZ 10057739 f i xerces-c_3_1:DOMDocumentImpl.cpp.obj
 0001:00056739       ??1?$ArrayJanitor@PAU?$RefHashTableBucketElem@VGrammar@xercesc_3_1@@@xercesc_3_1@@@xercesc_3_1@@QAE@XZ 10057739 f i xerces-c_3_1:GrammarResolver.cpp.obj
 0001:00056739       ??1?$ArrayJanitor@PAU?$RefHashTableBucketElem@VDTDElementDecl@xercesc_3_1@@@xercesc_3_1@@@xercesc_3_1@@QAE@XZ 10057739 f i xerces-c_3_1:DTDGrammar.cpp.obj
 0001:00056739       ??1?$ArrayJanitor@PAU?$RefHash2KeysTableBucketElem@VSchemaInfo@xercesc_3_1@@@xercesc_3_1@@@xercesc_3_1@@QAE@XZ 10057739 f i xerces-c_3_1:TraverseSchema.cpp.obj
 0001:00056739       ??1?$ArrayJanitor@PAU?$ValueHashTableBucketElem@_N@xercesc_3_1@@@xercesc_3_1@@QAE@XZ 10057739 f i xerces-c_3_1:EncodingValidator.cpp.obj
 0001:00056739       ??1?$ArrayJanitor@PAU?$RefHashTableBucketElem@UPoolElem@XMLStringPool@xercesc_3_1@@@xercesc_3_1@@@xercesc_3_1@@QAE@XZ 10057739 f i xerces-c_3_1:StringPool.cpp.obj
 0001:00056739       ??1?$ArrayJanitor@PAU?$RefHashTableBucketElem@VFieldValueMap@xercesc_3_1@@@xercesc_3_1@@@xercesc_3_1@@QAE@XZ 10057739 f i xerces-c_3_1:ValueStore.cpp.obj
 0001:00056739       ??1?$ArrayJanitor@PAU?$RefHashTableBucketElem@VRangeTokenElemMap@xercesc_3_1@@@xercesc_3_1@@@xercesc_3_1@@QAE@XZ 10057739 f i xerces-c_3_1:RangeTokenMap.cpp.obj
 0001:00056739       ??1?$ArrayJanitor@PAU?$RefHashTableBucketElem@VXMLNotationDecl@xercesc_3_1@@@xercesc_3_1@@@xercesc_3_1@@QAE@XZ 10057739 f i xerces-c_3_1:DTDGrammar.cpp.obj
 0001:00056739       ??1?$ArrayJanitor@PAU?$RefHash2KeysTableBucketElem@VValueStore@xercesc_3_1@@@xercesc_3_1@@@xercesc_3_1@@QAE@XZ 10057739 f i xerces-c_3_1:ValueStoreCache.cpp.obj
 0001:00056739       ??1?$ArrayJanitor@PAU?$RefHash2KeysTableBucketElem@VXMLAttr@xercesc_3_1@@@xercesc_3_1@@@xercesc_3_1@@QAE@XZ 10057739 f i xerces-c_3_1:DGXMLScanner.cpp.obj
 0001:00056739       ??1?$ArrayJanitor@PAU?$RefHashTableBucketElem@VXercesGroupInfo@xercesc_3_1@@@xercesc_3_1@@@xercesc_3_1@@QAE@XZ 10057739 f i xerces-c_3_1:XTemplateSerializer.cpp.obj
 0001:00056739       ??1?$ArrayJanitor@PAU?$RefHashTableBucketElem@VXSAnnotation@xercesc_3_1@@@xercesc_3_1@@@xercesc_3_1@@QAE@XZ 10057739 f i xerces-c_3_1:XTemplateSerializer.cpp.obj
 0001:00056739       ??1?$ArrayJanitor@_W@xercesc_3_1@@QAE@XZ 10057739 f i xerces-c_3_1:PlatformUtils.cpp.obj
 0001:00056739       ??1?$ArrayJanitor@PAU?$RefHashTableBucketElem@VXSerializedObjectId@xercesc_3_1@@@xercesc_3_1@@@xercesc_3_1@@QAE@XZ 10057739 f i xerces-c_3_1:XSerializeEngine.cpp.obj
 0001:00056739       ??1?$ArrayJanitor@PAU?$RefHashTableBucketElem@VDTDEntityDecl@xercesc_3_1@@@xercesc_3_1@@@xercesc_3_1@@QAE@XZ 10057739 f i xerces-c_3_1:DTDGrammar.cpp.obj
 0001:00056739       ??1?$ArrayJanitor@PAU?$RefHashTableBucketElem@VXMLRefInfo@xercesc_3_1@@@xercesc_3_1@@@xercesc_3_1@@QAE@XZ 10057739 f i xerces-c_3_1:ValidationContextImpl.cpp.obj
 0001:00056739       ??1?$ArrayJanitor@PAU?$RefHashTableBucketElem@VENameMap@xercesc_3_1@@@xercesc_3_1@@@xercesc_3_1@@QAE@XZ 10057739 f i xerces-c_3_1:TransService.cpp.obj
 0001:00056739       ??1?$ArrayJanitor@PAU?$RefHashTableBucketElem@VValueStore@xercesc_3_1@@@xercesc_3_1@@@xercesc_3_1@@QAE@XZ 10057739 f i xerces-c_3_1:ValueStoreCache.cpp.obj
 0001:00056739       ??1?$ArrayJanitor@PAU?$RefHashTableBucketElem@VRangeFactory@xercesc_3_1@@@xercesc_3_1@@@xercesc_3_1@@QAE@XZ 10057739 f i xerces-c_3_1:RangeTokenMap.cpp.obj
 0001:00056739       ??1?$ArrayJanitor@PAU?$RefHashTableBucketElem@V?$ValueVectorOf@PAVSchemaElementDecl@xercesc_3_1@@@xercesc_3_1@@@xercesc_3_1@@@xercesc_3_1@@QAE@XZ 10057739 f i xerces-c_3_1:TraverseSchema.cpp.obj
 0001:00056739       ??1?$ArrayJanitor@PAU?$RefHashTableBucketElem@VXSNamespaceItem@xercesc_3_1@@@xercesc_3_1@@@xercesc_3_1@@QAE@XZ 10057739 f i xerces-c_3_1:XSModel.cpp.obj
 0001:00056739       ??1?$ArrayJanitor@PAU?$ValueHashTableBucketElem@G@xercesc_3_1@@@xercesc_3_1@@QAE@XZ 10057739 f i xerces-c_3_1:GeneralAttributeCheck.cpp.obj
 0001:00056739       ??1?$ArrayJanitor@PAU?$RefHashTableBucketElem@VXercesAttGroupInfo@xercesc_3_1@@@xercesc_3_1@@@xercesc_3_1@@QAE@XZ 10057739 f i xerces-c_3_1:XTemplateSerializer.cpp.obj
 0001:00056739       ??1?$ArrayJanitor@PAU?$ValueHashTableBucketElem@W4DataType@XSValue@xercesc_3_1@@@xercesc_3_1@@@xercesc_3_1@@QAE@XZ 10057739 f i xerces-c_3_1:XSValue.cpp.obj
 0001:00056739       ??1?$ArrayJanitor@PAU?$RefHashTableBucketElem@VDTDAttDef@xercesc_3_1@@@xercesc_3_1@@@xercesc_3_1@@QAE@XZ 10057739 f i xerces-c_3_1:XTemplateSerializer.cpp.obj
 0001:00056739       ??1?$ArrayJanitor@PAU?$RefHashTableBucketElem@VDatatypeValidator@xercesc_3_1@@@xercesc_3_1@@@xercesc_3_1@@QAE@XZ 10057739 f i xerces-c_3_1:DatatypeValidatorFactory.cpp.obj
 0001:00056739       ??1?$ArrayJanitor@PAU?$RefHashTableBucketElem@V?$ValueVectorOf@PAVDOMElement@xercesc_3_1@@@xercesc_3_1@@@xercesc_3_1@@@xercesc_3_1@@QAE@XZ 10057739 f i xerces-c_3_1:TraverseSchema.cpp.obj
 0001:00056739       ??1?$ArrayJanitor@PAU?$RefHash2KeysTableBucketElem@_W@xercesc_3_1@@@xercesc_3_1@@QAE@XZ 10057739 f i xerces-c_3_1:TraverseSchema.cpp.obj
 0001:00056739       ??1?$ArrayJanitor@D@xercesc_3_1@@QAE@XZ 10057739 f i xerces-c_3_1:XMLString.cpp.obj
 0001:00056739       ??1?$ArrayJanitor@PAU?$RefHashTableBucketElem@VXMLElementDecl@xercesc_3_1@@@xercesc_3_1@@@xercesc_3_1@@QAE@XZ 10057739 f i xerces-c_3_1:WFXMLScanner.cpp.obj
 0001:00056739       ??1?$ArrayJanitor@PAU?$RefHashTableBucketElem@VKVStringPair@xercesc_3_1@@@xercesc_3_1@@@xercesc_3_1@@QAE@XZ 10057739 f i xerces-c_3_1:DOMXPathNSResolverImpl.cpp.obj
 0001:00056739       ??1?$ArrayJanitor@PAU?$RefHashTableBucketElem@VComplexTypeInfo@xercesc_3_1@@@xercesc_3_1@@@xercesc_3_1@@QAE@XZ 10057739 f i xerces-c_3_1:XTemplateSerializer.cpp.obj
 0001:00056739       ??1?$ArrayJanitor@PAU?$RefHashTableBucketElem@VXMLInteger@xercesc_3_1@@@xercesc_3_1@@@xercesc_3_1@@QAE@XZ 10057739 f i xerces-c_3_1:DFAContentModel.cpp.obj
 0001:00056739       ??1?$ArrayJanitor@PAU?$RefHashTableBucketElem@VDOMElement@xercesc_3_1@@@xercesc_3_1@@@xercesc_3_1@@QAE@XZ 10057739 f i xerces-c_3_1:SchemaInfo.cpp.obj
 0001:00056739       ??1?$ArrayJanitor@PAU?$RefHash2KeysTableBucketElem@VSchemaAttDef@xercesc_3_1@@@xercesc_3_1@@@xercesc_3_1@@QAE@XZ 10057739 f i xerces-c_3_1:ComplexTypeInfo.cpp.obj
 0001:00056739       ??1?$ArrayJanitor@PAUHash2KeysSetBucketElem@xercesc_3_1@@@xercesc_3_1@@QAE@XZ 10057739 f i xerces-c_3_1:DGXMLScanner.cpp.obj
 0001:00056739       ??1?$ArrayJanitor@PAU?$RefHashTableBucketElem@VXSObject@xercesc_3_1@@@xercesc_3_1@@@xercesc_3_1@@QAE@XZ 10057739 f i xerces-c_3_1:XSModel.cpp.obj
 0001:00056739       ??1?$ArrayJanitor@E@xercesc_3_1@@QAE@XZ 10057739 f i xerces-c_3_1:TransService.cpp.obj
 0001:00056739       ??1?$ArrayJanitor@PAU?$RefHash2KeysTableBucketElem@V?$ValueVectorOf@PAVSchemaElementDecl@xercesc_3_1@@@xercesc_3_1@@@xercesc_3_1@@@xercesc_3_1@@QAE@XZ 10057739 f i xerces-c_3_1:XTemplateSerializer.cpp.obj
 0001:00056739       ??1?$ArrayJanitor@PAU?$ValueHashTableBucketElem@_W@xercesc_3_1@@@xercesc_3_1@@QAE@XZ 10057739 f i xerces-c_3_1:WFXMLScanner.cpp.obj
 0001:00056739       ??1?$ArrayJanitor@PAU?$RefHash2KeysTableBucketElem@VXSObject@xercesc_3_1@@@xercesc_3_1@@@xercesc_3_1@@QAE@XZ 10057739 f i xerces-c_3_1:XSModel.cpp.obj
 0001:00056739       ??1?$ArrayJanitor@PAU?$RefHashTableBucketElem@VXMLAttDef@xercesc_3_1@@@xercesc_3_1@@@xercesc_3_1@@QAE@XZ 10057739 f i xerces-c_3_1:XTemplateSerializer.cpp.obj
 0001:00056739       ??1?$ArrayJanitor@PAU?$ValueHashTableBucketElem@I@xercesc_3_1@@@xercesc_3_1@@QAE@XZ 10057739 f i xerces-c_3_1:DOMLSParserImpl.cpp.obj
 0001:00056739       ??1?$ArrayJanitor@PAU?$RefHashTableBucketElem@VCPMapEntry@xercesc_3_1@@@xercesc_3_1@@@xercesc_3_1@@QAE@XZ 10057739 f i xerces-c_3_1:Win32TransService.cpp.obj
 0001:00056739       ??1?$ArrayJanitor@PAU?$RefHashTableBucketElem@I@xercesc_3_1@@@xercesc_3_1@@QAE@XZ 10057739 f i xerces-c_3_1:DGXMLScanner.cpp.obj
 0001:00056739       ??1?$ArrayJanitor@PAU?$ValueHashTableBucketElem@W4FilterAction@DOMLSParserFilter@xercesc_3_1@@@xercesc_3_1@@@xercesc_3_1@@QAE@XZ 10057739 f i xerces-c_3_1:DOMLSParserImpl.cpp.obj
 0001:00056739       ??1?$ArrayJanitor@PAU?$RefHashTableBucketElem@VSchemaInfo@xercesc_3_1@@@xercesc_3_1@@@xercesc_3_1@@QAE@XZ 10057739 f i xerces-c_3_1:TraverseSchema.cpp.obj
 0001:00056739       ??1?$ArrayJanitor@PAU?$RefHashTableBucketElem@_W@xercesc_3_1@@@xercesc_3_1@@QAE@XZ 10057739 f i xerces-c_3_1:DOMNormalizer.cpp.obj
 0001:00056739       ??1?$ArrayJanitor@PAU?$RefHash2KeysTableBucketElem@VXSIDCDefinition@xercesc_3_1@@@xercesc_3_1@@@xercesc_3_1@@QAE@XZ 10057739 f i xerces-c_3_1:XSObjectFactory.cpp.obj
 0001:00056739       ??1?$ArrayJanitor@PAU?$RefHash2KeysTableBucketElem@VIdentityConstraint@xercesc_3_1@@@xercesc_3_1@@@xercesc_3_1@@QAE@XZ 10057739 f i xerces-c_3_1:TraverseSchema.cpp.obj
 0001:00056761       ??_GXMLUCS4Transcoder@xercesc_3_1@@UAEPAXI@Z 10057761 f i xerces-c_3_1:XMLUCS4Transcoder.cpp.obj
 0001:00056761       ??_EXMLUCS4Transcoder@xercesc_3_1@@UAEPAXI@Z 10057761 f i  CIL library: CIL module
 0001:00056786       ?transcodeFrom@XMLUCS4Transcoder@xercesc_3_1@@UAEKQBEKQA_WKAAKQAE@Z 10057786 f   xerces-c_3_1:XMLUCS4Transcoder.cpp.obj
 0001:0005683f       ?transcodeTo@XMLUCS4Transcoder@xercesc_3_1@@UAEKQB_WKQAEKAAKW4UnRepOpts@XMLTranscoder@2@@Z 1005783f f   xerces-c_3_1:XMLUCS4Transcoder.cpp.obj
 0001:0005694e       ??_EXMLChTranscoder@xercesc_3_1@@UAEPAXI@Z 1005794e f i  CIL library: CIL module
 0001:0005694e       ??_GXMLChTranscoder@xercesc_3_1@@UAEPAXI@Z 1005794e f i xerces-c_3_1:XMLChTranscoder.cpp.obj
 0001:00056973       ?transcodeFrom@XMLChTranscoder@xercesc_3_1@@UAEKQBEKQA_WKAAKQAE@Z 10057973 f   xerces-c_3_1:XMLChTranscoder.cpp.obj
 0001:000569b0       ?transcodeTo@XMLChTranscoder@xercesc_3_1@@UAEKQB_WKQAEKAAKW4UnRepOpts@XMLTranscoder@2@@Z 100579b0 f   xerces-c_3_1:XMLChTranscoder.cpp.obj
 0001:000569e2       ??0UTFDataFormatException@xercesc_3_1@@QAE@ABV01@@Z 100579e2 f i xerces-c_3_1:XMLUTF8Transcoder.cpp.obj
 0001:000569fd       ??1UTFDataFormatException@xercesc_3_1@@UAE@XZ 100579fd f i xerces-c_3_1:XMLUTF8Transcoder.cpp.obj
 0001:00056a08       ?duplicate@UTFDataFormatException@xercesc_3_1@@UBEPAVXMLException@2@XZ 10057a08 f i xerces-c_3_1:XMLUTF8Transcoder.cpp.obj
 0001:00056a52       ?getType@UTFDataFormatException@xercesc_3_1@@UBEPB_WXZ 10057a52 f i xerces-c_3_1:XMLUTF8Transcoder.cpp.obj
 0001:00056a58       ??_GUTFDataFormatException@xercesc_3_1@@UAEPAXI@Z 10057a58 f i xerces-c_3_1:XMLUTF8Transcoder.cpp.obj
 0001:00056a58       ??_EUTFDataFormatException@xercesc_3_1@@UAEPAXI@Z 10057a58 f i  CIL library: CIL module
 0001:00056a7d       ?checkTrailingBytes@XMLUTF8Transcoder@xercesc_3_1@@ABEXEII@Z 10057a7d f i xerces-c_3_1:XMLUTF8Transcoder.cpp.obj
 0001:00056b09       ??_GXMLUTF8Transcoder@xercesc_3_1@@UAEPAXI@Z 10057b09 f i xerces-c_3_1:XMLUTF8Transcoder.cpp.obj
 0001:00056b09       ??_EXMLUTF8Transcoder@xercesc_3_1@@UAEPAXI@Z 10057b09 f i  CIL library: CIL module
 0001:00056b2e       ??1XMLUTF8Transcoder@xercesc_3_1@@UAE@XZ 10057b2e f   xerces-c_3_1:XMLUTF8Transcoder.cpp.obj
 0001:00056b39       ?transcodeFrom@XMLUTF8Transcoder@xercesc_3_1@@UAEKQBEKQA_WKAAKQAE@Z 10057b39 f   xerces-c_3_1:XMLUTF8Transcoder.cpp.obj
 0001:00057071       ?transcodeTo@XMLUTF8Transcoder@xercesc_3_1@@UAEKQB_WKQAEKAAKW4UnRepOpts@XMLTranscoder@2@@Z 10058071 f   xerces-c_3_1:XMLUTF8Transcoder.cpp.obj
 0001:00057249       ?canTranscodeTo@XMLUTF8Transcoder@xercesc_3_1@@UAE_NI@Z 10058249 f   xerces-c_3_1:XMLUTF8Transcoder.cpp.obj
 0001:0005725b       ??_GXMLASCIITranscoder@xercesc_3_1@@UAEPAXI@Z 1005825b f i xerces-c_3_1:XMLASCIITranscoder.cpp.obj
 0001:0005725b       ??_EXMLASCIITranscoder@xercesc_3_1@@UAEPAXI@Z 1005825b f i  CIL library: CIL module
 0001:00057280       ?transcodeFrom@XMLASCIITranscoder@xercesc_3_1@@UAEKQBEKQA_WKAAKQAE@Z 10058280 f   xerces-c_3_1:XMLASCIITranscoder.cpp.obj
 0001:00057366       ?transcodeTo@XMLASCIITranscoder@xercesc_3_1@@UAEKQB_WKQAEKAAKW4UnRepOpts@XMLTranscoder@2@@Z 10058366 f   xerces-c_3_1:XMLASCIITranscoder.cpp.obj
 0001:00057445       ?canTranscodeTo@XMLASCIITranscoder@xercesc_3_1@@UAE_NI@Z 10058445 f   xerces-c_3_1:XMLASCIITranscoder.cpp.obj
 0001:00057457       ??_GXMLUTF16Transcoder@xercesc_3_1@@UAEPAXI@Z 10058457 f i xerces-c_3_1:XMLUTF16Transcoder.cpp.obj
 0001:00057457       ??_EXMLUTF16Transcoder@xercesc_3_1@@UAEPAXI@Z 10058457 f i  CIL library: CIL module
 0001:0005747c       ?transcodeFrom@XMLUTF16Transcoder@xercesc_3_1@@UAEKQBEKQA_WKAAKQAE@Z 1005847c f   xerces-c_3_1:XMLUTF16Transcoder.cpp.obj
 0001:000574e4       ?transcodeTo@XMLUTF16Transcoder@xercesc_3_1@@UAEKQB_WKQAEKAAKW4UnRepOpts@XMLTranscoder@2@@Z 100584e4 f   xerces-c_3_1:XMLUTF16Transcoder.cpp.obj
 0001:0005753c       ??0NetAccessorException@xercesc_3_1@@QAE@ABV01@@Z 1005853c f i xerces-c_3_1:BinHTTPURLInputStream.cpp.obj
 0001:00057557       ??1NetAccessorException@xercesc_3_1@@UAE@XZ 10058557 f i xerces-c_3_1:BinHTTPURLInputStream.cpp.obj
 0001:00057562       ?duplicate@NetAccessorException@xercesc_3_1@@UBEPAVXMLException@2@XZ 10058562 f i xerces-c_3_1:BinHTTPURLInputStream.cpp.obj
 0001:000575ac       ?getType@NetAccessorException@xercesc_3_1@@UBEPB_WXZ 100585ac f i xerces-c_3_1:BinHTTPURLInputStream.cpp.obj
 0001:000575b2       ??_GNetAccessorException@xercesc_3_1@@UAEPAXI@Z 100585b2 f i xerces-c_3_1:BinHTTPURLInputStream.cpp.obj
 0001:000575b2       ??_ENetAccessorException@xercesc_3_1@@UAEPAXI@Z 100585b2 f i  CIL library: CIL module
 0001:000575d7       ?curPos@BinHTTPInputStreamCommon@xercesc_3_1@@UBE_KXZ 100585d7 f i xerces-c_3_1:BinHTTPURLInputStream.cpp.obj
 0001:000575dd       ??1SocketJanitor@xercesc_3_1@@QAE@XZ 100585dd f i xerces-c_3_1:BinHTTPURLInputStream.cpp.obj
 0001:000575e5       ?reset@SocketJanitor@xercesc_3_1@@QAEXPAI@Z 100585e5 f i xerces-c_3_1:BinHTTPURLInputStream.cpp.obj
 0001:0005760b       ?Initialize@BinHTTPURLInputStream@xercesc_3_1@@CAXQAVMemoryManager@2@@Z 1005860b f   xerces-c_3_1:BinHTTPURLInputStream.cpp.obj
 0001:0005783b       ?Cleanup@BinHTTPURLInputStream@xercesc_3_1@@SAXXZ 1005883b f   xerces-c_3_1:BinHTTPURLInputStream.cpp.obj
 0001:000578e1       ??0BinHTTPURLInputStream@xercesc_3_1@@QAE@ABVXMLURL@1@PBVXMLNetHTTPInfo@1@@Z 100588e1 f   xerces-c_3_1:BinHTTPURLInputStream.cpp.obj
 0001:00057dd2       ??_GBinHTTPURLInputStream@xercesc_3_1@@UAEPAXI@Z 10058dd2 f i xerces-c_3_1:BinHTTPURLInputStream.cpp.obj
 0001:00057dd2       ??_EBinHTTPURLInputStream@xercesc_3_1@@UAEPAXI@Z 10058dd2 f i  CIL library: CIL module
 0001:00057e2b       ?send@BinHTTPURLInputStream@xercesc_3_1@@UAE_NPBDK@Z 10058e2b f   xerces-c_3_1:BinHTTPURLInputStream.cpp.obj
 0001:00057e69       ?receive@BinHTTPURLInputStream@xercesc_3_1@@UAEHPADK@Z 10058e69 f   xerces-c_3_1:BinHTTPURLInputStream.cpp.obj
 0001:00057e89       ??0DOMEntityReferenceImpl@xercesc_3_1@@QAE@PAVDOMDocument@1@PB_W@Z 10058e89 f   xerces-c_3_1:DOMEntityReferenceImpl.cpp.obj
 0001:00057f7b       ??0DOMEntityReferenceImpl@xercesc_3_1@@QAE@PAVDOMDocument@1@PB_W_N@Z 10058f7b f   xerces-c_3_1:DOMEntityReferenceImpl.cpp.obj
 0001:00058050       ??0DOMEntityReferenceImpl@xercesc_3_1@@QAE@ABV01@_N@Z 10059050 f   xerces-c_3_1:DOMEntityReferenceImpl.cpp.obj
 0001:000580d8       ?cloneNode@DOMEntityReferenceImpl@xercesc_3_1@@UBEPAVDOMNode@2@_N@Z 100590d8 f   xerces-c_3_1:DOMEntityReferenceImpl.cpp.obj
 0001:0005812c       ?getNodeType@DOMEntityReferenceImpl@xercesc_3_1@@UBE?AW4NodeType@DOMNode@2@XZ 1005912c f   xerces-c_3_1:DOMEntityReferenceImpl.cpp.obj
 0001:00058130       ?setReadOnly@DOMEntityReferenceImpl@xercesc_3_1@@UAEX_N0@Z 10059130 f   xerces-c_3_1:DOMEntityReferenceImpl.cpp.obj
 0001:000581b8       ?release@DOMEntityReferenceImpl@xercesc_3_1@@UAEXXZ 100591b8 f   xerces-c_3_1:DOMEntityReferenceImpl.cpp.obj
 0001:0005825f       ?removeChild@DOMElementImpl@xercesc_3_1@@UAEPAVDOMNode@2@PAV32@@Z 1005925f f   xerces-c_3_1:DOMElementImpl.cpp.obj
 0001:0005825f       ?removeChild@DOMDocumentTypeImpl@xercesc_3_1@@UAEPAVDOMNode@2@PAV32@@Z 1005925f f   xerces-c_3_1:DOMDocumentTypeImpl.cpp.obj
 0001:0005825f       ?removeChild@DOMEntityReferenceImpl@xercesc_3_1@@UAEPAVDOMNode@2@PAV32@@Z 1005925f f   xerces-c_3_1:DOMEntityReferenceImpl.cpp.obj
 0001:0005825f       ?removeChild@DOMDocumentFragmentImpl@xercesc_3_1@@UAEPAVDOMNode@2@PAV32@@Z 1005925f f   xerces-c_3_1:DOMDocumentFragmentImpl.cpp.obj
 0001:0005825f       ?removeChild@DOMAttrImpl@xercesc_3_1@@UAEPAVDOMNode@2@PAV32@@Z 1005925f f   xerces-c_3_1:DOMAttrImpl.cpp.obj
 0001:00058272       ?isEqualNode@DOMDocumentImpl@xercesc_3_1@@UBE_NPBVDOMNode@2@@Z 10059272 f   xerces-c_3_1:DOMDocumentImpl.cpp.obj
 0001:00058272       ?isEqualNode@DOMDocumentFragmentImpl@xercesc_3_1@@UBE_NPBVDOMNode@2@@Z 10059272 f   xerces-c_3_1:DOMDocumentFragmentImpl.cpp.obj
 0001:00058272       ?isEqualNode@DOMAttrImpl@xercesc_3_1@@UBE_NPBVDOMNode@2@@Z 10059272 f   xerces-c_3_1:DOMAttrImpl.cpp.obj
 0001:00058272       ?isEqualNode@DOMEntityReferenceImpl@xercesc_3_1@@UBE_NPBVDOMNode@2@@Z 10059272 f   xerces-c_3_1:DOMEntityReferenceImpl.cpp.obj
 0001:00058284       ?lookupPrefix@DOMAttrImpl@xercesc_3_1@@UBEPB_WPB_W@Z 10059284 f   xerces-c_3_1:DOMAttrImpl.cpp.obj
 0001:00058284       ?lookupPrefix@DOMEntityReferenceImpl@xercesc_3_1@@UBEPB_WPB_W@Z 10059284 f   xerces-c_3_1:DOMEntityReferenceImpl.cpp.obj
 0001:00058284       ?lookupPrefix@DOMTextImpl@xercesc_3_1@@UBEPB_WPB_W@Z 10059284 f   xerces-c_3_1:DOMTextImpl.cpp.obj
 0001:00058284       ?lookupPrefix@DOMCommentImpl@xercesc_3_1@@UBEPB_WPB_W@Z 10059284 f   xerces-c_3_1:DOMCommentImpl.cpp.obj
 0001:00058284       ?lookupPrefix@DOMProcessingInstructionImpl@xercesc_3_1@@UBEPB_WPB_W@Z 10059284 f   xerces-c_3_1:DOMProcessingInstructionImpl.cpp.obj
 0001:00058284       ?lookupPrefix@DOMElementImpl@xercesc_3_1@@UBEPB_WPB_W@Z 10059284 f   xerces-c_3_1:DOMElementImpl.cpp.obj
 0001:00058284       ?lookupPrefix@DOMDocumentTypeImpl@xercesc_3_1@@UBEPB_WPB_W@Z 10059284 f   xerces-c_3_1:DOMDocumentTypeImpl.cpp.obj
 0001:00058284       ?lookupPrefix@DOMDocumentFragmentImpl@xercesc_3_1@@UBEPB_WPB_W@Z 10059284 f   xerces-c_3_1:DOMDocumentFragmentImpl.cpp.obj
 0001:00058284       ?lookupPrefix@DOMCDATASectionImpl@xercesc_3_1@@UBEPB_WPB_W@Z 10059284 f   xerces-c_3_1:DOMCDATASectionImpl.cpp.obj
 0001:00058284       ?lookupPrefix@DOMEntityImpl@xercesc_3_1@@UBEPB_WPB_W@Z 10059284 f   xerces-c_3_1:DOMEntityImpl.cpp.obj
 0001:00058284       ?lookupPrefix@DOMDocumentImpl@xercesc_3_1@@UBEPB_WPB_W@Z 10059284 f   xerces-c_3_1:DOMDocumentImpl.cpp.obj
 0001:00058284       ?lookupPrefix@DOMNotationImpl@xercesc_3_1@@UBEPB_WPB_W@Z 10059284 f   xerces-c_3_1:DOMNotationImpl.cpp.obj
 0001:00058298       ?getFeature@DOMImplementationImpl@xercesc_3_1@@UBEPAXPB_W0@Z 10059298 f   xerces-c_3_1:DOMImplementationImpl.cpp.obj
 0001:00058298       ?getFeature@DOMEntityImpl@xercesc_3_1@@UBEPAXPB_W0@Z 10059298 f   xerces-c_3_1:DOMEntityImpl.cpp.obj
 0001:00058298       ?resolveSystemId@XMLScanner@xercesc_3_1@@MAEPAVInputSource@2@QB_W0@Z 10059298 f   xerces-c_3_1:XMLScanner.cpp.obj
 0001:00058298       ?getFeature@DOMCommentImpl@xercesc_3_1@@UBEPAXPB_W0@Z 10059298 f   xerces-c_3_1:DOMCommentImpl.cpp.obj
 0001:00058298       ?resolveSystemId@WFXMLScanner@xercesc_3_1@@EAEPAVInputSource@2@QB_W0@Z 10059298 f   xerces-c_3_1:WFXMLScanner.cpp.obj
 0001:00058298       ?getFeature@DOMEntityReferenceImpl@xercesc_3_1@@UBEPAXPB_W0@Z 10059298 f   xerces-c_3_1:DOMEntityReferenceImpl.cpp.obj
 0001:00058298       ?getFeature@DOMNotationImpl@xercesc_3_1@@UBEPAXPB_W0@Z 10059298 f   xerces-c_3_1:DOMNotationImpl.cpp.obj
 0001:00058298       ?getFeature@DOMProcessingInstructionImpl@xercesc_3_1@@UBEPAXPB_W0@Z 10059298 f   xerces-c_3_1:DOMProcessingInstructionImpl.cpp.obj
 0001:00058298       ?getFeature@DOMElementImpl@xercesc_3_1@@UBEPAXPB_W0@Z 10059298 f   xerces-c_3_1:DOMElementImpl.cpp.obj
 0001:00058298       ?getFeature@DOMDocumentFragmentImpl@xercesc_3_1@@UBEPAXPB_W0@Z 10059298 f   xerces-c_3_1:DOMDocumentFragmentImpl.cpp.obj
 0001:00058298       ?getFeature@DOMCDATASectionImpl@xercesc_3_1@@UBEPAXPB_W0@Z 10059298 f   xerces-c_3_1:DOMCDATASectionImpl.cpp.obj
 0001:00058298       ?getFeature@DOMTextImpl@xercesc_3_1@@UBEPAXPB_W0@Z 10059298 f   xerces-c_3_1:DOMTextImpl.cpp.obj
 0001:000582b2       ?changed@DOMParentNode@xercesc_3_1@@QAEXXZ 100592b2 f   xerces-c_3_1:DOMParentNode.cpp.obj
 0001:000582c5       ?cloneChildren@DOMParentNode@xercesc_3_1@@QAEXPBVDOMNode@2@@Z 100592c5 f   xerces-c_3_1:DOMParentNode.cpp.obj
 0001:000582f6       ?getLastChild@DOMParentNode@xercesc_3_1@@QBEPAVDOMNode@2@XZ 100592f6 f   xerces-c_3_1:DOMParentNode.cpp.obj
 0001:00058306       ?insertBefore@DOMParentNode@xercesc_3_1@@QAEPAVDOMNode@2@PAV32@0@Z 10059306 f   xerces-c_3_1:DOMParentNode.cpp.obj
 0001:0005868b       ?removeChild@DOMParentNode@xercesc_3_1@@QAEPAVDOMNode@2@PAV32@@Z 1005968b f   xerces-c_3_1:DOMParentNode.cpp.obj
 0001:000588b1       ?replaceChild@DOMParentNode@xercesc_3_1@@QAEPAVDOMNode@2@PAV32@0@Z 100598b1 f   xerces-c_3_1:DOMParentNode.cpp.obj
 0001:000588d1       ?appendChildFast@DOMParentNode@xercesc_3_1@@UAEPAVDOMNode@2@PAV32@@Z 100598d1 f   xerces-c_3_1:DOMParentNode.cpp.obj
 0001:00058936       ?normalize@DOMParentNode@xercesc_3_1@@QAEXXZ 10059936 f   xerces-c_3_1:DOMParentNode.cpp.obj
 0001:000589af       ?isEqualNode@DOMParentNode@xercesc_3_1@@QBE_NPBVDOMNode@2@@Z 100599af f   xerces-c_3_1:DOMParentNode.cpp.obj
 0001:00058a13       ?release@DOMParentNode@xercesc_3_1@@QAEXXZ 10059a13 f   xerces-c_3_1:DOMParentNode.cpp.obj
 0001:00058a44       ??1DOMXPathNSResolver@xercesc_3_1@@UAE@XZ 10059a44 f i xerces-c_3_1:DOMXPathNSResolverImpl.cpp.obj
 0001:00058a4b       ??_EDOMXPathNSResolver@xercesc_3_1@@UAEPAXI@Z 10059a4b f i  CIL library: CIL module
 0001:00058a4b       ??_GDOMXPathNSResolver@xercesc_3_1@@UAEPAXI@Z 10059a4b f i xerces-c_3_1:DOMXPathNSResolverImpl.cpp.obj
 0001:00058a6b       ??0DOMXPathNSResolverImpl@xercesc_3_1@@QAE@PBVDOMNode@1@QAVMemoryManager@1@@Z 10059a6b f   xerces-c_3_1:DOMXPathNSResolverImpl.cpp.obj
 0001:00058ace       ??_GDOMXPathNSResolverImpl@xercesc_3_1@@UAEPAXI@Z 10059ace f i xerces-c_3_1:DOMXPathNSResolverImpl.cpp.obj
 0001:00058ace       ??_EDOMXPathNSResolverImpl@xercesc_3_1@@UAEPAXI@Z 10059ace f i  CIL library: CIL module
 0001:00058b1f       ?lookupNamespaceURI@DOMXPathNSResolverImpl@xercesc_3_1@@UBEPB_WPB_W@Z 10059b1f f   xerces-c_3_1:DOMXPathNSResolverImpl.cpp.obj
 0001:00058b89       ?lookupPrefix@DOMXPathNSResolverImpl@xercesc_3_1@@UBEPB_WPB_W@Z 10059b89 f   xerces-c_3_1:DOMXPathNSResolverImpl.cpp.obj
 0001:00058c83       ?addNamespaceBinding@DOMXPathNSResolverImpl@xercesc_3_1@@UAEXPB_W0@Z 10059c83 f   xerces-c_3_1:DOMXPathNSResolverImpl.cpp.obj
 0001:00058cf8       ??1?$XMLEnumerator@VKVStringPair@xercesc_3_1@@@xercesc_3_1@@UAE@XZ 10059cf8 f i xerces-c_3_1:DOMXPathNSResolverImpl.cpp.obj
 0001:00058cff       ??_E?$XMLEnumerator@VKVStringPair@xercesc_3_1@@@xercesc_3_1@@UAEPAXI@Z 10059cff f i  CIL library: CIL module
 0001:00058cff       ??_G?$XMLEnumerator@VKVStringPair@xercesc_3_1@@@xercesc_3_1@@UAEPAXI@Z 10059cff f i xerces-c_3_1:DOMXPathNSResolverImpl.cpp.obj
 0001:00058d1f       ??0?$RefHashTableOf@VKVStringPair@xercesc_3_1@@UStringHasher@2@@xercesc_3_1@@QAE@K_NQAVMemoryManager@1@@Z 10059d1f f i xerces-c_3_1:DOMXPathNSResolverImpl.cpp.obj
 0001:00058d40       ?put@?$RefHashTableOf@VDTDAttDef@xercesc_3_1@@UStringHasher@2@@xercesc_3_1@@QAEXPAXQAVDTDAttDef@2@@Z 10059d40 f i xerces-c_3_1:XTemplateSerializer.cpp.obj
 0001:00058d40       ?put@?$RefHashTableOf@VDatatypeValidator@xercesc_3_1@@UStringHasher@2@@xercesc_3_1@@QAEXPAXQAVDatatypeValidator@2@@Z 10059d40 f i xerces-c_3_1:DatatypeValidatorFactory.cpp.obj
 0001:00058d40       ?put@?$RefHashTableOf@VXMLNotationDecl@xercesc_3_1@@UStringHasher@2@@xercesc_3_1@@QAEXPAXQAVXMLNotationDecl@2@@Z 10059d40 f i xerces-c_3_1:DTDGrammar.cpp.obj
 0001:00058d40       ?put@?$RefHashTableOf@VXMLAttDef@xercesc_3_1@@UStringHasher@2@@xercesc_3_1@@QAEXPAXQAVXMLAttDef@2@@Z 10059d40 f i xerces-c_3_1:XTemplateSerializer.cpp.obj
 0001:00058d40       ?put@?$RefHashTableOf@VDTDEntityDecl@xercesc_3_1@@UStringHasher@2@@xercesc_3_1@@QAEXPAXQAVDTDEntityDecl@2@@Z 10059d40 f i xerces-c_3_1:DTDGrammar.cpp.obj
 0001:00058d40       ?put@?$RefHashTableOf@VDTDElementDecl@xercesc_3_1@@UStringHasher@2@@xercesc_3_1@@QAEXPAXQAVDTDElementDecl@2@@Z 10059d40 f i xerces-c_3_1:DTDGrammar.cpp.obj
 0001:00058d40       ?put@?$RefHashTableOf@VKVStringPair@xercesc_3_1@@UStringHasher@2@@xercesc_3_1@@QAEXPAXQAVKVStringPair@2@@Z 10059d40 f i xerces-c_3_1:DOMXPathNSResolverImpl.cpp.obj
 0001:00058d40       ?put@?$RefHashTableOf@VXMLElementDecl@xercesc_3_1@@UStringHasher@2@@xercesc_3_1@@QAEXPAXQAVXMLElementDecl@2@@Z 10059d40 f i xerces-c_3_1:WFXMLScanner.cpp.obj
 0001:00058d40       ?put@?$RefHashTableOf@VXercesGroupInfo@xercesc_3_1@@UStringHasher@2@@xercesc_3_1@@QAEXPAXQAVXercesGroupInfo@2@@Z 10059d40 f i xerces-c_3_1:XTemplateSerializer.cpp.obj
 0001:00058d40       ?put@?$RefHashTableOf@VGrammar@xercesc_3_1@@UStringHasher@2@@xercesc_3_1@@QAEXPAXQAVGrammar@2@@Z 10059d40 f i xerces-c_3_1:GrammarResolver.cpp.obj
 0001:00058d40       ?put@?$RefHashTableOf@VComplexTypeInfo@xercesc_3_1@@UStringHasher@2@@xercesc_3_1@@QAEXPAXQAVComplexTypeInfo@2@@Z 10059d40 f i xerces-c_3_1:XTemplateSerializer.cpp.obj
 0001:00058d40       ?put@?$RefHashTableOf@VDOMElement@xercesc_3_1@@UStringHasher@2@@xercesc_3_1@@QAEXPAXQAVDOMElement@2@@Z 10059d40 f i xerces-c_3_1:SchemaInfo.cpp.obj
 0001:00058d40       ?put@?$RefHashTableOf@VRangeFactory@xercesc_3_1@@UStringHasher@2@@xercesc_3_1@@QAEXPAXQAVRangeFactory@2@@Z 10059d40 f i xerces-c_3_1:RangeTokenMap.cpp.obj
 0001:00058d40       ?put@?$RefHashTableOf@VXercesAttGroupInfo@xercesc_3_1@@UStringHasher@2@@xercesc_3_1@@QAEXPAXQAVXercesAttGroupInfo@2@@Z 10059d40 f i xerces-c_3_1:XTemplateSerializer.cpp.obj
 0001:00058d40       ?put@?$RefHashTableOf@VXMLRefInfo@xercesc_3_1@@UStringHasher@2@@xercesc_3_1@@QAEXPAXQAVXMLRefInfo@2@@Z 10059d40 f i xerces-c_3_1:ValidationContextImpl.cpp.obj
 0001:00058dbf       ??0?$RefHashTableOfEnumerator@VKVStringPair@xercesc_3_1@@UStringHasher@2@@xercesc_3_1@@QAE@QAV?$RefHashTableOf@VKVStringPair@xercesc_3_1@@UStringHasher@2@@1@_NQAVMemoryManager@1@@Z 10059dbf f i xerces-c_3_1:DOMXPathNSResolverImpl.cpp.obj
 0001:00058e41       ??1?$RefHashTableOfEnumerator@VKVStringPair@xercesc_3_1@@UStringHasher@2@@xercesc_3_1@@UAE@XZ 10059e41 f i xerces-c_3_1:DOMXPathNSResolverImpl.cpp.obj
 0001:00058e83       ?nextElement@?$RefHashTableOfEnumerator@VKVStringPair@xercesc_3_1@@UStringHasher@2@@xercesc_3_1@@UAEAAVKVStringPair@2@XZ 10059e83 f i xerces-c_3_1:DOMXPathNSResolverImpl.cpp.obj
 0001:00058e83       ?nextElement@?$RefHashTableOfEnumerator@VComplexTypeInfo@xercesc_3_1@@UStringHasher@2@@xercesc_3_1@@UAEAAVComplexTypeInfo@2@XZ 10059e83 f i xerces-c_3_1:XSModel.cpp.obj
 0001:00058e83       ?nextElement@?$RefHashTableOfEnumerator@VXSAnnotation@xercesc_3_1@@UPtrHasher@2@@xercesc_3_1@@UAEAAVXSAnnotation@2@XZ 10059e83 f i xerces-c_3_1:XTemplateSerializer.cpp.obj
 0001:00058e83       ?nextElement@?$RefHashTableOfEnumerator@VXMLAttDef@xercesc_3_1@@UStringHasher@2@@xercesc_3_1@@UAEAAVXMLAttDef@2@XZ 10059e83 f i xerces-c_3_1:XSModel.cpp.obj
 0001:00058e83       ?nextElement@?$RefHashTableOfEnumerator@VDTDAttDef@xercesc_3_1@@UStringHasher@2@@xercesc_3_1@@UAEAAVDTDAttDef@2@XZ 10059e83 f i xerces-c_3_1:XTemplateSerializer.cpp.obj
 0001:00058e83       ?nextElement@?$RefHashTableOfEnumerator@VValueStore@xercesc_3_1@@UPtrHasher@2@@xercesc_3_1@@UAEAAVValueStore@2@XZ 10059e83 f i xerces-c_3_1:ValueStoreCache.cpp.obj
 0001:00058e83       ?nextElement@?$RefHashTableOfEnumerator@VGrammar@xercesc_3_1@@UStringHasher@2@@xercesc_3_1@@UAEAAVGrammar@2@XZ 10059e83 f i xerces-c_3_1:GrammarResolver.cpp.obj
 0001:00058e83       ?nextElement@?$RefHashTableOfEnumerator@VXercesAttGroupInfo@xercesc_3_1@@UStringHasher@2@@xercesc_3_1@@UAEAAVXercesAttGroupInfo@2@XZ 10059e83 f i xerces-c_3_1:XSModel.cpp.obj
 0001:00058e83       ?nextElement@?$RefHashTableOfEnumerator@VFieldValueMap@xercesc_3_1@@UICValueHasher@2@@xercesc_3_1@@UAEAAVFieldValueMap@2@XZ 10059e83 f i xerces-c_3_1:ValueStore.cpp.obj
 0001:00058e83       ?nextElement@?$RefHashTableOfEnumerator@VXMLRefInfo@xercesc_3_1@@UStringHasher@2@@xercesc_3_1@@UAEAAVXMLRefInfo@2@XZ 10059e83 f i xerces-c_3_1:XMLScanner.cpp.obj
 0001:00058e83       ?nextElement@?$RefHashTableOfEnumerator@VDatatypeValidator@xercesc_3_1@@UStringHasher@2@@xercesc_3_1@@UAEAAVDatatypeValidator@2@XZ 10059e83 f i xerces-c_3_1:XSModel.cpp.obj
 0001:00058e83       ?nextElement@?$RefHashTableOfEnumerator@VXercesGroupInfo@xercesc_3_1@@UStringHasher@2@@xercesc_3_1@@UAEAAVXercesGroupInfo@2@XZ 10059e83 f i xerces-c_3_1:XSModel.cpp.obj
 0001:00058ef1       ?Reset@?$RefHashTableOfEnumerator@VXMLAttDef@xercesc_3_1@@UStringHasher@2@@xercesc_3_1@@UAEXXZ 10059ef1 f i xerces-c_3_1:XSModel.cpp.obj
 0001:00058ef1       ?Reset@?$RefHashTableOfEnumerator@VValueStore@xercesc_3_1@@UPtrHasher@2@@xercesc_3_1@@UAEXXZ 10059ef1 f i xerces-c_3_1:ValueStoreCache.cpp.obj
 0001:00058ef1       ?Reset@?$RefHashTableOfEnumerator@VXercesGroupInfo@xercesc_3_1@@UStringHasher@2@@xercesc_3_1@@UAEXXZ 10059ef1 f i xerces-c_3_1:XSModel.cpp.obj
 0001:00058ef1       ?Reset@?$RefHashTableOfEnumerator@VFieldValueMap@xercesc_3_1@@UICValueHasher@2@@xercesc_3_1@@UAEXXZ 10059ef1 f i xerces-c_3_1:ValueStore.cpp.obj
 0001:00058ef1       ?Reset@?$RefHashTableOfEnumerator@VXSAnnotation@xercesc_3_1@@UPtrHasher@2@@xercesc_3_1@@UAEXXZ 10059ef1 f i xerces-c_3_1:XTemplateSerializer.cpp.obj
 0001:00058ef1       ?Reset@?$RefHashTableOfEnumerator@VXercesAttGroupInfo@xercesc_3_1@@UStringHasher@2@@xercesc_3_1@@UAEXXZ 10059ef1 f i xerces-c_3_1:XSModel.cpp.obj
 0001:00058ef1       ?Reset@?$RefHashTableOfEnumerator@VGrammar@xercesc_3_1@@UStringHasher@2@@xercesc_3_1@@UAEXXZ 10059ef1 f i xerces-c_3_1:GrammarResolver.cpp.obj
 0001:00058ef1       ?Reset@?$RefHashTableOfEnumerator@_WUStringHasher@xercesc_3_1@@@xercesc_3_1@@UAEXXZ 10059ef1 f i xerces-c_3_1:DOMNormalizer.cpp.obj
 0001:00058ef1       ?Reset@?$RefHashTableOfEnumerator@VDTDAttDef@xercesc_3_1@@UStringHasher@2@@xercesc_3_1@@UAEXXZ 10059ef1 f i xerces-c_3_1:XTemplateSerializer.cpp.obj
 0001:00058ef1       ?Reset@?$RefHashTableOfEnumerator@VKVStringPair@xercesc_3_1@@UStringHasher@2@@xercesc_3_1@@UAEXXZ 10059ef1 f i xerces-c_3_1:DOMXPathNSResolverImpl.cpp.obj
 0001:00058ef1       ?Reset@?$RefHashTableOfEnumerator@VDatatypeValidator@xercesc_3_1@@UStringHasher@2@@xercesc_3_1@@UAEXXZ 10059ef1 f i xerces-c_3_1:XSModel.cpp.obj
 0001:00058ef1       ?Reset@?$RefHashTableOfEnumerator@VXMLRefInfo@xercesc_3_1@@UStringHasher@2@@xercesc_3_1@@UAEXXZ 10059ef1 f i xerces-c_3_1:XMLScanner.cpp.obj
 0001:00058ef1       ?Reset@?$RefHashTableOfEnumerator@VComplexTypeInfo@xercesc_3_1@@UStringHasher@2@@xercesc_3_1@@UAEXXZ 10059ef1 f i xerces-c_3_1:XSModel.cpp.obj
 0001:00058f00       ??_G?$RefHashTableOfEnumerator@VKVStringPair@xercesc_3_1@@UStringHasher@2@@xercesc_3_1@@UAEPAXI@Z 10059f00 f i xerces-c_3_1:DOMXPathNSResolverImpl.cpp.obj
 0001:00058f00       ??_E?$RefHashTableOfEnumerator@VKVStringPair@xercesc_3_1@@UStringHasher@2@@xercesc_3_1@@UAEPAXI@Z 10059f00 f i  CIL library: CIL module
 0001:00058f1f       ?initialize@?$RefHashTableOf@VXercesAttGroupInfo@xercesc_3_1@@UStringHasher@2@@xercesc_3_1@@AAEXK@Z 10059f1f f i xerces-c_3_1:XTemplateSerializer.cpp.obj
 0001:00058f1f       ?initialize@?$RefHashTableOf@VComplexTypeInfo@xercesc_3_1@@UStringHasher@2@@xercesc_3_1@@AAEXK@Z 10059f1f f i xerces-c_3_1:XTemplateSerializer.cpp.obj
 0001:00058f1f       ?initialize@?$RefHashTableOf@VXMLAttDef@xercesc_3_1@@UStringHasher@2@@xercesc_3_1@@AAEXK@Z 10059f1f f i xerces-c_3_1:XTemplateSerializer.cpp.obj
 0001:00058f1f       ?initialize@?$RefHashTableOf@VDatatypeValidator@xercesc_3_1@@UStringHasher@2@@xercesc_3_1@@AAEXK@Z 10059f1f f i xerces-c_3_1:DatatypeValidatorFactory.cpp.obj
 0001:00058f1f       ?initialize@?$RefHashTableOf@VKVStringPair@xercesc_3_1@@UStringHasher@2@@xercesc_3_1@@AAEXK@Z 10059f1f f i xerces-c_3_1:DOMXPathNSResolverImpl.cpp.obj
 0001:00058f1f       ?initialize@?$RefHashTableOf@VXercesGroupInfo@xercesc_3_1@@UStringHasher@2@@xercesc_3_1@@AAEXK@Z 10059f1f f i xerces-c_3_1:XTemplateSerializer.cpp.obj
 0001:00058f9d       ??_GDOMTreeWalker@xercesc_3_1@@UAEPAXI@Z 10059f9d f i xerces-c_3_1:DOMTreeWalkerImpl.cpp.obj
 0001:00058f9d       ??_EDOMTreeWalker@xercesc_3_1@@UAEPAXI@Z 10059f9d f i  CIL library: CIL module
 0001:00058f9d       ??_EDOMTreeWalkerImpl@xercesc_3_1@@UAEPAXI@Z 10059f9d f i  CIL library: CIL module
 0001:00058f9d       ??_GDOMTreeWalkerImpl@xercesc_3_1@@UAEPAXI@Z 10059f9d f i xerces-c_3_1:DOMTreeWalkerImpl.cpp.obj
 0001:00058fbd       ?getEncoding@DOMLSOutputImpl@xercesc_3_1@@UBEPB_WXZ 10059fbd f   xerces-c_3_1:DOMLSOutputImpl.cpp.obj
 0001:00058fbd       ?getIdRefList@ValidationContextImpl@xercesc_3_1@@UBEPAV?$RefHashTableOf@VXMLRefInfo@xercesc_3_1@@UStringHasher@2@@2@XZ 10059fbd f   xerces-c_3_1:ValidationContextImpl.cpp.obj
 0001:00058fbd       ?getFilter@DOMTreeWalkerImpl@xercesc_3_1@@UAEPAVDOMNodeFilter@2@XZ 10059fbd f   xerces-c_3_1:DOMTreeWalkerImpl.cpp.obj
 0001:00058fbd       ?getContextType@XMLSchemaDescriptionImpl@xercesc_3_1@@UBE?AW4ContextType@XMLSchemaDescription@2@XZ 10059fbd f   xerces-c_3_1:XMLSchemaDescriptionImpl.cpp.obj
 0001:00058fbd       ?getByteStream@DOMLSInputImpl@xercesc_3_1@@UBEPAVInputSource@2@XZ 10059fbd f   xerces-c_3_1:DOMLSInputImpl.cpp.obj
 0001:00058fbd       ?getSeverity@DOMErrorImpl@xercesc_3_1@@UBE?AW4ErrorSeverity@DOMError@2@XZ 10059fbd f   xerces-c_3_1:DOMErrorImpl.cpp.obj
 0001:00058fbd       ?getSystemId@XMLDTDDescriptionImpl@xercesc_3_1@@UBEPB_WXZ 10059fbd f   xerces-c_3_1:XMLDTDDescriptionImpl.cpp.obj
 0001:00058fc1       ?getExpandEntityReferences@DOMTreeWalkerImpl@xercesc_3_1@@UAE_NXZ 10059fc1 f   xerces-c_3_1:DOMTreeWalkerImpl.cpp.obj
 0001:00058fc1       ?getExpandEntityReferences@DOMNodeIteratorImpl@xercesc_3_1@@UAE_NXZ 10059fc1 f   xerces-c_3_1:DOMNodeIteratorImpl.cpp.obj
 0001:00058fc5       ?setCurrentNode@DOMTreeWalkerImpl@xercesc_3_1@@UAEXPAVDOMNode@2@@Z 10059fc5 f   xerces-c_3_1:DOMTreeWalkerImpl.cpp.obj
 0001:00059034       ?parentNode@DOMTreeWalkerImpl@xercesc_3_1@@UAEPAVDOMNode@2@XZ 1005a034 f   xerces-c_3_1:DOMTreeWalkerImpl.cpp.obj
 0001:00059052       ?firstChild@DOMTreeWalkerImpl@xercesc_3_1@@UAEPAVDOMNode@2@XZ 1005a052 f   xerces-c_3_1:DOMTreeWalkerImpl.cpp.obj
 0001:00059083       ?lastChild@DOMTreeWalkerImpl@xercesc_3_1@@UAEPAVDOMNode@2@XZ 1005a083 f   xerces-c_3_1:DOMTreeWalkerImpl.cpp.obj
 0001:000590b4       ?previousSibling@DOMTreeWalkerImpl@xercesc_3_1@@UAEPAVDOMNode@2@XZ 1005a0b4 f   xerces-c_3_1:DOMTreeWalkerImpl.cpp.obj
 0001:000590d1       ?nextSibling@DOMTreeWalkerImpl@xercesc_3_1@@UAEPAVDOMNode@2@XZ 1005a0d1 f   xerces-c_3_1:DOMTreeWalkerImpl.cpp.obj
 0001:000590ee       ?previousNode@DOMTreeWalkerImpl@xercesc_3_1@@UAEPAVDOMNode@2@XZ 1005a0ee f   xerces-c_3_1:DOMTreeWalkerImpl.cpp.obj
 0001:00059136       ?nextNode@DOMTreeWalkerImpl@xercesc_3_1@@UAEPAVDOMNode@2@XZ 1005a136 f   xerces-c_3_1:DOMTreeWalkerImpl.cpp.obj
 0001:00059188       ?getParentNode@DOMTreeWalkerImpl@xercesc_3_1@@IAEPAVDOMNode@2@PAV32@@Z 1005a188 f   xerces-c_3_1:DOMTreeWalkerImpl.cpp.obj
 0001:000591b8       ?getNextSibling@DOMTreeWalkerImpl@xercesc_3_1@@IAEPAVDOMNode@2@PAV32@@Z 1005a1b8 f   xerces-c_3_1:DOMTreeWalkerImpl.cpp.obj
 0001:00059238       ?getPreviousSibling@DOMTreeWalkerImpl@xercesc_3_1@@IAEPAVDOMNode@2@PAV32@@Z 1005a238 f   xerces-c_3_1:DOMTreeWalkerImpl.cpp.obj
 0001:000592b8       ?getFirstChild@DOMTreeWalkerImpl@xercesc_3_1@@IAEPAVDOMNode@2@PAV32@@Z 1005a2b8 f   xerces-c_3_1:DOMTreeWalkerImpl.cpp.obj
 0001:0005931a       ?getLastChild@DOMTreeWalkerImpl@xercesc_3_1@@IAEPAVDOMNode@2@PAV32@@Z 1005a31a f   xerces-c_3_1:DOMTreeWalkerImpl.cpp.obj
 0001:0005937c       ?acceptNode@DOMTreeWalkerImpl@xercesc_3_1@@IAEFPAVDOMNode@2@@Z 1005a37c f   xerces-c_3_1:DOMTreeWalkerImpl.cpp.obj
 0001:000593bf       ??1DOMException@xercesc_3_1@@UAE@XZ 1005a3bf f   xerces-c_3_1:DOMException.cpp.obj
 0001:000593dc       ??_GDOMException@xercesc_3_1@@UAEPAXI@Z 1005a3dc f i xerces-c_3_1:DOMException.cpp.obj
 0001:000593dc       ??_EDOMException@xercesc_3_1@@UAEPAXI@Z 1005a3dc f i  CIL library: CIL module
 0001:000593fb       ??0DOMException@xercesc_3_1@@QAE@FFQAVMemoryManager@1@@Z 1005a3fb f   xerces-c_3_1:DOMException.cpp.obj
 0001:00059477       ??0DOMException@xercesc_3_1@@QAE@ABV01@@Z 1005a477 f   xerces-c_3_1:DOMException.cpp.obj
 0001:000594c5       ??0DOMNormalizer@xercesc_3_1@@QAE@QAVMemoryManager@1@@Z 1005a4c5 f   xerces-c_3_1:DOMNormalizer.cpp.obj
 0001:00059547       ?normalizeNode@DOMNormalizer@xercesc_3_1@@IBEPAVDOMNode@2@PAV32@@Z 1005a547 f   xerces-c_3_1:DOMNormalizer.cpp.obj
 0001:000597b6       ?namespaceFixUp@DOMNormalizer@xercesc_3_1@@IBEXPAVDOMElementImpl@2@@Z 1005a7b6 f   xerces-c_3_1:DOMNormalizer.cpp.obj
 0001:00059a5d       ?integerToXMLCh@DOMNormalizer@xercesc_3_1@@IBEPB_WI@Z 1005aa5d f   xerces-c_3_1:DOMNormalizer.cpp.obj
 0001:00059b09       ?addOrChangeNamespaceDecl@DOMNormalizer@xercesc_3_1@@IBEXPB_W0PAVDOMElementImpl@2@@Z 1005ab09 f   xerces-c_3_1:DOMNormalizer.cpp.obj
 0001:00059bb4       ?addCustomNamespaceDecl@DOMNormalizer@xercesc_3_1@@IBEPB_WPB_WPAVDOMElementImpl@2@@Z 1005abb4 f   xerces-c_3_1:DOMNormalizer.cpp.obj
 0001:00059cd4       ?addOrChangeBinding@InScopeNamespaces@DOMNormalizer@xercesc_3_1@@QAEXPB_W0QAVMemoryManager@3@@Z 1005acd4 f   xerces-c_3_1:DOMNormalizer.cpp.obj
 0001:00059d1f       ?addScope@InScopeNamespaces@DOMNormalizer@xercesc_3_1@@QAEXQAVMemoryManager@3@@Z 1005ad1f f   xerces-c_3_1:DOMNormalizer.cpp.obj
 0001:00059d4d       ??_GScope@InScopeNamespaces@DOMNormalizer@xercesc_3_1@@QAEPAXI@Z 1005ad4d f i xerces-c_3_1:DOMNormalizer.cpp.obj
 0001:00059d71       ?isValidBinding@InScopeNamespaces@DOMNormalizer@xercesc_3_1@@QBE_NPB_W0@Z 1005ad71 f   xerces-c_3_1:DOMNormalizer.cpp.obj
 0001:00059db3       ?getUri@InScopeNamespaces@DOMNormalizer@xercesc_3_1@@QBEPB_WPB_W@Z 1005adb3 f   xerces-c_3_1:DOMNormalizer.cpp.obj
 0001:00059ddf       ??_G?$RefHashTableOf@_WUStringHasher@xercesc_3_1@@@xercesc_3_1@@QAEPAXI@Z 1005addf f i xerces-c_3_1:DOMNormalizer.cpp.obj
 0001:00059e47       ?addOrChangeBinding@Scope@InScopeNamespaces@DOMNormalizer@xercesc_3_1@@QAEXPB_W0QAVMemoryManager@4@@Z 1005ae47 f   xerces-c_3_1:DOMNormalizer.cpp.obj
 0001:00059fa6       ?getUri@Scope@InScopeNamespaces@DOMNormalizer@xercesc_3_1@@QBEPB_WPB_W@Z 1005afa6 f   xerces-c_3_1:DOMNormalizer.cpp.obj
 0001:00059fcb       ?getPrefix@Scope@InScopeNamespaces@DOMNormalizer@xercesc_3_1@@QBEPB_WPB_W@Z 1005afcb f   xerces-c_3_1:DOMNormalizer.cpp.obj
 0001:00059ff0       ?error@DOMNormalizer@xercesc_3_1@@IBEXW4Codes@XMLErrs@2@PBVDOMNode@2@@Z 1005aff0 f   xerces-c_3_1:DOMNormalizer.cpp.obj
 0001:0005a0d5       ??1?$XMLEnumerator@_W@xercesc_3_1@@UAE@XZ 1005b0d5 f i xerces-c_3_1:DOMNormalizer.cpp.obj
 0001:0005a0dc       ??_E?$XMLEnumerator@_W@xercesc_3_1@@UAEPAXI@Z 1005b0dc f i  CIL library: CIL module
 0001:0005a0dc       ??_G?$XMLEnumerator@_W@xercesc_3_1@@UAEPAXI@Z 1005b0dc f i xerces-c_3_1:DOMNormalizer.cpp.obj
 0001:0005a0fc       ??1?$BaseRefVectorOf@VScope@InScopeNamespaces@DOMNormalizer@xercesc_3_1@@@xercesc_3_1@@UAE@XZ 1005b0fc f i xerces-c_3_1:DOMNormalizer.cpp.obj
 0001:0005a103       ?setElementAt@?$BaseRefVectorOf@VScope@InScopeNamespaces@DOMNormalizer@xercesc_3_1@@@xercesc_3_1@@UAEXQAVScope@InScopeNamespaces@DOMNormalizer@2@K@Z 1005b103 f i xerces-c_3_1:DOMNormalizer.cpp.obj
 0001:0005a183       ?removeAllElements@?$BaseRefVectorOf@VScope@InScopeNamespaces@DOMNormalizer@xercesc_3_1@@@xercesc_3_1@@UAEXXZ 1005b183 f i xerces-c_3_1:DOMNormalizer.cpp.obj
 0001:0005a1b9       ?removeElementAt@?$BaseRefVectorOf@VScope@InScopeNamespaces@DOMNormalizer@xercesc_3_1@@@xercesc_3_1@@UAEXK@Z 1005b1b9 f i xerces-c_3_1:DOMNormalizer.cpp.obj
 0001:0005a268       ?removeLastElement@?$BaseRefVectorOf@VScope@InScopeNamespaces@DOMNormalizer@xercesc_3_1@@@xercesc_3_1@@UAEXXZ 1005b268 f i xerces-c_3_1:DOMNormalizer.cpp.obj
 0001:0005a28d       ?cleanup@?$BaseRefVectorOf@VScope@InScopeNamespaces@DOMNormalizer@xercesc_3_1@@@xercesc_3_1@@UAEXXZ 1005b28d f i xerces-c_3_1:DOMNormalizer.cpp.obj
 0001:0005a2c3       ??0?$RefVectorOf@VScope@InScopeNamespaces@DOMNormalizer@xercesc_3_1@@@xercesc_3_1@@QAE@K_NQAVMemoryManager@1@@Z 1005b2c3 f i xerces-c_3_1:DOMNormalizer.cpp.obj
 0001:0005a303       ??0?$RefHashTableOf@_WUStringHasher@xercesc_3_1@@@xercesc_3_1@@QAE@K_NQAVMemoryManager@1@@Z 1005b303 f i xerces-c_3_1:DOMNormalizer.cpp.obj
 0001:0005a303       ??0?$RefHashTableOf@UPoolElem@XMLStringPool@xercesc_3_1@@UStringHasher@3@@xercesc_3_1@@QAE@K_NQAVMemoryManager@1@@Z 1005b303 f i xerces-c_3_1:StringPool.cpp.obj
 0001:0005a391       ?removeKey@?$RefHashTableOf@_WUStringHasher@xercesc_3_1@@@xercesc_3_1@@QAEXQBX@Z 1005b391 f i xerces-c_3_1:DOMNormalizer.cpp.obj
 0001:0005a44c       ??0?$RefHashTableOfEnumerator@_WUStringHasher@xercesc_3_1@@@xercesc_3_1@@QAE@QAV?$RefHashTableOf@_WUStringHasher@xercesc_3_1@@@1@_NQAVMemoryManager@1@@Z 1005b44c f i xerces-c_3_1:DOMNormalizer.cpp.obj
 0001:0005a4ce       ??1?$RefHashTableOfEnumerator@_WUStringHasher@xercesc_3_1@@@xercesc_3_1@@UAE@XZ 1005b4ce f i xerces-c_3_1:DOMNormalizer.cpp.obj
 0001:0005a510       ?nextElement@?$RefHashTableOfEnumerator@_WUStringHasher@xercesc_3_1@@@xercesc_3_1@@UAEAA_WXZ 1005b510 f i xerces-c_3_1:DOMNormalizer.cpp.obj
 0001:0005a57e       ?nextElementKey@?$RefHashTableOfEnumerator@VGrammar@xercesc_3_1@@UStringHasher@2@@xercesc_3_1@@QAEPAXXZ 1005b57e f i xerces-c_3_1:GrammarResolver.cpp.obj
 0001:0005a57e       ?nextElementKey@?$RefHashTableOfEnumerator@_WUStringHasher@xercesc_3_1@@@xercesc_3_1@@QAEPAXXZ 1005b57e f i xerces-c_3_1:DOMNormalizer.cpp.obj
 0001:0005a5ed       ??_G?$BaseRefVectorOf@VScope@InScopeNamespaces@DOMNormalizer@xercesc_3_1@@@xercesc_3_1@@UAEPAXI@Z 1005b5ed f i xerces-c_3_1:DOMNormalizer.cpp.obj
 0001:0005a5ed       ??_E?$BaseRefVectorOf@VScope@InScopeNamespaces@DOMNormalizer@xercesc_3_1@@@xercesc_3_1@@UAEPAXI@Z 1005b5ed f i  CIL library: CIL module
 0001:0005a60d       ??_G?$RefVectorOf@VScope@InScopeNamespaces@DOMNormalizer@xercesc_3_1@@@xercesc_3_1@@UAEPAXI@Z 1005b60d f i xerces-c_3_1:DOMNormalizer.cpp.obj
 0001:0005a60d       ??_E?$RefVectorOf@VScope@InScopeNamespaces@DOMNormalizer@xercesc_3_1@@@xercesc_3_1@@UAEPAXI@Z 1005b60d f i  CIL library: CIL module
 0001:0005a67f       ??_G?$RefHashTableOfEnumerator@_WUStringHasher@xercesc_3_1@@@xercesc_3_1@@UAEPAXI@Z 1005b67f f i xerces-c_3_1:DOMNormalizer.cpp.obj
 0001:0005a67f       ??_E?$RefHashTableOfEnumerator@_WUStringHasher@xercesc_3_1@@@xercesc_3_1@@UAEPAXI@Z 1005b67f f i  CIL library: CIL module
 0001:0005a69e       ?rehash@?$RefHashTableOf@VCPMapEntry@xercesc_3_1@@UStringHasher@2@@xercesc_3_1@@AAEXXZ 1005b69e f i xerces-c_3_1:Win32TransService.cpp.obj
 0001:0005a69e       ?rehash@?$RefHashTableOf@VXMLElementDecl@xercesc_3_1@@UStringHasher@2@@xercesc_3_1@@AAEXXZ 1005b69e f i xerces-c_3_1:WFXMLScanner.cpp.obj
 0001:0005a69e       ?rehash@?$RefHashTableOf@_WUStringHasher@xercesc_3_1@@@xercesc_3_1@@AAEXXZ 1005b69e f i xerces-c_3_1:DOMNormalizer.cpp.obj
 0001:0005a69e       ?rehash@?$RefHashTableOf@VKVStringPair@xercesc_3_1@@UStringHasher@2@@xercesc_3_1@@AAEXXZ 1005b69e f i xerces-c_3_1:DOMXPathNSResolverImpl.cpp.obj
 0001:0005a69e       ?rehash@?$RefHashTableOf@VComplexTypeInfo@xercesc_3_1@@UStringHasher@2@@xercesc_3_1@@AAEXXZ 1005b69e f i xerces-c_3_1:XTemplateSerializer.cpp.obj
 0001:0005a69e       ?rehash@?$RefHashTableOf@V?$ValueVectorOf@PAVSchemaElementDecl@xercesc_3_1@@@xercesc_3_1@@UStringHasher@2@@xercesc_3_1@@AAEXXZ 1005b69e f i xerces-c_3_1:TraverseSchema.cpp.obj
 0001:0005a69e       ?rehash@?$RefHashTableOf@VDatatypeValidator@xercesc_3_1@@UStringHasher@2@@xercesc_3_1@@AAEXXZ 1005b69e f i xerces-c_3_1:DatatypeValidatorFactory.cpp.obj
 0001:0005a69e       ?rehash@?$RefHashTableOf@VENameMap@xercesc_3_1@@UStringHasher@2@@xercesc_3_1@@AAEXXZ 1005b69e f i xerces-c_3_1:TransService.cpp.obj
 0001:0005a69e       ?rehash@?$RefHashTableOf@VXercesGroupInfo@xercesc_3_1@@UStringHasher@2@@xercesc_3_1@@AAEXXZ 1005b69e f i xerces-c_3_1:XTemplateSerializer.cpp.obj
 0001:0005a69e       ?rehash@?$RefHashTableOf@VXMLRefInfo@xercesc_3_1@@UStringHasher@2@@xercesc_3_1@@AAEXXZ 1005b69e f i xerces-c_3_1:ValidationContextImpl.cpp.obj
 0001:0005a69e       ?rehash@?$RefHashTableOf@VDTDAttDef@xercesc_3_1@@UStringHasher@2@@xercesc_3_1@@AAEXXZ 1005b69e f i xerces-c_3_1:XTemplateSerializer.cpp.obj
 0001:0005a69e       ?rehash@?$RefHashTableOf@VDTDElementDecl@xercesc_3_1@@UStringHasher@2@@xercesc_3_1@@AAEXXZ 1005b69e f i xerces-c_3_1:DTDGrammar.cpp.obj
 0001:0005a69e       ?rehash@?$RefHashTableOf@UPoolElem@XMLStringPool@xercesc_3_1@@UStringHasher@3@@xercesc_3_1@@AAEXXZ 1005b69e f i xerces-c_3_1:StringPool.cpp.obj
 0001:0005a69e       ?rehash@?$RefHashTableOf@VDTDEntityDecl@xercesc_3_1@@UStringHasher@2@@xercesc_3_1@@AAEXXZ 1005b69e f i xerces-c_3_1:DTDGrammar.cpp.obj
 0001:0005a69e       ?rehash@?$RefHashTableOf@VXMLAttDef@xercesc_3_1@@UStringHasher@2@@xercesc_3_1@@AAEXXZ 1005b69e f i xerces-c_3_1:XTemplateSerializer.cpp.obj
 0001:0005a69e       ?rehash@?$RefHashTableOf@VGrammar@xercesc_3_1@@UStringHasher@2@@xercesc_3_1@@AAEXXZ 1005b69e f i xerces-c_3_1:GrammarResolver.cpp.obj
 0001:0005a69e       ?rehash@?$RefHashTableOf@VXercesAttGroupInfo@xercesc_3_1@@UStringHasher@2@@xercesc_3_1@@AAEXXZ 1005b69e f i xerces-c_3_1:XTemplateSerializer.cpp.obj
 0001:0005a69e       ?rehash@?$RefHashTableOf@VXSNamespaceItem@xercesc_3_1@@UStringHasher@2@@xercesc_3_1@@AAEXXZ 1005b69e f i xerces-c_3_1:XSModel.cpp.obj
 0001:0005a69e       ?rehash@?$RefHashTableOf@VRangeFactory@xercesc_3_1@@UStringHasher@2@@xercesc_3_1@@AAEXXZ 1005b69e f i xerces-c_3_1:RangeTokenMap.cpp.obj
 0001:0005a69e       ?rehash@?$RefHashTableOf@VDOMElement@xercesc_3_1@@UStringHasher@2@@xercesc_3_1@@AAEXXZ 1005b69e f i xerces-c_3_1:SchemaInfo.cpp.obj
 0001:0005a69e       ?rehash@?$RefHashTableOf@VRangeTokenElemMap@xercesc_3_1@@UStringHasher@2@@xercesc_3_1@@AAEXXZ 1005b69e f i xerces-c_3_1:RangeTokenMap.cpp.obj
 0001:0005a69e       ?rehash@?$RefHashTableOf@VXMLNotationDecl@xercesc_3_1@@UStringHasher@2@@xercesc_3_1@@AAEXXZ 1005b69e f i xerces-c_3_1:DTDGrammar.cpp.obj
 0001:0005a749       ??0DOMProcessingInstructionImpl@xercesc_3_1@@QAE@PAVDOMDocument@1@PB_W1@Z 1005b749 f   xerces-c_3_1:DOMProcessingInstructionImpl.cpp.obj
 0001:0005a7c0       ?cloneNode@DOMProcessingInstructionImpl@xercesc_3_1@@UBEPAVDOMNode@2@_N@Z 1005b7c0 f   xerces-c_3_1:DOMProcessingInstructionImpl.cpp.obj
 0001:0005a85a       ?getNodeType@DOMProcessingInstructionImpl@xercesc_3_1@@UBE?AW4NodeType@DOMNode@2@XZ 1005b85a f   xerces-c_3_1:DOMProcessingInstructionImpl.cpp.obj
 0001:0005a85e       ?release@DOMProcessingInstructionImpl@xercesc_3_1@@UAEXXZ 1005b85e f   xerces-c_3_1:DOMProcessingInstructionImpl.cpp.obj
 0001:0005a90a       ?setBaseURI@DOMProcessingInstructionImpl@xercesc_3_1@@UAEXPB_W@Z 1005b90a f   xerces-c_3_1:DOMProcessingInstructionImpl.cpp.obj
 0001:0005a930       ?getBaseURI@DOMProcessingInstructionImpl@xercesc_3_1@@UBEPB_WXZ 1005b930 f   xerces-c_3_1:DOMProcessingInstructionImpl.cpp.obj
 0001:0005a940       ?splitText@DOMProcessingInstructionImpl@xercesc_3_1@@QAEPAVDOMProcessingInstruction@2@K@Z 1005b940 f   xerces-c_3_1:DOMProcessingInstructionImpl.cpp.obj
 0001:0005aacd       ?getUserData@DOMElementImpl@xercesc_3_1@@UBEPAXPB_W@Z 1005bacd f   xerces-c_3_1:DOMElementImpl.cpp.obj
 0001:0005aacd       ?getUserData@DOMEntityImpl@xercesc_3_1@@UBEPAXPB_W@Z 1005bacd f   xerces-c_3_1:DOMEntityImpl.cpp.obj
 0001:0005aacd       ?getUserData@DOMDocumentImpl@xercesc_3_1@@UBEPAXPB_W@Z 1005bacd f   xerces-c_3_1:DOMDocumentImpl.cpp.obj
 0001:0005aacd       ?getUserData@DOMCDATASectionImpl@xercesc_3_1@@UBEPAXPB_W@Z 1005bacd f   xerces-c_3_1:DOMCDATASectionImpl.cpp.obj
 0001:0005aacd       ?getUserData@DOMNotationImpl@xercesc_3_1@@UBEPAXPB_W@Z 1005bacd f   xerces-c_3_1:DOMNotationImpl.cpp.obj
 0001:0005aacd       ?getUserData@DOMTextImpl@xercesc_3_1@@UBEPAXPB_W@Z 1005bacd f   xerces-c_3_1:DOMTextImpl.cpp.obj
 0001:0005aacd       ?getUserData@DOMAttrImpl@xercesc_3_1@@UBEPAXPB_W@Z 1005bacd f   xerces-c_3_1:DOMAttrImpl.cpp.obj
 0001:0005aacd       ?getUserData@DOMDocumentTypeImpl@xercesc_3_1@@UBEPAXPB_W@Z 1005bacd f   xerces-c_3_1:DOMDocumentTypeImpl.cpp.obj
 0001:0005aacd       ?getUserData@DOMDocumentFragmentImpl@xercesc_3_1@@UBEPAXPB_W@Z 1005bacd f   xerces-c_3_1:DOMDocumentFragmentImpl.cpp.obj
 0001:0005aacd       ?getUserData@DOMProcessingInstructionImpl@xercesc_3_1@@UBEPAXPB_W@Z 1005bacd f   xerces-c_3_1:DOMProcessingInstructionImpl.cpp.obj
 0001:0005aacd       ?getUserData@DOMEntityReferenceImpl@xercesc_3_1@@UBEPAXPB_W@Z 1005bacd f   xerces-c_3_1:DOMEntityReferenceImpl.cpp.obj
 0001:0005aacd       ?getUserData@DOMCommentImpl@xercesc_3_1@@UBEPAXPB_W@Z 1005bacd f   xerces-c_3_1:DOMCommentImpl.cpp.obj
 0001:0005aad9       ?addOrFind@XMLStringPool@xercesc_3_1@@UAEIQB_W@Z 1005bad9 f i xerces-c_3_1:StringPool.cpp.obj
 0001:0005ab0f       ?getId@XMLStringPool@xercesc_3_1@@UBEIQB_W@Z 1005bb0f f i xerces-c_3_1:StringPool.cpp.obj
 0001:0005ab39       ?exists@XMLStringPool@xercesc_3_1@@UBE_NQB_W@Z 1005bb39 f i xerces-c_3_1:StringPool.cpp.obj
 0001:0005ab76       ?exists@XMLStringPool@xercesc_3_1@@UBE_NI@Z 1005bb76 f i xerces-c_3_1:StringPool.cpp.obj
 0001:0005ab90       ?getValueForId@XMLStringPool@xercesc_3_1@@UBEPB_WI@Z 1005bb90 f i xerces-c_3_1:StringPool.cpp.obj
 0001:0005abfb       ?getStringCount@XMLStringPool@xercesc_3_1@@UBEIXZ 1005bbfb f i xerces-c_3_1:StringPool.cpp.obj
 0001:0005ac00       ??0XMLStringPool@xercesc_3_1@@QAE@IQAVMemoryManager@1@@Z 1005bc00 f   xerces-c_3_1:StringPool.cpp.obj
 0001:0005ac95       ??_GXMLStringPool@xercesc_3_1@@UAEPAXI@Z 1005bc95 f i xerces-c_3_1:StringPool.cpp.obj
 0001:0005ac95       ??_EXMLStringPool@xercesc_3_1@@UAEPAXI@Z 1005bc95 f i  CIL library: CIL module
 0001:0005acb4       ??1XMLStringPool@xercesc_3_1@@UAE@XZ 1005bcb4 f   xerces-c_3_1:StringPool.cpp.obj
 0001:0005ad3d       ?flushAll@XMLStringPool@xercesc_3_1@@UAEXXZ 1005bd3d f   xerces-c_3_1:StringPool.cpp.obj
 0001:0005ad80       ?addNewEntry@XMLStringPool@xercesc_3_1@@AAEIQB_W@Z 1005bd80 f   xerces-c_3_1:StringPool.cpp.obj
 0001:0005ae33       ?createObject@XMLStringPool@xercesc_3_1@@SAPAVXSerializable@2@PAVMemoryManager@2@@Z 1005be33 f   xerces-c_3_1:StringPool.cpp.obj
 0001:0005ae71       ?getProtoType@XMLStringPool@xercesc_3_1@@UBEPAVXProtoType@2@XZ 1005be71 f   xerces-c_3_1:StringPool.cpp.obj
 0001:0005ae77       ?serialize@XMLStringPool@xercesc_3_1@@UAEXAAVXSerializeEngine@2@@Z 1005be77 f   xerces-c_3_1:StringPool.cpp.obj
 0001:0005af00       ??0XMLStringPool@xercesc_3_1@@QAE@QAVMemoryManager@1@@Z 1005bf00 f   xerces-c_3_1:StringPool.cpp.obj
 0001:0005af94       ?removeAll@?$RefHashTableOf@UPoolElem@XMLStringPool@xercesc_3_1@@UStringHasher@3@@xercesc_3_1@@QAEXXZ 1005bf94 f i xerces-c_3_1:StringPool.cpp.obj
 0001:0005af94       ?removeAll@?$RefHashTableOf@IUPtrHasher@xercesc_3_1@@@xercesc_3_1@@QAEXXZ 1005bf94 f i xerces-c_3_1:DGXMLScanner.cpp.obj
 0001:0005afe6       ?put@?$RefHashTableOf@_WUStringHasher@xercesc_3_1@@@xercesc_3_1@@QAEXPAXQA_W@Z 1005bfe6 f i xerces-c_3_1:DOMNormalizer.cpp.obj
 0001:0005afe6       ?put@?$RefHashTableOf@UPoolElem@XMLStringPool@xercesc_3_1@@UStringHasher@3@@xercesc_3_1@@QAEXPAXQAUPoolElem@XMLStringPool@2@@Z 1005bfe6 f i xerces-c_3_1:StringPool.cpp.obj
 0001:0005b061       ?cloneNode@XSDElementNSImpl@xercesc_3_1@@UBEPAVDOMNode@2@_N@Z 1005c061 f   xerces-c_3_1:XSDElementNSImpl.cpp.obj
 0001:0005b0d1       ??1DOMConfiguration@xercesc_3_1@@UAE@XZ 1005c0d1 f i xerces-c_3_1:DOMConfigurationImpl.cpp.obj
 0001:0005b0d8       ??_GDOMConfiguration@xercesc_3_1@@UAEPAXI@Z 1005c0d8 f i xerces-c_3_1:DOMConfigurationImpl.cpp.obj
 0001:0005b0d8       ??_EDOMConfiguration@xercesc_3_1@@UAEPAXI@Z 1005c0d8 f i  CIL library: CIL module
 0001:0005b0f8       ??0DOMConfigurationImpl@xercesc_3_1@@QAE@QAVMemoryManager@1@@Z 1005c0f8 f   xerces-c_3_1:DOMConfigurationImpl.cpp.obj
 0001:0005b27a       ??_GDOMConfigurationImpl@xercesc_3_1@@UAEPAXI@Z 1005c27a f i xerces-c_3_1:DOMConfigurationImpl.cpp.obj
 0001:0005b27a       ??_EDOMConfigurationImpl@xercesc_3_1@@UAEPAXI@Z 1005c27a f i  CIL library: CIL module
 0001:0005b2ca       ?setParameter@DOMConfigurationImpl@xercesc_3_1@@UAEXPB_WPBX@Z 1005c2ca f   xerces-c_3_1:DOMConfigurationImpl.cpp.obj
 0001:0005b350       ?setParameter@DOMConfigurationImpl@xercesc_3_1@@UAEXPB_W_N@Z 1005c350 f   xerces-c_3_1:DOMConfigurationImpl.cpp.obj
 0001:0005b4df       ?getParameter@DOMConfigurationImpl@xercesc_3_1@@UBEPBXPB_W@Z 1005c4df f   xerces-c_3_1:DOMConfigurationImpl.cpp.obj
 0001:0005b6ef       ?canSetParameter@DOMConfigurationImpl@xercesc_3_1@@UBE_NPB_WPBX@Z 1005c6ef f   xerces-c_3_1:DOMConfigurationImpl.cpp.obj
 0001:0005b71a       ?canSetParameter@DOMConfigurationImpl@xercesc_3_1@@UBE_NPB_W_N@Z 1005c71a f   xerces-c_3_1:DOMConfigurationImpl.cpp.obj
 0001:0005b8a0       ?getGrammar@DTDValidator@xercesc_3_1@@UBEPAVGrammar@2@XZ 1005c8a0 f   xerces-c_3_1:DTDValidator.cpp.obj
 0001:0005b8a0       ?getType@DOMErrorImpl@xercesc_3_1@@UBEPB_WXZ 1005c8a0 f   xerces-c_3_1:DOMErrorImpl.cpp.obj
 0001:0005b8a0       ?getValidatingMemberType@ValidationContextImpl@xercesc_3_1@@UBEPAVDatatypeValidator@2@XZ 1005c8a0 f   xerces-c_3_1:ValidationContextImpl.cpp.obj
 0001:0005b8a0       ?getFilter@DOMLSSerializerImpl@xercesc_3_1@@UBEPAVDOMLSSerializerFilter@2@XZ 1005c8a0 f   xerces-c_3_1:DOMLSSerializerImpl.cpp.obj
 0001:0005b8a0       ?getFormattedString@XMLBigDecimal@xercesc_3_1@@UBEPB_WXZ 1005c8a0 f   xerces-c_3_1:XMLBigDecimal.cpp.obj
 0001:0005b8a0       ?getTriggeringComponent@XMLSchemaDescriptionImpl@xercesc_3_1@@UBEPBVQName@2@XZ 1005c8a0 f   xerces-c_3_1:XMLSchemaDescriptionImpl.cpp.obj
 0001:0005b8a0       ?getSystemId@DOMNotationImpl@xercesc_3_1@@UBEPB_WXZ 1005c8a0 f   xerces-c_3_1:DOMNotationImpl.cpp.obj
 0001:0005b8a0       ?getFirstChild@DOMDocumentTypeImpl@xercesc_3_1@@UBEPAVDOMNode@2@XZ 1005c8a0 f   xerces-c_3_1:DOMDocumentTypeImpl.cpp.obj
 0001:0005b8a0       ?getFirstChild@DOMEntityReferenceImpl@xercesc_3_1@@UBEPAVDOMNode@2@XZ 1005c8a0 f   xerces-c_3_1:DOMEntityReferenceImpl.cpp.obj
 0001:0005b8a0       ?getFirstChild@DOMAttrImpl@xercesc_3_1@@UBEPAVDOMNode@2@XZ 1005c8a0 f   xerces-c_3_1:DOMAttrImpl.cpp.obj
 0001:0005b8a0       ?getSystemId@DOMLSInputImpl@xercesc_3_1@@UBEPB_WXZ 1005c8a0 f   xerces-c_3_1:DOMLSInputImpl.cpp.obj
 0001:0005b8a0       ?getFirstChild@DOMDocumentFragmentImpl@xercesc_3_1@@UBEPAVDOMNode@2@XZ 1005c8a0 f   xerces-c_3_1:DOMDocumentFragmentImpl.cpp.obj
 0001:0005b8a0       ?getFilter@DOMLSParserImpl@xercesc_3_1@@UBEPBVDOMLSParserFilter@2@XZ 1005c8a0 f   xerces-c_3_1:DOMLSParserImpl.cpp.obj
 0001:0005b8a0       ?getRawData@XMLBigDecimal@xercesc_3_1@@UBEPA_WXZ 1005c8a0 f   xerces-c_3_1:XMLBigDecimal.cpp.obj
 0001:0005b8a0       ?getData@ModifierOp@xercesc_3_1@@UBEHXZ 1005c8a0 f   xerces-c_3_1:Op.cpp.obj
 0001:0005b8a0       ?getFirstChild@DOMDocumentImpl@xercesc_3_1@@UBEPAVDOMNode@2@XZ 1005c8a0 f   xerces-c_3_1:DOMDocumentImpl.cpp.obj
 0001:0005b8a0       ?getFirstChild@DOMElementImpl@xercesc_3_1@@UBEPAVDOMNode@2@XZ 1005c8a0 f   xerces-c_3_1:DOMElementImpl.cpp.obj
 0001:0005b8a0       ?getParameterNames@DOMConfigurationImpl@xercesc_3_1@@UBEPBVDOMStringList@2@XZ 1005c8a0 f   xerces-c_3_1:DOMConfigurationImpl.cpp.obj
 0001:0005b8a4       ??1DOMNodeList@xercesc_3_1@@UAE@XZ 1005c8a4 f i xerces-c_3_1:DOMDeepNodeListImpl.cpp.obj
 0001:0005b8ab       ??_EDOMNodeList@xercesc_3_1@@UAEPAXI@Z 1005c8ab f i  CIL library: CIL module
 0001:0005b8ab       ??_GDOMNodeListImpl@xercesc_3_1@@UAEPAXI@Z 1005c8ab f i xerces-c_3_1:DOMNodeListImpl.cpp.obj
 0001:0005b8ab       ??_GDOMDeepNodeListImpl@xercesc_3_1@@UAEPAXI@Z 1005c8ab f i xerces-c_3_1:DOMDeepNodeListImpl.cpp.obj
 0001:0005b8ab       ??_EDOMDeepNodeListImpl@xercesc_3_1@@UAEPAXI@Z 1005c8ab f i  CIL library: CIL module
 0001:0005b8ab       ??_GDOMNodeList@xercesc_3_1@@UAEPAXI@Z 1005c8ab f i xerces-c_3_1:DOMDeepNodeListImpl.cpp.obj
 0001:0005b8ab       ??_EDOMNodeListImpl@xercesc_3_1@@UAEPAXI@Z 1005c8ab f i  CIL library: CIL module
 0001:0005b8cb       ??0DOMDeepNodeListImpl@xercesc_3_1@@QAE@PBVDOMNode@1@PB_W@Z 1005c8cb f   xerces-c_3_1:DOMDeepNodeListImpl.cpp.obj
 0001:0005b937       ??0DOMDeepNodeListImpl@xercesc_3_1@@QAE@PBVDOMNode@1@PB_W1@Z 1005c937 f   xerces-c_3_1:DOMDeepNodeListImpl.cpp.obj
 0001:0005b9bf       ?getLength@DOMDeepNodeListImpl@xercesc_3_1@@UBEKXZ 1005c9bf f   xerces-c_3_1:DOMDeepNodeListImpl.cpp.obj
 0001:0005b9da       ?item@DOMDeepNodeListImpl@xercesc_3_1@@UBEPAVDOMNode@2@K@Z 1005c9da f   xerces-c_3_1:DOMDeepNodeListImpl.cpp.obj
 0001:0005b9e5       ?cacheItem@DOMDeepNodeListImpl@xercesc_3_1@@QAEPAVDOMNode@2@K@Z 1005c9e5 f   xerces-c_3_1:DOMDeepNodeListImpl.cpp.obj
 0001:0005ba75       ?nextMatchingElementAfter@DOMDeepNodeListImpl@xercesc_3_1@@IAEPAVDOMNode@2@PAV32@@Z 1005ca75 f   xerces-c_3_1:DOMDeepNodeListImpl.cpp.obj
 0001:0005bb3e       ?getLength@DOMNodeListImpl@xercesc_3_1@@UBEKXZ 1005cb3e f   xerces-c_3_1:DOMNodeListImpl.cpp.obj
 0001:0005bb6a       ?item@DOMNodeListImpl@xercesc_3_1@@UBEPAVDOMNode@2@K@Z 1005cb6a f   xerces-c_3_1:DOMNodeListImpl.cpp.obj
 0001:0005bba8       ??_EDOMNodeIterator@xercesc_3_1@@UAEPAXI@Z 1005cba8 f i  CIL library: CIL module
 0001:0005bba8       ??_GDOMNodeIterator@xercesc_3_1@@UAEPAXI@Z 1005cba8 f i xerces-c_3_1:DOMNodeIteratorImpl.cpp.obj
 0001:0005bbc8       ??_EDOMNodeIteratorImpl@xercesc_3_1@@UAEPAXI@Z 1005cbc8 f i  CIL library: CIL module
 0001:0005bbc8       ??_GDOMNodeIteratorImpl@xercesc_3_1@@UAEPAXI@Z 1005cbc8 f i xerces-c_3_1:DOMNodeIteratorImpl.cpp.obj
 0001:0005bbec       ?detach@DOMNodeIteratorImpl@xercesc_3_1@@UAEXXZ 1005cbec f   xerces-c_3_1:DOMNodeIteratorImpl.cpp.obj
 0001:0005bc07       ?nextNode@DOMNodeIteratorImpl@xercesc_3_1@@UAEPAVDOMNode@2@XZ 1005cc07 f   xerces-c_3_1:DOMNodeIteratorImpl.cpp.obj
 0001:0005bc8f       ?previousNode@DOMNodeIteratorImpl@xercesc_3_1@@UAEPAVDOMNode@2@XZ 1005cc8f f   xerces-c_3_1:DOMNodeIteratorImpl.cpp.obj
 0001:0005bd13       ?acceptNode@DOMNodeIteratorImpl@xercesc_3_1@@IAE_NPAVDOMNode@2@@Z 1005cd13 f   xerces-c_3_1:DOMNodeIteratorImpl.cpp.obj
 0001:0005bd94       ?nextNode@DOMNodeIteratorImpl@xercesc_3_1@@IAEPAVDOMNode@2@PAV32@_N@Z 1005cd94 f   xerces-c_3_1:DOMNodeIteratorImpl.cpp.obj
 0001:0005be2f       ?previousNode@DOMNodeIteratorImpl@xercesc_3_1@@IAEPAVDOMNode@2@PAV32@@Z 1005ce2f f   xerces-c_3_1:DOMNodeIteratorImpl.cpp.obj
 0001:0005becd       ?removeNode@DOMNodeIteratorImpl@xercesc_3_1@@QAEXPAVDOMNode@2@@Z 1005cecd f   xerces-c_3_1:DOMNodeIteratorImpl.cpp.obj
 0001:0005bf65       ?release@DOMNodeIteratorImpl@xercesc_3_1@@UAEXXZ 1005cf65 f   xerces-c_3_1:DOMNodeIteratorImpl.cpp.obj
 0001:0005bf65       ?getGrammarKey@XMLSchemaDescriptionImpl@xercesc_3_1@@UBEPB_WXZ 1005cf65 f   xerces-c_3_1:XMLSchemaDescriptionImpl.cpp.obj
 0001:0005bf65       ?getGrammarKey@XMLDTDDescriptionImpl@xercesc_3_1@@UBEPB_WXZ 1005cf65 f   xerces-c_3_1:XMLDTDDescriptionImpl.cpp.obj
 0001:0005bf6a       ??0DOMDocumentFragmentImpl@xercesc_3_1@@IAE@ABV01@_N@Z 1005cf6a f   xerces-c_3_1:DOMDocumentFragmentImpl.cpp.obj
 0001:0005bfd4       ?cloneNode@DOMDocumentFragmentImpl@xercesc_3_1@@UBEPAVDOMNode@2@_N@Z 1005cfd4 f   xerces-c_3_1:DOMDocumentFragmentImpl.cpp.obj
 0001:0005c030       ?getNodeName@DOMDocumentFragmentImpl@xercesc_3_1@@UBEPB_WXZ 1005d030 f   xerces-c_3_1:DOMDocumentFragmentImpl.cpp.obj
 0001:0005c036       ?getNodeType@DOMDocumentFragmentImpl@xercesc_3_1@@UBE?AW4NodeType@DOMNode@2@XZ 1005d036 f   xerces-c_3_1:DOMDocumentFragmentImpl.cpp.obj
 0001:0005c03a       ?release@DOMDocumentFragmentImpl@xercesc_3_1@@UAEXXZ 1005d03a f   xerces-c_3_1:DOMDocumentFragmentImpl.cpp.obj
 0001:0005c0e5       ?appendChild@DOMElementImpl@xercesc_3_1@@UAEPAVDOMNode@2@PAV32@@Z 1005d0e5 f   xerces-c_3_1:DOMElementImpl.cpp.obj
 0001:0005c0e5       ?appendChild@DOMDocumentTypeImpl@xercesc_3_1@@UAEPAVDOMNode@2@PAV32@@Z 1005d0e5 f   xerces-c_3_1:DOMDocumentTypeImpl.cpp.obj
 0001:0005c0e5       ?appendChild@DOMEntityReferenceImpl@xercesc_3_1@@UAEPAVDOMNode@2@PAV32@@Z 1005d0e5 f   xerces-c_3_1:DOMEntityReferenceImpl.cpp.obj
 0001:0005c0e5       ?appendChild@DOMAttrImpl@xercesc_3_1@@UAEPAVDOMNode@2@PAV32@@Z 1005d0e5 f   xerces-c_3_1:DOMAttrImpl.cpp.obj
 0001:0005c0e5       ?appendChild@DOMDocumentFragmentImpl@xercesc_3_1@@UAEPAVDOMNode@2@PAV32@@Z 1005d0e5 f   xerces-c_3_1:DOMDocumentFragmentImpl.cpp.obj
 0001:0005c0f9       ?getChildNodes@DOMDocumentFragmentImpl@xercesc_3_1@@UBEPAVDOMNodeList@2@XZ 1005d0f9 f   xerces-c_3_1:DOMDocumentFragmentImpl.cpp.obj
 0001:0005c0f9       ?getChildNodes@DOMElementImpl@xercesc_3_1@@UBEPAVDOMNodeList@2@XZ 1005d0f9 f   xerces-c_3_1:DOMElementImpl.cpp.obj
 0001:0005c0f9       ?getChildNodes@DOMEntityReferenceImpl@xercesc_3_1@@UBEPAVDOMNodeList@2@XZ 1005d0f9 f   xerces-c_3_1:DOMEntityReferenceImpl.cpp.obj
 0001:0005c0f9       ?getChildNodes@DOMDocumentImpl@xercesc_3_1@@UBEPAVDOMNodeList@2@XZ 1005d0f9 f   xerces-c_3_1:DOMDocumentImpl.cpp.obj
 0001:0005c0f9       ?getChildNodes@DOMDocumentTypeImpl@xercesc_3_1@@UBEPAVDOMNodeList@2@XZ 1005d0f9 f   xerces-c_3_1:DOMDocumentTypeImpl.cpp.obj
 0001:0005c0f9       ?getChildNodes@DOMAttrImpl@xercesc_3_1@@UBEPAVDOMNodeList@2@XZ 1005d0f9 f   xerces-c_3_1:DOMAttrImpl.cpp.obj
 0001:0005c0fd       ?insertBefore@DOMElementImpl@xercesc_3_1@@UAEPAVDOMNode@2@PAV32@0@Z 1005d0fd f   xerces-c_3_1:DOMElementImpl.cpp.obj
 0001:0005c0fd       ?insertBefore@DOMDocumentFragmentImpl@xercesc_3_1@@UAEPAVDOMNode@2@PAV32@0@Z 1005d0fd f   xerces-c_3_1:DOMDocumentFragmentImpl.cpp.obj
 0001:0005c0fd       ?insertBefore@DOMAttrImpl@xercesc_3_1@@UAEPAVDOMNode@2@PAV32@0@Z 1005d0fd f   xerces-c_3_1:DOMAttrImpl.cpp.obj
 0001:0005c0fd       ?insertBefore@DOMDocumentTypeImpl@xercesc_3_1@@UAEPAVDOMNode@2@PAV32@0@Z 1005d0fd f   xerces-c_3_1:DOMDocumentTypeImpl.cpp.obj
 0001:0005c0fd       ?insertBefore@DOMEntityReferenceImpl@xercesc_3_1@@UAEPAVDOMNode@2@PAV32@0@Z 1005d0fd f   xerces-c_3_1:DOMEntityReferenceImpl.cpp.obj
 0001:0005c109       ?isSameNode@DOMAttrImpl@xercesc_3_1@@UBE_NPBVDOMNode@2@@Z 1005d109 f   xerces-c_3_1:DOMAttrImpl.cpp.obj
 0001:0005c109       ?isSameNode@DOMEntityImpl@xercesc_3_1@@UBE_NPBVDOMNode@2@@Z 1005d109 f   xerces-c_3_1:DOMEntityImpl.cpp.obj
 0001:0005c109       ?isSameNode@DOMTextImpl@xercesc_3_1@@UBE_NPBVDOMNode@2@@Z 1005d109 f   xerces-c_3_1:DOMTextImpl.cpp.obj
 0001:0005c109       ?isSameNode@DOMElementImpl@xercesc_3_1@@UBE_NPBVDOMNode@2@@Z 1005d109 f   xerces-c_3_1:DOMElementImpl.cpp.obj
 0001:0005c109       ?isSameNode@DOMCDATASectionImpl@xercesc_3_1@@UBE_NPBVDOMNode@2@@Z 1005d109 f   xerces-c_3_1:DOMCDATASectionImpl.cpp.obj
 0001:0005c109       ?isSameNode@DOMDocumentTypeImpl@xercesc_3_1@@UBE_NPBVDOMNode@2@@Z 1005d109 f   xerces-c_3_1:DOMDocumentTypeImpl.cpp.obj
 0001:0005c109       ?isSameNode@DOMEntityReferenceImpl@xercesc_3_1@@UBE_NPBVDOMNode@2@@Z 1005d109 f   xerces-c_3_1:DOMEntityReferenceImpl.cpp.obj
 0001:0005c109       ?isSameNode@DOMDocumentFragmentImpl@xercesc_3_1@@UBE_NPBVDOMNode@2@@Z 1005d109 f   xerces-c_3_1:DOMDocumentFragmentImpl.cpp.obj
 0001:0005c109       ?isSameNode@DOMProcessingInstructionImpl@xercesc_3_1@@UBE_NPBVDOMNode@2@@Z 1005d109 f   xerces-c_3_1:DOMProcessingInstructionImpl.cpp.obj
 0001:0005c109       ?isSameNode@DOMDocumentImpl@xercesc_3_1@@UBE_NPBVDOMNode@2@@Z 1005d109 f   xerces-c_3_1:DOMDocumentImpl.cpp.obj
 0001:0005c109       ?isSameNode@DOMCommentImpl@xercesc_3_1@@UBE_NPBVDOMNode@2@@Z 1005d109 f   xerces-c_3_1:DOMCommentImpl.cpp.obj
 0001:0005c109       ?isSameNode@DOMNotationImpl@xercesc_3_1@@UBE_NPBVDOMNode@2@@Z 1005d109 f   xerces-c_3_1:DOMNotationImpl.cpp.obj
 0001:0005c118       ??1DOMDocumentType@xercesc_3_1@@UAE@XZ 1005d118 f i xerces-c_3_1:DOMDocumentTypeImpl.cpp.obj
 0001:0005c118       ??1DOMNotation@xercesc_3_1@@UAE@XZ 1005d118 f i xerces-c_3_1:DOMNotationImpl.cpp.obj
 0001:0005c118       ??1DOMComment@xercesc_3_1@@UAE@XZ 1005d118 f i xerces-c_3_1:DOMCommentImpl.cpp.obj
 0001:0005c118       ??1DOMProcessingInstruction@xercesc_3_1@@UAE@XZ 1005d118 f i xerces-c_3_1:DOMProcessingInstructionImpl.cpp.obj
 0001:0005c118       ??1DOMText@xercesc_3_1@@UAE@XZ 1005d118 f i xerces-c_3_1:DOMTextImpl.cpp.obj
 0001:0005c118       ??1DOMElement@xercesc_3_1@@UAE@XZ 1005d118 f i xerces-c_3_1:DOMElementImpl.cpp.obj
 0001:0005c118       ??1DOMEntityReference@xercesc_3_1@@UAE@XZ 1005d118 f i xerces-c_3_1:DOMEntityReferenceImpl.cpp.obj
 0001:0005c118       ??1DOMEntity@xercesc_3_1@@UAE@XZ 1005d118 f i xerces-c_3_1:DOMEntityImpl.cpp.obj
 0001:0005c118       ??1DOMCDATASection@xercesc_3_1@@UAE@XZ 1005d118 f i xerces-c_3_1:DOMCDATASectionImpl.cpp.obj
 0001:0005c118       ??1DOMAttr@xercesc_3_1@@UAE@XZ 1005d118 f i xerces-c_3_1:DOMAttrImpl.cpp.obj
 0001:0005c118       ??1DOMDocumentFragment@xercesc_3_1@@UAE@XZ 1005d118 f i xerces-c_3_1:DOMDocumentFragmentImpl.cpp.obj
 0001:0005c11f       ?cloneNode@DOMCommentImpl@xercesc_3_1@@UBEPAVDOMNode@2@_N@Z 1005d11f f   xerces-c_3_1:DOMCommentImpl.cpp.obj
 0001:0005c1ad       ?getNodeName@DOMCommentImpl@xercesc_3_1@@UBEPB_WXZ 1005d1ad f   xerces-c_3_1:DOMCommentImpl.cpp.obj
 0001:0005c1b3       ?getNodeType@DOMCommentImpl@xercesc_3_1@@UBE?AW4NodeType@DOMNode@2@XZ 1005d1b3 f   xerces-c_3_1:DOMCommentImpl.cpp.obj
 0001:0005c1b7       ?release@DOMCommentImpl@xercesc_3_1@@UAEXXZ 1005d1b7 f   xerces-c_3_1:DOMCommentImpl.cpp.obj
 0001:0005c263       ?splitText@DOMCommentImpl@xercesc_3_1@@QAEPAVDOMComment@2@K@Z 1005d263 f   xerces-c_3_1:DOMCommentImpl.cpp.obj
 0001:0005c3f1       ?getPreviousSibling@DOMCDATASectionImpl@xercesc_3_1@@UBEPAVDOMNode@2@XZ 1005d3f1 f   xerces-c_3_1:DOMCDATASectionImpl.cpp.obj
 0001:0005c3f1       ?getPreviousSibling@DOMTextImpl@xercesc_3_1@@UBEPAVDOMNode@2@XZ 1005d3f1 f   xerces-c_3_1:DOMTextImpl.cpp.obj
 0001:0005c3f1       ?getPreviousSibling@DOMProcessingInstructionImpl@xercesc_3_1@@UBEPAVDOMNode@2@XZ 1005d3f1 f   xerces-c_3_1:DOMProcessingInstructionImpl.cpp.obj
 0001:0005c3f1       ?getPreviousSibling@DOMCommentImpl@xercesc_3_1@@UBEPAVDOMNode@2@XZ 1005d3f1 f   xerces-c_3_1:DOMCommentImpl.cpp.obj
 0001:0005c3fd       ?removeChild@DOMCommentImpl@xercesc_3_1@@UAEPAVDOMNode@2@PAV32@@Z 1005d3fd f   xerces-c_3_1:DOMCommentImpl.cpp.obj
 0001:0005c3fd       ?removeChild@DOMNotationImpl@xercesc_3_1@@UAEPAVDOMNode@2@PAV32@@Z 1005d3fd f   xerces-c_3_1:DOMNotationImpl.cpp.obj
 0001:0005c3fd       ?removeChild@DOMProcessingInstructionImpl@xercesc_3_1@@UAEPAVDOMNode@2@PAV32@@Z 1005d3fd f   xerces-c_3_1:DOMProcessingInstructionImpl.cpp.obj
 0001:0005c3fd       ?removeChild@DOMTextImpl@xercesc_3_1@@UAEPAVDOMNode@2@PAV32@@Z 1005d3fd f   xerces-c_3_1:DOMTextImpl.cpp.obj
 0001:0005c3fd       ?removeChild@DOMCDATASectionImpl@xercesc_3_1@@UAEPAVDOMNode@2@PAV32@@Z 1005d3fd f   xerces-c_3_1:DOMCDATASectionImpl.cpp.obj
 0001:0005c407       ?isEqualNode@DOMTextImpl@xercesc_3_1@@UBE_NPBVDOMNode@2@@Z 1005d407 f   xerces-c_3_1:DOMTextImpl.cpp.obj
 0001:0005c407       ?isEqualNode@DOMCDATASectionImpl@xercesc_3_1@@UBE_NPBVDOMNode@2@@Z 1005d407 f   xerces-c_3_1:DOMCDATASectionImpl.cpp.obj
 0001:0005c407       ?isEqualNode@DOMProcessingInstructionImpl@xercesc_3_1@@UBE_NPBVDOMNode@2@@Z 1005d407 f   xerces-c_3_1:DOMProcessingInstructionImpl.cpp.obj
 0001:0005c407       ?isEqualNode@DOMNotationImpl@xercesc_3_1@@UBE_NPBVDOMNode@2@@Z 1005d407 f   xerces-c_3_1:DOMNotationImpl.cpp.obj
 0001:0005c407       ?isEqualNode@DOMCommentImpl@xercesc_3_1@@UBE_NPBVDOMNode@2@@Z 1005d407 f   xerces-c_3_1:DOMCommentImpl.cpp.obj
 0001:0005c419       ??0DOMNotationImpl@xercesc_3_1@@QAE@PAVDOMDocument@1@PB_W@Z 1005d419 f   xerces-c_3_1:DOMNotationImpl.cpp.obj
 0001:0005c483       ?cloneNode@DOMNotationImpl@xercesc_3_1@@UBEPAVDOMNode@2@_N@Z 1005d483 f   xerces-c_3_1:DOMNotationImpl.cpp.obj
 0001:0005c514       ?getNodeType@DOMNotationImpl@xercesc_3_1@@UBE?AW4NodeType@DOMNode@2@XZ 1005d514 f   xerces-c_3_1:DOMNotationImpl.cpp.obj
 0001:0005c518       ?setPublicId@DOMNotationImpl@xercesc_3_1@@UAEXPB_W@Z 1005d518 f   xerces-c_3_1:DOMNotationImpl.cpp.obj
 0001:0005c594       ?setSystemId@DOMNotationImpl@xercesc_3_1@@UAEXPB_W@Z 1005d594 f   xerces-c_3_1:DOMNotationImpl.cpp.obj
 0001:0005c610       ?release@DOMNotationImpl@xercesc_3_1@@UAEXXZ 1005d610 f   xerces-c_3_1:DOMNotationImpl.cpp.obj
 0001:0005c6b3       ?setBaseURI@DOMNotationImpl@xercesc_3_1@@UAEXPB_W@Z 1005d6b3 f   xerces-c_3_1:DOMNotationImpl.cpp.obj
 0001:0005c6fc       ?getOwnerDocument@DOMCDATASectionImpl@xercesc_3_1@@UBEPAVDOMDocument@2@XZ 1005d6fc f   xerces-c_3_1:DOMCDATASectionImpl.cpp.obj
 0001:0005c6fc       ?getOwnerDocument@DOMProcessingInstructionImpl@xercesc_3_1@@UBEPAVDOMDocument@2@XZ 1005d6fc f   xerces-c_3_1:DOMProcessingInstructionImpl.cpp.obj
 0001:0005c6fc       ?getOwnerDocument@DOMTextImpl@xercesc_3_1@@UBEPAVDOMDocument@2@XZ 1005d6fc f   xerces-c_3_1:DOMTextImpl.cpp.obj
 0001:0005c6fc       ?getOwnerDocument@DOMCommentImpl@xercesc_3_1@@UBEPAVDOMDocument@2@XZ 1005d6fc f   xerces-c_3_1:DOMCommentImpl.cpp.obj
 0001:0005c6fc       ?getOwnerDocument@DOMNotationImpl@xercesc_3_1@@UBEPAVDOMDocument@2@XZ 1005d6fc f   xerces-c_3_1:DOMNotationImpl.cpp.obj
 0001:0005c704       ?isSupported@DOMProcessingInstructionImpl@xercesc_3_1@@UBE_NPB_W0@Z 1005d704 f   xerces-c_3_1:DOMProcessingInstructionImpl.cpp.obj
 0001:0005c704       ?isSupported@DOMElementImpl@xercesc_3_1@@UBE_NPB_W0@Z 1005d704 f   xerces-c_3_1:DOMElementImpl.cpp.obj
 0001:0005c704       ?isSupported@DOMCommentImpl@xercesc_3_1@@UBE_NPB_W0@Z 1005d704 f   xerces-c_3_1:DOMCommentImpl.cpp.obj
 0001:0005c704       ?isSupported@DOMTextImpl@xercesc_3_1@@UBE_NPB_W0@Z 1005d704 f   xerces-c_3_1:DOMTextImpl.cpp.obj
 0001:0005c704       ?isSupported@DOMDocumentFragmentImpl@xercesc_3_1@@UBE_NPB_W0@Z 1005d704 f   xerces-c_3_1:DOMDocumentFragmentImpl.cpp.obj
 0001:0005c704       ?isSupported@DOMEntityReferenceImpl@xercesc_3_1@@UBE_NPB_W0@Z 1005d704 f   xerces-c_3_1:DOMEntityReferenceImpl.cpp.obj
 0001:0005c704       ?isSupported@DOMEntityImpl@xercesc_3_1@@UBE_NPB_W0@Z 1005d704 f   xerces-c_3_1:DOMEntityImpl.cpp.obj
 0001:0005c704       ?isSupported@DOMNotationImpl@xercesc_3_1@@UBE_NPB_W0@Z 1005d704 f   xerces-c_3_1:DOMNotationImpl.cpp.obj
 0001:0005c704       ?isSupported@DOMCDATASectionImpl@xercesc_3_1@@UBE_NPB_W0@Z 1005d704 f   xerces-c_3_1:DOMCDATASectionImpl.cpp.obj
 0001:0005c713       ?compareDocumentPosition@DOMEntityReferenceImpl@xercesc_3_1@@UBEFPBVDOMNode@2@@Z 1005d713 f   xerces-c_3_1:DOMEntityReferenceImpl.cpp.obj
 0001:0005c713       ?compareDocumentPosition@DOMAttrImpl@xercesc_3_1@@UBEFPBVDOMNode@2@@Z 1005d713 f   xerces-c_3_1:DOMAttrImpl.cpp.obj
 0001:0005c713       ?compareDocumentPosition@DOMCDATASectionImpl@xercesc_3_1@@UBEFPBVDOMNode@2@@Z 1005d713 f   xerces-c_3_1:DOMCDATASectionImpl.cpp.obj
 0001:0005c713       ?compareDocumentPosition@DOMElementImpl@xercesc_3_1@@UBEFPBVDOMNode@2@@Z 1005d713 f   xerces-c_3_1:DOMElementImpl.cpp.obj
 0001:0005c713       ?compareDocumentPosition@DOMDocumentImpl@xercesc_3_1@@UBEFPBVDOMNode@2@@Z 1005d713 f   xerces-c_3_1:DOMDocumentImpl.cpp.obj
 0001:0005c713       ?compareDocumentPosition@DOMTextImpl@xercesc_3_1@@UBEFPBVDOMNode@2@@Z 1005d713 f   xerces-c_3_1:DOMTextImpl.cpp.obj
 0001:0005c713       ?compareDocumentPosition@DOMNotationImpl@xercesc_3_1@@UBEFPBVDOMNode@2@@Z 1005d713 f   xerces-c_3_1:DOMNotationImpl.cpp.obj
 0001:0005c713       ?compareDocumentPosition@DOMCommentImpl@xercesc_3_1@@UBEFPBVDOMNode@2@@Z 1005d713 f   xerces-c_3_1:DOMCommentImpl.cpp.obj
 0001:0005c713       ?compareDocumentPosition@DOMDocumentFragmentImpl@xercesc_3_1@@UBEFPBVDOMNode@2@@Z 1005d713 f   xerces-c_3_1:DOMDocumentFragmentImpl.cpp.obj
 0001:0005c713       ?compareDocumentPosition@DOMEntityImpl@xercesc_3_1@@UBEFPBVDOMNode@2@@Z 1005d713 f   xerces-c_3_1:DOMEntityImpl.cpp.obj
 0001:0005c713       ?compareDocumentPosition@DOMDocumentTypeImpl@xercesc_3_1@@UBEFPBVDOMNode@2@@Z 1005d713 f   xerces-c_3_1:DOMDocumentTypeImpl.cpp.obj
 0001:0005c713       ?compareDocumentPosition@DOMProcessingInstructionImpl@xercesc_3_1@@UBEFPBVDOMNode@2@@Z 1005d713 f   xerces-c_3_1:DOMProcessingInstructionImpl.cpp.obj
 0001:0005c71f       ?isDefaultNamespace@DOMProcessingInstructionImpl@xercesc_3_1@@UBE_NPB_W@Z 1005d71f f   xerces-c_3_1:DOMProcessingInstructionImpl.cpp.obj
 0001:0005c71f       ?isDefaultNamespace@DOMDocumentImpl@xercesc_3_1@@UBE_NPB_W@Z 1005d71f f   xerces-c_3_1:DOMDocumentImpl.cpp.obj
 0001:0005c71f       ?isDefaultNamespace@DOMCommentImpl@xercesc_3_1@@UBE_NPB_W@Z 1005d71f f   xerces-c_3_1:DOMCommentImpl.cpp.obj
 0001:0005c71f       ?isDefaultNamespace@DOMDocumentTypeImpl@xercesc_3_1@@UBE_NPB_W@Z 1005d71f f   xerces-c_3_1:DOMDocumentTypeImpl.cpp.obj
 0001:0005c71f       ?isDefaultNamespace@DOMEntityImpl@xercesc_3_1@@UBE_NPB_W@Z 1005d71f f   xerces-c_3_1:DOMEntityImpl.cpp.obj
 0001:0005c71f       ?isDefaultNamespace@DOMElementImpl@xercesc_3_1@@UBE_NPB_W@Z 1005d71f f   xerces-c_3_1:DOMElementImpl.cpp.obj
 0001:0005c71f       ?isDefaultNamespace@DOMEntityReferenceImpl@xercesc_3_1@@UBE_NPB_W@Z 1005d71f f   xerces-c_3_1:DOMEntityReferenceImpl.cpp.obj
 0001:0005c71f       ?isDefaultNamespace@DOMAttrImpl@xercesc_3_1@@UBE_NPB_W@Z 1005d71f f   xerces-c_3_1:DOMAttrImpl.cpp.obj
 0001:0005c71f       ?isDefaultNamespace@DOMDocumentFragmentImpl@xercesc_3_1@@UBE_NPB_W@Z 1005d71f f   xerces-c_3_1:DOMDocumentFragmentImpl.cpp.obj
 0001:0005c71f       ?isDefaultNamespace@DOMCDATASectionImpl@xercesc_3_1@@UBE_NPB_W@Z 1005d71f f   xerces-c_3_1:DOMCDATASectionImpl.cpp.obj
 0001:0005c71f       ?isDefaultNamespace@DOMTextImpl@xercesc_3_1@@UBE_NPB_W@Z 1005d71f f   xerces-c_3_1:DOMTextImpl.cpp.obj
 0001:0005c71f       ?isDefaultNamespace@DOMNotationImpl@xercesc_3_1@@UBE_NPB_W@Z 1005d71f f   xerces-c_3_1:DOMNotationImpl.cpp.obj
 0001:0005c733       ??1DOMXPathExpression@xercesc_3_1@@UAE@XZ 1005d733 f i xerces-c_3_1:DOMXPathExpressionImpl.cpp.obj
 0001:0005c73a       ??_EDOMXPathExpression@xercesc_3_1@@UAEPAXI@Z 1005d73a f i  CIL library: CIL module
 0001:0005c73a       ??_GDOMXPathExpression@xercesc_3_1@@UAEPAXI@Z 1005d73a f i xerces-c_3_1:DOMXPathExpressionImpl.cpp.obj
 0001:0005c75a       ?getNamespaceForPrefix@WrapperForXPathNSResolver@xercesc_3_1@@UBEIQB_W@Z 1005d75a f i xerces-c_3_1:DOMXPathExpressionImpl.cpp.obj
 0001:0005c7a3       ??0DOMXPathExpressionImpl@xercesc_3_1@@QAE@PB_WPBVDOMXPathNSResolver@1@QAVMemoryManager@1@@Z 1005d7a3 f   xerces-c_3_1:DOMXPathExpressionImpl.cpp.obj
 0001:0005c92a       ??_GDOMXPathExpressionImpl@xercesc_3_1@@UAEPAXI@Z 1005d92a f i xerces-c_3_1:DOMXPathExpressionImpl.cpp.obj
 0001:0005c92a       ??_EDOMXPathExpressionImpl@xercesc_3_1@@UAEPAXI@Z 1005d92a f i  CIL library: CIL module
 0001:0005c949       ??1DOMXPathExpressionImpl@xercesc_3_1@@UAE@XZ 1005d949 f   xerces-c_3_1:DOMXPathExpressionImpl.cpp.obj
 0001:0005c97c       ?cleanUp@DOMXPathExpressionImpl@xercesc_3_1@@IAEXXZ 1005d97c f   xerces-c_3_1:DOMXPathExpressionImpl.cpp.obj
 0001:0005c9aa       ?evaluate@DOMXPathExpressionImpl@xercesc_3_1@@UBEPAVDOMXPathResult@2@PBVDOMNode@2@W4ResultType@32@PAV32@@Z 1005d9aa f   xerces-c_3_1:DOMXPathExpressionImpl.cpp.obj
 0001:0005cbfd       ?testNode@DOMXPathExpressionImpl@xercesc_3_1@@IBE_NPAVXPathMatcher@2@PAVDOMXPathResultImpl@2@PAVDOMElement@2@@Z 1005dbfd f   xerces-c_3_1:DOMXPathExpressionImpl.cpp.obj
 0001:0005ce3a       ?release@DOMXPathExpressionImpl@xercesc_3_1@@UAEXXZ 1005de3a f   xerces-c_3_1:DOMXPathExpressionImpl.cpp.obj
 0001:0005ce3a       ?release@DOMStringListImpl@xercesc_3_1@@UAEXXZ 1005de3a f   xerces-c_3_1:DOMStringListImpl.cpp.obj
 0001:0005ce3a       ?release@DOMLSOutputImpl@xercesc_3_1@@UAEXXZ 1005de3a f   xerces-c_3_1:DOMLSOutputImpl.cpp.obj
 0001:0005ce3a       ?release@DOMXPathResultImpl@xercesc_3_1@@UAEXXZ 1005de3a f   xerces-c_3_1:DOMXPathResultImpl.cpp.obj
 0001:0005ce3a       ?release@DOMLSInputImpl@xercesc_3_1@@UAEXXZ 1005de3a f   xerces-c_3_1:DOMLSInputImpl.cpp.obj
 0001:0005ce3a       ?release@DOMLSSerializerImpl@xercesc_3_1@@UAEXXZ 1005de3a f   xerces-c_3_1:DOMLSSerializerImpl.cpp.obj
 0001:0005ce3a       ?release@DOMImplementationListImpl@xercesc_3_1@@UAEXXZ 1005de3a f   xerces-c_3_1:DOMImplementationListImpl.cpp.obj
 0001:0005ce3a       ?release@DOMXPathNSResolverImpl@xercesc_3_1@@UAEXXZ 1005de3a f   xerces-c_3_1:DOMXPathNSResolverImpl.cpp.obj
 0001:0005ce45       ??1?$JanitorMemFunCall@VXPathMatcher@xercesc_3_1@@@xercesc_3_1@@QAE@XZ 1005de45 f i xerces-c_3_1:XPathMatcher.cpp.obj
 0001:0005ce45       ??1?$JanitorMemFunCall@VDGXMLScanner@xercesc_3_1@@@xercesc_3_1@@QAE@XZ 1005de45 f i xerces-c_3_1:DGXMLScanner.cpp.obj
 0001:0005ce45       ??1?$JanitorMemFunCall@VIdentityConstraint@xercesc_3_1@@@xercesc_3_1@@QAE@XZ 1005de45 f i xerces-c_3_1:IdentityConstraint.cpp.obj
 0001:0005ce45       ??1?$JanitorMemFunCall@VIGXMLScanner@xercesc_3_1@@@xercesc_3_1@@QAE@XZ 1005de45 f i xerces-c_3_1:IGXMLScanner.cpp.obj
 0001:0005ce45       ??1?$JanitorMemFunCall@VXMLAttDef@xercesc_3_1@@@xercesc_3_1@@QAE@XZ 1005de45 f i xerces-c_3_1:XMLAttDef.cpp.obj
 0001:0005ce45       ??1?$JanitorMemFunCall@VSchemaGrammar@xercesc_3_1@@@xercesc_3_1@@QAE@XZ 1005de45 f i xerces-c_3_1:SchemaGrammar.cpp.obj
 0001:0005ce45       ??1?$JanitorMemFunCall@VIdentityConstraintHandler@xercesc_3_1@@@xercesc_3_1@@QAE@XZ 1005de45 f i xerces-c_3_1:IdentityConstraintHandler.cpp.obj
 0001:0005ce45       ??1?$JanitorMemFunCall@VXMLGrammarPoolImpl@xercesc_3_1@@@xercesc_3_1@@QAE@XZ 1005de45 f i xerces-c_3_1:XMLGrammarPoolImpl.cpp.obj
 0001:0005ce45       ??1?$JanitorMemFunCall@VQName@xercesc_3_1@@@xercesc_3_1@@QAE@XZ 1005de45 f i xerces-c_3_1:QName.cpp.obj
 0001:0005ce45       ??1?$JanitorMemFunCall@VDOMXPathExpressionImpl@xercesc_3_1@@@xercesc_3_1@@QAE@XZ 1005de45 f i xerces-c_3_1:DOMXPathExpressionImpl.cpp.obj
 0001:0005ce45       ??1?$JanitorMemFunCall@VDOMXPathResultImpl@xercesc_3_1@@@xercesc_3_1@@QAE@XZ 1005de45 f i xerces-c_3_1:DOMXPathExpressionImpl.cpp.obj
 0001:0005ce45       ??1?$JanitorMemFunCall@VAbstractDOMParser@xercesc_3_1@@@xercesc_3_1@@QAE@XZ 1005de45 f i xerces-c_3_1:AbstractDOMParser.cpp.obj
 0001:0005ce45       ??1?$JanitorMemFunCall@VSGXMLScanner@xercesc_3_1@@@xercesc_3_1@@QAE@XZ 1005de45 f i xerces-c_3_1:SGXMLScanner.cpp.obj
 0001:0005ce45       ??1?$JanitorMemFunCall@VXMLURL@xercesc_3_1@@@xercesc_3_1@@QAE@XZ 1005de45 f i xerces-c_3_1:XMLURL.cpp.obj
 0001:0005ce45       ??1?$JanitorMemFunCall@VXercesXPath@xercesc_3_1@@@xercesc_3_1@@QAE@XZ 1005de45 f i xerces-c_3_1:XercesXPath.cpp.obj
 0001:0005ce45       ??1?$JanitorMemFunCall@VXMLNotationDecl@xercesc_3_1@@@xercesc_3_1@@QAE@XZ 1005de45 f i xerces-c_3_1:XMLNotationDecl.cpp.obj
 0001:0005ce45       ??1?$JanitorMemFunCall@VWFXMLScanner@xercesc_3_1@@@xercesc_3_1@@QAE@XZ 1005de45 f i xerces-c_3_1:WFXMLScanner.cpp.obj
 0001:0005ce45       ??1?$JanitorMemFunCall@VDOMLSParserImpl@xercesc_3_1@@@xercesc_3_1@@QAE@XZ 1005de45 f i xerces-c_3_1:DOMLSParserImpl.cpp.obj
 0001:0005ce45       ??1?$JanitorMemFunCall@VXMLEntityDecl@xercesc_3_1@@@xercesc_3_1@@QAE@XZ 1005de45 f i xerces-c_3_1:XMLEntityDecl.cpp.obj
 0001:0005ce45       ??1?$JanitorMemFunCall@VReaderMgr@xercesc_3_1@@@xercesc_3_1@@QAE@XZ 1005de45 f i xerces-c_3_1:XMLScanner.cpp.obj
 0001:0005ce45       ??1?$JanitorMemFunCall@VXMLUri@xercesc_3_1@@@xercesc_3_1@@QAE@XZ 1005de45 f i xerces-c_3_1:XMLUri.cpp.obj
 0001:0005ce45       ??1?$JanitorMemFunCall@VRegularExpression@xercesc_3_1@@@xercesc_3_1@@QAE@XZ 1005de45 f i xerces-c_3_1:RegularExpression.cpp.obj
 0001:0005ce45       ??1?$JanitorMemFunCall@VUnionDatatypeValidator@xercesc_3_1@@@xercesc_3_1@@QAE@XZ 1005de45 f i xerces-c_3_1:UnionDatatypeValidator.cpp.obj
 0001:0005ce45       ??1?$JanitorMemFunCall@VXMLScanner@xercesc_3_1@@@xercesc_3_1@@QAE@XZ 1005de45 f i xerces-c_3_1:XMLScanner.cpp.obj
 0001:0005ce45       ??1?$JanitorMemFunCall@VXMLBigDecimal@xercesc_3_1@@@xercesc_3_1@@QAE@XZ 1005de45 f i xerces-c_3_1:XMLBigDecimal.cpp.obj
 0001:0005ce5d       ??_9DOMXPathResultImpl@xercesc_3_1@@$BDE@AE 1005de5d f i xerces-c_3_1:DOMXPathExpressionImpl.cpp.obj
 0001:0005ce62       ??0DOMRangeImpl@xercesc_3_1@@QAE@PAVDOMDocument@1@QAVMemoryManager@1@@Z 1005de62 f   xerces-c_3_1:DOMRangeImpl.cpp.obj
 0001:0005cea8       ??_EDOMRangeImpl@xercesc_3_1@@UAEPAXI@Z 1005dea8 f i  CIL library: CIL module
 0001:0005cea8       ??_GDOMRangeImpl@xercesc_3_1@@UAEPAXI@Z 1005dea8 f i xerces-c_3_1:DOMRangeImpl.cpp.obj
 0001:0005cea8       ??_EDOMRange@xercesc_3_1@@UAEPAXI@Z 1005dea8 f i  CIL library: CIL module
 0001:0005cea8       ??_GDOMRange@xercesc_3_1@@UAEPAXI@Z 1005dea8 f i xerces-c_3_1:DOMRangeImpl.cpp.obj
 0001:0005cec8       ?getStartContainer@DOMRangeImpl@xercesc_3_1@@UBEPAVDOMNode@2@XZ 1005dec8 f   xerces-c_3_1:DOMRangeImpl.cpp.obj
 0001:0005cef6       ?getStartOffset@DOMRangeImpl@xercesc_3_1@@UBEKXZ 1005def6 f   xerces-c_3_1:DOMRangeImpl.cpp.obj
 0001:0005cf24       ?getEndContainer@DOMRangeImpl@xercesc_3_1@@UBEPAVDOMNode@2@XZ 1005df24 f   xerces-c_3_1:DOMRangeImpl.cpp.obj
 0001:0005cf52       ?getEndOffset@DOMRangeImpl@xercesc_3_1@@UBEKXZ 1005df52 f   xerces-c_3_1:DOMRangeImpl.cpp.obj
 0001:0005cf80       ?getCollapsed@DOMRangeImpl@xercesc_3_1@@UBE_NXZ 1005df80 f   xerces-c_3_1:DOMRangeImpl.cpp.obj
 0001:0005cfbe       ?setStart@DOMRangeImpl@xercesc_3_1@@UAEXPBVDOMNode@2@K@Z 1005dfbe f   xerces-c_3_1:DOMRangeImpl.cpp.obj
 0001:0005d06a       ?setEnd@DOMRangeImpl@xercesc_3_1@@UAEXPBVDOMNode@2@K@Z 1005e06a f   xerces-c_3_1:DOMRangeImpl.cpp.obj
 0001:0005d116       ?setStartBefore@DOMRangeImpl@xercesc_3_1@@UAEXPBVDOMNode@2@@Z 1005e116 f   xerces-c_3_1:DOMRangeImpl.cpp.obj
 0001:0005d226       ?setStartAfter@DOMRangeImpl@xercesc_3_1@@UAEXPBVDOMNode@2@@Z 1005e226 f   xerces-c_3_1:DOMRangeImpl.cpp.obj
 0001:0005d32c       ?setEndBefore@DOMRangeImpl@xercesc_3_1@@UAEXPBVDOMNode@2@@Z 1005e32c f   xerces-c_3_1:DOMRangeImpl.cpp.obj
 0001:0005d43d       ?setEndAfter@DOMRangeImpl@xercesc_3_1@@UAEXPBVDOMNode@2@@Z 1005e43d f   xerces-c_3_1:DOMRangeImpl.cpp.obj
 0001:0005d543       ?detach@DOMRangeImpl@xercesc_3_1@@UAEXXZ 1005e543 f   xerces-c_3_1:DOMRangeImpl.cpp.obj
 0001:0005d59f       ?collapse@DOMRangeImpl@xercesc_3_1@@UAEX_N@Z 1005e59f f   xerces-c_3_1:DOMRangeImpl.cpp.obj
 0001:0005d5ef       ?selectNode@DOMRangeImpl@xercesc_3_1@@UAEXPBVDOMNode@2@@Z 1005e5ef f   xerces-c_3_1:DOMRangeImpl.cpp.obj
 0001:0005d6c0       ?selectNodeContents@DOMRangeImpl@xercesc_3_1@@UAEXPBVDOMNode@2@@Z 1005e6c0 f   xerces-c_3_1:DOMRangeImpl.cpp.obj
 0001:0005d742       ?surroundContents@DOMRangeImpl@xercesc_3_1@@UAEXPAVDOMNode@2@@Z 1005e742 f   xerces-c_3_1:DOMRangeImpl.cpp.obj
 0001:0005d85e       ?compareBoundaryPoints@DOMRangeImpl@xercesc_3_1@@UBEFW4CompareHow@DOMRange@2@PBV42@@Z 1005e85e f   xerces-c_3_1:DOMRangeImpl.cpp.obj
 0001:0005da52       ?deleteContents@DOMRangeImpl@xercesc_3_1@@UAEXXZ 1005ea52 f   xerces-c_3_1:DOMRangeImpl.cpp.obj
 0001:0005da5c       ?extractContents@DOMRangeImpl@xercesc_3_1@@UAEPAVDOMDocumentFragment@2@XZ 1005ea5c f   xerces-c_3_1:DOMRangeImpl.cpp.obj
 0001:0005da7c       ?cloneContents@DOMRangeImpl@xercesc_3_1@@UBEPAVDOMDocumentFragment@2@XZ 1005ea7c f   xerces-c_3_1:DOMRangeImpl.cpp.obj
 0001:0005da86       ?insertNode@DOMRangeImpl@xercesc_3_1@@UAEXPAVDOMNode@2@@Z 1005ea86 f   xerces-c_3_1:DOMRangeImpl.cpp.obj
 0001:0005dc0e       ?cloneRange@DOMRangeImpl@xercesc_3_1@@UBEPAVDOMRange@2@XZ 1005ec0e f   xerces-c_3_1:DOMRangeImpl.cpp.obj
 0001:0005dc65       ?toString@DOMRangeImpl@xercesc_3_1@@UBEPB_WXZ 1005ec65 f   xerces-c_3_1:DOMRangeImpl.cpp.obj
 0001:0005e087       ?getCommonAncestorContainer@DOMRangeImpl@xercesc_3_1@@UBEPBVDOMNode@2@XZ 1005f087 f   xerces-c_3_1:DOMRangeImpl.cpp.obj
 0001:0005e094       ?release@DOMRangeImpl@xercesc_3_1@@UAEXXZ 1005f094 f   xerces-c_3_1:DOMRangeImpl.cpp.obj
 0001:0005e099       ?isAncestorOf@DOMRangeImpl@xercesc_3_1@@KA_NPBVDOMNode@2@0@Z 1005f099 f   xerces-c_3_1:DOMRangeImpl.cpp.obj
 0001:0005e0b6       ?hasLegalRootContainer@DOMRangeImpl@xercesc_3_1@@IBE_NPBVDOMNode@2@@Z 1005f0b6 f   xerces-c_3_1:DOMRangeImpl.cpp.obj
 0001:0005e0e8       ?isLegalContainedNode@DOMRangeImpl@xercesc_3_1@@IBE_NPBVDOMNode@2@@Z 1005f0e8 f   xerces-c_3_1:DOMRangeImpl.cpp.obj
 0001:0005e10c       ?indexOf@DOMRangeImpl@xercesc_3_1@@IBEKPBVDOMNode@2@0@Z 1005f10c f   xerces-c_3_1:DOMRangeImpl.cpp.obj
 0001:0005e126       ?validateNode@DOMRangeImpl@xercesc_3_1@@IBEXPBVDOMNode@2@@Z 1005f126 f   xerces-c_3_1:DOMRangeImpl.cpp.obj
 0001:0005e19d       ?commonAncestorOf@DOMRangeImpl@xercesc_3_1@@IBEPBVDOMNode@2@PBV32@0@Z 1005f19d f   xerces-c_3_1:DOMRangeImpl.cpp.obj
 0001:0005e353       ?checkIndex@DOMRangeImpl@xercesc_3_1@@IBEXPBVDOMNode@2@K@Z 1005f353 f   xerces-c_3_1:DOMRangeImpl.cpp.obj
 0001:0005e3cf       ?nextNode@DOMRangeImpl@xercesc_3_1@@IBEPAVDOMNode@2@PBV32@_N@Z 1005f3cf f   xerces-c_3_1:DOMRangeImpl.cpp.obj
 0001:0005e420       ?traverseContents@DOMRangeImpl@xercesc_3_1@@IAEPAVDOMDocumentFragment@2@W4TraversalType@12@@Z 1005f420 f   xerces-c_3_1:DOMRangeImpl.cpp.obj
 0001:0005e556       ?traverseSameContainer@DOMRangeImpl@xercesc_3_1@@IAEPAVDOMDocumentFragment@2@H@Z 1005f556 f   xerces-c_3_1:DOMRangeImpl.cpp.obj
 0001:0005e6fd       ?traverseCommonStartContainer@DOMRangeImpl@xercesc_3_1@@IAEPAVDOMDocumentFragment@2@PAVDOMNode@2@H@Z 1005f6fd f   xerces-c_3_1:DOMRangeImpl.cpp.obj
 0001:0005e7e4       ?traverseCommonEndContainer@DOMRangeImpl@xercesc_3_1@@IAEPAVDOMDocumentFragment@2@PAVDOMNode@2@H@Z 1005f7e4 f   xerces-c_3_1:DOMRangeImpl.cpp.obj
 0001:0005e892       ?traverseCommonAncestors@DOMRangeImpl@xercesc_3_1@@IAEPAVDOMDocumentFragment@2@PAVDOMNode@2@0H@Z 1005f892 f   xerces-c_3_1:DOMRangeImpl.cpp.obj
 0001:0005e981       ?traverseRightBoundary@DOMRangeImpl@xercesc_3_1@@IAEPAVDOMNode@2@PAV32@H@Z 1005f981 f   xerces-c_3_1:DOMRangeImpl.cpp.obj
 0001:0005ea60       ?traverseLeftBoundary@DOMRangeImpl@xercesc_3_1@@IAEPAVDOMNode@2@PAV32@H@Z 1005fa60 f   xerces-c_3_1:DOMRangeImpl.cpp.obj
 0001:0005eb4a       ?traverseNode@DOMRangeImpl@xercesc_3_1@@IAEPAVDOMNode@2@PAV32@_N1H@Z 1005fb4a f   xerces-c_3_1:DOMRangeImpl.cpp.obj
 0001:0005ebab       ?traverseFullySelected@DOMRangeImpl@xercesc_3_1@@IAEPAVDOMNode@2@PAV32@H@Z 1005fbab f   xerces-c_3_1:DOMRangeImpl.cpp.obj
 0001:0005ebd3       ?traverseTextNode@DOMRangeImpl@xercesc_3_1@@IAEPAVDOMNode@2@PAV32@_NH@Z 1005fbd3 f   xerces-c_3_1:DOMRangeImpl.cpp.obj
 0001:0005eeec       ?getSelectedNode@DOMRangeImpl@xercesc_3_1@@IAEPAVDOMNode@2@PAV32@H@Z 1005feec f   xerces-c_3_1:DOMRangeImpl.cpp.obj
 0001:0005ef40       ?checkReadOnly@DOMRangeImpl@xercesc_3_1@@IAEXPAVDOMNode@2@0KK@Z 1005ff40 f   xerces-c_3_1:DOMRangeImpl.cpp.obj
 0001:0005f02f       ?recurseTreeAndCheck@DOMRangeImpl@xercesc_3_1@@IAEXPAVDOMNode@2@0@Z 1006002f f   xerces-c_3_1:DOMRangeImpl.cpp.obj
 0001:0005f0ad       ?receiveReplacedText@DOMRangeImpl@xercesc_3_1@@QAEXPAVDOMNode@2@@Z 100600ad f   xerces-c_3_1:DOMRangeImpl.cpp.obj
 0001:0005f10a       ?updateRangeForDeletedText@DOMRangeImpl@xercesc_3_1@@QAEXPAVDOMNode@2@KK@Z 1006010a f   xerces-c_3_1:DOMRangeImpl.cpp.obj
 0001:0005f1a4       ?updateRangeForInsertedText@DOMRangeImpl@xercesc_3_1@@QAEXPAVDOMNode@2@KK@Z 100601a4 f   xerces-c_3_1:DOMRangeImpl.cpp.obj
 0001:0005f219       ?updateRangeForDeletedNode@DOMRangeImpl@xercesc_3_1@@QAEXPAVDOMNode@2@@Z 10060219 f   xerces-c_3_1:DOMRangeImpl.cpp.obj
 0001:0005f345       ?updateRangeForInsertedNode@DOMRangeImpl@xercesc_3_1@@QAEXPAVDOMNode@2@@Z 10060345 f   xerces-c_3_1:DOMRangeImpl.cpp.obj
 0001:0005f3ac       ?updateSplitInfo@DOMRangeImpl@xercesc_3_1@@QAEXPAVDOMNode@2@0K@Z 100603ac f   xerces-c_3_1:DOMRangeImpl.cpp.obj
 0001:0005f42e       ??6xercesc_3_1@@YAAAVXSerializeEngine@0@AAV10@QAVXSerializable@0@@Z 1006042e f i xerces-c_3_1:ComplexTypeInfo.cpp.obj
 0001:0005f485       ??1XMLContentModel@xercesc_3_1@@UAE@XZ 10060485 f i xerces-c_3_1:ComplexTypeInfo.cpp.obj
 0001:0005f48c       ??_GXMLContentModel@xercesc_3_1@@UAEPAXI@Z 1006048c f i xerces-c_3_1:ComplexTypeInfo.cpp.obj
 0001:0005f48c       ??_EXMLContentModel@xercesc_3_1@@UAEPAXI@Z 1006048c f i  CIL library: CIL module
 0001:0005f4ac       ?getContentModel@ComplexTypeInfo@xercesc_3_1@@QAEPAVXMLContentModel@2@_N@Z 100604ac f i xerces-c_3_1:ComplexTypeInfo.cpp.obj
 0001:0005f4c7       ?setTypeName@ComplexTypeInfo@xercesc_3_1@@QAEXQB_W@Z 100604c7 f i xerces-c_3_1:ComplexTypeInfo.cpp.obj
 0001:0005f577       ??_EContentSpecNode@xercesc_3_1@@UAEPAXI@Z 10060577 f i  CIL library: CIL module
 0001:0005f577       ??_GContentSpecNode@xercesc_3_1@@UAEPAXI@Z 10060577 f i xerces-c_3_1:ComplexTypeInfo.cpp.obj
 0001:0005f597       ??0ContentSpecNode@xercesc_3_1@@QAE@QAVQName@1@_NQAVMemoryManager@1@@Z 10060597 f i xerces-c_3_1:ComplexTypeInfo.cpp.obj
 0001:0005f5dc       ??0ContentSpecNode@xercesc_3_1@@QAE@W4NodeTypes@01@QAV01@1_N2QAVMemoryManager@1@@Z 100605dc f i xerces-c_3_1:ComplexTypeInfo.cpp.obj
 0001:0005f61b       ?setSecond@ContentSpecNode@xercesc_3_1@@QAEXQAV12@@Z 1006061b f i xerces-c_3_1:ComplexTypeInfo.cpp.obj
 0001:0005f63b       ??0SimpleContentModel@xercesc_3_1@@QAE@_NQAVQName@1@1W4NodeTypes@ContentSpecNode@1@QAVMemoryManager@1@@Z 1006063b f i xerces-c_3_1:ComplexTypeInfo.cpp.obj
 0001:0005f715       ??_GSimpleContentModel@xercesc_3_1@@UAEPAXI@Z 10060715 f i xerces-c_3_1:ComplexTypeInfo.cpp.obj
 0001:0005f715       ??_ESimpleContentModel@xercesc_3_1@@UAEPAXI@Z 10060715 f i  CIL library: CIL module
 0001:0005f772       ?initializeComplexTypeInfo@XMLInitializer@xercesc_3_1@@CAXXZ 10060772 f   xerces-c_3_1:ComplexTypeInfo.cpp.obj
 0001:0005f900       ??0ComplexTypeInfo@xercesc_3_1@@QAE@QAVMemoryManager@1@@Z 10060900 f   xerces-c_3_1:ComplexTypeInfo.cpp.obj
 0001:0005f9e4       ??_GComplexTypeInfo@xercesc_3_1@@UAEPAXI@Z 100609e4 f i xerces-c_3_1:ComplexTypeInfo.cpp.obj
 0001:0005f9e4       ??_EComplexTypeInfo@xercesc_3_1@@UAEPAXI@Z 100609e4 f i  CIL library: CIL module
 0001:0005fa04       ??1ComplexTypeInfo@xercesc_3_1@@UAE@XZ 10060a04 f   xerces-c_3_1:ComplexTypeInfo.cpp.obj
 0001:0005fac9       ?addAttDef@ComplexTypeInfo@xercesc_3_1@@QAEXQAVSchemaAttDef@2@@Z 10060ac9 f   xerces-c_3_1:ComplexTypeInfo.cpp.obj
 0001:0005fb3e       ?setContentSpec@ComplexTypeInfo@xercesc_3_1@@QAEXQAVContentSpecNode@2@@Z 10060b3e f   xerces-c_3_1:ComplexTypeInfo.cpp.obj
 0001:0005fb5e       ?formatContentModel@ComplexTypeInfo@xercesc_3_1@@ABEPA_WXZ 10060b5e f   xerces-c_3_1:ComplexTypeInfo.cpp.obj
 0001:0005fbfb       ?useRepeatingLeafNodes@ComplexTypeInfo@xercesc_3_1@@AAE_NPAVContentSpecNode@2@@Z 10060bfb f   xerces-c_3_1:ComplexTypeInfo.cpp.obj
 0001:0005fc9c       ?makeContentModel@ComplexTypeInfo@xercesc_3_1@@AAEPAVXMLContentModel@2@_N@Z 10060c9c f   xerces-c_3_1:ComplexTypeInfo.cpp.obj
 0001:0006005a       ?convertContentSpecTree@ComplexTypeInfo@xercesc_3_1@@AAEPAVContentSpecNode@2@QAV32@_N1@Z 1006105a f   xerces-c_3_1:ComplexTypeInfo.cpp.obj
 0001:00060184       ?expandContentModel@ComplexTypeInfo@xercesc_3_1@@AAEPAVContentSpecNode@2@QAV32@HH_N@Z 10061184 f   xerces-c_3_1:ComplexTypeInfo.cpp.obj
 0001:00060518       ?resizeContentSpecOrgURI@ComplexTypeInfo@xercesc_3_1@@AAEXXZ 10061518 f   xerces-c_3_1:ComplexTypeInfo.cpp.obj
 0001:00060571       ?createObject@ComplexTypeInfo@xercesc_3_1@@SAPAVXSerializable@2@PAVMemoryManager@2@@Z 10061571 f   xerces-c_3_1:ComplexTypeInfo.cpp.obj
 0001:000605b1       ?getProtoType@ComplexTypeInfo@xercesc_3_1@@UBEPAVXProtoType@2@XZ 100615b1 f   xerces-c_3_1:ComplexTypeInfo.cpp.obj
 0001:000605b7       ?serialize@ComplexTypeInfo@xercesc_3_1@@UAEXAAVXSerializeEngine@2@@Z 100615b7 f   xerces-c_3_1:ComplexTypeInfo.cpp.obj
 0001:000607f0       ??0?$RefHash2KeysTableOf@VSchemaAttDef@xercesc_3_1@@UStringHasher@2@@xercesc_3_1@@QAE@K_NQAVMemoryManager@1@@Z 100617f0 f i xerces-c_3_1:ComplexTypeInfo.cpp.obj
 0001:0006087a       ?reset@?$Janitor@VContentSpecNode@xercesc_3_1@@@xercesc_3_1@@QAEXPAVContentSpecNode@2@@Z 1006187a f i xerces-c_3_1:ComplexTypeInfo.cpp.obj
 0001:0006087a       ?reset@?$Janitor@VXSAnnotation@xercesc_3_1@@@xercesc_3_1@@QAEXPAVXSAnnotation@2@@Z 1006187a f i xerces-c_3_1:TraverseSchema.cpp.obj
 0001:00060892       ?getDataType@XSValue@xercesc_3_1@@SA?AW4DataType@12@QB_W@Z 10061892 f   xerces-c_3_1:XSValue.cpp.obj
 0001:000608dc       ?initializeRegistry@XSValue@xercesc_3_1@@CAXXZ 100618dc f   xerces-c_3_1:XSValue.cpp.obj
 0001:00060d38       ?getActualValue@XSValue@xercesc_3_1@@SAPAV12@QB_WW4DataType@12@AAW4Status@12@W4XMLVersion@12@_NQAVMemoryManager@2@@Z 10061d38 f   xerces-c_3_1:XSValue.cpp.obj
 0001:00060fa9       ?getActValNumerics@XSValue@xercesc_3_1@@CAPAV12@QB_WW4DataType@12@AAW4Status@12@_NQAVMemoryManager@2@@Z 10061fa9 f   xerces-c_3_1:XSValue.cpp.obj
 0001:0006121d       ?getActValDateTimes@XSValue@xercesc_3_1@@CAPAV12@QB_WW4DataType@12@AAW4Status@12@QAVMemoryManager@2@@Z 1006221d f   xerces-c_3_1:XSValue.cpp.obj
 0001:000613f9       ?getActualNumericValue@XSValue@xercesc_3_1@@CA_NQB_WAAW4Status@12@AATt_value@12@QAVMemoryManager@2@W4DataType@12@@Z 100623f9 f   xerces-c_3_1:XSValue.cpp.obj
 0001:00061571       ?get@?$ValueHashTableOf@W4DataType@XSValue@xercesc_3_1@@UStringHasher@3@@xercesc_3_1@@QAEAAW4DataType@XSValue@2@QBXQAVMemoryManager@2@@Z 10062571 f i xerces-c_3_1:XSValue.cpp.obj
 0001:000615dd       ?put@?$ValueHashTableOf@W4DataType@XSValue@xercesc_3_1@@UStringHasher@3@@xercesc_3_1@@QAEXPAXABW4DataType@XSValue@2@@Z 100625dd f i xerces-c_3_1:XSValue.cpp.obj
 0001:0006164c       ?rehash@?$ValueHashTableOf@_WUStringHasher@xercesc_3_1@@@xercesc_3_1@@AAEXXZ 1006264c f i xerces-c_3_1:WFXMLScanner.cpp.obj
 0001:0006164c       ?rehash@?$ValueHashTableOf@IUStringHasher@xercesc_3_1@@@xercesc_3_1@@AAEXXZ 1006264c f i xerces-c_3_1:DOMLSParserImpl.cpp.obj
 0001:0006164c       ?rehash@?$ValueHashTableOf@GUStringHasher@xercesc_3_1@@@xercesc_3_1@@AAEXXZ 1006264c f i xerces-c_3_1:GeneralAttributeCheck.cpp.obj
 0001:0006164c       ?rehash@?$ValueHashTableOf@W4DataType@XSValue@xercesc_3_1@@UStringHasher@3@@xercesc_3_1@@AAEXXZ 1006264c f i xerces-c_3_1:XSValue.cpp.obj
 0001:000616f7       ?initialize@GeneralAttributeCheck@xercesc_3_1@@CAXXZ 100626f7 f   xerces-c_3_1:GeneralAttributeCheck.cpp.obj
 0001:00061c8e       ??1GeneralAttributeCheck@xercesc_3_1@@QAE@XZ 10062c8e f   xerces-c_3_1:GeneralAttributeCheck.cpp.obj
 0001:00061c9c       ?checkAttributes@GeneralAttributeCheck@xercesc_3_1@@QAEXQBVDOMElement@2@GQAVTraverseSchema@2@_NQAV?$ValueVectorOf@PAVDOMNode@xercesc_3_1@@@2@@Z 10062c9c f   xerces-c_3_1:GeneralAttributeCheck.cpp.obj
 0001:00061f46       ?validate@GeneralAttributeCheck@xercesc_3_1@@AAEXQBVDOMElement@2@QB_W1FQAVTraverseSchema@2@@Z 10062f46 f   xerces-c_3_1:GeneralAttributeCheck.cpp.obj
 0001:00062181       ??0?$ValueHashTableOf@GUStringHasher@xercesc_3_1@@@xercesc_3_1@@QAE@KQAVMemoryManager@1@@Z 10063181 f i xerces-c_3_1:GeneralAttributeCheck.cpp.obj
 0001:00062217       ?get@?$ValueHashTableOf@GUStringHasher@xercesc_3_1@@@xercesc_3_1@@QAEAAGQBXQAVMemoryManager@2@@Z 10063217 f i xerces-c_3_1:GeneralAttributeCheck.cpp.obj
 0001:00062280       ?put@?$ValueHashTableOf@GUStringHasher@xercesc_3_1@@@xercesc_3_1@@QAEXPAXABG@Z 10063280 f i xerces-c_3_1:GeneralAttributeCheck.cpp.obj
 0001:00062280       ?put@?$ValueHashTableOf@_WUStringHasher@xercesc_3_1@@@xercesc_3_1@@QAEXPAXAB_W@Z 10063280 f i xerces-c_3_1:WFXMLScanner.cpp.obj
 0001:000622eb       ?findBucketElem@?$ValueHashTableOf@W4DataType@XSValue@xercesc_3_1@@UStringHasher@3@@xercesc_3_1@@AAEPAU?$ValueHashTableBucketElem@W4DataType@XSValue@xercesc_3_1@@@2@QBXAAK@Z 100632eb f i xerces-c_3_1:XSValue.cpp.obj
 0001:000622eb       ?findBucketElem@?$ValueHashTableOf@GUStringHasher@xercesc_3_1@@@xercesc_3_1@@AAEPAU?$ValueHashTableBucketElem@G@2@QBXAAK@Z 100632eb f i xerces-c_3_1:GeneralAttributeCheck.cpp.obj
 0001:000622eb       ?findBucketElem@?$ValueHashTableOf@IUStringHasher@xercesc_3_1@@@xercesc_3_1@@AAEPAU?$ValueHashTableBucketElem@I@2@QBXAAK@Z 100632eb f i xerces-c_3_1:DOMLSParserImpl.cpp.obj
 0001:000622eb       ?findBucketElem@?$ValueHashTableOf@_WUStringHasher@xercesc_3_1@@@xercesc_3_1@@AAEPAU?$ValueHashTableBucketElem@_W@2@QBXAAK@Z 100632eb f i xerces-c_3_1:WFXMLScanner.cpp.obj
 0001:0006232b       ?isSubstitutableBy@DatatypeValidator@xercesc_3_1@@UAE_NQBV12@@Z 1006332b f i xerces-c_3_1:DatatypeValidatorFactory.cpp.obj
 0001:00062348       ??_EBooleanDatatypeValidator@xercesc_3_1@@UAEPAXI@Z 10063348 f i  CIL library: CIL module
 0001:00062348       ??_GBooleanDatatypeValidator@xercesc_3_1@@UAEPAXI@Z 10063348 f i xerces-c_3_1:DatatypeValidatorFactory.cpp.obj
 0001:0006236d       ?newInstance@BooleanDatatypeValidator@xercesc_3_1@@UAEPAVDatatypeValidator@2@QAV?$RefHashTableOf@VKVStringPair@xercesc_3_1@@UStringHasher@2@@2@QAV?$RefArrayVectorOf@_W@2@HQAVMemoryManager@2@@Z 1006336d f i xerces-c_3_1:DatatypeValidatorFactory.cpp.obj
 0001:000623bc       ??_GDatatypeValidatorFactory@xercesc_3_1@@UAEPAXI@Z 100633bc f i xerces-c_3_1:DatatypeValidatorFactory.cpp.obj
 0001:000623bc       ??_EDatatypeValidatorFactory@xercesc_3_1@@UAEPAXI@Z 100633bc f i  CIL library: CIL module
 0001:000623dc       ??1DatatypeValidatorFactory@xercesc_3_1@@UAE@XZ 100633dc f   xerces-c_3_1:DatatypeValidatorFactory.cpp.obj
 0001:0006241a       ?expandRegistryToFullSchemaSet@DatatypeValidatorFactory@xercesc_3_1@@AAEXXZ 1006341a f   xerces-c_3_1:DatatypeValidatorFactory.cpp.obj
 0001:000637f0       ?initCanRepRegistory@DatatypeValidatorFactory@xercesc_3_1@@QAEXXZ 100647f0 f   xerces-c_3_1:DatatypeValidatorFactory.cpp.obj
 0001:00063a49       ?createDatatypeValidator@DatatypeValidatorFactory@xercesc_3_1@@QAEPAVDatatypeValidator@2@QB_WQAV32@QAV?$RefHashTableOf@VKVStringPair@xercesc_3_1@@UStringHasher@2@@2@QAV?$RefArrayVectorOf@_W@2@_NH4QAVMemoryManager@2@@Z 10064a49 f   xerces-c_3_1:DatatypeValidatorFactory.cpp.obj
 0001:00063cf6       ?createDatatypeValidator@DatatypeValidatorFactory@xercesc_3_1@@QAEPAVDatatypeValidator@2@QB_WQAV?$RefVectorOf@VDatatypeValidator@xercesc_3_1@@@2@H_NQAVMemoryManager@2@@Z 10064cf6 f   xerces-c_3_1:DatatypeValidatorFactory.cpp.obj
 0001:00063f2e       ?createObject@DatatypeValidatorFactory@xercesc_3_1@@SAPAVXSerializable@2@PAVMemoryManager@2@@Z 10064f2e f   xerces-c_3_1:DatatypeValidatorFactory.cpp.obj
 0001:00063f59       ?getProtoType@DatatypeValidatorFactory@xercesc_3_1@@UBEPAVXProtoType@2@XZ 10064f59 f   xerces-c_3_1:DatatypeValidatorFactory.cpp.obj
 0001:00063f5f       ?serialize@DatatypeValidatorFactory@xercesc_3_1@@UAEXAAVXSerializeEngine@2@@Z 10064f5f f   xerces-c_3_1:DatatypeValidatorFactory.cpp.obj
 0001:00063f8c       ??0?$RefHashTableOf@VXMLAttDef@xercesc_3_1@@UStringHasher@2@@xercesc_3_1@@QAE@KQAVMemoryManager@1@@Z 10064f8c f i xerces-c_3_1:TraverseSchema.cpp.obj
 0001:00063f8c       ??0?$RefHashTableOf@VDatatypeValidator@xercesc_3_1@@UStringHasher@2@@xercesc_3_1@@QAE@KQAVMemoryManager@1@@Z 10064f8c f i xerces-c_3_1:DatatypeValidatorFactory.cpp.obj
 0001:00063f8c       ??0?$RefHashTableOf@VComplexTypeInfo@xercesc_3_1@@UStringHasher@2@@xercesc_3_1@@QAE@KQAVMemoryManager@1@@Z 10064f8c f i xerces-c_3_1:TraverseSchema.cpp.obj
 0001:00063fb0       ?elementAt@?$BaseRefVectorOf@_W@xercesc_3_1@@QAEPA_WK@Z 10064fb0 f i xerces-c_3_1:SGXMLScanner.cpp.obj
 0001:00063fb0       ?elementAt@?$BaseRefVectorOf@VDatatypeValidator@xercesc_3_1@@@xercesc_3_1@@QAEPAVDatatypeValidator@2@K@Z 10064fb0 f i xerces-c_3_1:DatatypeValidatorFactory.cpp.obj
 0001:00064015       ??0?$RefHashTableOf@VXMLCanRepGroup@xercesc_3_1@@UPtrHasher@2@@xercesc_3_1@@QAE@K_NQAVMemoryManager@1@@Z 10065015 f i xerces-c_3_1:DatatypeValidatorFactory.cpp.obj
 0001:00064056       ?put@?$RefHashTableOf@VXMLCanRepGroup@xercesc_3_1@@UPtrHasher@2@@xercesc_3_1@@QAEXPAXQAVXMLCanRepGroup@2@@Z 10065056 f i xerces-c_3_1:DatatypeValidatorFactory.cpp.obj
 0001:000640f4       ??0?$RefHashTableOf@VKVStringPair@xercesc_3_1@@UStringHasher@2@@xercesc_3_1@@QAE@KQAVMemoryManager@1@@Z 100650f4 f i xerces-c_3_1:DatatypeValidatorFactory.cpp.obj
 0001:0006411b       ?removeKey@?$RefHashTableOf@VKVStringPair@xercesc_3_1@@UStringHasher@2@@xercesc_3_1@@QAEXQBX@Z 1006511b f i xerces-c_3_1:DatatypeValidatorFactory.cpp.obj
 0001:000641dc       ??1?$Janitor@V?$RefHashTableOf@VKVStringPair@xercesc_3_1@@UStringHasher@2@@xercesc_3_1@@@xercesc_3_1@@QAE@XZ 100651dc f i xerces-c_3_1:DatatypeValidatorFactory.cpp.obj
 0001:000641ed       ?errorType@XMLValid@xercesc_3_1@@SA?AW4ErrTypes@XMLErrorReporter@2@W4Codes@12@@Z 100651ed f i xerces-c_3_1:XSDErrorReporter.cpp.obj
 0001:00064211       ??1XSDErrorReporter@xercesc_3_1@@UAE@XZ 10065211 f i xerces-c_3_1:XSDErrorReporter.cpp.obj
 0001:00064218       ??_EXSDErrorReporter@xercesc_3_1@@UAEPAXI@Z 10065218 f i  CIL library: CIL module
 0001:00064218       ??_GXSDErrorReporter@xercesc_3_1@@UAEPAXI@Z 10065218 f i xerces-c_3_1:XSDErrorReporter.cpp.obj
 0001:00064238       ?emitError@XSDErrorReporter@xercesc_3_1@@QAEXIQB_WQBVLocator@2@@Z 10065238 f   xerces-c_3_1:XSDErrorReporter.cpp.obj
 0001:000642f3       ?emitError@XSDErrorReporter@xercesc_3_1@@QAEXIQB_WQBVLocator@2@0000QAVMemoryManager@2@@Z 100652f3 f   xerces-c_3_1:XSDErrorReporter.cpp.obj
 0001:000643c5       ?emitError@XSDErrorReporter@xercesc_3_1@@QAEXABVXMLException@2@QBVLocator@2@@Z 100653c5 f   xerces-c_3_1:XSDErrorReporter.cpp.obj
 0001:0006441b       ??0IllegalArgumentException@xercesc_3_1@@QAE@QBD_KW4Codes@XMLExcepts@1@QB_W333PAVMemoryManager@1@@Z 1006541b f i xerces-c_3_1:DTDGrammar.cpp.obj
 0001:00064463       ??_EDTDEntityDecl@xercesc_3_1@@UAEPAXI@Z 10065463 f i  CIL library: CIL module
 0001:00064463       ??_GDTDEntityDecl@xercesc_3_1@@UAEPAXI@Z 10065463 f i xerces-c_3_1:DTDGrammar.cpp.obj
 0001:00064488       ?getDeclaredInIntSubset@DTDEntityDecl@xercesc_3_1@@UBE_NXZ 10065488 f i xerces-c_3_1:DTDGrammar.cpp.obj
 0001:0006448c       ?getIsParameter@DTDEntityDecl@xercesc_3_1@@UBE_NXZ 1006548c f i xerces-c_3_1:DTDGrammar.cpp.obj
 0001:00064490       ?getIsSpecialChar@DTDEntityDecl@xercesc_3_1@@UBE_NXZ 10065490 f i xerces-c_3_1:DTDGrammar.cpp.obj
 0001:00064494       ?getTargetNamespace@DTDGrammar@xercesc_3_1@@UBEPB_WXZ 10065494 f i xerces-c_3_1:DTDGrammar.cpp.obj
 0001:0006449a       ?getElemId@DTDGrammar@xercesc_3_1@@UBEKIQB_W0I@Z 1006549a f i xerces-c_3_1:DTDGrammar.cpp.obj
 0001:000644b8       ?getElemDecl@DTDGrammar@xercesc_3_1@@UAEPAVXMLElementDecl@2@IQB_W0I@Z 100654b8 f i xerces-c_3_1:DTDGrammar.cpp.obj
 0001:000644b8       ?getElemDecl@DTDGrammar@xercesc_3_1@@UBEPBVXMLElementDecl@2@IQB_W0I@Z 100654b8 f i xerces-c_3_1:DTDGrammar.cpp.obj
 0001:000644e3       ?getElemDecl@DTDGrammar@xercesc_3_1@@UAEPAVXMLElementDecl@2@I@Z 100654e3 f i xerces-c_3_1:DTDGrammar.cpp.obj
 0001:000644e3       ?getElemDecl@DTDGrammar@xercesc_3_1@@UBEPBVXMLElementDecl@2@I@Z 100654e3 f i xerces-c_3_1:DTDGrammar.cpp.obj
 0001:0006454a       ?putElemDecl@DTDGrammar@xercesc_3_1@@UAEKQAVXMLElementDecl@2@_N@Z 1006554a f i xerces-c_3_1:DTDGrammar.cpp.obj
 0001:000645b6       ?getIssueFatalErrorIfNotFound@DOMLSInputImpl@xercesc_3_1@@UBE_NXZ 100655b6 f i xerces-c_3_1:DOMLSInputImpl.cpp.obj
 0001:000645b6       ?getValidated@DTDGrammar@xercesc_3_1@@UBE_NXZ 100655b6 f i xerces-c_3_1:DTDGrammar.cpp.obj
 0001:000645ba       ?setIssueFatalErrorIfNotFound@DOMLSInputImpl@xercesc_3_1@@UAEX_N@Z 100655ba f i xerces-c_3_1:DOMLSInputImpl.cpp.obj
 0001:000645ba       ?setValidated@DTDGrammar@xercesc_3_1@@UAEX_N@Z 100655ba f i xerces-c_3_1:DTDGrammar.cpp.obj
 0001:000645c7       ?initializeDTDGrammar@XMLInitializer@xercesc_3_1@@CAXXZ 100655c7 f   xerces-c_3_1:DTDGrammar.cpp.obj
 0001:000647a1       ??0DTDGrammar@xercesc_3_1@@QAE@QAVMemoryManager@1@@Z 100657a1 f   xerces-c_3_1:DTDGrammar.cpp.obj
 0001:000648ab       ??_GDTDGrammar@xercesc_3_1@@UAEPAXI@Z 100658ab f i xerces-c_3_1:DTDGrammar.cpp.obj
 0001:000648ab       ??_EDTDGrammar@xercesc_3_1@@UAEPAXI@Z 100658ab f i  CIL library: CIL module
 0001:000648ca       ??1DTDGrammar@xercesc_3_1@@UAE@XZ 100658ca f   xerces-c_3_1:DTDGrammar.cpp.obj
 0001:00064939       ??_G?$NameIdPool@VDTDEntityDecl@xercesc_3_1@@@xercesc_3_1@@QAEPAXI@Z 10065939 f i xerces-c_3_1:DTDGrammar.cpp.obj
 0001:00064939       ??_G?$NameIdPool@VXMLNotationDecl@xercesc_3_1@@@xercesc_3_1@@QAEPAXI@Z 10065939 f i xerces-c_3_1:DTDGrammar.cpp.obj
 0001:00064939       ??_G?$NameIdPool@VDTDElementDecl@xercesc_3_1@@@xercesc_3_1@@QAEPAXI@Z 10065939 f i xerces-c_3_1:DTDGrammar.cpp.obj
 0001:00064989       ?findOrAddElemDecl@DTDGrammar@xercesc_3_1@@UAEPAVXMLElementDecl@2@IQB_W00IAA_N@Z 10065989 f   xerces-c_3_1:DTDGrammar.cpp.obj
 0001:00064a4f       ?putElemDecl@DTDGrammar@xercesc_3_1@@UAEPAVXMLElementDecl@2@IQB_W00I_N@Z 10065a4f f   xerces-c_3_1:DTDGrammar.cpp.obj
 0001:00064afd       ?reset@DTDGrammar@xercesc_3_1@@UAEXXZ 10065afd f   xerces-c_3_1:DTDGrammar.cpp.obj
 0001:00064b48       ?setGrammarDescription@DTDGrammar@xercesc_3_1@@UAEXPAVXMLGrammarDescription@2@@Z 10065b48 f   xerces-c_3_1:DTDGrammar.cpp.obj
 0001:00064b77       ?createObject@DTDGrammar@xercesc_3_1@@SAPAVXSerializable@2@PAVMemoryManager@2@@Z 10065b77 f   xerces-c_3_1:DTDGrammar.cpp.obj
 0001:00064bb7       ?getProtoType@DTDGrammar@xercesc_3_1@@UBEPAVXProtoType@2@XZ 10065bb7 f   xerces-c_3_1:DTDGrammar.cpp.obj
 0001:00064bbd       ?serialize@DTDGrammar@xercesc_3_1@@UAEXAAVXSerializeEngine@2@@Z 10065bbd f   xerces-c_3_1:DTDGrammar.cpp.obj
 0001:00064c45       ??0?$NameIdPool@VDTDEntityDecl@xercesc_3_1@@@xercesc_3_1@@QAE@KKQAVMemoryManager@1@@Z 10065c45 f i xerces-c_3_1:DTDGrammar.cpp.obj
 0001:00064cdf       ?put@?$NameIdPool@VDTDEntityDecl@xercesc_3_1@@@xercesc_3_1@@QAEKQAVDTDEntityDecl@2@@Z 10065cdf f i xerces-c_3_1:DTDGrammar.cpp.obj
 0001:00064da2       ?removeAll@?$NameIdPool@VDTDElementDecl@xercesc_3_1@@@xercesc_3_1@@QAEXXZ 10065da2 f i xerces-c_3_1:DTDGrammar.cpp.obj
 0001:00064db7       ?put@?$NameIdPool@VDTDElementDecl@xercesc_3_1@@@xercesc_3_1@@QAEKQAVDTDElementDecl@2@@Z 10065db7 f i xerces-c_3_1:DTDGrammar.cpp.obj
 0001:00064eac       ??0?$NameIdPool@VDTDElementDecl@xercesc_3_1@@@xercesc_3_1@@QAE@KKQAVMemoryManager@1@@Z 10065eac f i xerces-c_3_1:DTDGrammar.cpp.obj
 0001:00064eac       ??0?$NameIdPool@VXMLNotationDecl@xercesc_3_1@@@xercesc_3_1@@QAE@KKQAVMemoryManager@1@@Z 10065eac f i xerces-c_3_1:DTDGrammar.cpp.obj
 0001:00064f47       ?getByKey@?$NameIdPool@VDTDElementDecl@xercesc_3_1@@@xercesc_3_1@@QAEPAVDTDElementDecl@2@QB_W@Z 10065f47 f i xerces-c_3_1:DTDGrammar.cpp.obj
 0001:00064f47       ?getByKey@?$NameIdPool@VDTDEntityDecl@xercesc_3_1@@@xercesc_3_1@@QAEPAVDTDEntityDecl@2@QB_W@Z 10065f47 f i xerces-c_3_1:DGXMLScanner.cpp.obj
 0001:00064f47       ?getByKey@?$NameIdPool@VXMLNotationDecl@xercesc_3_1@@@xercesc_3_1@@QAEPAVXMLNotationDecl@2@QB_W@Z 10065f47 f i xerces-c_3_1:DTDGrammar.cpp.obj
 0001:00064f6d       ?put@?$NameIdPool@VXMLNotationDecl@xercesc_3_1@@@xercesc_3_1@@QAEKQAVXMLNotationDecl@2@@Z 10065f6d f i xerces-c_3_1:DTDGrammar.cpp.obj
 0001:0006504e       ?removeAll@?$RefHashTableOf@VXMLNotationDecl@xercesc_3_1@@UStringHasher@2@@xercesc_3_1@@QAEXXZ 1006604e f i xerces-c_3_1:DTDGrammar.cpp.obj
 0001:0006504e       ?removeAll@?$RefHashTableOf@VDatatypeValidator@xercesc_3_1@@UStringHasher@2@@xercesc_3_1@@QAEXXZ 1006604e f i xerces-c_3_1:DatatypeValidatorFactory.cpp.obj
 0001:0006504e       ?removeAll@?$RefHashTableOf@VXMLElementDecl@xercesc_3_1@@UStringHasher@2@@xercesc_3_1@@QAEXXZ 1006604e f i xerces-c_3_1:WFXMLScanner.cpp.obj
 0001:0006504e       ?removeAll@?$RefHashTableOf@VXSAnnotation@xercesc_3_1@@UPtrHasher@2@@xercesc_3_1@@QAEXXZ 1006604e f i xerces-c_3_1:XTemplateSerializer.cpp.obj
 0001:0006504e       ?removeAll@?$RefHashTableOf@VDTDEntityDecl@xercesc_3_1@@UStringHasher@2@@xercesc_3_1@@QAEXXZ 1006604e f i xerces-c_3_1:DTDGrammar.cpp.obj
 0001:0006504e       ?removeAll@?$RefHashTableOf@VGrammar@xercesc_3_1@@UStringHasher@2@@xercesc_3_1@@QAEXXZ 1006604e f i xerces-c_3_1:GrammarResolver.cpp.obj
 0001:0006504e       ?removeAll@?$RefHashTableOf@VDTDElementDecl@xercesc_3_1@@UStringHasher@2@@xercesc_3_1@@QAEXXZ 1006604e f i xerces-c_3_1:DTDGrammar.cpp.obj
 0001:0006504e       ?removeAll@?$RefHashTableOf@VXMLRefInfo@xercesc_3_1@@UStringHasher@2@@xercesc_3_1@@QAEXXZ 1006604e f i xerces-c_3_1:XMLScanner.cpp.obj
 0001:000650a4       ??1?$RefHashTableOf@VDTDElementDecl@xercesc_3_1@@UStringHasher@2@@xercesc_3_1@@QAE@XZ 100660a4 f i xerces-c_3_1:DTDGrammar.cpp.obj
 0001:000650a4       ??1?$RefHashTableOf@VDTDEntityDecl@xercesc_3_1@@UStringHasher@2@@xercesc_3_1@@QAE@XZ 100660a4 f i xerces-c_3_1:DTDGrammar.cpp.obj
 0001:000650a4       ??1?$RefHashTableOf@VXMLNotationDecl@xercesc_3_1@@UStringHasher@2@@xercesc_3_1@@QAE@XZ 100660a4 f i xerces-c_3_1:DTDGrammar.cpp.obj
 0001:000650bc       ?isEOLChar@RegxUtil@xercesc_3_1@@SA_N_W@Z 100660bc f i xerces-c_3_1:RegularExpression.cpp.obj
 0001:000650df       ?cleanUp@RegularExpression@xercesc_3_1@@IAEXXZ 100660df f i xerces-c_3_1:RegularExpression.cpp.obj
 0001:00065130       ?compileUnion@RegularExpression@xercesc_3_1@@IAEPAVOp@2@QBVToken@2@QAV32@_N@Z 10066130 f i xerces-c_3_1:RegularExpression.cpp.obj
 0001:000651d7       ?compileParenthesis@RegularExpression@xercesc_3_1@@IAEPAVOp@2@QBVToken@2@QAV32@_N@Z 100661d7 f i xerces-c_3_1:RegularExpression.cpp.obj
 0001:00065269       ?compileConcat@RegularExpression@xercesc_3_1@@IAEPAVOp@2@QBVToken@2@QAV32@_N@Z 10066269 f i xerces-c_3_1:RegularExpression.cpp.obj
 0001:000652d2       ?compileClosure@RegularExpression@xercesc_3_1@@IAEPAVOp@2@QBVToken@2@QAV32@_NW4tokType@42@@Z 100662d2 f i xerces-c_3_1:RegularExpression.cpp.obj
 0001:00065441       ?getNoGroups@Match@xercesc_3_1@@QBEHXZ 10066441 f i xerces-c_3_1:RegularExpression.cpp.obj
 0001:0006549d       ?getStartPos@Match@xercesc_3_1@@QBEHH@Z 1006649d f i xerces-c_3_1:RegularExpression.cpp.obj
 0001:0006553f       ?getEndPos@Match@xercesc_3_1@@QBEHH@Z 1006653f f i xerces-c_3_1:RegularExpression.cpp.obj
 0001:000655e7       ?setStartPos@Match@xercesc_3_1@@QAEXHH@Z 100665e7 f i xerces-c_3_1:RegularExpression.cpp.obj
 0001:00065692       ?setEndPos@Match@xercesc_3_1@@QAEXHH@Z 10066692 f i xerces-c_3_1:RegularExpression.cpp.obj
 0001:0006573d       ??0ParseException@xercesc_3_1@@QAE@ABV01@@Z 1006673d f i xerces-c_3_1:RegularExpression.cpp.obj
 0001:00065758       ??1ParseException@xercesc_3_1@@UAE@XZ 10066758 f i xerces-c_3_1:RegularExpression.cpp.obj
 0001:00065763       ?duplicate@ParseException@xercesc_3_1@@UBEPAVXMLException@2@XZ 10066763 f i xerces-c_3_1:RegularExpression.cpp.obj
 0001:000657ad       ?getType@ParseException@xercesc_3_1@@UBEPB_WXZ 100667ad f i xerces-c_3_1:RegularExpression.cpp.obj
 0001:000657b3       ??_GParseException@xercesc_3_1@@UAEPAXI@Z 100667b3 f i xerces-c_3_1:RegularExpression.cpp.obj
 0001:000657b3       ??_EParseException@xercesc_3_1@@UAEPAXI@Z 100667b3 f i  CIL library: CIL module
 0001:000657d8       ?matchIgnoreCase@RegularExpression@xercesc_3_1@@IBE_NHH@Z 100667d8 f   xerces-c_3_1:RegularExpression.cpp.obj
 0001:000658ad       ??0Context@RegularExpression@xercesc_3_1@@QAE@QAVMemoryManager@2@@Z 100668ad f   xerces-c_3_1:RegularExpression.cpp.obj
 0001:000658d9       ??0Context@RegularExpression@xercesc_3_1@@QAE@PAV012@@Z 100668d9 f   xerces-c_3_1:RegularExpression.cpp.obj
 0001:00065997       ??4Context@RegularExpression@xercesc_3_1@@QAEAAV012@ABV012@@Z 10066997 f   xerces-c_3_1:RegularExpression.cpp.obj
 0001:00065ad5       ??1Context@RegularExpression@xercesc_3_1@@QAE@XZ 10066ad5 f   xerces-c_3_1:RegularExpression.cpp.obj
 0001:00065af8       ?reset@Context@RegularExpression@xercesc_3_1@@QAEXQB_WKKKHI@Z 10066af8 f   xerces-c_3_1:RegularExpression.cpp.obj
 0001:00065b6a       ?nextCh@Context@RegularExpression@xercesc_3_1@@QAE_NAAHAAK@Z 10066b6a f   xerces-c_3_1:RegularExpression.cpp.obj
 0001:00065bdb       ??_GRegularExpression@xercesc_3_1@@UAEPAXI@Z 10066bdb f i xerces-c_3_1:RegularExpression.cpp.obj
 0001:00065bdb       ??_ERegularExpression@xercesc_3_1@@UAEPAXI@Z 10066bdb f i  CIL library: CIL module
 0001:00065bfa       ??0RegularExpression@xercesc_3_1@@QAE@QB_W0QAVMemoryManager@1@@Z 10066bfa f   xerces-c_3_1:RegularExpression.cpp.obj
 0001:00065ca1       ??1RegularExpression@xercesc_3_1@@UAE@XZ 10066ca1 f   xerces-c_3_1:RegularExpression.cpp.obj
 0001:00065cda       ?getRegexParser@RegularExpression@xercesc_3_1@@MAEPAVRegxParser@2@HQAVMemoryManager@2@@Z 10066cda f   xerces-c_3_1:RegularExpression.cpp.obj
 0001:00065d1e       ?setPattern@RegularExpression@xercesc_3_1@@IAEXQB_W0@Z 10066d1e f   xerces-c_3_1:RegularExpression.cpp.obj
 0001:00065dd2       ?matches@RegularExpression@xercesc_3_1@@QBE_NQB_WQAVMemoryManager@2@@Z 10066dd2 f   xerces-c_3_1:RegularExpression.cpp.obj
 0001:00065df0       ?matches@RegularExpression@xercesc_3_1@@QBE_NQB_WKKQAVMatch@2@QAVMemoryManager@2@@Z 10066df0 f   xerces-c_3_1:RegularExpression.cpp.obj
 0001:00066346       ?match@RegularExpression@xercesc_3_1@@IBEHQAVContext@12@QBVOp@2@K@Z 10067346 f   xerces-c_3_1:RegularExpression.cpp.obj
 0001:000667ee       ?matchRange@RegularExpression@xercesc_3_1@@IBE_NQAVContext@12@QBVOp@2@AAK_N@Z 100677ee f   xerces-c_3_1:RegularExpression.cpp.obj
 0001:0006683e       ?matchAnchor@RegularExpression@xercesc_3_1@@IBE_NQAVContext@12@HK@Z 1006783e f   xerces-c_3_1:RegularExpression.cpp.obj
 0001:000668d0       ?matchBackReference@RegularExpression@xercesc_3_1@@IBE_NQAVContext@12@HAAK_N@Z 100678d0 f   xerces-c_3_1:RegularExpression.cpp.obj
 0001:000669ba       ?matchString@RegularExpression@xercesc_3_1@@IBE_NQAVContext@12@QB_WAAK_N@Z 100679ba f   xerces-c_3_1:RegularExpression.cpp.obj
 0001:00066a0a       ?matchCapture@RegularExpression@xercesc_3_1@@IBEHQAVContext@12@QBVOp@2@K@Z 10067a0a f   xerces-c_3_1:RegularExpression.cpp.obj
 0001:00066aa0       ?matchUnion@RegularExpression@xercesc_3_1@@IBEHQAVContext@12@QBVOp@2@K@Z 10067aa0 f   xerces-c_3_1:RegularExpression.cpp.obj
 0001:00066b88       ?parseOptions@RegularExpression@xercesc_3_1@@IAEHQB_W@Z 10067b88 f   xerces-c_3_1:RegularExpression.cpp.obj
 0001:00066c58       ?compile@RegularExpression@xercesc_3_1@@IAEPAVOp@2@QBVToken@2@QAV32@_N@Z 10067c58 f   xerces-c_3_1:RegularExpression.cpp.obj
 0001:00066df8       ?prepare@RegularExpression@xercesc_3_1@@IAEXXZ 10067df8 f   xerces-c_3_1:RegularExpression.cpp.obj
 0001:0006702e       ?doTokenOverlap@RegularExpression@xercesc_3_1@@IAE_NPBVOp@2@PAVToken@2@@Z 1006802e f   xerces-c_3_1:RegularExpression.cpp.obj
 0001:00067138       ??1?$Janitor@V?$ValueStackOf@URE_RuntimeContext@xercesc_3_1@@@xercesc_3_1@@@xercesc_3_1@@QAE@XZ 10068138 f i xerces-c_3_1:RegularExpression.cpp.obj
 0001:00067140       ?reset@?$Janitor@V?$ValueStackOf@URE_RuntimeContext@xercesc_3_1@@@xercesc_3_1@@@xercesc_3_1@@QAEXPAV?$ValueStackOf@URE_RuntimeContext@xercesc_3_1@@@2@@Z 10068140 f i xerces-c_3_1:RegularExpression.cpp.obj
 0001:00067166       ?push@?$ValueStackOf@URE_RuntimeContext@xercesc_3_1@@@xercesc_3_1@@QAEXABURE_RuntimeContext@2@@Z 10068166 f i xerces-c_3_1:RegularExpression.cpp.obj
 0001:0006718f       ?pop@?$ValueStackOf@URE_RuntimeContext@xercesc_3_1@@@xercesc_3_1@@QAE?AURE_RuntimeContext@2@XZ 1006818f f i xerces-c_3_1:RegularExpression.cpp.obj
 0001:00067241       ?removeElementAt@?$ValueVectorOf@URE_RuntimeContext@xercesc_3_1@@@xercesc_3_1@@QAEXK@Z 10068241 f i xerces-c_3_1:RegularExpression.cpp.obj
 0001:000672ba       ?ensureExtraCapacity@?$ValueVectorOf@URE_RuntimeContext@xercesc_3_1@@@xercesc_3_1@@QAEXK@Z 100682ba f i xerces-c_3_1:RegularExpression.cpp.obj
 0001:0006732e       ??0RangeTokenMap@xercesc_3_1@@IAE@PAVMemoryManager@1@@Z 1006832e f   xerces-c_3_1:RangeTokenMap.cpp.obj
 0001:00067499       ?getRange@RangeTokenMap@xercesc_3_1@@IAEPAVRangeToken@2@QB_W_N@Z 10068499 f   xerces-c_3_1:RangeTokenMap.cpp.obj
 0001:00067582       ?addKeywordMap@RangeTokenMap@xercesc_3_1@@QAEXQB_W0@Z 10068582 f   xerces-c_3_1:RangeTokenMap.cpp.obj
 0001:00067646       ?setRangeToken@RangeTokenMap@xercesc_3_1@@QAEXQB_WQAVRangeToken@2@_N@Z 10068646 f   xerces-c_3_1:RangeTokenMap.cpp.obj
 0001:000676e0       ?initializeRegistry@RangeTokenMap@xercesc_3_1@@AAEXXZ 100686e0 f   xerces-c_3_1:RangeTokenMap.cpp.obj
 0001:000677f4       ?buildTokenRanges@RangeTokenMap@xercesc_3_1@@AAEXXZ 100687f4 f   xerces-c_3_1:RangeTokenMap.cpp.obj
 0001:00067886       ?cleanUp@RangeTokenMap@xercesc_3_1@@AAEXXZ 10068886 f   xerces-c_3_1:RangeTokenMap.cpp.obj
 0001:000678dc       ??_G?$RefHashTableOf@VXSerializedObjectId@xercesc_3_1@@UPtrHasher@2@@xercesc_3_1@@QAEPAXI@Z 100688dc f i xerces-c_3_1:XSerializeEngine.cpp.obj
 0001:000678dc       ??_G?$RefHashTableOf@VRangeTokenElemMap@xercesc_3_1@@UStringHasher@2@@xercesc_3_1@@QAEPAXI@Z 100688dc f i xerces-c_3_1:RangeTokenMap.cpp.obj
 0001:000678dc       ??_G?$RefHashTableOf@VXMLCanRepGroup@xercesc_3_1@@UPtrHasher@2@@xercesc_3_1@@QAEPAXI@Z 100688dc f i xerces-c_3_1:DatatypeValidatorFactory.cpp.obj
 0001:00067947       ?put@?$RefHashTableOf@VRangeTokenElemMap@xercesc_3_1@@UStringHasher@2@@xercesc_3_1@@QAEXPAXQAVRangeTokenElemMap@2@@Z 10068947 f i xerces-c_3_1:RangeTokenMap.cpp.obj
 0001:000679c5       ??1XMLValidator@xercesc_3_1@@UAE@XZ 100689c5 f i xerces-c_3_1:XMLValidator.cpp.obj
 0001:000679cc       ?emitError@XMLValidator@xercesc_3_1@@QAEXW4Codes@XMLValid@2@@Z 100689cc f   xerces-c_3_1:XMLValidator.cpp.obj
 0001:00067a90       ?emitError@XMLValidator@xercesc_3_1@@QAEXW4Codes@XMLValid@2@QB_W111@Z 10068a90 f   xerces-c_3_1:XMLValidator.cpp.obj
 0001:00067b6c       ?emitError@XMLValidator@xercesc_3_1@@QAEXW4Codes@XMLValid@2@W43XMLExcepts@2@QB_W222@Z 10068b6c f   xerces-c_3_1:XMLValidator.cpp.obj
 0001:00067c33       ??0ElemStack@xercesc_3_1@@QAE@QAVMemoryManager@1@@Z 10068c33 f   xerces-c_3_1:ElemStack.cpp.obj
 0001:00067d06       ??1ElemStack@xercesc_3_1@@QAE@XZ 10068d06 f   xerces-c_3_1:ElemStack.cpp.obj
 0001:00067dc7       ?addLevel@ElemStack@xercesc_3_1@@QAEKXZ 10068dc7 f   xerces-c_3_1:ElemStack.cpp.obj
 0001:00067ed2       ?addLevel@ElemStack@xercesc_3_1@@QAEKQAVXMLElementDecl@2@K@Z 10068ed2 f   xerces-c_3_1:ElemStack.cpp.obj
 0001:00067fe8       ?popTop@ElemStack@xercesc_3_1@@QAEPBUStackElem@12@XZ 10068fe8 f   xerces-c_3_1:ElemStack.cpp.obj
 0001:00068052       ?setElement@ElemStack@xercesc_3_1@@QAEXQAVXMLElementDecl@2@K@Z 10069052 f   xerces-c_3_1:ElemStack.cpp.obj
 0001:000680cf       ?addChild@ElemStack@xercesc_3_1@@QAEKQAVQName@2@_N@Z 100690cf f   xerces-c_3_1:ElemStack.cpp.obj
 0001:0006821a       ?topElement@ElemStack@xercesc_3_1@@QBEPBUStackElem@12@XZ 1006921a f   xerces-c_3_1:ElemStack.cpp.obj
 0001:00068281       ?addGlobalPrefix@ElemStack@xercesc_3_1@@QAEXQB_WI@Z 10069281 f   xerces-c_3_1:ElemStack.cpp.obj
 0001:0006836a       ?addPrefix@ElemStack@xercesc_3_1@@QAEXQB_WI@Z 1006936a f   xerces-c_3_1:ElemStack.cpp.obj
 0001:00068420       ?mapPrefixToURI@ElemStack@xercesc_3_1@@QBEIQB_WAA_N@Z 10069420 f   xerces-c_3_1:ElemStack.cpp.obj
 0001:00068503       ?getNamespaceMap@ElemStack@xercesc_3_1@@QBEPAV?$ValueVectorOf@PAUPrefMapElem@xercesc_3_1@@@2@XZ 10069503 f   xerces-c_3_1:ElemStack.cpp.obj
 0001:00068590       ?reset@ElemStack@xercesc_3_1@@QAEXIIII@Z 10069590 f   xerces-c_3_1:ElemStack.cpp.obj
 0001:0006860a       ?expandMap@ElemStack@xercesc_3_1@@AAEXQAUStackElem@12@@Z 1006960a f   xerces-c_3_1:ElemStack.cpp.obj
 0001:0006867b       ?expandStack@ElemStack@xercesc_3_1@@AAEXXZ 1006967b f   xerces-c_3_1:ElemStack.cpp.obj
 0001:000686f3       ??1ValidationContext@xercesc_3_1@@UAE@XZ 100696f3 f i xerces-c_3_1:ValidationContextImpl.cpp.obj
 0001:000686fa       ??_GValidationContext@xercesc_3_1@@UAEPAXI@Z 100696fa f i xerces-c_3_1:ValidationContextImpl.cpp.obj
 0001:000686fa       ??_EValidationContext@xercesc_3_1@@UAEPAXI@Z 100696fa f i  CIL library: CIL module
 0001:0006871a       ?setGrammar@SchemaValidator@xercesc_3_1@@UAEXPAVGrammar@2@@Z 1006971a f i xerces-c_3_1:SchemaValidator.cpp.obj
 0001:0006871a       ?setElemStack@ValidationContextImpl@xercesc_3_1@@UAEXPAVElemStack@2@@Z 1006971a f i xerces-c_3_1:ValidationContextImpl.cpp.obj
 0001:00068727       ?setNamespaceScope@ValidationContextImpl@xercesc_3_1@@UAEXPAVNamespaceScope@2@@Z 10069727 f i xerces-c_3_1:ValidationContextImpl.cpp.obj
 0001:00068734       ??0XMLRefInfo@xercesc_3_1@@QAE@QB_W_N1QAVMemoryManager@1@@Z 10069734 f i xerces-c_3_1:ValidationContextImpl.cpp.obj
 0001:00068778       ??_GXMLRefInfo@xercesc_3_1@@UAEPAXI@Z 10069778 f i xerces-c_3_1:ValidationContextImpl.cpp.obj
 0001:00068778       ??_EXMLRefInfo@xercesc_3_1@@UAEPAXI@Z 10069778 f i  CIL library: CIL module
 0001:000687c6       ??0InvalidDatatypeValueException@xercesc_3_1@@QAE@ABV01@@Z 100697c6 f i xerces-c_3_1:ValidationContextImpl.cpp.obj
 0001:000687e1       ??1InvalidDatatypeValueException@xercesc_3_1@@UAE@XZ 100697e1 f i xerces-c_3_1:ValidationContextImpl.cpp.obj
 0001:000687ec       ?duplicate@InvalidDatatypeValueException@xercesc_3_1@@UBEPAVXMLException@2@XZ 100697ec f i xerces-c_3_1:ValidationContextImpl.cpp.obj
 0001:00068836       ?getType@InvalidDatatypeValueException@xercesc_3_1@@UBEPB_WXZ 10069836 f i xerces-c_3_1:ValidationContextImpl.cpp.obj
 0001:0006883c       ??_GInvalidDatatypeValueException@xercesc_3_1@@UAEPAXI@Z 1006983c f i xerces-c_3_1:ValidationContextImpl.cpp.obj
 0001:0006883c       ??_EInvalidDatatypeValueException@xercesc_3_1@@UAEPAXI@Z 1006983c f i  CIL library: CIL module
 0001:00068861       ??1ValidationContextImpl@xercesc_3_1@@UAE@XZ 10069861 f   xerces-c_3_1:ValidationContextImpl.cpp.obj
 0001:0006889b       ??_GValidationContextImpl@xercesc_3_1@@UAEPAXI@Z 1006989b f i xerces-c_3_1:ValidationContextImpl.cpp.obj
 0001:0006889b       ??_EValidationContextImpl@xercesc_3_1@@UAEPAXI@Z 1006989b f i  CIL library: CIL module
 0001:000688ba       ??0ValidationContextImpl@xercesc_3_1@@QAE@QAVMemoryManager@1@@Z 100698ba f   xerces-c_3_1:ValidationContextImpl.cpp.obj
 0001:0006893f       ?setIdRefList@ValidationContextImpl@xercesc_3_1@@UAEXQAV?$RefHashTableOf@VXMLRefInfo@xercesc_3_1@@UStringHasher@2@@2@@Z 1006993f f   xerces-c_3_1:ValidationContextImpl.cpp.obj
 0001:0006895c       ?clearIdRefList@ValidationContextImpl@xercesc_3_1@@UAEXXZ 1006995c f   xerces-c_3_1:ValidationContextImpl.cpp.obj
 0001:0006896b       ?addId@ValidationContextImpl@xercesc_3_1@@UAEXQB_W@Z 1006996b f   xerces-c_3_1:ValidationContextImpl.cpp.obj
 0001:00068a3b       ?addIdRef@ValidationContextImpl@xercesc_3_1@@UAEXQB_W@Z 10069a3b f   xerces-c_3_1:ValidationContextImpl.cpp.obj
 0001:00068ab9       ?toCheckIdRefList@ValidationContextImpl@xercesc_3_1@@UAEX_N@Z 10069ab9 f   xerces-c_3_1:ValidationContextImpl.cpp.obj
 0001:00068ac6       ?setEntityDeclPool@ValidationContextImpl@xercesc_3_1@@UAEPBV?$NameIdPool@VDTDEntityDecl@xercesc_3_1@@@2@QBV32@@Z 10069ac6 f   xerces-c_3_1:ValidationContextImpl.cpp.obj
 0001:00068ad6       ?checkEntity@ValidationContextImpl@xercesc_3_1@@UBEXQB_W@Z 10069ad6 f   xerces-c_3_1:ValidationContextImpl.cpp.obj
 0001:00068bc8       ?isPrefixUnknown@ValidationContextImpl@xercesc_3_1@@UAE_NPA_W@Z 10069bc8 f   xerces-c_3_1:ValidationContextImpl.cpp.obj
 0001:00068c36       ?getURIForPrefix@ValidationContextImpl@xercesc_3_1@@UAEPB_WPA_W@Z 10069c36 f   xerces-c_3_1:ValidationContextImpl.cpp.obj
 0001:00068c8e       ?initialize@?$RefHashTableOf@VXMLRefInfo@xercesc_3_1@@UStringHasher@2@@xercesc_3_1@@AAEXK@Z 10069c8e f i xerces-c_3_1:ValidationContextImpl.cpp.obj
 0001:00068d01       ?lookupByName@XMLURL@xercesc_3_1@@SA?AW4Protocols@12@QB_W@Z 10069d01 f   xerces-c_3_1:XMLURL.cpp.obj
 0001:00068d37       ??0XMLURL@xercesc_3_1@@QAE@QAVMemoryManager@1@@Z 10069d37 f   xerces-c_3_1:XMLURL.cpp.obj
 0001:00068d65       ??_EXMLURL@xercesc_3_1@@UAEPAXI@Z 10069d65 f i  CIL library: CIL module
 0001:00068d65       ??_GXMLURL@xercesc_3_1@@UAEPAXI@Z 10069d65 f i xerces-c_3_1:XMLURL.cpp.obj
 0001:00068d8a       ??0XMLURL@xercesc_3_1@@QAE@QB_WQAVMemoryManager@1@@Z 10069d8a f   xerces-c_3_1:XMLURL.cpp.obj
 0001:00068e28       ??0XMLURL@xercesc_3_1@@QAE@ABV01@@Z 10069e28 f   xerces-c_3_1:XMLURL.cpp.obj
 0001:00068f23       ??1XMLURL@xercesc_3_1@@UAE@XZ 10069f23 f   xerces-c_3_1:XMLURL.cpp.obj
 0001:00068f2e       ??4XMLURL@xercesc_3_1@@QAEAAV01@ABV01@@Z 10069f2e f   xerces-c_3_1:XMLURL.cpp.obj
 0001:00068fc7       ?getPortNum@XMLURL@xercesc_3_1@@QBEIXZ 10069fc7 f   xerces-c_3_1:XMLURL.cpp.obj
 0001:00068fe3       ?getProtocolName@XMLURL@xercesc_3_1@@QBEPB_WXZ 10069fe3 f   xerces-c_3_1:XMLURL.cpp.obj
 0001:00069049       ?setURL@XMLURL@xercesc_3_1@@QAE_NQB_W0AAV12@@Z 1006a049 f   xerces-c_3_1:XMLURL.cpp.obj
 0001:000696e8       ?setURL@XMLURL@xercesc_3_1@@QAEXABV12@QB_W@Z 1006a6e8 f   xerces-c_3_1:XMLURL.cpp.obj
 0001:00069717       ?isRelative@XMLURL@xercesc_3_1@@QBE_NXZ 1006a717 f   xerces-c_3_1:XMLURL.cpp.obj
 0001:0006972f       ?makeNewStream@XMLURL@xercesc_3_1@@QBEPAVBinInputStream@2@XZ 1006a72f f   xerces-c_3_1:XMLURL.cpp.obj
 0001:00069932       ?buildFullText@XMLURL@xercesc_3_1@@AAEXXZ 1006a932 f   xerces-c_3_1:XMLURL.cpp.obj
 0001:00069aff       ?cleanUp@XMLURL@xercesc_3_1@@AAEXXZ 1006aaff f   xerces-c_3_1:XMLURL.cpp.obj
 0001:00069b75       ?conglomerateWithBase@XMLURL@xercesc_3_1@@AAE_NABV12@_N@Z 1006ab75 f   xerces-c_3_1:XMLURL.cpp.obj
 0001:00069d74       ?parse@XMLURL@xercesc_3_1@@AAEXQB_W@Z 1006ad74 f   xerces-c_3_1:XMLURL.cpp.obj
 0001:0006a1de       ?parse@XMLURL@xercesc_3_1@@SA_NQB_WAAV12@@Z 1006b1de f   xerces-c_3_1:XMLURL.cpp.obj
 0001:0006a4f8       ??0URLInputSource@xercesc_3_1@@QAE@ABVXMLURL@1@QAVMemoryManager@1@@Z 1006b4f8 f   xerces-c_3_1:URLInputSource.cpp.obj
 0001:0006a55b       ??_GURLInputSource@xercesc_3_1@@UAEPAXI@Z 1006b55b f i xerces-c_3_1:URLInputSource.cpp.obj
 0001:0006a55b       ??_EURLInputSource@xercesc_3_1@@UAEPAXI@Z 1006b55b f i  CIL library: CIL module
 0001:0006a57b       ??1URLInputSource@xercesc_3_1@@UAE@XZ 1006b57b f   xerces-c_3_1:URLInputSource.cpp.obj
 0001:0006a5bb       ?makeStream@URLInputSource@xercesc_3_1@@UBEPAVBinInputStream@2@XZ 1006b5bb f   xerces-c_3_1:URLInputSource.cpp.obj
 0001:0006a5c7       ??0XSerializationException@xercesc_3_1@@QAE@ABV01@@Z 1006b5c7 f i xerces-c_3_1:XMLGrammarPoolImpl.cpp.obj
 0001:0006a5e2       ??1XSerializationException@xercesc_3_1@@UAE@XZ 1006b5e2 f i xerces-c_3_1:XMLGrammarPoolImpl.cpp.obj
 0001:0006a5ed       ?duplicate@XSerializationException@xercesc_3_1@@UBEPAVXMLException@2@XZ 1006b5ed f i xerces-c_3_1:XMLGrammarPoolImpl.cpp.obj
 0001:0006a637       ?getType@XSerializationException@xercesc_3_1@@UBEPB_WXZ 1006b637 f i xerces-c_3_1:XMLGrammarPoolImpl.cpp.obj
 0001:0006a63d       ??_EXSerializationException@xercesc_3_1@@UAEPAXI@Z 1006b63d f i  CIL library: CIL module
 0001:0006a63d       ??_GXSerializationException@xercesc_3_1@@UAEPAXI@Z 1006b63d f i xerces-c_3_1:XMLGrammarPoolImpl.cpp.obj
 0001:0006a662       ??1XMLGrammarPool@xercesc_3_1@@UAE@XZ 1006b662 f i xerces-c_3_1:XMLGrammarPoolImpl.cpp.obj
 0001:0006a669       ??_GXMLGrammarPool@xercesc_3_1@@UAEPAXI@Z 1006b669 f i xerces-c_3_1:XMLGrammarPoolImpl.cpp.obj
 0001:0006a669       ??_EXMLGrammarPool@xercesc_3_1@@UAEPAXI@Z 1006b669 f i  CIL library: CIL module
 0001:0006a689       ?createXSModel@XMLGrammarPoolImpl@xercesc_3_1@@EAEXXZ 1006b689 f   xerces-c_3_1:XMLGrammarPoolImpl.cpp.obj
 0001:0006a6f3       ??_EXMLGrammarPoolImpl@xercesc_3_1@@UAEPAXI@Z 1006b6f3 f i  CIL library: CIL module
 0001:0006a6f3       ??_GXMLGrammarPoolImpl@xercesc_3_1@@UAEPAXI@Z 1006b6f3 f i xerces-c_3_1:XMLGrammarPoolImpl.cpp.obj
 0001:0006a773       ??0XMLGrammarPoolImpl@xercesc_3_1@@QAE@QAVMemoryManager@1@@Z 1006b773 f   xerces-c_3_1:XMLGrammarPoolImpl.cpp.obj
 0001:0006a80f       ?cacheGrammar@XMLGrammarPoolImpl@xercesc_3_1@@UAE_NQAVGrammar@2@@Z 1006b80f f   xerces-c_3_1:XMLGrammarPoolImpl.cpp.obj
 0001:0006a870       ?retrieveGrammar@XMLGrammarPoolImpl@xercesc_3_1@@UAEPAVGrammar@2@QAVXMLGrammarDescription@2@@Z 1006b870 f   xerces-c_3_1:XMLGrammarPoolImpl.cpp.obj
 0001:0006a894       ?orphanGrammar@XMLGrammarPoolImpl@xercesc_3_1@@UAEPAVGrammar@2@QB_W@Z 1006b894 f   xerces-c_3_1:XMLGrammarPoolImpl.cpp.obj
 0001:0006a8d4       ?getGrammarEnumerator@XMLGrammarPoolImpl@xercesc_3_1@@UBE?AV?$RefHashTableOfEnumerator@VGrammar@xercesc_3_1@@UStringHasher@2@@2@XZ 1006b8d4 f   xerces-c_3_1:XMLGrammarPoolImpl.cpp.obj
 0001:0006a8f1       ?clear@XMLGrammarPoolImpl@xercesc_3_1@@UAE_NXZ 1006b8f1 f   xerces-c_3_1:XMLGrammarPoolImpl.cpp.obj
 0001:0006a929       ?lockPool@XMLGrammarPoolImpl@xercesc_3_1@@UAEXXZ 1006b929 f   xerces-c_3_1:XMLGrammarPoolImpl.cpp.obj
 0001:0006a9b3       ?unlockPool@XMLGrammarPoolImpl@xercesc_3_1@@UAEXXZ 1006b9b3 f   xerces-c_3_1:XMLGrammarPoolImpl.cpp.obj
 0001:0006a9fd       ?createDTDGrammar@XMLGrammarPoolImpl@xercesc_3_1@@UAEPAVDTDGrammar@2@XZ 1006b9fd f   xerces-c_3_1:XMLGrammarPoolImpl.cpp.obj
 0001:0006aa43       ?createSchemaGrammar@XMLGrammarPoolImpl@xercesc_3_1@@UAEPAVSchemaGrammar@2@XZ 1006ba43 f   xerces-c_3_1:XMLGrammarPoolImpl.cpp.obj
 0001:0006aa89       ?createDTDDescription@XMLGrammarPoolImpl@xercesc_3_1@@UAEPAVXMLDTDDescription@2@QB_W@Z 1006ba89 f   xerces-c_3_1:XMLGrammarPoolImpl.cpp.obj
 0001:0006aad4       ?createSchemaDescription@XMLGrammarPoolImpl@xercesc_3_1@@UAEPAVXMLSchemaDescription@2@QB_W@Z 1006bad4 f   xerces-c_3_1:XMLGrammarPoolImpl.cpp.obj
 0001:0006ab1f       ?getXSModel@XMLGrammarPoolImpl@xercesc_3_1@@UAEPAVXSModel@2@AA_N@Z 1006bb1f f   xerces-c_3_1:XMLGrammarPoolImpl.cpp.obj
 0001:0006ab48       ?getURIStringPool@XMLGrammarPoolImpl@xercesc_3_1@@UAEPAVXMLStringPool@2@XZ 1006bb48 f   xerces-c_3_1:XMLGrammarPoolImpl.cpp.obj
 0001:0006ab56       ?serializeGrammars@XMLGrammarPoolImpl@xercesc_3_1@@UAEXQAVBinOutputStream@2@@Z 1006bb56 f   xerces-c_3_1:XMLGrammarPoolImpl.cpp.obj
 0001:0006ac59       ?deserializeGrammars@XMLGrammarPoolImpl@xercesc_3_1@@UAEXQAVBinInputStream@2@@Z 1006bc59 f   xerces-c_3_1:XMLGrammarPoolImpl.cpp.obj
 0001:0006ae50       ?cleanUp@XMLGrammarPoolImpl@xercesc_3_1@@AAEXXZ 1006be50 f   xerces-c_3_1:XMLGrammarPoolImpl.cpp.obj
 0001:0006ae59       ?getElemEnumerator@SchemaGrammar@xercesc_3_1@@QBE?AV?$RefHash3KeysIdPoolEnumerator@VSchemaElementDecl@xercesc_3_1@@UStringHasher@2@@2@XZ 1006be59 f i xerces-c_3_1:XSModel.cpp.obj
 0001:0006ae76       ?getNotationEnumerator@SchemaGrammar@xercesc_3_1@@QBE?AV?$NameIdPoolEnumerator@VXMLNotationDecl@xercesc_3_1@@@2@XZ 1006be76 f i xerces-c_3_1:XSModel.cpp.obj
 0001:0006ae94       ??0XSModel@xercesc_3_1@@QAE@PAVXMLGrammarPool@1@QAVMemoryManager@1@@Z 1006be94 f   xerces-c_3_1:XSModel.cpp.obj
 0001:0006b24c       ??0XSModel@xercesc_3_1@@QAE@PAV01@PAVGrammarResolver@1@QAVMemoryManager@1@@Z 1006c24c f   xerces-c_3_1:XSModel.cpp.obj
 0001:0006b8ad       ??1XSModel@xercesc_3_1@@QAE@XZ 1006c8ad f   xerces-c_3_1:XSModel.cpp.obj
 0001:0006ba77       ??_G?$XSNamedMap@VXSObject@xercesc_3_1@@@xercesc_3_1@@QAEPAXI@Z 1006ca77 f i xerces-c_3_1:XSModel.cpp.obj
 0001:0006ba9c       ?addComponentToNamespace@XSModel@xercesc_3_1@@AAEXQAVXSNamespaceItem@2@QAVXSObject@2@K_N@Z 1006ca9c f   xerces-c_3_1:XSModel.cpp.obj
 0001:0006bb00       ?addS4SToXSModel@XSModel@xercesc_3_1@@AAEXQAVXSNamespaceItem@2@QAV?$RefHashTableOf@VDatatypeValidator@xercesc_3_1@@UStringHasher@2@@2@@Z 1006cb00 f   xerces-c_3_1:XSModel.cpp.obj
 0001:0006bbe2       ?addGrammarToXSModel@XSModel@xercesc_3_1@@AAEXPAVXSNamespaceItem@2@@Z 1006cbe2 f   xerces-c_3_1:XSModel.cpp.obj
 0001:0006bed6       ?getTypeDefinition@XSModel@xercesc_3_1@@QAEPAVXSTypeDefinition@2@PB_W0@Z 1006ced6 f   xerces-c_3_1:XSModel.cpp.obj
 0001:0006bf00       ?getNamespaceItem@XSModel@xercesc_3_1@@QAEPAVXSNamespaceItem@2@QB_W@Z 1006cf00 f   xerces-c_3_1:XSModel.cpp.obj
 0001:0006bf36       ?getXSObject@XSModel@xercesc_3_1@@QAEPAVXSObject@2@PAX@Z 1006cf36 f   xerces-c_3_1:XSModel.cpp.obj
 0001:0006bf86       ??1?$XMLEnumerator@VSchemaElementDecl@xercesc_3_1@@@xercesc_3_1@@UAE@XZ 1006cf86 f i xerces-c_3_1:XSModel.cpp.obj
 0001:0006bf8d       ??1?$XMLEnumerator@VDatatypeValidator@xercesc_3_1@@@xercesc_3_1@@UAE@XZ 1006cf8d f i xerces-c_3_1:XSModel.cpp.obj
 0001:0006bf94       ??1?$XMLEnumerator@VXMLAttDef@xercesc_3_1@@@xercesc_3_1@@UAE@XZ 1006cf94 f i xerces-c_3_1:XSModel.cpp.obj
 0001:0006bf9b       ??1?$XMLEnumerator@VComplexTypeInfo@xercesc_3_1@@@xercesc_3_1@@UAE@XZ 1006cf9b f i xerces-c_3_1:XSModel.cpp.obj
 0001:0006bfa2       ??1?$XMLEnumerator@VXercesAttGroupInfo@xercesc_3_1@@@xercesc_3_1@@UAE@XZ 1006cfa2 f i xerces-c_3_1:XSModel.cpp.obj
 0001:0006bfa9       ??1?$XMLEnumerator@VXercesGroupInfo@xercesc_3_1@@@xercesc_3_1@@UAE@XZ 1006cfa9 f i xerces-c_3_1:XSModel.cpp.obj
 0001:0006bfb0       ??_E?$XMLEnumerator@VSchemaElementDecl@xercesc_3_1@@@xercesc_3_1@@UAEPAXI@Z 1006cfb0 f i  CIL library: CIL module
 0001:0006bfb0       ??_G?$XMLEnumerator@VSchemaElementDecl@xercesc_3_1@@@xercesc_3_1@@UAEPAXI@Z 1006cfb0 f i xerces-c_3_1:XSModel.cpp.obj
 0001:0006bfd0       ??_G?$XMLEnumerator@VXMLNotationDecl@xercesc_3_1@@@xercesc_3_1@@UAEPAXI@Z 1006cfd0 f i xerces-c_3_1:XSModel.cpp.obj
 0001:0006bfd0       ??_E?$XMLEnumerator@VXMLNotationDecl@xercesc_3_1@@@xercesc_3_1@@UAEPAXI@Z 1006cfd0 f i  CIL library: CIL module
 0001:0006bff0       ??_E?$XMLEnumerator@VDatatypeValidator@xercesc_3_1@@@xercesc_3_1@@UAEPAXI@Z 1006cff0 f i  CIL library: CIL module
 0001:0006bff0       ??_G?$XMLEnumerator@VDatatypeValidator@xercesc_3_1@@@xercesc_3_1@@UAEPAXI@Z 1006cff0 f i xerces-c_3_1:XSModel.cpp.obj
 0001:0006c010       ??_E?$XMLEnumerator@VXMLAttDef@xercesc_3_1@@@xercesc_3_1@@UAEPAXI@Z 1006d010 f i  CIL library: CIL module
 0001:0006c010       ??_G?$XMLEnumerator@VXMLAttDef@xercesc_3_1@@@xercesc_3_1@@UAEPAXI@Z 1006d010 f i xerces-c_3_1:XSModel.cpp.obj
 0001:0006c030       ??_G?$XMLEnumerator@VComplexTypeInfo@xercesc_3_1@@@xercesc_3_1@@UAEPAXI@Z 1006d030 f i xerces-c_3_1:XSModel.cpp.obj
 0001:0006c030       ??_E?$XMLEnumerator@VComplexTypeInfo@xercesc_3_1@@@xercesc_3_1@@UAEPAXI@Z 1006d030 f i  CIL library: CIL module
 0001:0006c050       ??_E?$XMLEnumerator@VXercesAttGroupInfo@xercesc_3_1@@@xercesc_3_1@@UAEPAXI@Z 1006d050 f i  CIL library: CIL module
 0001:0006c050       ??_G?$XMLEnumerator@VXercesAttGroupInfo@xercesc_3_1@@@xercesc_3_1@@UAEPAXI@Z 1006d050 f i xerces-c_3_1:XSModel.cpp.obj
 0001:0006c070       ??_E?$XMLEnumerator@VXercesGroupInfo@xercesc_3_1@@@xercesc_3_1@@UAEPAXI@Z 1006d070 f i  CIL library: CIL module
 0001:0006c070       ??_G?$XMLEnumerator@VXercesGroupInfo@xercesc_3_1@@@xercesc_3_1@@UAEPAXI@Z 1006d070 f i xerces-c_3_1:XSModel.cpp.obj
 0001:0006c090       ??0?$RefHash3KeysIdPoolEnumerator@VSchemaElementDecl@xercesc_3_1@@UStringHasher@2@@xercesc_3_1@@QAE@QAV?$RefHash3KeysIdPool@VSchemaElementDecl@xercesc_3_1@@UStringHasher@2@@1@_NQAVMemoryManager@1@@Z 1006d090 f i xerces-c_3_1:XSModel.cpp.obj
 0001:0006c120       ??1?$RefHash3KeysIdPoolEnumerator@VSchemaElementDecl@xercesc_3_1@@UStringHasher@2@@xercesc_3_1@@UAE@XZ 1006d120 f i xerces-c_3_1:XSModel.cpp.obj
 0001:0006c160       ?hasMoreElements@?$RefHash3KeysIdPoolEnumerator@VSchemaElementDecl@xercesc_3_1@@UStringHasher@2@@xercesc_3_1@@UBE_NXZ 1006d160 f i xerces-c_3_1:XSModel.cpp.obj
 0001:0006c175       ?nextElement@?$RefHash3KeysIdPoolEnumerator@VSchemaElementDecl@xercesc_3_1@@UStringHasher@2@@xercesc_3_1@@UAEAAVSchemaElementDecl@2@XZ 1006d175 f i xerces-c_3_1:XSModel.cpp.obj
 0001:0006c1e4       ?Reset@?$RefHash3KeysIdPoolEnumerator@VSchemaElementDecl@xercesc_3_1@@UStringHasher@2@@xercesc_3_1@@UAEXXZ 1006d1e4 f i xerces-c_3_1:XSModel.cpp.obj
 0001:0006c1f3       ??1?$NameIdPoolEnumerator@VXMLNotationDecl@xercesc_3_1@@@xercesc_3_1@@UAE@XZ 1006d1f3 f i xerces-c_3_1:XSModel.cpp.obj
 0001:0006c1fa       ?hasMoreElements@?$NameIdPoolEnumerator@VDTDEntityDecl@xercesc_3_1@@@xercesc_3_1@@UBE_NXZ 1006d1fa f i xerces-c_3_1:XTemplateSerializer.cpp.obj
 0001:0006c1fa       ?hasMoreElements@?$NameIdPoolEnumerator@VDTDElementDecl@xercesc_3_1@@@xercesc_3_1@@UBE_NXZ 1006d1fa f i xerces-c_3_1:XTemplateSerializer.cpp.obj
 0001:0006c1fa       ?hasMoreElements@?$NameIdPoolEnumerator@VXMLNotationDecl@xercesc_3_1@@@xercesc_3_1@@UBE_NXZ 1006d1fa f i xerces-c_3_1:XSModel.cpp.obj
 0001:0006c20f       ??0?$XSNamedMap@VXSObject@xercesc_3_1@@@xercesc_3_1@@QAE@KKPAVXMLStringPool@1@_NQAVMemoryManager@1@@Z 1006d20f f i xerces-c_3_1:XSModel.cpp.obj
 0001:0006c2c4       ?addElement@?$XSNamedMap@VXSObject@xercesc_3_1@@@xercesc_3_1@@QAEXQAVXSObject@2@PB_W1@Z 1006d2c4 f i xerces-c_3_1:XSModel.cpp.obj
 0001:0006c2f2       ??1?$BaseRefVectorOf@VXSObject@xercesc_3_1@@@xercesc_3_1@@UAE@XZ 1006d2f2 f i xerces-c_3_1:XSModel.cpp.obj
 0001:0006c2f9       ??0?$RefVectorOf@VXSObject@xercesc_3_1@@@xercesc_3_1@@QAE@K_NQAVMemoryManager@1@@Z 1006d2f9 f i xerces-c_3_1:XSModel.cpp.obj
 0001:0006c339       ??1?$BaseRefVectorOf@VXSNamespaceItem@xercesc_3_1@@@xercesc_3_1@@UAE@XZ 1006d339 f i xerces-c_3_1:XSModel.cpp.obj
 0001:0006c340       ?setElementAt@?$BaseRefVectorOf@VXSNamespaceItem@xercesc_3_1@@@xercesc_3_1@@UAEXQAVXSNamespaceItem@2@K@Z 1006d340 f i xerces-c_3_1:XSModel.cpp.obj
 0001:0006c3bf       ?removeAllElements@?$BaseRefVectorOf@VXSNamespaceItem@xercesc_3_1@@@xercesc_3_1@@UAEXXZ 1006d3bf f i xerces-c_3_1:XSModel.cpp.obj
 0001:0006c3f4       ?removeElementAt@?$BaseRefVectorOf@VXSNamespaceItem@xercesc_3_1@@@xercesc_3_1@@UAEXK@Z 1006d3f4 f i xerces-c_3_1:XSModel.cpp.obj
 0001:0006c4a6       ?removeLastElement@?$BaseRefVectorOf@VXSNamespaceItem@xercesc_3_1@@@xercesc_3_1@@UAEXXZ 1006d4a6 f i xerces-c_3_1:XSModel.cpp.obj
 0001:0006c4c8       ?cleanup@?$BaseRefVectorOf@VXSNamespaceItem@xercesc_3_1@@@xercesc_3_1@@UAEXXZ 1006d4c8 f i xerces-c_3_1:XSModel.cpp.obj
 0001:0006c4fd       ??0?$RefVectorOf@VXSNamespaceItem@xercesc_3_1@@@xercesc_3_1@@QAE@K_NQAVMemoryManager@1@@Z 1006d4fd f i xerces-c_3_1:XSModel.cpp.obj
 0001:0006c53c       ??1?$BaseRefVectorOf@VXSAnnotation@xercesc_3_1@@@xercesc_3_1@@UAE@XZ 1006d53c f i xerces-c_3_1:XSModel.cpp.obj
 0001:0006c543       ??0?$RefVectorOf@VXSAnnotation@xercesc_3_1@@@xercesc_3_1@@QAE@K_NQAVMemoryManager@1@@Z 1006d543 f i xerces-c_3_1:XSModel.cpp.obj
 0001:0006c584       ??0?$RefHashTableOf@VXSNamespaceItem@xercesc_3_1@@UStringHasher@2@@xercesc_3_1@@QAE@K_NQAVMemoryManager@1@@Z 1006d584 f i xerces-c_3_1:XSModel.cpp.obj
 0001:0006c5bc       ?put@?$RefHashTableOf@VXSNamespaceItem@xercesc_3_1@@UStringHasher@2@@xercesc_3_1@@QAEXPAXQAVXSNamespaceItem@2@@Z 1006d5bc f i xerces-c_3_1:XSModel.cpp.obj
 0001:0006c63b       ?put@?$RefHashTableOf@VXSObject@xercesc_3_1@@UStringHasher@2@@xercesc_3_1@@QAEXPAXQAVXSObject@2@@Z 1006d63b f i xerces-c_3_1:XSModel.cpp.obj
 0001:0006c6ba       ??0?$RefHashTableOfEnumerator@VDatatypeValidator@xercesc_3_1@@UStringHasher@2@@xercesc_3_1@@QAE@QAV?$RefHashTableOf@VDatatypeValidator@xercesc_3_1@@UStringHasher@2@@1@_NQAVMemoryManager@1@@Z 1006d6ba f i xerces-c_3_1:XSModel.cpp.obj
 0001:0006c73c       ??1?$RefHashTableOfEnumerator@VDatatypeValidator@xercesc_3_1@@UStringHasher@2@@xercesc_3_1@@UAE@XZ 1006d73c f i xerces-c_3_1:XSModel.cpp.obj
 0001:0006c77c       ??0?$RefHashTableOfEnumerator@VXMLAttDef@xercesc_3_1@@UStringHasher@2@@xercesc_3_1@@QAE@QAV?$RefHashTableOf@VXMLAttDef@xercesc_3_1@@UStringHasher@2@@1@_NQAVMemoryManager@1@@Z 1006d77c f i xerces-c_3_1:XSModel.cpp.obj
 0001:0006c7fe       ??1?$RefHashTableOfEnumerator@VXMLAttDef@xercesc_3_1@@UStringHasher@2@@xercesc_3_1@@UAE@XZ 1006d7fe f i xerces-c_3_1:XSModel.cpp.obj
 0001:0006c840       ??0?$RefHashTableOfEnumerator@VComplexTypeInfo@xercesc_3_1@@UStringHasher@2@@xercesc_3_1@@QAE@QAV?$RefHashTableOf@VComplexTypeInfo@xercesc_3_1@@UStringHasher@2@@1@_NQAVMemoryManager@1@@Z 1006d840 f i xerces-c_3_1:XSModel.cpp.obj
 0001:0006c8c2       ??1?$RefHashTableOfEnumerator@VComplexTypeInfo@xercesc_3_1@@UStringHasher@2@@xercesc_3_1@@UAE@XZ 1006d8c2 f i xerces-c_3_1:XSModel.cpp.obj
 0001:0006c904       ??0?$RefHashTableOfEnumerator@VXercesAttGroupInfo@xercesc_3_1@@UStringHasher@2@@xercesc_3_1@@QAE@QAV?$RefHashTableOf@VXercesAttGroupInfo@xercesc_3_1@@UStringHasher@2@@1@_NQAVMemoryManager@1@@Z 1006d904 f i xerces-c_3_1:XSModel.cpp.obj
 0001:0006c986       ??1?$RefHashTableOfEnumerator@VXercesAttGroupInfo@xercesc_3_1@@UStringHasher@2@@xercesc_3_1@@UAE@XZ 1006d986 f i xerces-c_3_1:XSModel.cpp.obj
 0001:0006c9c8       ??0?$RefHashTableOfEnumerator@VXercesGroupInfo@xercesc_3_1@@UStringHasher@2@@xercesc_3_1@@QAE@QAV?$RefHashTableOf@VXercesGroupInfo@xercesc_3_1@@UStringHasher@2@@1@_NQAVMemoryManager@1@@Z 1006d9c8 f i xerces-c_3_1:XSModel.cpp.obj
 0001:0006ca4a       ??1?$RefHashTableOfEnumerator@VXercesGroupInfo@xercesc_3_1@@UStringHasher@2@@xercesc_3_1@@UAE@XZ 1006da4a f i xerces-c_3_1:XSModel.cpp.obj
 0001:0006ca8c       ??_G?$RefHash3KeysIdPoolEnumerator@VSchemaElementDecl@xercesc_3_1@@UStringHasher@2@@xercesc_3_1@@UAEPAXI@Z 1006da8c f i xerces-c_3_1:XSModel.cpp.obj
 0001:0006ca8c       ??_E?$RefHash3KeysIdPoolEnumerator@VSchemaElementDecl@xercesc_3_1@@UStringHasher@2@@xercesc_3_1@@UAEPAXI@Z 1006da8c f i  CIL library: CIL module
 0001:0006caab       ??_G?$RefHash3KeysIdPool@VSchemaElementDecl@xercesc_3_1@@UStringHasher@2@@xercesc_3_1@@QAEPAXI@Z 1006daab f i xerces-c_3_1:XSModel.cpp.obj
 0001:0006cada       ??_E?$NameIdPoolEnumerator@VXMLNotationDecl@xercesc_3_1@@@xercesc_3_1@@UAEPAXI@Z 1006dada f i  CIL library: CIL module
 0001:0006cada       ??_G?$NameIdPoolEnumerator@VXMLNotationDecl@xercesc_3_1@@@xercesc_3_1@@UAEPAXI@Z 1006dada f i xerces-c_3_1:XSModel.cpp.obj
 0001:0006cafa       ??_G?$RefHash2KeysTableOf@VXSIDCDefinition@xercesc_3_1@@UStringHasher@2@@xercesc_3_1@@QAEPAXI@Z 1006dafa f i xerces-c_3_1:XSElementDeclaration.cpp.obj
 0001:0006cafa       ??_G?$RefHash2KeysTableOf@VSchemaAttDef@xercesc_3_1@@UStringHasher@2@@xercesc_3_1@@QAEPAXI@Z 1006dafa f i xerces-c_3_1:ComplexTypeInfo.cpp.obj
 0001:0006cafa       ??_G?$RefHash2KeysTableOf@VXSObject@xercesc_3_1@@UStringHasher@2@@xercesc_3_1@@QAEPAXI@Z 1006dafa f i xerces-c_3_1:XSModel.cpp.obj
 0001:0006cb66       ??_G?$BaseRefVectorOf@VXSObject@xercesc_3_1@@@xercesc_3_1@@UAEPAXI@Z 1006db66 f i xerces-c_3_1:XSModel.cpp.obj
 0001:0006cb66       ??_E?$BaseRefVectorOf@VXSObject@xercesc_3_1@@@xercesc_3_1@@UAEPAXI@Z 1006db66 f i  CIL library: CIL module
 0001:0006cb86       ??_G?$RefVectorOf@VXSObject@xercesc_3_1@@@xercesc_3_1@@UAEPAXI@Z 1006db86 f i xerces-c_3_1:XSModel.cpp.obj
 0001:0006cb86       ??_E?$RefVectorOf@VXSObject@xercesc_3_1@@@xercesc_3_1@@UAEPAXI@Z 1006db86 f i  CIL library: CIL module
 0001:0006cbf9       ??_E?$BaseRefVectorOf@VXSNamespaceItem@xercesc_3_1@@@xercesc_3_1@@UAEPAXI@Z 1006dbf9 f i  CIL library: CIL module
 0001:0006cbf9       ??_G?$BaseRefVectorOf@VXSNamespaceItem@xercesc_3_1@@@xercesc_3_1@@UAEPAXI@Z 1006dbf9 f i xerces-c_3_1:XSModel.cpp.obj
 0001:0006cc19       ??_GXSNamespaceItem@xercesc_3_1@@QAEPAXI@Z 1006dc19 f i xerces-c_3_1:XSModel.cpp.obj
 0001:0006cc97       ??_G?$RefVectorOf@VXSNamespaceItem@xercesc_3_1@@@xercesc_3_1@@UAEPAXI@Z 1006dc97 f i xerces-c_3_1:XSModel.cpp.obj
 0001:0006cc97       ??_E?$RefVectorOf@VXSNamespaceItem@xercesc_3_1@@@xercesc_3_1@@UAEPAXI@Z 1006dc97 f i  CIL library: CIL module
 0001:0006cd0a       ??_G?$BaseRefVectorOf@VXSAnnotation@xercesc_3_1@@@xercesc_3_1@@UAEPAXI@Z 1006dd0a f i xerces-c_3_1:XSModel.cpp.obj
 0001:0006cd0a       ??_E?$BaseRefVectorOf@VXSAnnotation@xercesc_3_1@@@xercesc_3_1@@UAEPAXI@Z 1006dd0a f i  CIL library: CIL module
 0001:0006cd2a       ??_E?$RefVectorOf@VXSAnnotation@xercesc_3_1@@@xercesc_3_1@@UAEPAXI@Z 1006dd2a f i  CIL library: CIL module
 0001:0006cd2a       ??_G?$RefVectorOf@VXSAnnotation@xercesc_3_1@@@xercesc_3_1@@UAEPAXI@Z 1006dd2a f i xerces-c_3_1:XSModel.cpp.obj
 0001:0006cd9d       ??_G?$RefHashTableOfEnumerator@VDatatypeValidator@xercesc_3_1@@UStringHasher@2@@xercesc_3_1@@UAEPAXI@Z 1006dd9d f i xerces-c_3_1:XSModel.cpp.obj
 0001:0006cd9d       ??_E?$RefHashTableOfEnumerator@VDatatypeValidator@xercesc_3_1@@UStringHasher@2@@xercesc_3_1@@UAEPAXI@Z 1006dd9d f i  CIL library: CIL module
 0001:0006cdbc       ??_G?$RefHashTableOfEnumerator@VXMLAttDef@xercesc_3_1@@UStringHasher@2@@xercesc_3_1@@UAEPAXI@Z 1006ddbc f i xerces-c_3_1:XSModel.cpp.obj
 0001:0006cdbc       ??_E?$RefHashTableOfEnumerator@VXMLAttDef@xercesc_3_1@@UStringHasher@2@@xercesc_3_1@@UAEPAXI@Z 1006ddbc f i  CIL library: CIL module
 0001:0006cddb       ??_E?$RefHashTableOfEnumerator@VComplexTypeInfo@xercesc_3_1@@UStringHasher@2@@xercesc_3_1@@UAEPAXI@Z 1006dddb f i  CIL library: CIL module
 0001:0006cddb       ??_G?$RefHashTableOfEnumerator@VComplexTypeInfo@xercesc_3_1@@UStringHasher@2@@xercesc_3_1@@UAEPAXI@Z 1006dddb f i xerces-c_3_1:XSModel.cpp.obj
 0001:0006cdfa       ??_E?$RefHashTableOfEnumerator@VXercesAttGroupInfo@xercesc_3_1@@UStringHasher@2@@xercesc_3_1@@UAEPAXI@Z 1006ddfa f i  CIL library: CIL module
 0001:0006cdfa       ??_G?$RefHashTableOfEnumerator@VXercesAttGroupInfo@xercesc_3_1@@UStringHasher@2@@xercesc_3_1@@UAEPAXI@Z 1006ddfa f i xerces-c_3_1:XSModel.cpp.obj
 0001:0006ce19       ??_G?$RefHashTableOf@VENameMap@xercesc_3_1@@UStringHasher@2@@xercesc_3_1@@QAEPAXI@Z 1006de19 f i xerces-c_3_1:TransService.cpp.obj
 0001:0006ce19       ??_G?$RefHashTableOf@VDTDAttDef@xercesc_3_1@@UStringHasher@2@@xercesc_3_1@@QAEPAXI@Z 1006de19 f i xerces-c_3_1:XTemplateSerializer.cpp.obj
 0001:0006ce19       ??_G?$RefHashTableOf@VXercesAttGroupInfo@xercesc_3_1@@UStringHasher@2@@xercesc_3_1@@QAEPAXI@Z 1006de19 f i xerces-c_3_1:XSModel.cpp.obj
 0001:0006ce19       ??_G?$RefHashTableOf@VXMLAttDef@xercesc_3_1@@UStringHasher@2@@xercesc_3_1@@QAEPAXI@Z 1006de19 f i xerces-c_3_1:XSModel.cpp.obj
 0001:0006ce19       ??_G?$RefHashTableOf@VKVStringPair@xercesc_3_1@@UStringHasher@2@@xercesc_3_1@@QAEPAXI@Z 1006de19 f i xerces-c_3_1:DOMXPathNSResolverImpl.cpp.obj
 0001:0006ce19       ??_G?$RefHashTableOf@VRangeFactory@xercesc_3_1@@UStringHasher@2@@xercesc_3_1@@QAEPAXI@Z 1006de19 f i xerces-c_3_1:RangeTokenMap.cpp.obj
 0001:0006ce19       ??_G?$RefHashTableOf@VXSObject@xercesc_3_1@@UStringHasher@2@@xercesc_3_1@@QAEPAXI@Z 1006de19 f i xerces-c_3_1:XSNamespaceItem.cpp.obj
 0001:0006ce19       ??_G?$RefHashTableOf@VXercesGroupInfo@xercesc_3_1@@UStringHasher@2@@xercesc_3_1@@QAEPAXI@Z 1006de19 f i xerces-c_3_1:XSModel.cpp.obj
 0001:0006ce19       ??_G?$RefHashTableOf@VComplexTypeInfo@xercesc_3_1@@UStringHasher@2@@xercesc_3_1@@QAEPAXI@Z 1006de19 f i xerces-c_3_1:XSModel.cpp.obj
 0001:0006ce85       ??_E?$RefHashTableOfEnumerator@VXercesGroupInfo@xercesc_3_1@@UStringHasher@2@@xercesc_3_1@@UAEPAXI@Z 1006de85 f i  CIL library: CIL module
 0001:0006ce85       ??_G?$RefHashTableOfEnumerator@VXercesGroupInfo@xercesc_3_1@@UStringHasher@2@@xercesc_3_1@@UAEPAXI@Z 1006de85 f i xerces-c_3_1:XSModel.cpp.obj
 0001:0006cea4       ?rehash@?$RefHashTableOf@VXSObject@xercesc_3_1@@UStringHasher@2@@xercesc_3_1@@AAEXXZ 1006dea4 f i xerces-c_3_1:XSModel.cpp.obj
 0001:0006cf5b       ?findNext@?$RefHashTableOfEnumerator@VValueStore@xercesc_3_1@@UPtrHasher@2@@xercesc_3_1@@AAEXXZ 1006df5b f i xerces-c_3_1:ValueStoreCache.cpp.obj
 0001:0006cf5b       ?findNext@?$RefHashTableOfEnumerator@_WUStringHasher@xercesc_3_1@@@xercesc_3_1@@AAEXXZ 1006df5b f i xerces-c_3_1:DOMNormalizer.cpp.obj
 0001:0006cf5b       ?findNext@?$RefHashTableOfEnumerator@VDatatypeValidator@xercesc_3_1@@UStringHasher@2@@xercesc_3_1@@AAEXXZ 1006df5b f i xerces-c_3_1:XSModel.cpp.obj
 0001:0006cf5b       ?findNext@?$RefHashTableOfEnumerator@VXercesGroupInfo@xercesc_3_1@@UStringHasher@2@@xercesc_3_1@@AAEXXZ 1006df5b f i xerces-c_3_1:XSModel.cpp.obj
 0001:0006cf5b       ?findNext@?$RefHashTableOfEnumerator@VComplexTypeInfo@xercesc_3_1@@UStringHasher@2@@xercesc_3_1@@AAEXXZ 1006df5b f i xerces-c_3_1:XSModel.cpp.obj
 0001:0006cf5b       ?findNext@?$RefHashTableOfEnumerator@VKVStringPair@xercesc_3_1@@UStringHasher@2@@xercesc_3_1@@AAEXXZ 1006df5b f i xerces-c_3_1:DOMXPathNSResolverImpl.cpp.obj
 0001:0006cf5b       ?findNext@?$RefHashTableOfEnumerator@VXercesAttGroupInfo@xercesc_3_1@@UStringHasher@2@@xercesc_3_1@@AAEXXZ 1006df5b f i xerces-c_3_1:XSModel.cpp.obj
 0001:0006cf5b       ?findNext@?$RefHashTableOfEnumerator@VFieldValueMap@xercesc_3_1@@UICValueHasher@2@@xercesc_3_1@@AAEXXZ 1006df5b f i xerces-c_3_1:ValueStore.cpp.obj
 0001:0006cf5b       ?findNext@?$RefHashTableOfEnumerator@VDTDAttDef@xercesc_3_1@@UStringHasher@2@@xercesc_3_1@@AAEXXZ 1006df5b f i xerces-c_3_1:XTemplateSerializer.cpp.obj
 0001:0006cf5b       ?findNext@?$RefHashTableOfEnumerator@VXMLRefInfo@xercesc_3_1@@UStringHasher@2@@xercesc_3_1@@AAEXXZ 1006df5b f i xerces-c_3_1:XMLScanner.cpp.obj
 0001:0006cf5b       ?findNext@?$RefHashTableOfEnumerator@VGrammar@xercesc_3_1@@UStringHasher@2@@xercesc_3_1@@AAEXXZ 1006df5b f i xerces-c_3_1:GrammarResolver.cpp.obj
 0001:0006cf5b       ?findNext@?$RefHashTableOfEnumerator@VXMLAttDef@xercesc_3_1@@UStringHasher@2@@xercesc_3_1@@AAEXXZ 1006df5b f i xerces-c_3_1:XSModel.cpp.obj
 0001:0006cf5b       ?findNext@?$RefHashTableOfEnumerator@VXSAnnotation@xercesc_3_1@@UPtrHasher@2@@xercesc_3_1@@AAEXXZ 1006df5b f i xerces-c_3_1:XTemplateSerializer.cpp.obj
 0001:0006cf9d       ?findNext@?$RefHash3KeysIdPoolEnumerator@VSchemaElementDecl@xercesc_3_1@@UStringHasher@2@@xercesc_3_1@@AAEXXZ 1006df9d f i xerces-c_3_1:XSModel.cpp.obj
 0001:0006cfdf       ?removeAll@?$RefHash3KeysIdPool@VSchemaElementDecl@xercesc_3_1@@UStringHasher@2@@xercesc_3_1@@QAEXXZ 1006dfdf f i xerces-c_3_1:XSModel.cpp.obj
 0001:0006d035       ?getParentNode@DOMChildNode@xercesc_3_1@@QBEPAVDOMNode@2@PBV32@@Z 1006e035 f   xerces-c_3_1:DOMChildNode.cpp.obj
 0001:0006d047       ?getPreviousSibling@DOMChildNode@xercesc_3_1@@QBEPAVDOMNode@2@PBV32@@Z 1006e047 f   xerces-c_3_1:DOMChildNode.cpp.obj
 0001:0006d061       ?set@DOMBuffer@xercesc_3_1@@QAEXQB_W@Z 1006e061 f i xerces-c_3_1:DOMCharacterDataImpl.cpp.obj
 0001:0006d0a5       ?set@DOMBuffer@xercesc_3_1@@QAEXQB_WK@Z 1006e0a5 f i xerces-c_3_1:DOMCharacterDataImpl.cpp.obj
 0001:0006d0dd       ??0DOMCharacterDataImpl@xercesc_3_1@@QAE@PAVDOMDocument@1@PB_W@Z 1006e0dd f   xerces-c_3_1:DOMCharacterDataImpl.cpp.obj
 0001:0006d15b       ??0DOMCharacterDataImpl@xercesc_3_1@@QAE@PAVDOMDocument@1@PB_WK@Z 1006e15b f   xerces-c_3_1:DOMCharacterDataImpl.cpp.obj
 0001:0006d1d1       ??0DOMCharacterDataImpl@xercesc_3_1@@QAE@ABV01@@Z 1006e1d1 f   xerces-c_3_1:DOMCharacterDataImpl.cpp.obj
 0001:0006d253       ?setNodeValue@DOMCharacterDataImpl@xercesc_3_1@@QAEXPBVDOMNode@2@PB_W@Z 1006e253 f   xerces-c_3_1:DOMCharacterDataImpl.cpp.obj
 0001:0006d30f       ?appendData@DOMCharacterDataImpl@xercesc_3_1@@QAEXPBVDOMNode@2@PB_W@Z 1006e30f f   xerces-c_3_1:DOMCharacterDataImpl.cpp.obj
 0001:0006d395       ?deleteData@DOMCharacterDataImpl@xercesc_3_1@@QAEXPBVDOMNode@2@KK@Z 1006e395 f   xerces-c_3_1:DOMCharacterDataImpl.cpp.obj
 0001:0006d51e       ?insertData@DOMCharacterDataImpl@xercesc_3_1@@QAEXPBVDOMNode@2@KPB_W@Z 1006e51e f   xerces-c_3_1:DOMCharacterDataImpl.cpp.obj
 0001:0006d6b2       ?replaceData@DOMCharacterDataImpl@xercesc_3_1@@QAEXPBVDOMNode@2@KKPB_W@Z 1006e6b2 f   xerces-c_3_1:DOMCharacterDataImpl.cpp.obj
 0001:0006d714       ?substringData@DOMCharacterDataImpl@xercesc_3_1@@QBEPB_WPBVDOMNode@2@KK@Z 1006e714 f   xerces-c_3_1:DOMCharacterDataImpl.cpp.obj
 0001:0006d7e8       ?releaseBuffer@DOMCharacterDataImpl@xercesc_3_1@@QAEXXZ 1006e7e8 f   xerces-c_3_1:DOMCharacterDataImpl.cpp.obj
 0001:0006d84f       ??0XIncludeLocation@xercesc_3_1@@QAE@PB_W@Z 1006e84f f   xerces-c_3_1:XIncludeLocation.cpp.obj
 0001:0006d88e       ??1XIncludeLocation@xercesc_3_1@@QAE@XZ 1006e88e f   xerces-c_3_1:XIncludeLocation.cpp.obj
 0001:0006d8a1       ?prependPath@XIncludeLocation@xercesc_3_1@@QAEPB_WPB_W@Z 1006e8a1 f   xerces-c_3_1:XIncludeLocation.cpp.obj
 0001:0006d95d       ?findEndOfProtocol@XIncludeLocation@xercesc_3_1@@SAPB_WPB_W@Z 1006e95d f   xerces-c_3_1:XIncludeLocation.cpp.obj
 0001:0006d9fb       ?Assert@XSerializeEngine@xercesc_3_1@@ABEX_NW4Codes@XMLExcepts@2@@Z 1006e9fb f i xerces-c_3_1:XSerializeEngine.cpp.obj
 0001:0006da4c       ??1XSerializeEngine@xercesc_3_1@@QAE@XZ 1006ea4c f   xerces-c_3_1:XSerializeEngine.cpp.obj
 0001:0006da94       ??0XSerializeEngine@xercesc_3_1@@QAE@PAVBinInputStream@1@QAVXMLGrammarPool@1@K@Z 1006ea94 f   xerces-c_3_1:XSerializeEngine.cpp.obj
 0001:0006db2d       ??0XSerializeEngine@xercesc_3_1@@QAE@PAVBinOutputStream@1@QAVXMLGrammarPool@1@K@Z 1006eb2d f   xerces-c_3_1:XSerializeEngine.cpp.obj
 0001:0006dc27       ?write@XSerializeEngine@xercesc_3_1@@QAEXQAVXProtoType@2@@Z 1006ec27 f   xerces-c_3_1:XSerializeEngine.cpp.obj
 0001:0006dc97       ?write@XSerializeEngine@xercesc_3_1@@QAEXQBEK@Z 1006ec97 f   xerces-c_3_1:XSerializeEngine.cpp.obj
 0001:0006dd3a       ?writeString@XSerializeEngine@xercesc_3_1@@QAEXQB_WK_N@Z 1006ed3a f   xerces-c_3_1:XSerializeEngine.cpp.obj
 0001:0006dd84       ?read@XSerializeEngine@xercesc_3_1@@QAEPAVXSerializable@2@QAVXProtoType@2@@Z 1006ed84 f   xerces-c_3_1:XSerializeEngine.cpp.obj
 0001:0006df1d       ?read@XSerializeEngine@xercesc_3_1@@QAEXQAEK@Z 1006ef1d f   xerces-c_3_1:XSerializeEngine.cpp.obj
 0001:0006dfcb       ?readString@XSerializeEngine@xercesc_3_1@@QAEXAAPA_WAAK1_N@Z 1006efcb f   xerces-c_3_1:XSerializeEngine.cpp.obj
 0001:0006e045       ??6XSerializeEngine@xercesc_3_1@@QAEAAV01@_N@Z 1006f045 f   xerces-c_3_1:XSerializeEngine.cpp.obj
 0001:0006e062       ??5XSerializeEngine@xercesc_3_1@@QAEAAV01@AA_N@Z 1006f062 f   xerces-c_3_1:XSerializeEngine.cpp.obj
 0001:0006e081       ?writeSize@XSerializeEngine@xercesc_3_1@@QAEXK@Z 1006f081 f   xerces-c_3_1:XSerializeEngine.cpp.obj
 0001:0006e0b7       ?writeUInt64@XSerializeEngine@xercesc_3_1@@QAEX_K@Z 1006f0b7 f   xerces-c_3_1:XSerializeEngine.cpp.obj
 0001:0006e0ed       ?readSize@XSerializeEngine@xercesc_3_1@@QAEXAAK@Z 1006f0ed f   xerces-c_3_1:XSerializeEngine.cpp.obj
 0001:0006e111       ?readUInt64@XSerializeEngine@xercesc_3_1@@QAEXAA_K@Z 1006f111 f   xerces-c_3_1:XSerializeEngine.cpp.obj
 0001:0006e143       ??6XSerializeEngine@xercesc_3_1@@QAEAAV01@F@Z 1006f143 f   xerces-c_3_1:XSerializeEngine.cpp.obj
 0001:0006e18e       ??5XSerializeEngine@xercesc_3_1@@QAEAAV01@AAF@Z 1006f18e f   xerces-c_3_1:XSerializeEngine.cpp.obj
 0001:0006e1db       ??6XSerializeEngine@xercesc_3_1@@QAEAAV01@K@Z 1006f1db f   xerces-c_3_1:XSerializeEngine.cpp.obj
 0001:0006e1db       ??6XSerializeEngine@xercesc_3_1@@QAEAAV01@I@Z 1006f1db f   xerces-c_3_1:XSerializeEngine.cpp.obj
 0001:0006e1db       ??6XSerializeEngine@xercesc_3_1@@QAEAAV01@H@Z 1006f1db f   xerces-c_3_1:XSerializeEngine.cpp.obj
 0001:0006e224       ??5XSerializeEngine@xercesc_3_1@@QAEAAV01@AAI@Z 1006f224 f   xerces-c_3_1:XSerializeEngine.cpp.obj
 0001:0006e224       ??5XSerializeEngine@xercesc_3_1@@QAEAAV01@AAK@Z 1006f224 f   xerces-c_3_1:XSerializeEngine.cpp.obj
 0001:0006e224       ??5XSerializeEngine@xercesc_3_1@@QAEAAV01@AAH@Z 1006f224 f   xerces-c_3_1:XSerializeEngine.cpp.obj
 0001:0006e26f       ??6XSerializeEngine@xercesc_3_1@@QAEAAV01@N@Z 1006f26f f   xerces-c_3_1:XSerializeEngine.cpp.obj
 0001:0006e2b8       ??5XSerializeEngine@xercesc_3_1@@QAEAAV01@AAN@Z 1006f2b8 f   xerces-c_3_1:XSerializeEngine.cpp.obj
 0001:0006e303       ?lookupStorePool@XSerializeEngine@xercesc_3_1@@ABEIQAX@Z 1006f303 f   xerces-c_3_1:XSerializeEngine.cpp.obj
 0001:0006e335       ?addStorePool@XSerializeEngine@xercesc_3_1@@AAEXQAX@Z 1006f335 f   xerces-c_3_1:XSerializeEngine.cpp.obj
 0001:0006e36f       ?lookupLoadPool@XSerializeEngine@xercesc_3_1@@ABEPAVXSerializable@2@I@Z 1006f36f f   xerces-c_3_1:XSerializeEngine.cpp.obj
 0001:0006e469       ?addLoadPool@XSerializeEngine@xercesc_3_1@@AAEXQAX@Z 1006f469 f   xerces-c_3_1:XSerializeEngine.cpp.obj
 0001:0006e55c       ?pumpCount@XSerializeEngine@xercesc_3_1@@AAEXXZ 1006f55c f   xerces-c_3_1:XSerializeEngine.cpp.obj
 0001:0006e63f       ?fillBuffer@XSerializeEngine@xercesc_3_1@@AAEXXZ 1006f63f f   xerces-c_3_1:XSerializeEngine.cpp.obj
 0001:0006e805       ?flushBuffer@XSerializeEngine@xercesc_3_1@@AAEXXZ 1006f805 f   xerces-c_3_1:XSerializeEngine.cpp.obj
 0001:0006e853       ?checkAndFlushBuffer@XSerializeEngine@xercesc_3_1@@AAEXK@Z 1006f853 f i xerces-c_3_1:XSerializeEngine.cpp.obj
 0001:0006e912       ?checkAndFillBuffer@XSerializeEngine@xercesc_3_1@@AAEXK@Z 1006f912 f i xerces-c_3_1:XSerializeEngine.cpp.obj
 0001:0006e9d1       ?ensureStoreBuffer@XSerializeEngine@xercesc_3_1@@ABEXXZ 1006f9d1 f i xerces-c_3_1:XSerializeEngine.cpp.obj
 0001:0006ea9a       ?ensureLoadBuffer@XSerializeEngine@xercesc_3_1@@ABEXXZ 1006fa9a f i xerces-c_3_1:XSerializeEngine.cpp.obj
 0001:0006eb63       ?ensurePointer@XSerializeEngine@xercesc_3_1@@ABEXQAX@Z 1006fb63 f i xerces-c_3_1:XSerializeEngine.cpp.obj
 0001:0006ec09       ?needToStoreObject@XSerializeEngine@xercesc_3_1@@QAE_NQAX@Z 1006fc09 f   xerces-c_3_1:XSerializeEngine.cpp.obj
 0001:0006ec60       ?needToLoadObject@XSerializeEngine@xercesc_3_1@@QAE_NPAPAX@Z 1006fc60 f   xerces-c_3_1:XSerializeEngine.cpp.obj
 0001:0006eca1       ?registerObject@XSerializeEngine@xercesc_3_1@@QAEXQAX@Z 1006fca1 f   xerces-c_3_1:XSerializeEngine.cpp.obj
 0001:0006ecc5       ?getMemoryManager@XSerializeEngine@xercesc_3_1@@QBEPAVMemoryManager@2@XZ 1006fcc5 f   xerces-c_3_1:XSerializeEngine.cpp.obj
 0001:0006ecd6       ?put@?$RefHashTableOf@VXSerializedObjectId@xercesc_3_1@@UPtrHasher@2@@xercesc_3_1@@QAEXPAXQAVXSerializedObjectId@2@@Z 1006fcd6 f i xerces-c_3_1:XSerializeEngine.cpp.obj
 0001:0006ed6c       ?elementAt@?$ValueVectorOf@PAVSchemaElementDecl@xercesc_3_1@@@xercesc_3_1@@QAEAAPAVSchemaElementDecl@2@K@Z 1006fd6c f i xerces-c_3_1:XTemplateSerializer.cpp.obj
 0001:0006ed6c       ?elementAt@?$ValueVectorOf@PAX@xercesc_3_1@@QAEAAPAXK@Z 1006fd6c f i xerces-c_3_1:XSerializeEngine.cpp.obj
 0001:0006ed6c       ?elementAt@?$ValueVectorOf@PAVQName@xercesc_3_1@@@xercesc_3_1@@QAEAAPAVQName@2@K@Z 1006fd6c f i xerces-c_3_1:MixedContentModel.cpp.obj
 0001:0006ed6c       ?elementAt@?$ValueVectorOf@K@xercesc_3_1@@QAEAAKK@Z 1006fd6c f i xerces-c_3_1:WFXMLScanner.cpp.obj
 0001:0006ed6c       ?elementAt@?$ValueVectorOf@PAVXMLAttr@xercesc_3_1@@@xercesc_3_1@@QAEAAPAVXMLAttr@2@K@Z 1006fd6c f i xerces-c_3_1:DGXMLScanner.cpp.obj
 0001:0006ed6c       ?elementAt@?$ValueVectorOf@PAUPrefMapElem@xercesc_3_1@@@xercesc_3_1@@QAEAAPAUPrefMapElem@2@K@Z 1006fd6c f i xerces-c_3_1:XSDDOMParser.cpp.obj
 0001:0006ed6c       ?elementAt@?$ValueVectorOf@_N@xercesc_3_1@@QAEAA_NK@Z 1006fd6c f i xerces-c_3_1:IGXMLScanner.cpp.obj
 0001:0006ed6c       ?elementAt@?$ValueVectorOf@PA_W@xercesc_3_1@@QAEAAPA_WK@Z 1006fd6c f i xerces-c_3_1:GrammarResolver.cpp.obj
 0001:0006ed6c       ?elementAt@?$ValueVectorOf@H@xercesc_3_1@@QAEAAHK@Z 1006fd6c f i xerces-c_3_1:DOMDocumentImpl.cpp.obj
 0001:0006ed6c       ?elementAt@?$ValueVectorOf@PAVDOMNode@xercesc_3_1@@@xercesc_3_1@@QAEAAPAVDOMNode@2@K@Z 1006fd6c f i xerces-c_3_1:TraverseSchema.cpp.obj
 0001:0006ed6c       ?elementAt@?$ValueVectorOf@I@xercesc_3_1@@QAEAAIK@Z 1006fd6c f i xerces-c_3_1:SGXMLScanner.cpp.obj
 0001:0006edb8       ?rehash@?$RefHashTableOf@IUPtrHasher@xercesc_3_1@@@xercesc_3_1@@AAEXXZ 1006fdb8 f i xerces-c_3_1:DGXMLScanner.cpp.obj
 0001:0006edb8       ?rehash@?$RefHashTableOf@VValueStore@xercesc_3_1@@UPtrHasher@2@@xercesc_3_1@@AAEXXZ 1006fdb8 f i xerces-c_3_1:ValueStoreCache.cpp.obj
 0001:0006edb8       ?rehash@?$RefHashTableOf@VXMLCanRepGroup@xercesc_3_1@@UPtrHasher@2@@xercesc_3_1@@AAEXXZ 1006fdb8 f i xerces-c_3_1:DatatypeValidatorFactory.cpp.obj
 0001:0006edb8       ?rehash@?$RefHashTableOf@V?$ValueVectorOf@PAVDOMElement@xercesc_3_1@@@xercesc_3_1@@UPtrHasher@2@@xercesc_3_1@@AAEXXZ 1006fdb8 f i xerces-c_3_1:TraverseSchema.cpp.obj
 0001:0006edb8       ?rehash@?$RefHashTableOf@VSchemaInfo@xercesc_3_1@@UPtrHasher@2@@xercesc_3_1@@AAEXXZ 1006fdb8 f i xerces-c_3_1:TraverseSchema.cpp.obj
 0001:0006edb8       ?rehash@?$RefHashTableOf@VXSerializedObjectId@xercesc_3_1@@UPtrHasher@2@@xercesc_3_1@@AAEXXZ 1006fdb8 f i xerces-c_3_1:XSerializeEngine.cpp.obj
 0001:0006edb8       ?rehash@?$RefHashTableOf@VXSAnnotation@xercesc_3_1@@UPtrHasher@2@@xercesc_3_1@@AAEXXZ 1006fdb8 f i xerces-c_3_1:XTemplateSerializer.cpp.obj
 0001:0006ee5e       ?init@DOMNodeVector@xercesc_3_1@@AAEXPAVDOMDocument@2@K@Z 1006fe5e f   xerces-c_3_1:DOMNodeVector.cpp.obj
 0001:0006ee8f       ?addElement@DOMNodeVector@xercesc_3_1@@QAEXPAVDOMNode@2@@Z 1006fe8f f   xerces-c_3_1:DOMNodeVector.cpp.obj
 0001:0006eead       ?checkSpace@DOMNodeVector@xercesc_3_1@@AAEXXZ 1006fead f   xerces-c_3_1:DOMNodeVector.cpp.obj
 0001:0006ef00       ?insertElementAt@DOMNodeVector@xercesc_3_1@@QAEXPAVDOMNode@2@K@Z 1006ff00 f   xerces-c_3_1:DOMNodeVector.cpp.obj
 0001:0006ef2d       ?removeElementAt@DOMNodeVector@xercesc_3_1@@QAEXK@Z 1006ff2d f   xerces-c_3_1:DOMNodeVector.cpp.obj
 0001:0006ef4e       ??0XSObject@xercesc_3_1@@QAE@W4COMPONENT_TYPE@XSConstants@1@QAVXSModel@1@QAVMemoryManager@1@@Z 1006ff4e f   xerces-c_3_1:XSObject.cpp.obj
 0001:0006ef87       ??1XSObject@xercesc_3_1@@UAE@XZ 1006ff87 f   xerces-c_3_1:XSObject.cpp.obj
 0001:0006ef87       ??1XSTypeDefinition@xercesc_3_1@@UAE@XZ 1006ff87 f   xerces-c_3_1:XSTypeDefinition.cpp.obj
 0001:0006ef8e       ??1DOMLSParser@xercesc_3_1@@UAE@XZ 1006ff8e f i xerces-c_3_1:DOMLSParserImpl.cpp.obj
 0001:0006ef95       ??_GDOMLSParser@xercesc_3_1@@UAEPAXI@Z 1006ff95 f i xerces-c_3_1:DOMLSParserImpl.cpp.obj
 0001:0006ef95       ??_EDOMLSParser@xercesc_3_1@@UAEPAXI@Z 1006ff95 f i  CIL library: CIL module
 0001:0006efb5       ?getDomConfig@DOMLSParserImpl@xercesc_3_1@@UAEPAVDOMConfiguration@2@XZ 1006ffb5 f i xerces-c_3_1:DOMLSParserImpl.cpp.obj
 0001:0006efc3       ?acceptNode@__AbortFilter@xercesc_3_1@@UAE?AW4FilterAction@DOMLSParserFilter@2@PAVDOMNode@2@@Z 1006ffc3 f i xerces-c_3_1:DOMLSParserImpl.cpp.obj
 0001:0006efc3       ?startElement@__AbortFilter@xercesc_3_1@@UAE?AW4FilterAction@DOMLSParserFilter@2@PAVDOMElement@2@@Z 1006ffc3 f i xerces-c_3_1:DOMLSParserImpl.cpp.obj
 0001:0006efc9       ?getWhatToShow@__AbortFilter@xercesc_3_1@@UBEKXZ 1006ffc9 f i xerces-c_3_1:DOMLSParserImpl.cpp.obj
 0001:0006efcf       ??_G__AbortFilter@xercesc_3_1@@UAEPAXI@Z 1006ffcf f i xerces-c_3_1:DOMLSParserImpl.cpp.obj
 0001:0006efcf       ??_EDOMLSParserFilter@xercesc_3_1@@UAEPAXI@Z 1006ffcf f i  CIL library: CIL module
 0001:0006efcf       ??_E__AbortFilter@xercesc_3_1@@UAEPAXI@Z 1006ffcf f i  CIL library: CIL module
 0001:0006efcf       ??_GDOMLSParserFilter@xercesc_3_1@@UAEPAXI@Z 1006ffcf f i xerces-c_3_1:DOMLSParserImpl.cpp.obj
 0001:0006efef       ??0DOMLSParserImpl@xercesc_3_1@@QAE@QAVXMLValidator@1@QAVMemoryManager@1@QAVXMLGrammarPool@1@@Z 1006ffef f   xerces-c_3_1:DOMLSParserImpl.cpp.obj
 0001:0006f487       ??_GDOMLSParserImpl@xercesc_3_1@@UAEPAXI@Z 10070487 f i xerces-c_3_1:DOMLSParserImpl.cpp.obj
 0001:0006f487       ??_EDOMLSParserImpl@xercesc_3_1@@UAEPAXI@Z 10070487 f i  CIL library: CIL module
 0001:0006f4a6       ??1DOMLSParserImpl@xercesc_3_1@@UAE@XZ 100704a6 f   xerces-c_3_1:DOMLSParserImpl.cpp.obj
 0001:0006f555       ??_G?$ValueHashTableOf@_NUPtrHasher@xercesc_3_1@@@xercesc_3_1@@QAEPAXI@Z 10070555 f i xerces-c_3_1:DOMLSParserImpl.cpp.obj
 0001:0006f572       ?getBusy@DOMLSParserImpl@xercesc_3_1@@UBE_NXZ 10070572 f   xerces-c_3_1:DOMLSParserImpl.cpp.obj
 0001:0006f576       ?setParameter@DOMLSParserImpl@xercesc_3_1@@UAEXPB_WPBX@Z 10070576 f   xerces-c_3_1:DOMLSParserImpl.cpp.obj
 0001:0006f7ce       ?setParameter@DOMLSParserImpl@xercesc_3_1@@UAEXPB_W_N@Z 100707ce f   xerces-c_3_1:DOMLSParserImpl.cpp.obj
 0001:0006fc9d       ?getParameter@DOMLSParserImpl@xercesc_3_1@@UBEPBXPB_W@Z 10070c9d f   xerces-c_3_1:DOMLSParserImpl.cpp.obj
 0001:000701ad       ?canSetParameter@DOMLSParserImpl@xercesc_3_1@@UBE_NPB_WPBX@Z 100711ad f   xerces-c_3_1:DOMLSParserImpl.cpp.obj
 0001:00070277       ?canSetParameter@DOMLSParserImpl@xercesc_3_1@@UBE_NPB_W_N@Z 10071277 f   xerces-c_3_1:DOMLSParserImpl.cpp.obj
 0001:0007059e       ?release@DOMLSParserImpl@xercesc_3_1@@UAEXXZ 1007159e f   xerces-c_3_1:DOMLSParserImpl.cpp.obj
 0001:000705aa       ?resetDocumentPool@DOMLSParserImpl@xercesc_3_1@@UAEXXZ 100715aa f   xerces-c_3_1:DOMLSParserImpl.cpp.obj
 0001:000705b2       ?parse@DOMLSParserImpl@xercesc_3_1@@UAEPAVDOMDocument@2@PBVDOMLSInput@2@@Z 100715b2 f   xerces-c_3_1:DOMLSParserImpl.cpp.obj
 0001:00070681       ?parseURI@DOMLSParserImpl@xercesc_3_1@@UAEPAVDOMDocument@2@QB_W@Z 10071681 f   xerces-c_3_1:DOMLSParserImpl.cpp.obj
 0001:000706f9       ?parseURI@DOMLSParserImpl@xercesc_3_1@@UAEPAVDOMDocument@2@QBD@Z 100716f9 f   xerces-c_3_1:DOMLSParserImpl.cpp.obj
 0001:00070771       ?startDocument@DOMLSParserImpl@xercesc_3_1@@UAEXXZ 10071771 f   xerces-c_3_1:DOMLSParserImpl.cpp.obj
 0001:00070ac4       ?XMLDecl@DOMLSParserImpl@xercesc_3_1@@UAEXQB_W000@Z 10071ac4 f   xerces-c_3_1:DOMLSParserImpl.cpp.obj
 0001:00070b04       ?parseWithContext@DOMLSParserImpl@xercesc_3_1@@UAEPAVDOMNode@2@PBVDOMLSInput@2@PAV32@W4ActionType@DOMLSParser@2@@Z 10071b04 f   xerces-c_3_1:DOMLSParserImpl.cpp.obj
 0001:00070d5e       ?abort@DOMLSParserImpl@xercesc_3_1@@UAEXXZ 10071d5e f   xerces-c_3_1:DOMLSParserImpl.cpp.obj
 0001:00070d66       ?error@DOMLSParserImpl@xercesc_3_1@@UAEXIQB_WW4ErrTypes@XMLErrorReporter@2@000_K2@Z 10071d66 f   xerces-c_3_1:DOMLSParserImpl.cpp.obj
 0001:00070e63       ?resolveEntity@DOMLSParserImpl@xercesc_3_1@@UAEPAVInputSource@2@PAVXMLResourceIdentifier@2@@Z 10071e63 f   xerces-c_3_1:DOMLSParserImpl.cpp.obj
 0001:00070eff       ?loadGrammar@DOMLSParserImpl@xercesc_3_1@@UAEPAVGrammar@2@QBDW4GrammarType@32@_N@Z 10071eff f   xerces-c_3_1:DOMLSParserImpl.cpp.obj
 0001:00070f98       ?loadGrammar@DOMLSParserImpl@xercesc_3_1@@UAEPAVGrammar@2@QB_WW4GrammarType@32@_N@Z 10071f98 f   xerces-c_3_1:DOMLSParserImpl.cpp.obj
 0001:00071032       ?loadGrammar@DOMLSParserImpl@xercesc_3_1@@UAEPAVGrammar@2@PBVDOMLSInput@2@W4GrammarType@32@_N@Z 10072032 f   xerces-c_3_1:DOMLSParserImpl.cpp.obj
 0001:000710f5       ?resetCachedGrammarPool@DOMLSParserImpl@xercesc_3_1@@UAEXXZ 100720f5 f   xerces-c_3_1:DOMLSParserImpl.cpp.obj
 0001:00071116       ?resetParse@DOMLSParserImpl@xercesc_3_1@@AAEXXZ 10072116 f   xerces-c_3_1:DOMLSParserImpl.cpp.obj
 0001:0007112a       ?getGrammar@DOMLSParserImpl@xercesc_3_1@@UBEPAVGrammar@2@QB_W@Z 1007212a f   xerces-c_3_1:DOMLSParserImpl.cpp.obj
 0001:0007113c       ?getRootGrammar@DOMLSParserImpl@xercesc_3_1@@UBEPAVGrammar@2@XZ 1007213c f   xerces-c_3_1:DOMLSParserImpl.cpp.obj
 0001:00071146       ?getURIText@DOMLSParserImpl@xercesc_3_1@@UBEPB_WI@Z 10072146 f   xerces-c_3_1:DOMLSParserImpl.cpp.obj
 0001:00071152       ?getSrcOffset@DOMLSParserImpl@xercesc_3_1@@UBE_KXZ 10072152 f   xerces-c_3_1:DOMLSParserImpl.cpp.obj
 0001:00071161       ?applyFilter@DOMLSParserImpl@xercesc_3_1@@AAEXPAVDOMNode@2@@Z 10072161 f   xerces-c_3_1:DOMLSParserImpl.cpp.obj
 0001:00071212       ?docCharacters@DOMLSParserImpl@xercesc_3_1@@UAEXQB_WK_N@Z 10072212 f   xerces-c_3_1:DOMLSParserImpl.cpp.obj
 0001:0007130d       ?docComment@DOMLSParserImpl@xercesc_3_1@@UAEXQB_W@Z 1007230d f   xerces-c_3_1:DOMLSParserImpl.cpp.obj
 0001:00071378       ?docPI@DOMLSParserImpl@xercesc_3_1@@UAEXQB_W0@Z 10072378 f   xerces-c_3_1:DOMLSParserImpl.cpp.obj
 0001:000713e6       ?startEntityReference@DOMLSParserImpl@xercesc_3_1@@UAEXABVXMLEntityDecl@2@@Z 100723e6 f   xerces-c_3_1:DOMLSParserImpl.cpp.obj
 0001:00071487       ?endElement@DOMLSParserImpl@xercesc_3_1@@UAEXABVXMLElementDecl@2@I_NQB_W@Z 10072487 f   xerces-c_3_1:DOMLSParserImpl.cpp.obj
 0001:000715bb       ?startElement@DOMLSParserImpl@xercesc_3_1@@UAEXABVXMLElementDecl@2@IQB_WABV?$RefVectorOf@VXMLAttr@xercesc_3_1@@@2@K_N3@Z 100725bb f   xerces-c_3_1:DOMLSParserImpl.cpp.obj
 0001:00071757       ??1?$XMLEnumerator@I@xercesc_3_1@@UAE@XZ 10072757 f i xerces-c_3_1:DOMLSParserImpl.cpp.obj
 0001:0007175e       ??_G?$XMLEnumerator@I@xercesc_3_1@@UAEPAXI@Z 1007275e f i xerces-c_3_1:DOMLSParserImpl.cpp.obj
 0001:0007175e       ??_E?$XMLEnumerator@I@xercesc_3_1@@UAEPAXI@Z 1007275e f i  CIL library: CIL module
 0001:0007177e       ?get@?$ValueHashTableOf@_NUPtrHasher@xercesc_3_1@@@xercesc_3_1@@QAEAA_NQBXQAVMemoryManager@2@@Z 1007277e f i xerces-c_3_1:FieldActivator.cpp.obj
 0001:0007177e       ?get@?$ValueHashTableOf@W4FilterAction@DOMLSParserFilter@xercesc_3_1@@UPtrHasher@3@@xercesc_3_1@@QAEAAW4FilterAction@DOMLSParserFilter@2@QBXQAVMemoryManager@2@@Z 1007277e f i xerces-c_3_1:DOMLSParserImpl.cpp.obj
 0001:000717f6       ?put@?$ValueHashTableOf@W4FilterAction@DOMLSParserFilter@xercesc_3_1@@UPtrHasher@3@@xercesc_3_1@@QAEXPAXABW4FilterAction@DOMLSParserFilter@2@@Z 100727f6 f i xerces-c_3_1:DOMLSParserImpl.cpp.obj
 0001:00071873       ??0?$ValueHashTableOf@_NUPtrHasher@xercesc_3_1@@@xercesc_3_1@@QAE@KQAVMemoryManager@1@@Z 10072873 f i xerces-c_3_1:DOMLSParserImpl.cpp.obj
 0001:00071873       ??0?$ValueHashTableOf@IUStringHasher@xercesc_3_1@@@xercesc_3_1@@QAE@KQAVMemoryManager@1@@Z 10072873 f i xerces-c_3_1:DOMLSParserImpl.cpp.obj
 0001:00071909       ?containsKey@?$ValueHashTableOf@_NUPtrHasher@xercesc_3_1@@@xercesc_3_1@@QBE_NQBX@Z 10072909 f i xerces-c_3_1:DOMLSParserImpl.cpp.obj
 0001:00071909       ?containsKey@?$ValueHashTableOf@W4FilterAction@DOMLSParserFilter@xercesc_3_1@@UPtrHasher@3@@xercesc_3_1@@QBE_NQBX@Z 10072909 f i xerces-c_3_1:DOMLSParserImpl.cpp.obj
 0001:0007192c       ?removeAll@?$ValueHashTableOf@W4FilterAction@DOMLSParserFilter@xercesc_3_1@@UPtrHasher@3@@xercesc_3_1@@QAEXXZ 1007292c f i xerces-c_3_1:DOMLSParserImpl.cpp.obj
 0001:0007192c       ?removeAll@?$ValueHashTableOf@_NUPtrHasher@xercesc_3_1@@@xercesc_3_1@@QAEXXZ 1007292c f i xerces-c_3_1:DOMLSParserImpl.cpp.obj
 0001:0007196a       ?put@?$ValueHashTableOf@_NUPtrHasher@xercesc_3_1@@@xercesc_3_1@@QAEXPAXAB_N@Z 1007296a f i xerces-c_3_1:DOMLSParserImpl.cpp.obj
 0001:000719e7       ??1?$ValueHashTableOf@IUStringHasher@xercesc_3_1@@@xercesc_3_1@@QAE@XZ 100729e7 f i xerces-c_3_1:DOMLSParserImpl.cpp.obj
 0001:00071a2f       ?containsKey@?$ValueHashTableOf@_WUStringHasher@xercesc_3_1@@@xercesc_3_1@@QBE_NQBX@Z 10072a2f f i xerces-c_3_1:WFXMLScanner.cpp.obj
 0001:00071a2f       ?containsKey@?$ValueHashTableOf@IUStringHasher@xercesc_3_1@@@xercesc_3_1@@QBE_NQBX@Z 10072a2f f i xerces-c_3_1:DOMLSParserImpl.cpp.obj
 0001:00071a6b       ?put@?$ValueHashTableOf@IUStringHasher@xercesc_3_1@@@xercesc_3_1@@QAEXPAXABI@Z 10072a6b f i xerces-c_3_1:DOMLSParserImpl.cpp.obj
 0001:00071ad2       ??1?$ValueHashTableOfEnumerator@IUStringHasher@xercesc_3_1@@@xercesc_3_1@@UAE@XZ 10072ad2 f i xerces-c_3_1:DOMLSParserImpl.cpp.obj
 0001:00071b1b       ?hasMoreElements@?$ValueHashTableOfEnumerator@IUStringHasher@xercesc_3_1@@@xercesc_3_1@@UBE_NXZ 10072b1b f i xerces-c_3_1:DOMLSParserImpl.cpp.obj
 0001:00071b32       ?nextElement@?$ValueHashTableOfEnumerator@IUStringHasher@xercesc_3_1@@@xercesc_3_1@@UAEAAIXZ 10072b32 f i xerces-c_3_1:DOMLSParserImpl.cpp.obj
 0001:00071ba0       ?Reset@?$ValueHashTableOfEnumerator@IUStringHasher@xercesc_3_1@@@xercesc_3_1@@UAEXXZ 10072ba0 f i xerces-c_3_1:DOMLSParserImpl.cpp.obj
 0001:00071baf       ??_G?$ValueHashTableOfEnumerator@IUStringHasher@xercesc_3_1@@@xercesc_3_1@@UAEPAXI@Z 10072baf f i xerces-c_3_1:DOMLSParserImpl.cpp.obj
 0001:00071baf       ??_E?$ValueHashTableOfEnumerator@IUStringHasher@xercesc_3_1@@@xercesc_3_1@@UAEPAXI@Z 10072baf f i  CIL library: CIL module
 0001:00071bce       ?rehash@?$ValueHashTableOf@W4FilterAction@DOMLSParserFilter@xercesc_3_1@@UPtrHasher@3@@xercesc_3_1@@AAEXXZ 10072bce f i xerces-c_3_1:DOMLSParserImpl.cpp.obj
 0001:00071c74       ?removeBucketElem@?$ValueHashTableOf@_NUPtrHasher@xercesc_3_1@@@xercesc_3_1@@AAEXQBXAAK@Z 10072c74 f i xerces-c_3_1:DOMLSParserImpl.cpp.obj
 0001:00071c74       ?removeBucketElem@?$ValueHashTableOf@W4FilterAction@DOMLSParserFilter@xercesc_3_1@@UPtrHasher@3@@xercesc_3_1@@AAEXQBXAAK@Z 10072c74 f i xerces-c_3_1:DOMLSParserImpl.cpp.obj
 0001:00071d0d       ?rehash@?$ValueHashTableOf@_NUPtrHasher@xercesc_3_1@@@xercesc_3_1@@AAEXXZ 10072d0d f i xerces-c_3_1:DOMLSParserImpl.cpp.obj
 0001:00071dbf       ?findNext@?$ValueHashTableOfEnumerator@IUStringHasher@xercesc_3_1@@@xercesc_3_1@@AAEXXZ 10072dbf f i xerces-c_3_1:DOMLSParserImpl.cpp.obj
 0001:00071e0b       ??_EDOMLSParserImpl@xercesc_3_1@@W3AEPAXI@Z 10072e0b f i xerces-c_3_1:DOMLSParserImpl.cpp.obj
 0001:00071e13       ??_EDOMLSParserImpl@xercesc_3_1@@WGE@AEPAXI@Z 10072e13 f i xerces-c_3_1:DOMLSParserImpl.cpp.obj
 0001:00071e1b       ??_EDOMLSParserImpl@xercesc_3_1@@W7AEPAXI@Z 10072e1b f i xerces-c_3_1:DOMLSParserImpl.cpp.obj
 0001:00071e23       ??_EDOMLSParserImpl@xercesc_3_1@@WGI@AEPAXI@Z 10072e23 f i xerces-c_3_1:DOMLSParserImpl.cpp.obj
 0001:00071e2b       ??_EDOMLSParserImpl@xercesc_3_1@@WM@AEPAXI@Z 10072e2b f i xerces-c_3_1:DOMLSParserImpl.cpp.obj
 0001:00071e33       ??_EDOMLSParserImpl@xercesc_3_1@@WBA@AEPAXI@Z 10072e33 f i xerces-c_3_1:DOMLSParserImpl.cpp.obj
 0001:00071e3b       ??1DOMLSSerializer@xercesc_3_1@@UAE@XZ 10072e3b f i xerces-c_3_1:DOMLSSerializerImpl.cpp.obj
 0001:00071e42       ??_EDOMLSSerializer@xercesc_3_1@@UAEPAXI@Z 10072e42 f i  CIL library: CIL module
 0001:00071e42       ??_GDOMLSSerializer@xercesc_3_1@@UAEPAXI@Z 10072e42 f i xerces-c_3_1:DOMLSSerializerImpl.cpp.obj
 0001:00071e62       ?getDomConfig@DOMLSSerializerImpl@xercesc_3_1@@UAEPAVDOMConfiguration@2@XZ 10072e62 f i xerces-c_3_1:DOMLSSerializerImpl.cpp.obj
 0001:00071e6d       ??_EDOMLSSerializerImpl@xercesc_3_1@@UAEPAXI@Z 10072e6d f i  CIL library: CIL module
 0001:00071e6d       ??_GDOMLSSerializerImpl@xercesc_3_1@@UAEPAXI@Z 10072e6d f i xerces-c_3_1:DOMLSSerializerImpl.cpp.obj
 0001:00071ee5       ??0DOMLSSerializerImpl@xercesc_3_1@@QAE@QAVMemoryManager@1@@Z 10072ee5 f   xerces-c_3_1:DOMLSSerializerImpl.cpp.obj
 0001:000720ac       ?canSetParameter@DOMLSSerializerImpl@xercesc_3_1@@UBE_NPB_WPBX@Z 100730ac f   xerces-c_3_1:DOMLSSerializerImpl.cpp.obj
 0001:000720c6       ?canSetParameter@DOMLSSerializerImpl@xercesc_3_1@@UBE_NPB_W_N@Z 100730c6 f   xerces-c_3_1:DOMLSSerializerImpl.cpp.obj
 0001:000720ff       ?setParameter@DOMLSSerializerImpl@xercesc_3_1@@UAEXPB_WPBX@Z 100730ff f   xerces-c_3_1:DOMLSSerializerImpl.cpp.obj
 0001:00072142       ?setParameter@DOMLSSerializerImpl@xercesc_3_1@@UAEXPB_W_N@Z 10073142 f   xerces-c_3_1:DOMLSSerializerImpl.cpp.obj
 0001:000721d6       ?getParameter@DOMLSSerializerImpl@xercesc_3_1@@UBEPBXPB_W@Z 100731d6 f   xerces-c_3_1:DOMLSSerializerImpl.cpp.obj
 0001:0007221e       ?setNewLine@DOMLSSerializerImpl@xercesc_3_1@@UAEXQB_W@Z 1007321e f   xerces-c_3_1:DOMLSSerializerImpl.cpp.obj
 0001:00072245       ?setGrammar@DTDValidator@xercesc_3_1@@UAEXPAVGrammar@2@@Z 10073245 f   xerces-c_3_1:DTDValidator.cpp.obj
