 Far

 Timestamp is 51e6ebfb (Wed Jul 17 23:09:47 2013)

 Preferred load address is 00400000

 Start         Length     Name                   Class
 0001:00000000 00236077H .text                   CODE
 0001:00236080 0002e0deH .text$x                 CODE
 0001:00264160 0000013eH .text$yc                CODE
 0001:002642a0 00000dfeH .text$yd                CODE
 0002:00000000 00000628H .idata$5                DATA
 0002:00000628 00000004H .CRT$XCA                DATA
 0002:0000062c 0000001cH .CRT$XCC                DATA
 0002:00000648 00000008H .CRT$XCL                DATA
 0002:00000650 00000024H .CRT$XCU                DATA
 0002:00000674 00000004H .CRT$XCZ                DATA
 0002:00000678 00000004H .CRT$XIA                DATA
 0002:0000067c 00000018H .CRT$XIC                DATA
 0002:00000694 00000004H .CRT$XID                DATA
 0002:00000698 00000004H .CRT$XIY                DATA
 0002:0000069c 00000004H .CRT$XIZ                DATA
 0002:000006a0 00000004H .CRT$XLA                DATA
 0002:000006a4 00000004H .CRT$XLY                DATA
 0002:000006a8 00000004H .CRT$XLZ                DATA
 0002:000006ac 00000004H .CRT$XPA                DATA
 0002:000006b0 00000004H .CRT$XPX                DATA
 0002:000006b4 00000004H .CRT$XPXA               DATA
 0002:000006b8 00000004H .CRT$XPZ                DATA
 0002:000006bc 00000004H .CRT$XTA                DATA
 0002:000006c0 00000004H .CRT$XTZ                DATA
 0002:000006d0 00029c28H .rdata                  DATA
 0002:0002a2f8 00000018H .rdata$T                DATA
 0002:0002a310 000008acH .rdata$r                DATA
 0002:0002abc0 000018fcH .rdata$sxdata           DATA
 0002:0002c4bc 00000004H .rtc$IAA                DATA
 0002:0002c4c0 00000004H .rtc$IZZ                DATA
 0002:0002c4c4 00000004H .rtc$TAA                DATA
 0002:0002c4c8 00000004H .rtc$TZZ                DATA
 0002:0002c4d0 0002b6bcH .xdata$x                DATA
 0002:00057b8c 00000104H .idata$2                DATA
 0002:00057c90 00000014H .idata$3                DATA
 0002:00057ca4 00000628H .idata$4                DATA
 0002:000582cc 00001df0H .idata$6                DATA
 0002:0005a0bc 00000000H .edata                  DATA
 0003:00000000 0000dc64H .data                   DATA
 0003:0000dc80 00056224H .bss                    DATA
 0004:00000000 00000001H .tls                    DATA
 0004:00000004 0000000cH .tls$                   DATA
 0004:00000010 00000001H .tls$ZZZ                DATA
 0005:00000000 00000a90H .rsrc$01                DATA
 0005:00000a90 000315f0H .rsrc$02                DATA

  Address         Publics by Value              Rva+Base       Lib:Object

 0000:00000000       __except_list              00000000     <absolute>
 0000:0000002c       __tls_array                0000002c     <absolute>
 0000:0000063f       ___safe_se_handler_count   0000063f     <absolute>
 0000:00000000       ___ImageBase               00400000     <linker-defined>
 0001:00000000       _sqlite3_compileoption_get 00401000 f   sqlite.obj
 0001:00000810       _sqlite3_mutex_alloc       00401810 f   sqlite.obj
 0001:00000830       _sqlite3_mutex_free        00401830 f   sqlite.obj
 0001:00000850       _sqlite3_mutex_enter       00401850 f   sqlite.obj
 0001:00000870       _sqlite3_mutex_try         00401870 f   sqlite.obj
 0001:00000890       _sqlite3_mutex_leave       00401890 f   sqlite.obj
 0001:000008c0       _sqlite3_thread_cleanup    004018c0 f   sqlite.obj
 0001:000008c0       ?SetOpion@nsSJISProber@ucd@@UAEXXZ 004018c0 f   nsUniversalDetectorEx.obj
 0001:000008c0       ?SaveSelection@Panel@@UAEXXZ 004018c0 f   infolist.obj
 0001:000008c0       ?RevertCallback@Edit@@MAEXXZ 004018c0 f   edit.obj
 0001:000008c0       ?SetOpion@nsEUCJPProber@ucd@@UAEXXZ 004018c0 f   nsUniversalDetectorEx.obj
 0001:000008c0       ?RestoreSelection@Panel@@UAEXXZ 004018c0 f   infolist.obj
 0001:000008c0       ?QViewDelTempName@Panel@@UAEXXZ 004018c0 f   filelist.obj
 0001:000008c0       ?UpdateIfRequired@Panel@@UAEXXZ 004018c0 f   infolist.obj
 0001:000008c0       ?SetPluginModified@Panel@@UAEXXZ 004018c0 f   infolist.obj
 0001:000008c0       ??1FileFilter@@QAE@XZ      004018c0 f   filefilter.obj
 0001:000008c0       ??3@YAXPAX0@Z              004018c0 f   cmdline.obj
 0001:000008c0       ?SetOpion@nsBig5Prober@ucd@@UAEXXZ 004018c0 f   nsUniversalDetectorEx.obj
 0001:000008c0       ?CompareDir@Panel@@UAEXXZ  004018c0 f   infolist.obj
 0001:000008c0       ?SetOpion@nsEscCharSetProber@ucd@@UAEXXZ 004018c0 f   nsUniversalDetectorEx.obj
 0001:000008c0       ?SetOpion@nsSBCSGroupProber@ucd@@UAEXXZ 004018c0 f   nsUniversalDetectorEx.obj
 0001:000008c0       ?CloseFile@Panel@@UAEXXZ   004018c0 f   filelist.obj
 0001:000008c0       ?ClearAllItem@Panel@@MAEXXZ 004018c0 f   infolist.obj
 0001:000008c0       ?UpdateViewPanel@Panel@@UAEXXZ 004018c0 f   infolist.obj
 0001:000008c0       ?UpdateKeyBar@dummy_panel@@EAEXXZ 004018c0 f   main.obj
 0001:000008c0       ?FlushDiz@Panel@@UAEXXZ    004018c0 f   infolist.obj
 0001:000008c0       ?TestPathParser@@YAXXZ     004018c0 f   pathmix.obj
 0001:000008c0       ?EditFilter@Panel@@UAEXXZ  004018c0 f   infolist.obj
 0001:000008c0       ?SetOpion@nsMBCSGroupProber@ucd@@UAEXXZ 004018c0 f   nsUniversalDetectorEx.obj
 0001:000008c0       ?UngetSelName@Panel@@UAEXXZ 004018c0 f   infolist.obj
 0001:000008c0       ?ClearSelection@Panel@@UAEXXZ 004018c0 f   infolist.obj
 0001:000008c0       ?SetOpion@nsLatin1Prober@ucd@@UAEXXZ 004018c0 f   nsUniversalDetectorEx.obj
 0001:000008c0       ?SetOpion@nsHebrewProber@ucd@@UAEXXZ 004018c0 f   nsUniversalDetectorEx.obj
 0001:000008c0       ?SetOpion@nsEUCKRProber@ucd@@UAEXXZ 004018c0 f   nsUniversalDetectorEx.obj
 0001:000008c0       ?ShowConsoleTitle@ScreenObject@@UAEXXZ 004018c0 f   cmdline.obj
 0001:000008c0       ?SendDropProcess@KeyMacro@@QAEXXZ 004018c0 f   macro.obj
 0001:000008c0       ?Epilogue@Plugin@@MAEXXZ   004018c0 f   plclass.obj
 0001:000008c0       ?ClearLastGetSelection@Panel@@UAEXXZ 004018c0 f   infolist.obj
 0001:000008c0       ?SetOpion@nsEUCTWProber@ucd@@UAEXXZ 004018c0 f   nsUniversalDetectorEx.obj
 0001:000008c0       ?SetOpion@nsUTF8Prober@ucd@@UAEXXZ 004018c0 f   nsUniversalDetectorEx.obj
 0001:000008c0       ?StopFSWatcher@Panel@@UAEXXZ 004018c0 f   infolist.obj
 0001:000008c0       ?OnDestroy@Frame@@UAEXXZ   004018c0 f   codepage.obj
 0001:000008c0       ?Prologue@Plugin@@MAEXXZ   004018c0 f   plclass.obj
 0001:000008c0       ?DisableCallback@Edit@@MAEXXZ 004018c0 f   edit.obj
 0001:000008c0       ?SetOpion@nsSingleByteCharSetProber@ucd@@UAEXXZ 004018c0 f   nsUniversalDetectorEx.obj
 0001:000008c0       ?SetOpion@nsGB18030Prober@ucd@@UAEXXZ 004018c0 f   nsUniversalDetectorEx.obj
 0001:000008c0       ?PrintMemory@@YAXXZ        004018c0 f   farrtl.obj
 0001:000008c0       ?DisplayObject@Panel@@UAEXXZ 004018c0 f   main.obj
 0001:000008c0       ?ResizeConsole@ScreenObject@@UAEXXZ 004018c0 f   edit.obj
 0001:000008c0       ?InitKeyBar@Frame@@UAEXXZ  004018c0 f   codepage.obj
 0001:00000930       ?GetType@Help@@UAEHXZ      00401930 f   help.obj
 0001:00000a70       _sqlite3_free              00401a70 f   sqlite.obj
 0001:00000dc0       _sqlite3_stricmp           00401dc0 f   sqlite.obj
 0001:00000e10       _sqlite3_strnicmp          00401e10 f   sqlite.obj
 0001:00005570       _sqlite3_enable_shared_cache 00406570 f   sqlite.obj
 0001:00006230       _sqlite3_backup_remaining  00407230 f   sqlite.obj
 0001:00006240       _sqlite3_backup_pagecount  00407240 f   sqlite.obj
 0001:00006610       _sqlite3_sql               00407610 f   sqlite.obj
 0001:00006d80       _sqlite3_expired           00407d80 f   sqlite.obj
 0001:00006da0       _sqlite3_value_double      00407da0 f   sqlite.obj
 0001:00006df0       _sqlite3_value_int64       00407df0 f   sqlite.obj
 0001:00006df0       _sqlite3_value_int         00407df0 f   sqlite.obj
 0001:00006e00       _sqlite3_value_type        00407e00 f   sqlite.obj
 0001:00006e10       _sqlite3_result_null       00407e10 f   sqlite.obj
 0001:00006e60       _sqlite3_result_error_nomem 00407e60 f   sqlite.obj
 0001:00006ec0       _sqlite3_user_data         00407ec0 f   sqlite.obj
 0001:00006ed0       _sqlite3_context_db_handle 00407ed0 f   sqlite.obj
 0001:00006ee0       _sqlite3_get_auxdata       00407ee0 f   sqlite.obj
 0001:00006f10       _sqlite3_aggregate_count   00407f10 f   sqlite.obj
 0001:00006f20       _sqlite3_column_count      00407f20 f   sqlite.obj
 0001:00006f40       _sqlite3_data_count        00407f40 f   sqlite.obj
 0001:00006f60       _sqlite3_bind_parameter_count 00407f60 f   sqlite.obj
 0001:00006f80       _sqlite3_bind_parameter_name 00407f80 f   sqlite.obj
 0001:00007010       _sqlite3_bind_parameter_index 00408010 f   sqlite.obj
 0001:00007050       _sqlite3_db_handle         00408050 f   sqlite.obj
 0001:00007070       _sqlite3_stmt_readonly     00408070 f   sqlite.obj
 0001:00007090       _sqlite3_stmt_busy         00408090 f   sqlite.obj
 0001:000070c0       _sqlite3_next_stmt         004080c0 f   sqlite.obj
 0001:00007100       _sqlite3_stmt_status       00408100 f   sqlite.obj
 0001:000071c0       _sqlite3_value_numeric_type 004081c0 f   sqlite.obj
 0001:00007220       _sqlite3_blob_bytes        00408220 f   sqlite.obj
 0001:00008400       _sqlite3_set_authorizer    00409400 f   sqlite.obj
 0001:00009d70       _sqlite3_free_table        0040ad70 f   sqlite.obj
 0001:0000a440       _sqlite3_vtab_on_conflict  0040b440 f   sqlite.obj
 0001:0000af40       _sqlite3_complete          0040bf40 f   sqlite.obj
 0001:0000b3d0       _sqlite3_libversion        0040c3d0 f   sqlite.obj
 0001:0000b3e0       _sqlite3_sourceid          0040c3e0 f   sqlite.obj
 0001:0000b3f0       _sqlite3_libversion_number 0040c3f0 f   sqlite.obj
 0001:0000b400       ?FastHide@Frame@@UAEHXZ    0040c400 f   frame.obj
 0001:0000b400       ?GetSelCount@TreeList@@EAEIXZ 0040c400 f   treelist.obj
 0001:0000b400       ?GetType@FileViewer@@UAEHXZ 0040c400 f   fileview.obj
 0001:0000b400       ?GetColumnsCount@Panel@@UAEHXZ 0040c400 f   infolist.obj
 0001:0000b400       ?getType@Bool3Option@@UBE?BW4OptionType@Option@@XZ 0040c400 f   config.obj
 0001:0000b400       _sqlite3_threadsafe        0040c400 f   sqlite.obj
 0001:0000b410       _sqlite3_db_mutex          0040c410 f   sqlite.obj
 0001:0000b420       _sqlite3_db_release_memory 0040c420 f   sqlite.obj
 0001:0000b5b0       _sqlite3_last_insert_rowid 0040c5b0 f   sqlite.obj
 0001:0000b5c0       _sqlite3_changes           0040c5c0 f   sqlite.obj
 0001:0000b5d0       _sqlite3_total_changes     0040c5d0 f   sqlite.obj
 0001:0000b870       _sqlite3_busy_handler      0040c870 f   sqlite.obj
 0001:0000b8d0       _sqlite3_progress_handler  0040c8d0 f   sqlite.obj
 0001:0000b940       _sqlite3_busy_timeout      0040c940 f   sqlite.obj
 0001:0000b9e0       _sqlite3_interrupt         0040c9e0 f   sqlite.obj
 0001:0000ba00       _sqlite3_trace             0040ca00 f   sqlite.obj
 0001:0000ba50       _sqlite3_profile           0040ca50 f   sqlite.obj
 0001:0000baa0       _sqlite3_commit_hook       0040caa0 f   sqlite.obj
 0001:0000baf0       _sqlite3_update_hook       0040caf0 f   sqlite.obj
 0001:0000bb40       _sqlite3_rollback_hook     0040cb40 f   sqlite.obj
 0001:0000bb90       _sqlite3_wal_hook          0040cb90 f   sqlite.obj
 0001:0000bbe0       _sqlite3_errstr            0040cbe0 f   sqlite.obj
 0001:0000bc20       _sqlite3_limit             0040cc20 f   sqlite.obj
 0001:0000bc60       _sqlite3_collation_needed  0040cc60 f   sqlite.obj
 0001:0000bcb0       _sqlite3_collation_needed16 0040ccb0 f   sqlite.obj
 0001:0000bd00       _sqlite3_get_autocommit    0040cd00 f   sqlite.obj
 0001:0000bd10       _sqlite3_extended_result_codes 0040cd10 f   sqlite.obj
 0001:0000bd60       _sqlite3_uri_parameter     0040cd60 f   sqlite.obj
 0001:0000be10       _sqlite3_uri_boolean       0040ce10 f   sqlite.obj
 0001:0000be50       _sqlite3_uri_int64         0040ce50 f   sqlite.obj
 0001:0000bf40       _sqlite3_db_filename       0040cf40 f   sqlite.obj
 0001:0000bf80       _sqlite3_db_readonly       0040cf80 f   sqlite.obj
 0001:0000bfc0       _sqlite3_compileoption_used 0040cfc0 f   sqlite.obj
 0001:0000c1e0       _sqlite3_vfs_find          0040d1e0 f   sqlite.obj
 0001:0000c290       _sqlite3_vfs_register      0040d290 f   sqlite.obj
 0001:0000c310       _sqlite3_vfs_unregister    0040d310 f   sqlite.obj
 0001:0000c8c0       _sqlite3_realloc           0040d8c0 f   sqlite.obj
 0001:0000cd40       _sqlite3_randomness        0040dd40 f   sqlite.obj
 0001:0000d2a0       _sqlite3_win32_mbcs_to_utf8 0040e2a0 f   sqlite.obj
 0001:00010e30       _sqlite3_clear_bindings    00411e30 f   sqlite.obj
 0001:00010f90       _sqlite3_result_double     00411f90 f   sqlite.obj
 0001:00010fb0       _sqlite3_result_int        00411fb0 f   sqlite.obj
 0001:00011000       _sqlite3_result_int64      00412000 f   sqlite.obj
 0001:00011050       _sqlite3_result_zeroblob   00412050 f   sqlite.obj
 0001:00011120       _sqlite3_aggregate_context 00412120 f   sqlite.obj
 0001:000111a0       _sqlite3_set_auxdata       004121a0 f   sqlite.obj
 0001:000113d0       _sqlite3_transfer_bindings 004123d0 f   sqlite.obj
 0001:00015670       _sqlite3_db_config         00416670 f   sqlite.obj
 0001:00015720       _sqlite3_sleep             00416720 f   sqlite.obj
 0001:00015760       _sqlite3_file_control      00416760 f   sqlite.obj
 0001:000169f0       _sqlite3_vmprintf          004179f0 f   sqlite.obj
 0001:00016a80       _sqlite3_mprintf           00417a80 f   sqlite.obj
 0001:00016ab0       _sqlite3_vsnprintf         00417ab0 f   sqlite.obj
 0001:00016b10       _sqlite3_snprintf          00417b10 f   sqlite.obj
 0001:00016c00       _sqlite3_log               00417c00 f   sqlite.obj
 0001:00019470       _sqlite3_result_value      0041a470 f   sqlite.obj
 0001:0001f250       _sqlite3_status            00420250 f   sqlite.obj
 0001:0001f2b0       _sqlite3_db_status         004202b0 f   sqlite.obj
 0001:0001f840       _sqlite3_memory_used       00420840 f   sqlite.obj
 0001:0001f850       _sqlite3_memory_highwater  00420850 f   sqlite.obj
 0001:000206c0       _sqlite3_os_init           004216c0 f   sqlite.obj
 0001:00021e80       _sqlite3_value_bytes       00422e80 f   sqlite.obj
 0001:00021ec0       _sqlite3_value_bytes16     00422ec0 f   sqlite.obj
 0001:00021f00       _sqlite3_value_text        00422f00 f   sqlite.obj
 0001:00021f20       _sqlite3_value_text16be    00422f20 f   sqlite.obj
 0001:00021f40       _sqlite3_value_text16le    00422f40 f   sqlite.obj
 0001:00021f40       _sqlite3_value_text16      00422f40 f   sqlite.obj
 0001:00021f60       _sqlite3_result_error      00422f60 f   sqlite.obj
 0001:00021f90       _sqlite3_result_error16    00422f90 f   sqlite.obj
 0001:00021fc0       _sqlite3_result_error_code 00422fc0 f   sqlite.obj
 0001:00022020       _sqlite3_result_error_toobig 00423020 f   sqlite.obj
 0001:00022140       _sqlite3_column_name       00423140 f   sqlite.obj
 0001:000221b0       _sqlite3_column_name16     004231b0 f   sqlite.obj
 0001:00022220       _sqlite3_column_decltype   00423220 f   sqlite.obj
 0001:00022290       _sqlite3_column_decltype16 00423290 f   sqlite.obj
 0001:00027e50       _sqlite3_config            00428e50 f   sqlite.obj
 0001:00028100       _sqlite3_errmsg            00429100 f   sqlite.obj
 0001:000281e0       _sqlite3_errmsg16          004291e0 f   sqlite.obj
 0001:000282b0       _sqlite3_errcode           004292b0 f   sqlite.obj
 0001:00028320       _sqlite3_extended_errcode  00429320 f   sqlite.obj
 0001:0002ab00       _sqlite3_value_blob        0042bb00 f   sqlite.obj
 0001:0002ab50       _sqlite3_result_blob       0042bb50 f   sqlite.obj
 0001:0002aba0       _sqlite3_result_text       0042bba0 f   sqlite.obj
 0001:0002abf0       _sqlite3_result_text16le   0042bbf0 f   sqlite.obj
 0001:0002abf0       _sqlite3_result_text16     0042bbf0 f   sqlite.obj
 0001:0002ac40       _sqlite3_result_text16be   0042bc40 f   sqlite.obj
 0001:0002ae40       _sqlite3_bind_double       0042be40 f   sqlite.obj
 0001:0002aea0       _sqlite3_bind_int64        0042bea0 f   sqlite.obj
 0001:0002af20       _sqlite3_bind_null         0042bf20 f   sqlite.obj
 0001:0002af50       _sqlite3_bind_zeroblob     0042bf50 f   sqlite.obj
 0001:00032d90       _sqlite3_vtab_config       00433d90 f   sqlite.obj
 0001:00035d80       _sqlite3_column_blob       00436d80 f   sqlite.obj
 0001:00035df0       _sqlite3_column_bytes      00436df0 f   sqlite.obj
 0001:00035e50       _sqlite3_column_bytes16    00436e50 f   sqlite.obj
 0001:00035eb0       _sqlite3_column_double     00436eb0 f   sqlite.obj
 0001:00035f40       _sqlite3_column_int        00436f40 f   sqlite.obj
 0001:00035f70       _sqlite3_column_int64      00436f70 f   sqlite.obj
 0001:00035fb0       _sqlite3_column_text       00436fb0 f   sqlite.obj
 0001:00035fe0       _sqlite3_column_value      00436fe0 f   sqlite.obj
 0001:00036020       _sqlite3_column_text16     00437020 f   sqlite.obj
 0001:00036050       _sqlite3_column_type       00437050 f   sqlite.obj
 0001:00036170       _sqlite3_bind_blob         00437170 f   sqlite.obj
 0001:000361a0       _sqlite3_bind_int          004371a0 f   sqlite.obj
 0001:000361c0       _sqlite3_bind_text         004371c0 f   sqlite.obj
 0001:000361f0       _sqlite3_bind_text16       004371f0 f   sqlite.obj
 0001:00036220       _sqlite3_bind_value        00437220 f   sqlite.obj
 0001:00038660       _sqlite3_load_extension    00439660 f   sqlite.obj
 0001:00038fc0       _sqlite3_create_module     00439fc0 f   sqlite.obj
 0001:00038fe0       _sqlite3_create_module_v2  00439fe0 f   sqlite.obj
 0001:00039d10       _sqlite3_create_function_v2 0043ad10 f   sqlite.obj
 0001:00039e00       _sqlite3_create_function16 0043ae00 f   sqlite.obj
 0001:00039ea0       _sqlite3_overload_function 0043aea0 f   sqlite.obj
 0001:00039f60       _sqlite3_create_collation  0043af60 f   sqlite.obj
 0001:00039fe0       _sqlite3_create_collation_v2 0043afe0 f   sqlite.obj
 0001:0003a060       _sqlite3_create_collation16 0043b060 f   sqlite.obj
 0001:0003a740       _sqlite3_initialize        0043b740 f   sqlite.obj
 0001:0003a950       _sqlite3_create_function   0043b950 f   sqlite.obj
 0001:0003a980       _sqlite3_soft_heap_limit64 0043b980 f   sqlite.obj
 0001:0003aa50       _sqlite3_soft_heap_limit   0043ba50 f   sqlite.obj
 0001:0003aa70       _sqlite3_malloc            0043ba70 f   sqlite.obj
 0001:0003f6b0       _sqlite3_complete16        004406b0 f   sqlite.obj
 0001:0003fd30       _sqlite3_test_control      00440d30 f   sqlite.obj
 0001:000441b0       _sqlite3_backup_step       004451b0 f   sqlite.obj
 0001:000488c0       _sqlite3_wal_checkpoint_v2 004498c0 f   sqlite.obj
 0001:000489b0       _sqlite3_wal_checkpoint    004499b0 f   sqlite.obj
 0001:00048b40       _sqlite3_backup_init       00449b40 f   sqlite.obj
 0001:00048c60       _sqlite3_backup_finish     00449c60 f   sqlite.obj
 0001:00049520       _sqlite3_finalize          0044a520 f   sqlite.obj
 0001:000495c0       _sqlite3_reset             0044a5c0 f   sqlite.obj
 0001:00049670       _sqlite3_blob_close        0044a670 f   sqlite.obj
 0001:000497e0       _sqlite3_blob_read         0044a7e0 f   sqlite.obj
 0001:00049810       _sqlite3_blob_write        0044a810 f   sqlite.obj
 0001:0004c070       _sqlite3_prepare           0044d070 f   sqlite.obj
 0001:0004c0a0       _sqlite3_prepare_v2        0044d0a0 f   sqlite.obj
 0001:0004c1e0       _sqlite3_prepare16         0044d1e0 f   sqlite.obj
 0001:0004c210       _sqlite3_prepare16_v2      0044d210 f   sqlite.obj
 0001:0004c8b0       _sqlite3_close             0044d8b0 f   sqlite.obj
 0001:0004c8d0       _sqlite3_close_v2          0044d8d0 f   sqlite.obj
 0001:0004c930       _sqlite3_wal_autocheckpoint 0044d930 f   sqlite.obj
 0001:0004ce10       _sqlite3_open              0044de10 f   sqlite.obj
 0001:0004ce30       _sqlite3_open_v2           0044de30 f   sqlite.obj
 0001:0004ce40       _sqlite3_open16            0044de40 f   sqlite.obj
 0001:00056d20       _sqlite3_step              00457d20 f   sqlite.obj
 0001:00057150       _sqlite3_blob_reopen       00458150 f   sqlite.obj
 0001:00057780       _sqlite3_exec              00458780 f   sqlite.obj
 0001:00058290       _sqlite3_get_table         00459290 f   sqlite.obj
 0001:0005cf40       _sqlite3_blob_open         0045df40 f   sqlite.obj
 0001:00068d00       _sqlite3_declare_vtab      00469d00 f   sqlite.obj
 0001:00068ed0       ?Clear@CachedRead@@QAEXXZ  00469ed0 f   cache.obj
 0001:00068ee0       ?Unread@CachedRead@@QAE_NK@Z 00469ee0 f   cache.obj
 0001:00068f20       ??1bad_alloc@std@@UAE@XZ   00469f20 f i cache.obj
 0001:00068f70       ??_Ebad_alloc@std@@UAEPAXI@Z 00469f70 f i cache.obj
 0001:00068f70       ??_Gbad_alloc@std@@UAEPAXI@Z 00469f70 f i cache.obj
 0001:00068fd0       ??0bad_alloc@std@@QAE@ABV01@@Z 00469fd0 f i cache.obj
 0001:00069030       ?FillBuffer@CachedRead@@QAE_NXZ 0046a030 f   cache.obj
 0001:00069170       ?Flush@CachedWrite@@QAE_NXZ 0046a170 f   cache.obj
 0001:000691d0       ?allocate@?$allocator@E@std@@QAEPAEI@Z 0046a1d0 f i cache.obj
 0001:00069260       ?Read@CachedRead@@QAE_NPAXKPAK@Z 0046a260 f   cache.obj
 0001:00069380       ?Write@CachedWrite@@QAE_NPBXI@Z 0046a380 f   cache.obj
 0001:00069400       ??$_Umove@PAE@?$vector@EV?$allocator@E@std@@@std@@IAEPAEPAE00@Z 0046a400 f i cache.obj
 0001:00069430       ?reserve@?$vector@EV?$allocator@E@std@@@std@@QAEXI@Z 0046a430 f i cache.obj
 0001:00069500       ?_Reserve@?$vector@EV?$allocator@E@std@@@std@@IAEXI@Z 0046a500 f i cache.obj
 0001:00069560       ??1CachedRead@@QAE@XZ      0046a560 f   cache.obj
 0001:000695d0       ??1CachedWrite@@QAE@XZ     0046a5d0 f   cache.obj
 0001:00069680       ?resize@?$vector@EV?$allocator@E@std@@@std@@QAEXI@Z 0046a680 f i cache.obj
 0001:000696f0       ?AdjustAlignment@CachedRead@@QAEXXZ 0046a6f0 f   cache.obj
 0001:000697a0       ??0CachedRead@@QAE@AAVFile@@K@Z 0046a7a0 f   cache.obj
 0001:00069830       ??0CachedWrite@@QAE@AAVFile@@@Z 0046a830 f   cache.obj
 0001:000698b0       ?IsDriveTypeCDROM@@YA_NI@Z 0046a8b0 f   cddrv.obj
 0001:000698d0       ?StrLength@@YAHPB_W@Z      0046a8d0 f i cddrv.obj
 0001:00069900       ?compare@UnicodeString@@QBEHIIPB_W@Z 0046a900 f i cddrv.obj
 0001:00069c50       ?DriveCanBeVirtual@@YA_NI@Z 0046ac50 f   cddrv.obj
 0001:00069ce0       ?data@UnicodeString@@QBEPB_WXZ 0046ace0 f i cddrv.obj
 0001:00069cf0       ??1?$shared_ptr@VUnicodeStringData@UnicodeString@@@tr1@std@@QAE@XZ 0046acf0 f i cddrv.obj
 0001:00069e90       ??4char_proxy@UnicodeString@@QAEAAV01@_W@Z 0046ae90 f i cddrv.obj
 0001:00069ec0       ??0UnicodeString@@QAE@XZ   0046aec0 f i cddrv.obj
 0001:00069f20       ??0UnicodeString@@QAE@ABV0@@Z 0046af20 f i cddrv.obj
 0001:00069f80       ??1UnicodeString@@QAE@XZ   0046af80 f i cddrv.obj
 0001:00069ff0       ?FAR_GetDriveType@@YAIABVUnicodeString@@K@Z 0046aff0 f   cddrv.obj
 0001:0006a3c0       ??0ChangeMacroMode@@QAE@W4FARMACROAREA@@@Z 0046b3c0 f   chgmmode.obj
 0001:0006a400       ??1ChangeMacroMode@@QAE@XZ 0046b400 f   chgmmode.obj
 0001:0006a420       ??0ChangePriority@@QAE@H@Z 0046b420 f   chgprior.obj
 0001:0006a450       ??1ChangePriority@@QAE@XZ  0046b450 f   chgprior.obj
 0001:0006a470       ?SetUseInternalClipboardState@Clipboard@@SA_N_N@Z 0046b470 f   clipboard.obj
 0001:0006a490       ?GetUseInternalClipboardState@Clipboard@@SA_NXZ 0046b490 f   clipboard.obj
 0001:0006a4a0       ?Open@Clipboard@@QAE_NXZ   0046b4a0 f   clipboard.obj
 0001:0006a4e0       ?Close@Clipboard@@QAE_NXZ  0046b4e0 f   clipboard.obj
 0001:0006a510       ?Empty@Clipboard@@QAE_NXZ  0046b510 f   clipboard.obj
 0001:0006a570       ?GetData@Clipboard@@AAEPAXI@Z 0046b570 f   clipboard.obj
 0001:0006a5c0       ?SetData@Clipboard@@AAEPAXIPAX@Z 0046b5c0 f   clipboard.obj
 0001:0006a670       ?IsFormatAvailable@Clipboard@@AAE_NI@Z 0046b670 f   clipboard.obj
 0001:0006a6d0       ?Copy@Clipboard@@QAE_NPB_W@Z 0046b6d0 f   clipboard.obj
 0001:0006a760       ?CopyFormat@Clipboard@@QAE_NW4FAR_CLIPBOARD_FORMAT@@PB_W@Z 0046b760 f   clipboard.obj
 0001:0006a840       ?CopyHDROP@Clipboard@@QAE_NPBXI@Z 0046b840 f   clipboard.obj
 0001:0006a8e0       ?PasteEx@Clipboard@@QAEPA_WH@Z 0046b8e0 f   clipboard.obj
 0001:0006a9d0       ?PasteFormat@Clipboard@@QAEPA_WW4FAR_CLIPBOARD_FORMAT@@@Z 0046b9d0 f   clipboard.obj
 0001:0006ab50       ?InternalCopy@Clipboard@@QAE_N_N@Z 0046bb50 f   clipboard.obj
 0001:0006abc0       ?CopyFormatToClipboard@@YAHW4FAR_CLIPBOARD_FORMAT@@PB_W@Z 0046bbc0 f   clipboard.obj
 0001:0006ac50       ?PasteFromClipboardEx@@YAPA_WH@Z 0046bc50 f   clipboard.obj
 0001:0006acd0       ?PasteFormatFromClipboard@@YAPA_WW4FAR_CLIPBOARD_FORMAT@@@Z 0046bcd0 f   clipboard.obj
 0001:0006ad50       ?EmptyInternalClipboard@@YA_NXZ 0046bd50 f   clipboard.obj
 0001:0006adc0       ?CopyToClipboard@@YAHABVUnicodeString@@@Z 0046bdc0 f   clipboard.obj
 0001:0006ae50       ??YUnicodeString@@QAEAAV0@PB_W@Z 0046be50 f i clipboard.obj
 0001:0006ae50       ?append@UnicodeString@@QAEAAV1@PB_W@Z 0046be50 f i clipboard.obj
 0001:0006ae90       ?Paste@Clipboard@@QAEPA_WXZ 0046be90 f   clipboard.obj
 0001:0006b110       ?PasteFromClipboard@@YAPA_WXZ 0046c110 f   clipboard.obj
 0001:0006b190       ?IsSlash@@YA_N_W@Z         0046c190 f i cmdline.obj
 0001:0006b1b0       ?SetCurPos@CommandLine@@QAEXHH_N@Z 0046c1b0 f   cmdline.obj
 0001:0006b1e0       ?VMProcess@CommandLine@@UAE_JHPAX_J@Z 0046c1e0 f   cmdline.obj
 0001:0006b270       ?InsertString@CommandLine@@QAEXABVUnicodeString@@@Z 0046c270 f   cmdline.obj
 0001:0006b2a0       ?ProcessMouse@CommandLine@@UAEHPBU_MOUSE_EVENT_RECORD@@@Z 0046c2a0 f   cmdline.obj
 0001:0006b2e0       ?SaveBackground@CommandLine@@QAEXHHHH@Z 0046c2e0 f   cmdline.obj
 0001:0006b380       ?SaveBackground@CommandLine@@QAEXXZ 0046c380 f   cmdline.obj
 0001:0006b390       ?ShowBackground@CommandLine@@QAEXXZ 0046c390 f   cmdline.obj
 0001:0006b3b0       ?ResizeConsole@CommandLine@@UAEXXZ 0046c3b0 f   cmdline.obj
 0001:0006b3f0       ?IsSpace@@YAH_W@Z          0046c3f0 f i cmdline.obj
 0001:0006b410       ?IsSpaceOrEos@@YAH_W@Z     0046c410 f i cmdline.obj
 0001:0006b440       ?StrCmpNNI@@YAHPB_WH0H@Z   0046c440 f i cmdline.obj
 0001:0006b470       ?StrCmpNI@@YAHPB_W0H@Z     0046c470 f i cmdline.obj
 0001:0006b4a0       ?StrCmpI@@YAHPB_W0@Z       0046c4a0 f i cmdline.obj
 0001:0006b4d0       ?SetPersistentBlocks@CommandLine@@QAEX_N@Z 0046c4d0 f   cmdline.obj
 0001:0006b4f0       ?SetDelRemovesBlocks@CommandLine@@QAEX_N@Z 0046c4f0 f   cmdline.obj
 0001:0006b510       ?SetAutoComplete@CommandLine@@QAEXH@Z 0046c510 f   cmdline.obj
 0001:0006b530       ?CheckCmdLineForHelp@CommandLine@@AAE_NPB_W@Z 0046c530 f   cmdline.obj
 0001:0006b580       ?LockUpdatePanel@CommandLine@@QAEX_N@Z 0046c580 f   cmdline.obj
 0001:0006b5a0       ??$find_first_of@PB_WPB_W@std@@YAPB_WPB_W000@Z 0046c5a0 f i cmdline.obj
 0001:0006b5e0       ?_Reset0@?$_Ptr_base@VUnicodeStringData@UnicodeString@@@tr1@std@@QAEXPAVUnicodeStringData@UnicodeString@@PAV_Ref_count_base@23@@Z 0046c5e0 f i cmdline.obj
 0001:0006b650       ?SetCurDir@CommandLine@@QAEXABVUnicodeString@@@Z 0046c650 f   cmdline.obj
 0001:0006b6a0       ?GetCurDir@CommandLine@@QAEHAAVUnicodeString@@@Z 0046c6a0 f   cmdline.obj
 0001:0006b6c0       ?SetString@CommandLine@@QAEXABVUnicodeString@@_N@Z 0046c6c0 f   cmdline.obj
 0001:0006b710       ?AssignColor@@YAXABVUnicodeString@@AAKAA_K_K@Z 0046c710 f i cmdline.obj
 0001:0006b7a0       ?CheckCmdLineForSet@CommandLine@@AAE_NABVUnicodeString@@@Z 0046c7a0 f   cmdline.obj
 0001:0006b7e0       ??1?$unique_ptr@VSetAutocomplete@@U?$default_delete@VSetAutocomplete@@@std@@@std@@QAE@XZ 0046c7e0 f i cmdline.obj
 0001:0006b800       ?reset@?$unique_ptr@VSetAutocomplete@@U?$default_delete@VSetAutocomplete@@@std@@@std@@QAEXPAVSetAutocomplete@@@Z 0046c800 f i cmdline.obj
 0001:0006b830       ??YUnicodeString@@QAEAAV0@_W@Z 0046c830 f i cmdline.obj
 0001:0006b860       ?_Growmap@?$deque@UPushPopRecord@@V?$allocator@UPushPopRecord@@@std@@@std@@IAEXI@Z 0046c860 f i cmdline.obj
 0001:0006b9b0       ??$_Reset@VUnicodeStringData@UnicodeString@@@?$_Ptr_base@VUnicodeStringData@UnicodeString@@@tr1@std@@QAEXABV012@@Z 0046c9b0 f i cmdline.obj
 0001:0006ba10       ??1EditControl@@UAE@XZ     0046ca10 f i cmdline.obj
 0001:0006bca0       ??0PushPopRecord@@QAE@XZ   0046cca0 f i cmdline.obj
 0001:0006bca0       ??0ViewerString@@QAE@XZ    0046cca0 f i viewer.obj
 0001:0006bd00       ??0FAR_FIND_DATA@@QAE@XZ   0046cd00 f i cmdline.obj
 0001:0006bd90       ??1FAR_FIND_DATA@@QAE@XZ   0046cd90 f i cmdline.obj
 0001:0006be50       ??0UnicodeString@@QAE@PB_W@Z 0046ce50 f i cmdline.obj
 0001:0006bee0       ??4UnicodeString@@QAEAAV0@$$QAV0@@Z 0046cee0 f i cmdline.obj
 0001:0006bf10       ??4UnicodeString@@QAEAAV0@PB_W@Z 0046cf10 f i cmdline.obj
 0001:0006bf50       ?find@UnicodeString@@QBEIPB_WII@Z 0046cf50 f i cmdline.obj
 0001:0006bff0       ??$?0AAVUnicodeString@@AAUFarColor@@@?$pair@VUnicodeString@@UFarColor@@@std@@QAE@AAVUnicodeString@@AAUFarColor@@@Z 0046cff0 f i cmdline.obj
 0001:0006c080       ??$_For_each@V?$_List_unchecked_const_iterator@V?$_List_val@U?$pair@VUnicodeString@@UFarColor@@@std@@V?$allocator@U?$pair@VUnicodeString@@UFarColor@@@std@@@2@@std@@U_Iterator_base0@2@@std@@V<lambda1>@?A0xdc075f35@@@std@@YA?AV<lambda1>@?A0xdc075f35@@V?$_List_unchecked_const_iterator@V?$_List_val@U?$pair@VUnicodeString@@UFarColor@@@std@@V?$allocator@U?$pair@VUnicodeString@@UFarColor@@@std@@@2@@std@@U_Iterator_base0@2@@0@0V12@@Z 0046d080 f i cmdline.obj
 0001:0006c1a0       ??1?$pair@VUnicodeString@@UFarColor@@@std@@QAE@XZ 0046d1a0 f i cmdline.obj
 0001:0006c1a0       ??1?$pair@VUnicodeString@@H@std@@QAE@XZ 0046d1a0 f i filefilter.obj
 0001:0006c210       ?IntChDir@CommandLine@@AAE_NABVUnicodeString@@H_N@Z 0046d210 f   cmdline.obj
 0001:0006c6a0       ?clear@?$list@UUserMenuItem@UserMenu@@V?$allocator@UUserMenuItem@UserMenu@@@std@@@std@@QAEXXZ 0046d6a0 f i cmdline.obj
 0001:0006c720       ??$_For_each@V?$_List_unchecked_iterator@V?$_List_val@U?$pair@VUnicodeString@@UFarColor@@@std@@V?$allocator@U?$pair@VUnicodeString@@UFarColor@@@std@@@2@@std@@@std@@V<lambda2>@?A0xdc075f35@@@std@@YA?AV<lambda2>@?A0xdc075f35@@V?$_List_unchecked_iterator@V?$_List_val@U?$pair@VUnicodeString@@UFarColor@@@std@@V?$allocator@U?$pair@VUnicodeString@@UFarColor@@@std@@@2@@std@@@0@0V12@@Z 0046d720 f i cmdline.obj
 0001:0006cbb0       ??0?$_Pair_base@VUnicodeString@@UFarColor@@@std@@QAE@$$QAVUnicodeString@@$$QAUFarColor@@@Z 0046dbb0 f i cmdline.obj
 0001:0006cc50       ?top@?$stack@UPushPopRecord@@V?$deque@UPushPopRecord@@V?$allocator@UPushPopRecord@@@std@@@std@@@std@@QAEAAUPushPopRecord@@XZ 0046dc50 f i cmdline.obj
 0001:0006cca0       ?push_back@?$deque@UPushPopRecord@@V?$allocator@UPushPopRecord@@@std@@@std@@QAEXABUPushPopRecord@@@Z 0046dca0 f i cmdline.obj
 0001:0006cdc0       ??1?$list@UUserMenuItem@UserMenu@@V?$allocator@UUserMenuItem@UserMenu@@@std@@@std@@QAE@XZ 0046ddc0 f i cmdline.obj
 0001:0006ce20       ??1UserMenu@@QAE@XZ        0046de20 f i cmdline.obj
 0001:0006ce90       ?clear@?$list@VUnicodeString@@V?$allocator@VUnicodeString@@@std@@@std@@QAEXXZ 0046de90 f i cmdline.obj
 0001:0006cf40       ?pop_back@?$deque@UPushPopRecord@@V?$allocator@UPushPopRecord@@@std@@@std@@QAEXXZ 0046df40 f i cmdline.obj
 0001:0006cff0       ?_Tidy@?$deque@UPushPopRecord@@V?$allocator@UPushPopRecord@@@std@@@std@@IAEXXZ 0046dff0 f i cmdline.obj
 0001:0006d100       ??$_Cons_val@V?$allocator@U?$pair@VUnicodeString@@UFarColor@@@std@@@std@@U?$pair@VUnicodeString@@UFarColor@@@2@U32@@std@@YAXAAV?$allocator@U?$pair@VUnicodeString@@UFarColor@@@std@@@0@PAU?$pair@VUnicodeString@@UFarColor@@@0@$$QAU20@@Z 0046e100 f i cmdline.obj
 0001:0006d160       ??1?$deque@UPushPopRecord@@V?$allocator@UPushPopRecord@@@std@@@std@@QAE@XZ 0046e160 f i cmdline.obj
 0001:0006d1c0       ??1?$list@VUnicodeString@@V?$allocator@VUnicodeString@@@std@@@std@@QAE@XZ 0046e1c0 f i cmdline.obj
 0001:0006d220       ??1UserMenuItem@UserMenu@@QAE@XZ 0046e220 f i cmdline.obj
 0001:0006d320       ??$_Buynode@U?$pair@VUnicodeString@@UFarColor@@@std@@@?$_List_val@U?$pair@VUnicodeString@@UFarColor@@@std@@V?$allocator@U?$pair@VUnicodeString@@UFarColor@@@std@@@2@@std@@QAEPAU_Node@?$_List_nod@U?$pair@VUnicodeString@@UFarColor@@@std@@V?$allocator@U?$pair@VUnicodeString@@UFarColor@@@std@@@2@@1@PAU231@0$$QAU?$pair@VUnicodeString@@UFarColor@@@1@@Z 0046e320 f i cmdline.obj
 0001:0006d3f0       ??1?$stack@UPushPopRecord@@V?$deque@UPushPopRecord@@V?$allocator@UPushPopRecord@@@std@@@std@@@std@@QAE@XZ 0046e3f0 f i cmdline.obj
 0001:0006d450       ??1CommandLine@@UAE@XZ     0046e450 f   cmdline.obj
 0001:0006d5d0       ??0?$stack@UPushPopRecord@@V?$deque@UPushPopRecord@@V?$allocator@UPushPopRecord@@@std@@@std@@@std@@QAE@XZ 0046e5d0 f i cmdline.obj
 0001:0006d690       ??0CommandLine@@QAE@XZ     0046e690 f   cmdline.obj
 0001:0006d860       ??_ECommandLine@@UAEPAXI@Z 0046e860 f i cmdline.obj
 0001:0006d860       ??_GCommandLine@@UAEPAXI@Z 0046e860 f i cmdline.obj
 0001:0006d890       ?swap@?$stack@UPushPopRecord@@V?$deque@UPushPopRecord@@V?$allocator@UPushPopRecord@@@std@@@std@@@std@@QAEXAAV12@@Z 0046e890 f i cmdline.obj
 0001:0006d920       ?ProcessOSCommands@CommandLine@@AAEHABVUnicodeString@@_NAA_N@Z 0046e920 f   cmdline.obj
 0001:0006e540       ?ExecString@CommandLine@@QAEHABVUnicodeString@@_N11111@Z 0046f540 f   cmdline.obj
 0001:0006ebe0       ?GetPrompt@CommandLine@@AAE?AV?$list@U?$pair@VUnicodeString@@UFarColor@@@std@@V?$allocator@U?$pair@VUnicodeString@@UFarColor@@@std@@@2@@std@@XZ 0046fbe0 f   cmdline.obj
 0001:0006f320       ?ShowViewEditHistory@CommandLine@@QAEXXZ 00470320 f   cmdline.obj
 0001:0006f570       ?DisplayObject@CommandLine@@EAEXXZ 00470570 f   cmdline.obj
 0001:0006f750       ?ProcessKey@CommandLine@@UAEHH@Z 00470750 f   cmdline.obj
 0001:00070500       ??1CriticalSection@@QAE@XZ 00471500 f i codepage.obj
 0001:00070510       ?_Min@?$_Tree_val@V?$_Tmap_traits@IVUnicodeString@@U?$less@I@std@@V?$allocator@U?$pair@$$CBIVUnicodeString@@@std@@@3@$0A@@std@@@std@@SAPAU_Node@?$_Tree_nod@V?$_Tmap_traits@IVUnicodeString@@U?$less@I@std@@V?$allocator@U?$pair@$$CBIVUnicodeString@@@std@@@3@$0A@@std@@@2@PAU342@@Z 00471510 f i codepage.obj
 0001:00070530       ?_Max@?$_Tree_val@V?$_Tmap_traits@IVUnicodeString@@U?$less@I@std@@V?$allocator@U?$pair@$$CBIVUnicodeString@@@std@@@3@$0A@@std@@@std@@SAPAU_Node@?$_Tree_nod@V?$_Tmap_traits@IVUnicodeString@@U?$less@I@std@@V?$allocator@U?$pair@$$CBIVUnicodeString@@@std@@@3@$0A@@std@@@2@PAU342@@Z 00471530 f i codepage.obj
 0001:00070550       ??1BaseFormat@@MAE@XZ      00471550 f i codepage.obj
 0001:00070560       ??_EBaseFormat@@MAEPAXI@Z  00471560 f i codepage.obj
 0001:00070560       ??_GBaseFormat@@MAEPAXI@Z  00471560 f i codepage.obj
 0001:00070590       ??$_Allocate@UDialogItemAutomation@@@std@@YAPAUDialogItemAutomation@@IPAU1@@Z 00471590 f i codepage.obj
 0001:00070630       ??F?$_Tree_unchecked_const_iterator@V?$_Tree_val@V?$_Tmap_traits@IVUnicodeString@@U?$less@I@std@@V?$allocator@U?$pair@$$CBIVUnicodeString@@@std@@@3@$0A@@std@@@std@@U_Iterator_base0@2@@std@@QAEAAV01@XZ 00471630 f i codepage.obj
 0001:00070690       ??$_Allocate@UDialogItemEx@@@std@@YAPAUDialogItemEx@@IPAU1@@Z 00471690 f i codepage.obj
 0001:00070720       ?FormatCodePageString@codepages@@AAEXIPB_WAAVFormatString@@_N@Z 00471720 f   codepage.obj
 0001:00070790       ?GetItemsCount@codepages@@AAEHXZ 00471790 f   codepage.obj
 0001:00070830       ?GetCodePageInsertPosition@codepages@@AAEHIHH@Z 00471830 f   codepage.obj
 0001:000708b0       ?GetChar@MultibyteCodepageDecoder@@QBEHPBEIAA_W@Z 004718b0 f   codepage.obj
 0001:00070960       ??1?$_Tree_val@V?$_Tmap_traits@IVUnicodeString@@U?$less@I@std@@V?$allocator@U?$pair@$$CBIVUnicodeString@@@std@@@3@$0A@@std@@@std@@QAE@XZ 00471960 f i codepage.obj
 0001:00070960       ??1?$_Tree_val@V?$_Tmap_traits@VUnicodeString@@V?$list@VUnicodeString@@V?$allocator@VUnicodeString@@@std@@@std@@Udiz_less@@V?$allocator@U?$pair@$$CBVUnicodeString@@V?$list@VUnicodeString@@V?$allocator@VUnicodeString@@@std@@@std@@@std@@@3@$0A@@std@@@std@@QAE@XZ 00471960 f i dizlist.obj
 0001:00070970       ??E?$_Tree_unchecked_const_iterator@V?$_Tree_val@V?$_Tmap_traits@IVUnicodeString@@U?$less@I@std@@V?$allocator@U?$pair@$$CBIVUnicodeString@@@std@@@3@$0A@@std@@@std@@U_Iterator_base0@2@@std@@QAEAAV01@XZ 00471970 f i codepage.obj
 0001:000709c0       ?_Lrotate@?$_Tree@V?$_Tmap_traits@IVUnicodeString@@U?$less@I@std@@V?$allocator@U?$pair@$$CBIVUnicodeString@@@std@@@3@$0A@@std@@@std@@IAEXPAU_Node@?$_Tree_nod@V?$_Tmap_traits@IVUnicodeString@@U?$less@I@std@@V?$allocator@U?$pair@$$CBIVUnicodeString@@@std@@@3@$0A@@std@@@2@@Z 004719c0 f i codepage.obj
 0001:00070a20       ?_Rrotate@?$_Tree@V?$_Tmap_traits@IVUnicodeString@@U?$less@I@std@@V?$allocator@U?$pair@$$CBIVUnicodeString@@@std@@@3@$0A@@std@@@std@@IAEXPAU_Node@?$_Tree_nod@V?$_Tmap_traits@IVUnicodeString@@U?$less@I@std@@V?$allocator@U?$pair@$$CBIVUnicodeString@@@std@@@3@$0A@@std@@@2@@Z 00471a20 f i codepage.obj
 0001:00070a80       ?_Buy@?$vector@UDialogItemAutomation@@V?$allocator@UDialogItemAutomation@@@std@@@std@@IAE_NI@Z 00471a80 f i codepage.obj
 0001:00070ae0       ??8UnicodeString@@QBE_NPB_W@Z 00471ae0 f i codepage.obj
 0001:00070b20       ??$_Cons_val@V?$allocator@UDialogItemAutomation@@@std@@UDialogItemAutomation@@U3@@std@@YAXAAV?$allocator@UDialogItemAutomation@@@0@PAUDialogItemAutomation@@$$QAU2@@Z 00471b20 f i dialog.obj
 0001:00070b20       ??$_Cons_val@V?$allocator@UDialogItemAutomation@@@std@@UDialogItemAutomation@@AAU3@@std@@YAXAAV?$allocator@UDialogItemAutomation@@@0@PAUDialogItemAutomation@@AAU2@@Z 00471b20 f i codepage.obj
 0001:00070b80       ??$_Copy_impl@PAUDialogItemAutomation@@PAU1@@std@@YAPAUDialogItemAutomation@@PAU1@00@Z 00471b80 f i codepage.obj
 0001:00070bb0       ?_Grow_to@?$vector@UDialogItemEx@@V?$allocator@UDialogItemEx@@@std@@@std@@IBEII@Z 00471bb0 f i codepage.obj
 0001:00070bf0       ?allocate@?$allocator@_W@std@@QAEPA_WI@Z 00471bf0 f i codepage.obj
 0001:00070c80       ??1?$function@$$A6AHH@Z@tr1@std@@QAE@XZ 00471c80 f i codepage.obj
 0001:00070c80       ??1?$function@$$A6AXI@Z@tr1@std@@QAE@XZ 00471c80 f i preservestyle.obj
 0001:00070c80       ??1?$function@$$A6AIPAX@Z@tr1@std@@QAE@XZ 00471c80 f i interf.obj
 0001:00070c80       ??1?$function@$$A6AHHPAX@Z@tr1@std@@QAE@XZ 00471c80 f i config.obj
 0001:00070cb0       ??$_Cons_val@V?$allocator@UDialogItemAutomation@@@std@@UDialogItemAutomation@@ABU3@@std@@YAXAAV?$allocator@UDialogItemAutomation@@@0@PAUDialogItemAutomation@@ABU2@@Z 00471cb0 f i codepage.obj
 0001:00070d10       ??$_Umove@PA_W@?$vector@_WV?$allocator@_W@std@@@std@@IAEPA_WPA_W00@Z 00471d10 f i codepage.obj
 0001:00070d40       ??4BoolOption@@QAEAAV0@_N@Z 00471d40 f i codepage.obj
 0001:00070d70       ?_Target_type@?$_Impl_no_alloc1@U?$_Callable_obj@V<lambda1>@?A0xceee6781@@$0A@@tr1@std@@HH@tr1@std@@UBEABVtype_info@@XZ 00471d70 f i codepage.obj
 0001:00070d80       ??_G?$_Impl_no_alloc1@U?$_Callable_obj@V<lambda1>@?A0xceee6781@@$0A@@tr1@std@@HH@tr1@std@@UAEPAXI@Z 00471d80 f i codepage.obj
 0001:00070d80       ??_E?$_Impl_no_alloc1@U?$_Callable_obj@V<lambda1>@?A0xceee6781@@$0A@@tr1@std@@HH@tr1@std@@UAEPAXI@Z 00471d80 f i codepage.obj
 0001:00070de0       ?_Copy@?$_Impl_no_alloc1@U?$_Callable_obj@V<lambda1>@?A0xceee6781@@$0A@@tr1@std@@HH@tr1@std@@UAEPAV?$_Impl_base1@HH@23@PAX@Z 00471de0 f i codepage.obj
 0001:00070ea0       ??$_Uninit_copy@V?$_Vector_const_iterator@V?$_Vector_val@UDialogItemAutomation@@V?$allocator@UDialogItemAutomation@@@std@@@std@@@std@@PAUDialogItemAutomation@@V?$allocator@UDialogItemAutomation@@@2@@std@@YAPAUDialogItemAutomation@@V?$_Vector_const_iterator@V?$_Vector_val@UDialogItemAutomation@@V?$allocator@UDialogItemAutomation@@@std@@@std@@@0@0PAU1@AAV?$allocator@UDialogItemAutomation@@@0@U_Nonscalar_ptr_iterator_tag@0@@Z 00471ea0 f i codepage.obj
 0001:00070f30       ?reserve@?$vector@_WV?$allocator@_W@std@@@std@@QAEXI@Z 00471f30 f i codepage.obj
 0001:00071000       ?_Delete_this@?$_Impl_no_alloc1@U?$_Callable_obj@V<lambda2>@?A0x897958b7@@$0A@@tr1@std@@HH@tr1@std@@EAEX_N@Z 00472000 f i config.obj
 0001:00071000       ?_Delete_this@?$_Impl_no_alloc1@U?$_Callable_obj@V<lambda16>@?A0x44355304@@$0A@@tr1@std@@HH@tr1@std@@EAEX_N@Z 00472000 f i filelist.obj
 0001:00071000       ?_Delete_this@?$_Impl_no_alloc1@U?$_Callable_obj@V<lambda1>@?A0xdd23cf9c@@$0A@@tr1@std@@HH@tr1@std@@EAEX_N@Z 00472000 f i history.obj
 0001:00071000       ?_Delete_this@?$_Impl_no_alloc2@U?$_Callable_obj@V<lambda3>@?A0xbff0f7af@pluginapi@@$0A@@tr1@std@@HHPAX@tr1@std@@EAEX_N@Z 00472000 f i plugapi.obj
 0001:00071000       ?_Delete_this@?$_Impl_no_alloc1@U?$_Callable_obj@V<lambda14>@?A0xf9b92a74@@$0A@@tr1@std@@HH@tr1@std@@EAEX_N@Z 00472000 f i plugins.obj
 0001:00071000       ?_Delete_this@?$_Impl_no_alloc1@U?$_Callable_obj@V<lambda2>@?A0xa74a14f3@@$0A@@tr1@std@@HH@tr1@std@@EAEX_N@Z 00472000 f i macro.obj
 0001:00071000       ?_Delete_this@?$_Impl_no_alloc2@U?$_Callable_obj@V<lambda2>@?A0xf6767983@@$0A@@tr1@std@@HHPAX@tr1@std@@EAEX_N@Z 00472000 f i setcolor.obj
 0001:00071000       ?_Delete_this@?$_Impl_no_alloc1@U?$_Callable_obj@V<lambda1>@?A0xceee6781@@$0A@@tr1@std@@HH@tr1@std@@EAEX_N@Z 00472000 f i codepage.obj
 0001:00071000       ?_Delete_this@?$_Impl_no_alloc2@U?$_Callable_obj@V<lambda1>@?A0xf6767983@@$0A@@tr1@std@@HHPAX@tr1@std@@EAEX_N@Z 00472000 f i setcolor.obj
 0001:00071000       ?_Delete_this@?$_Impl_no_alloc1@U?$_Callable_obj@V<lambda1>@?A0xdaf31cd8@@$0A@@tr1@std@@HH@tr1@std@@EAEX_N@Z 00472000 f i plist.obj
 0001:00071000       ?_Delete_this@?$_Impl_no_alloc1@U?$_Callable_obj@V<lambda13>@?A0xf9b92a74@@$0A@@tr1@std@@HH@tr1@std@@EAEX_N@Z 00472000 f i plugins.obj
 0001:00071000       ?_Delete_this@?$_Impl_no_alloc1@U?$_Callable_obj@V<lambda2>@?A0xfadc7b34@@$0A@@tr1@std@@HH@tr1@std@@EAEX_N@Z 00472000 f i hilight.obj
 0001:00071000       ?_Delete_this@?$_Impl_no_alloc2@U?$_Callable_obj@V<lambda2>@?A0x41da663a@@$0A@@tr1@std@@HHPAX@tr1@std@@EAEX_N@Z 00472000 f i filefilter.obj
 0001:00071000       ?_Delete_this@?$_Impl_no_alloc1@U?$_Callable_obj@V<lambda1>@?A0x5a9d6368@@$0A@@tr1@std@@XI@tr1@std@@EAEX_N@Z 00472000 f i preservestyle.obj
 0001:00071000       ?_Delete_this@?$_Impl_no_alloc1@U?$_Callable_obj@V<lambda5>@?A0xbc393cf2@@$0A@@tr1@std@@HH@tr1@std@@EAEX_N@Z 00472000 f i shortcuts.obj
 0001:00071000       ?_Delete_this@?$_Impl_no_alloc1@U?$_Callable_obj@V<lambda3>@?A0x5a9d6368@@$0A@@tr1@std@@XI@tr1@std@@EAEX_N@Z 00472000 f i preservestyle.obj
 0001:00071000       ?_Delete_this@?$_Impl_no_alloc1@U?$_Callable_obj@V<lambda4>@?A0xbc393cf2@@$0A@@tr1@std@@HH@tr1@std@@EAEX_N@Z 00472000 f i shortcuts.obj
 0001:00071000       ?_Delete_this@?$_Impl_no_alloc1@U?$_Callable_obj@V<lambda4>@?A0xe250a7f3@@$0A@@tr1@std@@HH@tr1@std@@EAEX_N@Z 00472000 f i infolist.obj
 0001:00071000       ?_Delete_this@?$_Impl_no_alloc1@U?$_Callable_obj@V<lambda3>@?A0x9869173e@@$0A@@tr1@std@@HH@tr1@std@@EAEX_N@Z 00472000 f i usermenu.obj
 0001:00071000       ?_Delete_this@?$_Impl_no_alloc1@U?$_Callable_obj@V<lambda1>@?A0xd6f449e5@@$0A@@tr1@std@@HH@tr1@std@@EAEX_N@Z 00472000 f i filetype.obj
 0001:00071000       ?_Delete_this@?$_Impl_no_alloc1@U?$_Callable_obj@V<lambda2>@?A0x5a9d6368@@$0A@@tr1@std@@XI@tr1@std@@EAEX_N@Z 00472000 f i preservestyle.obj
 0001:00071000       ?_Delete_this@?$_Impl_no_alloc2@U?$_Callable_obj@V<lambda1>@?A0xffa00a95@@$0A@@tr1@std@@HHPAX@tr1@std@@EAEX_N@Z 00472000 f i vmenu2.obj
 0001:00071000       ?_Delete_this@?$_Impl_no_alloc2@U?$_Callable_obj@V<lambda1>@?A0x630bf263@@$0A@@tr1@std@@HHPAX@tr1@std@@EAEX_N@Z 00472000 f i hmenu.obj
 0001:00071000       ?_Delete_this@?$_Impl_no_alloc1@U?$_Callable_fun@Q6AIPAX@Z$0A@@tr1@std@@IPAX@tr1@std@@EAEX_N@Z 00472000 f i interf.obj
 0001:00071000       ?_Delete_this@?$_Impl_no_alloc1@U?$_Callable_obj@V<lambda3>@?A0xf318948e@@$0A@@tr1@std@@HH@tr1@std@@EAEX_N@Z 00472000 f i editor.obj
 0001:00071000       ?_Delete_this@?$_Impl_no_alloc1@U?$_Callable_obj@V<lambda7>@?A0x897958b7@@$0A@@tr1@std@@HH@tr1@std@@EAEX_N@Z 00472000 f i config.obj
 0001:00071000       ?_Delete_this@?$_Impl_no_alloc1@U?$_Callable_obj@V<lambda4>@?A0xcaf2db94@@$0A@@tr1@std@@HH@tr1@std@@EAEX_N@Z 00472000 f i panel.obj
 0001:00071000       ?_Delete_this@?$_Impl_no_alloc1@U?$_Callable_obj@V<lambda1>@?A0xf852152c@@$0A@@tr1@std@@HH@tr1@std@@EAEX_N@Z 00472000 f i hotplug.obj
 0001:00071000       ?_Delete_this@?$_Impl_no_alloc1@U?$_Callable_obj@V<lambda5>@?A0x1b51cb85@@$0A@@tr1@std@@HH@tr1@std@@EAEX_N@Z 00472000 f i editcontrol.obj
 0001:00071030       ??0FormatString@@QAE@XZ    00472030 f i codepage.obj
 0001:000710a0       ?Clear@MenuItemEx@@QAEXXZ  004720a0 f i codepage.obj
 0001:00071100       ?find@?$_Tree@V?$_Tmap_traits@IVUnicodeString@@U?$less@I@std@@V?$allocator@U?$pair@$$CBIVUnicodeString@@@std@@@3@$0A@@std@@@std@@QAE?AV?$_Tree_iterator@V?$_Tree_val@V?$_Tmap_traits@IVUnicodeString@@U?$less@I@std@@V?$allocator@U?$pair@$$CBIVUnicodeString@@@std@@@3@$0A@@std@@@std@@@2@ABI@Z 00472100 f i codepage.obj
 0001:00071170       ??1?$list@PAVMacroRecord@@V?$allocator@PAVMacroRecord@@@std@@@std@@QAE@XZ 00472170 f i macro.obj
 0001:00071170       ??1?$list@UPluginHandle@@V?$allocator@UPluginHandle@@@std@@@std@@QAE@XZ 00472170 f i plugins.obj
 0001:00071170       ??1?$list@USynchroData@PluginSynchro@@V?$allocator@USynchroData@PluginSynchro@@@std@@@std@@QAE@XZ 00472170 f i PluginSynchro.obj
 0001:00071170       ??1?$list@UFarColor@@V?$allocator@UFarColor@@@std@@@std@@QAE@XZ 00472170 f i global.obj
 0001:00071170       ??1?$list@UCodePageInfo@FindFiles@@V?$allocator@UCodePageInfo@FindFiles@@@std@@@std@@QAE@XZ 00472170 f i findfile.obj
 0001:00071170       ??1?$list@UChunk@FileWalker@@V?$allocator@UChunk@FileWalker@@@std@@@std@@QAE@XZ 00472170 f i copy.obj
 0001:00071170       ??1?$list@UPluginInfo@?1??OpenFilePlugin@PluginManager@@QAEPAXPBVUnicodeString@@HW4OPENFILEPLUGINTYPE@@@Z@V?$allocator@UPluginInfo@?1??OpenFilePlugin@PluginManager@@QAEPAXPBVUnicodeString@@HW4OPENFILEPLUGINTYPE@@@Z@@std@@@std@@QAE@XZ 00472170 f i plugins.obj
 0001:00071170       ??1?$list@_KV?$allocator@_K@std@@@std@@QAE@XZ 00472170 f i dirinfo.obj
 0001:00071170       ??1?$list@U_GUID@@V?$allocator@U_GUID@@@std@@@std@@QAE@XZ 00472170 f i editor.obj
 0001:00071170       ??1?$list@UPluginData@@V?$allocator@UPluginData@@@std@@@std@@QAE@XZ 00472170 f i plugins.obj
 0001:00071170       ??1?$list@PAVPlugin@@V?$allocator@PAVPlugin@@@std@@@std@@QAE@XZ 00472170 f i flplugin.obj
 0001:00071170       ??1?$list@U?$pair@HH@std@@V?$allocator@U?$pair@HH@std@@@2@@std@@QAE@XZ 00472170 f i codepage.obj
 0001:00071170       ??1?$list@U_SMALL_RECT@@V?$allocator@U_SMALL_RECT@@@std@@@std@@QAE@XZ 00472170 f i scrbuf.obj
 0001:00071170       ??1?$list@UViewerUndoData@@V?$allocator@UViewerUndoData@@@std@@@std@@QAE@XZ 00472170 f i viewer.obj
 0001:000711f0       ??1?$_Pair_base@$$CBIVUnicodeString@@@std@@QAE@XZ 004721f0 f i codepage.obj
 0001:000711f0       ??1addr@?1??ReloadEnvironment@@YAXXZ@QAE@XZ 004721f0 f i keyboard.obj
 0001:00071270       ?_Reserve@?$vector@_WV?$allocator@_W@std@@@std@@IAEXI@Z 00472270 f i codepage.obj
 0001:000712d0       ??$_Ucopy@PAUDialogItemAutomation@@@?$vector@UDialogItemAutomation@@V?$allocator@UDialogItemAutomation@@@std@@@std@@IAEPAUDialogItemAutomation@@PAU2@00@Z 004722d0 f i codepage.obj
 0001:00071300       ??$_Reset@V<lambda1>@?A0xceee6781@@@?$_Function_impl1@HH@tr1@std@@IAEXV<lambda1>@?A0xceee6781@@@Z 00472300 f i codepage.obj
 0001:000713d0       ??$_Ucopy@V?$_Vector_const_iterator@V?$_Vector_val@UDialogItemAutomation@@V?$allocator@UDialogItemAutomation@@@std@@@std@@@std@@@?$vector@UDialogItemAutomation@@V?$allocator@UDialogItemAutomation@@@std@@@std@@IAEPAUDialogItemAutomation@@V?$_Vector_const_iterator@V?$_Vector_val@UDialogItemAutomation@@V?$allocator@UDialogItemAutomation@@@std@@@std@@@1@0PAU2@@Z 004723d0 f i codepage.obj
 0001:00071400       ??$_Cons_val@V?$allocator@UDialogBuilderListItem2@@@std@@UDialogBuilderListItem2@@U3@@std@@YAXAAV?$allocator@UDialogBuilderListItem2@@@0@PAUDialogBuilderListItem2@@$$QAU2@@Z 00472400 f i codepage.obj
 0001:00071490       ??$swap@UDialogBuilderListItem2@@@std@@YAXAAUDialogBuilderListItem2@@0@Z 00472490 f i codepage.obj
 0001:00071590       ?GetCodePageInfo@codepages@@QAEHIPA_WI@Z 00472590 f   codepage.obj
 0001:000715f0       ??0MenuItemEx@@QAE@XZ      004725f0 f i codepage.obj
 0001:000716a0       ??1MenuItemEx@@QAE@XZ      004726a0 f i codepage.obj
 0001:00071760       ?FormatCodePageName@codepages@@AAEPA_WIPA_WIAA_N@Z 00472760 f   codepage.obj
 0001:000719d0       ?EditDialogProc@codepages@@AAEHPAVDialog@@HHPAX@Z 004729d0 f   codepage.obj
 0001:00071de0       ?IsCodePageSupported@codepages@@QAE_NI@Z 00472de0 f   codepage.obj
 0001:00071e70       ?MaxLen@MultibyteCodepageDecoder@@SAHI@Z 00472e70 f   codepage.obj
 0001:00071ee0       ?resize@?$vector@_WV?$allocator@_W@std@@@std@@QAEXI@Z 00472ee0 f i codepage.obj
 0001:00071f70       ??1?$pair@$$CBIVUnicodeString@@@std@@QAE@XZ 00472f70 f i codepage.obj
 0001:00071ff0       ?FormatCodePageName@codepages@@QAEPA_WIPA_WI@Z 00472ff0 f   codepage.obj
 0001:00072010       ?SetCP@MultibyteCodepageDecoder@@QAE_NI@Z 00473010 f   codepage.obj
 0001:000721f0       ??0?$vector@UDialogItemAutomation@@V?$allocator@UDialogItemAutomation@@@std@@@std@@QAE@ABV01@@Z 004731f0 f i codepage.obj
 0001:000722d0       ??$_Rotate@PAUDialogBuilderListItem2@@HU1@@std@@YAXPAUDialogBuilderListItem2@@00PAH0@Z 004732d0 f i codepage.obj
 0001:000723b0       ?clear@?$vector@UDialogItemAutomation@@V?$allocator@UDialogItemAutomation@@@std@@@std@@QAEXXZ 004733b0 f i codepage.obj
 0001:00072400       ??1DialogItemEx@@QAE@XZ    00473400 f i codepage.obj
 0001:00072520       ??4?$vector@UDialogItemAutomation@@V?$allocator@UDialogItemAutomation@@@std@@@std@@QAEAAV01@ABV01@@Z 00473520 f i codepage.obj
 0001:00072670       ??0DialogItemEx@@QAE@ABU0@@Z 00473670 f i codepage.obj
 0001:000727a0       ?Clear@DialogItemEx@@QAEXXZ 004737a0 f i codepage.obj
 0001:00072830       ??4DialogItemEx@@QAEAAU0@ABU0@@Z 00473830 f i codepage.obj
 0001:000728c0       ??$_Dest_val@V?$allocator@U?$pair@$$CBIVUnicodeString@@@std@@@std@@U?$pair@$$CBIVUnicodeString@@@2@@std@@YAXAAV?$allocator@U?$pair@$$CBIVUnicodeString@@@std@@@0@PAU?$pair@$$CBIVUnicodeString@@@0@@Z 004738c0 f i codepage.obj
 0001:00072940       ?_Insert@?$_Tree@V?$_Tmap_traits@IVUnicodeString@@U?$less@I@std@@V?$allocator@U?$pair@$$CBIVUnicodeString@@@std@@@3@$0A@@std@@@std@@IAE?AV?$_Tree_iterator@V?$_Tree_val@V?$_Tmap_traits@IVUnicodeString@@U?$less@I@std@@V?$allocator@U?$pair@$$CBIVUnicodeString@@@std@@@3@$0A@@std@@@std@@@2@_NPAU_Node@?$_Tree_nod@V?$_Tmap_traits@IVUnicodeString@@U?$less@I@std@@V?$allocator@U?$pair@$$CBIVUnicodeString@@@std@@@3@$0A@@std@@@2@1@Z 00473940 f i codepage.obj
 0001:00072be0       ??$_Cons_val@V?$allocator@U?$pair@$$CBIVUnicodeString@@@std@@@std@@U?$pair@$$CBIVUnicodeString@@@2@U32@@std@@YAXAAV?$allocator@U?$pair@$$CBIVUnicodeString@@@std@@@0@PAU?$pair@$$CBIVUnicodeString@@@0@$$QAU20@@Z 00473be0 f i codepage.obj
 0001:00072c60       ??$_Move@PAUDialogItemEx@@PAU1@@std@@YAPAUDialogItemEx@@PAU1@00U_Nonscalar_ptr_iterator_tag@0@@Z 00473c60 f i codepage.obj
 0001:00072d10       ??$_Destroy_range@V?$allocator@UDialogBuilderListItem2@@@std@@@std@@YAXPAUDialogBuilderListItem2@@0AAV?$allocator@UDialogBuilderListItem2@@@0@U_Nonscalar_ptr_iterator_tag@0@@Z 00473d10 f i codepage.obj
 0001:00072da0       ??$_Uninit_move@PAUDialogBuilderListItem2@@PAU1@V?$allocator@UDialogBuilderListItem2@@@std@@U1@@std@@YAPAUDialogBuilderListItem2@@PAU1@00AAV?$allocator@UDialogBuilderListItem2@@@0@0U_Nonscalar_ptr_iterator_tag@0@@Z 00473da0 f i codepage.obj
 0001:00072e50       ??0DialogItemEx@@QAE@XZ    00473e50 f i codepage.obj
 0001:00072f00       ?erase@?$_Tree@V?$_Tmap_traits@IVUnicodeString@@U?$less@I@std@@V?$allocator@U?$pair@$$CBIVUnicodeString@@@std@@@3@$0A@@std@@@std@@QAE?AV?$_Tree_iterator@V?$_Tree_val@V?$_Tmap_traits@IVUnicodeString@@U?$less@I@std@@V?$allocator@U?$pair@$$CBIVUnicodeString@@@std@@@3@$0A@@std@@@std@@@2@V?$_Tree_const_iterator@V?$_Tree_val@V?$_Tmap_traits@IVUnicodeString@@U?$less@I@std@@V?$allocator@U?$pair@$$CBIVUnicodeString@@@std@@@3@$0A@@std@@@std@@@2@@Z 00473f00 f i codepage.obj
 0001:000731c0       ?_Erase@?$_Tree@V?$_Tmap_traits@IVUnicodeString@@U?$less@I@std@@V?$allocator@U?$pair@$$CBIVUnicodeString@@@std@@@3@$0A@@std@@@std@@IAEXPAU_Node@?$_Tree_nod@V?$_Tmap_traits@IVUnicodeString@@U?$less@I@std@@V?$allocator@U?$pair@$$CBIVUnicodeString@@@std@@@3@$0A@@std@@@2@@Z 004741c0 f i codepage.obj
 0001:00073270       ?_Linsert@?$_Tree@V?$_Tmap_traits@IVUnicodeString@@U?$less@I@std@@V?$allocator@U?$pair@$$CBIVUnicodeString@@@std@@@3@$0A@@std@@@std@@QAE?AU?$pair@V?$_Tree_iterator@V?$_Tree_val@V?$_Tmap_traits@IVUnicodeString@@U?$less@I@std@@V?$allocator@U?$pair@$$CBIVUnicodeString@@@std@@@3@$0A@@std@@@std@@@std@@_N@2@PAU_Node@?$_Tree_nod@V?$_Tmap_traits@IVUnicodeString@@U?$less@I@std@@V?$allocator@U?$pair@$$CBIVUnicodeString@@@std@@@3@$0A@@std@@@2@_N@Z 00474270 f i codepage.obj
 0001:00073360       ??$_Buynode@U?$pair@$$CBIVUnicodeString@@@std@@@?$_Tree_val@V?$_Tmap_traits@IVUnicodeString@@U?$less@I@std@@V?$allocator@U?$pair@$$CBIVUnicodeString@@@std@@@3@$0A@@std@@@std@@QAEPAU_Node@?$_Tree_nod@V?$_Tmap_traits@IVUnicodeString@@U?$less@I@std@@V?$allocator@U?$pair@$$CBIVUnicodeString@@@std@@@3@$0A@@std@@@1@$$QAU?$pair@$$CBIVUnicodeString@@@1@@Z 00474360 f i codepage.obj
 0001:00073440       ?_Insert@?$_Tree@V?$_Tmap_traits@IVUnicodeString@@U?$less@I@std@@V?$allocator@U?$pair@$$CBIVUnicodeString@@@std@@@3@$0A@@std@@@std@@QAE?AV?$_Tree_iterator@V?$_Tree_val@V?$_Tmap_traits@IVUnicodeString@@U?$less@I@std@@V?$allocator@U?$pair@$$CBIVUnicodeString@@@std@@@3@$0A@@std@@@std@@@2@V?$_Tree_const_iterator@V?$_Tree_val@V?$_Tmap_traits@IVUnicodeString@@U?$less@I@std@@V?$allocator@U?$pair@$$CBIVUnicodeString@@@std@@@3@$0A@@std@@@std@@@2@PAU_Node@?$_Tree_nod@V?$_Tmap_traits@IVUnicodeString@@U?$less@I@std@@V?$allocator@U?$pair@$$CBIVUnicodeString@@@std@@@3@$0A@@std@@@2@@Z 00474440 f i codepage.obj
 0001:000735a0       ??$_Umove@PAUDialogBuilderListItem2@@@?$vector@UDialogBuilderListItem2@@V?$allocator@UDialogBuilderListItem2@@@std@@@std@@IAEPAUDialogBuilderListItem2@@PAU2@00@Z 004745a0 f i codepage.obj
 0001:000735d0       ??$_Uninit_def_fill_n@PAUDialogItemEx@@IU1@V?$allocator@UDialogItemEx@@@std@@U1@@std@@YAXPAUDialogItemEx@@IPBU1@AAV?$allocator@UDialogItemEx@@@0@0U_Nonscalar_ptr_iterator_tag@0@@Z 004745d0 f i codepage.obj
 0001:000736b0       ??$_Uninit_copy@PAUDialogItemEx@@PAU1@V?$allocator@UDialogItemEx@@@std@@@std@@YAPAUDialogItemEx@@PAU1@00AAV?$allocator@UDialogItemEx@@@0@U_Nonscalar_ptr_iterator_tag@0@@Z 004746b0 f i dialog.obj
 0001:000736b0       ??$_Uninit_move@PAUDialogItemEx@@PAU1@V?$allocator@UDialogItemEx@@@std@@U1@@std@@YAPAUDialogItemEx@@PAU1@00AAV?$allocator@UDialogItemEx@@@0@0U_Nonscalar_ptr_iterator_tag@0@@Z 004746b0 f i codepage.obj
 0001:00073760       ?erase@?$_Tree@V?$_Tmap_traits@IVUnicodeString@@U?$less@I@std@@V?$allocator@U?$pair@$$CBIVUnicodeString@@@std@@@3@$0A@@std@@@std@@QAE?AV?$_Tree_iterator@V?$_Tree_val@V?$_Tmap_traits@IVUnicodeString@@U?$less@I@std@@V?$allocator@U?$pair@$$CBIVUnicodeString@@@std@@@3@$0A@@std@@@std@@@2@V?$_Tree_const_iterator@V?$_Tree_val@V?$_Tmap_traits@IVUnicodeString@@U?$less@I@std@@V?$allocator@U?$pair@$$CBIVUnicodeString@@@std@@@3@$0A@@std@@@std@@@2@0@Z 00474760 f i codepage.obj
 0001:00073820       ?reserve@?$vector@UDialogBuilderListItem2@@V?$allocator@UDialogBuilderListItem2@@@std@@@std@@QAEXI@Z 00474820 f i codepage.obj
 0001:00073930       ??A?$map@IVUnicodeString@@U?$less@I@std@@V?$allocator@U?$pair@$$CBIVUnicodeString@@@std@@@3@@std@@QAEAAVUnicodeString@@ABI@Z 00474930 f i codepage.obj
 0001:00073a90       ?_Reserve@?$vector@UDialogBuilderListItem2@@V?$allocator@UDialogBuilderListItem2@@@std@@@std@@IAEXI@Z 00474a90 f i codepage.obj
 0001:00073b10       ??$_Umove@PAUDialogItemEx@@@?$vector@UDialogItemEx@@V?$allocator@UDialogItemEx@@@std@@@std@@IAEPAUDialogItemEx@@PAU2@00@Z 00474b10 f i codepage.obj
 0001:00073b40       ?enum_cp@@YGHPA_W@Z        00474b40 f   codepage.obj
 0001:00073dc0       ?init@codepages@@QAEXXZ    00474dc0 f   codepage.obj
 0001:00073de0       ??1?$_Tree@V?$_Tmap_traits@IVUnicodeString@@U?$less@I@std@@V?$allocator@U?$pair@$$CBIVUnicodeString@@@std@@@3@$0A@@std@@@std@@QAE@XZ 00474de0 f i codepage.obj
 0001:00073e50       ?_Destroy@?$vector@UDialogItemEx@@V?$allocator@UDialogItemEx@@@std@@@std@@IAEXPAUDialogItemEx@@0@Z 00474e50 f i codepage.obj
 0001:00073e80       ??$emplace_back@AAUDialogBuilderListItem2@@@?$vector@UDialogBuilderListItem2@@V?$allocator@UDialogBuilderListItem2@@@std@@@std@@QAEXAAUDialogBuilderListItem2@@@Z 00474e80 f i codepage.obj
 0001:00073f20       ??$emplace@AAUDialogBuilderListItem2@@@?$vector@UDialogBuilderListItem2@@V?$allocator@UDialogBuilderListItem2@@@std@@@std@@QAE?AV?$_Vector_iterator@V?$_Vector_val@UDialogBuilderListItem2@@V?$allocator@UDialogBuilderListItem2@@@std@@@std@@@1@V?$_Vector_const_iterator@V?$_Vector_val@UDialogBuilderListItem2@@V?$allocator@UDialogBuilderListItem2@@@std@@@std@@@1@AAUDialogBuilderListItem2@@@Z 00474f20 f i codepage.obj
 0001:00073f90       ?reserve@?$vector@UDialogItemEx@@V?$allocator@UDialogItemEx@@@std@@@std@@QAEXI@Z 00474f90 f i codepage.obj
 0001:000740b0       ??1?$map@IVUnicodeString@@U?$less@I@std@@V?$allocator@U?$pair@$$CBIVUnicodeString@@@std@@@3@@std@@QAE@XZ 004750b0 f i codepage.obj
 0001:00074120       ?AddCodePage@codepages@@AAEXPB_WIH_N11@Z 00475120 f   codepage.obj
 0001:000745b0       ?AddStandardCodePage@codepages@@AAEXPB_WIH_N@Z 004755b0 f   codepage.obj
 0001:00074700       ?AddSeparator@codepages@@AAEXPB_WH@Z 00475700 f   codepage.obj
 0001:00074940       ?AddCodePages@codepages@@AAEXK@Z 00475940 f   codepage.obj
 0001:00074f40       ?FillCodePagesVMenu@codepages@@AAEX_N00@Z 00475f40 f   codepage.obj
 0001:000750f0       ?SelectCodePage@codepages@@QAE_NAAI_N11@Z 004760f0 f   codepage.obj
 0001:000753d0       ?FillCodePagesList@codepages@@QAEXAAV?$vector@UDialogBuilderListItem2@@V?$allocator@UDialogBuilderListItem2@@@std@@@std@@_N111@Z 004763d0 f   codepage.obj
 0001:00075460       ?FillCodePagesList@codepages@@QAEIPAVDialog@@II_N111@Z 00476460 f   codepage.obj
 0001:000755d0       ?_Reserve@?$vector@UDialogItemEx@@V?$allocator@UDialogItemEx@@@std@@@std@@IAEXI@Z 004765d0 f i codepage.obj
 0001:00075650       ??0codepages@@QAE@XZ       00476650 f   codepage.obj
 0001:00075720       ??1?$vector@UDialogItemEx@@V?$allocator@UDialogItemEx@@@std@@@std@@QAE@XZ 00476720 f i codepage.obj
 0001:00075760       ?GetCanLoseFocus@Frame@@UBEHH@Z 00476760 f i codepage.obj
 0001:00075770       ?RedrawKeyBar@Frame@@UAEXXZ 00476770 f i codepage.obj
 0001:00075780       ?GetTitle@Frame@@UAEAAVUnicodeString@@AAV2@HH@Z 00476780 f i codepage.obj
 0001:00075790       ?GetTypeName@Dialog@@UAEPB_WXZ 00476790 f i codepage.obj
 0001:000757a0       ?FastShow@Dialog@@UAEXXZ   004767a0 f i codepage.obj
 0001:000757b0       ??_GDialog@@UAEPAXI@Z      004767b0 f i codepage.obj
 0001:000757b0       ??_EDialog@@UAEPAXI@Z      004767b0 f i codepage.obj
 0001:000757e0       ?resize@?$vector@UDialogItemEx@@V?$allocator@UDialogItemEx@@@std@@@std@@QAEXI@Z 004767e0 f i codepage.obj
 0001:000758c0       ??$MakeDialogItemsEx@$05@@YA?AV?$vector@UDialogItemEx@@V?$allocator@UDialogItemEx@@@std@@@std@@AAY05$$CBUFarDialogItem@@@Z 004768c0 f i codepage.obj
 0001:00075930       ?EditCodePageName@codepages@@AAEXXZ 00476930 f   codepage.obj
 0001:00075e50       ??R<lambda1>@?A0xceee6781@@QBEHH@Z 00476e50 f i codepage.obj
 0001:00076680       ?_Do_call@?$_Impl_no_alloc1@U?$_Callable_obj@V<lambda1>@?A0xceee6781@@$0A@@tr1@std@@HH@tr1@std@@UAEHH@Z 00477680 f i codepage.obj
 0001:00076690       ?ConsoleColorToFarColor@Colors@@SA?AUFarColor@@G@Z 00477690 f   colormix.obj
 0001:000766d0       ??$_For_each@PAPAHV<lambda1>@?A0xf52141dc@@@std@@YA?AV<lambda1>@?A0xf52141dc@@PAPAH0V12@@Z 004776d0 f i colormix.obj
 0001:00076740       ??$_For_each@PAPAHV<lambda2>@?A0xf52141dc@@@std@@YA?AV<lambda2>@?A0xf52141dc@@PAPAH0V12@@Z 00477740 f i colormix.obj
 0001:00076790       ?ColorIndexToColor@@YA?BUFarColor@@W4PaletteColors@@@Z 00477790 f   colormix.obj
 0001:00076830       ?FarColorToConsoleColor@Colors@@SAGABUFarColor@@@Z 00477830 f   colormix.obj
 0001:000769d0       ??1Option@@UAE@XZ          004779d0 f i config.obj
 0001:000769e0       ??_GOption@@UAEPAXI@Z      004779e0 f i config.obj
 0001:000769e0       ??_EOption@@UAEPAXI@Z      004779e0 f i config.obj
 0001:00076a10       ??1IntOption@@UAE@XZ       00477a10 f i config.obj
 0001:00076a10       ??1BoolOption@@UAE@XZ      00477a10 f i config.obj
 0001:00076a10       ??1Bool3Option@@UAE@XZ     00477a10 f i config.obj
 0001:00076a60       ??0IntOption@@QAE@XZ       00477a60 f i config.obj
 0001:00076ac0       ??4IntOption@@QAEAAV0@_J@Z 00477ac0 f i config.obj
 0001:00076af0       ?IsDefault@BoolOption@@UBE_NPBUFARConfigItem@@@Z 00477af0 f   config.obj
 0001:00076b10       ?SetDefault@BoolOption@@UAEXPBUFARConfigItem@@@Z 00477b10 f   config.obj
 0001:00076b40       ?Edit@BoolOption@@UAE_NPAVDialogBuilder@@HH@Z 00477b40 f   config.obj
 0001:00076b70       ?ReceiveValue@BoolOption@@EAE_NPAVGeneralConfig@@ABVUnicodeString@@1PBUdefault_value@@@Z 00477b70 f   config.obj
 0001:00076be0       ?StoreValue@BoolOption@@UBE_NPAVGeneralConfig@@ABVUnicodeString@@1@Z 00477be0 f   config.obj
 0001:00076c20       ?IsDefault@Bool3Option@@UBE_NPBUFARConfigItem@@@Z 00477c20 f   config.obj
 0001:00076c50       ?SetDefault@IntOption@@UAEXPBUFARConfigItem@@@Z 00477c50 f   config.obj
 0001:00076c50       ?SetDefault@Bool3Option@@UAEXPBUFARConfigItem@@@Z 00477c50 f   config.obj
 0001:00076c80       ?Edit@Bool3Option@@UAE_NPAVDialogBuilder@@HH@Z 00477c80 f   config.obj
 0001:00076cc0       ?ReceiveValue@Bool3Option@@EAE_NPAVGeneralConfig@@ABVUnicodeString@@1PBUdefault_value@@@Z 00477cc0 f   config.obj
 0001:00076d20       ?StoreValue@Bool3Option@@UBE_NPAVGeneralConfig@@ABVUnicodeString@@1@Z 00477d20 f   config.obj
 0001:00076d70       ?IsDefault@IntOption@@UBE_NPBUFARConfigItem@@@Z 00477d70 f   config.obj
 0001:00076da0       ?Edit@IntOption@@UAE_NPAVDialogBuilder@@HH@Z 00477da0 f   config.obj
 0001:00076dd0       ?ReceiveValue@IntOption@@EAE_NPAVGeneralConfig@@ABVUnicodeString@@1PBUdefault_value@@@Z 00477dd0 f   config.obj
 0001:00076e30       ?StoreValue@IntOption@@UBE_NPAVGeneralConfig@@ABVUnicodeString@@1@Z 00477e30 f   config.obj
 0001:00076e70       ?Edit@StringOption@@UAE_NPAVDialogBuilder@@HH@Z 00477e70 f   config.obj
 0001:00076e90       ?StoreValue@StringOption@@UBE_NPAVGeneralConfig@@ABVUnicodeString@@1@Z 00477e90 f   config.obj
 0001:00076ed0       ??0CopyMoveOptions@Options@@QAE@XZ 00477ed0 f i config.obj
 0001:00076ff0       ??1CopyMoveOptions@Options@@QAE@XZ 00477ff0 f i config.obj
 0001:000770b0       ??0ViewerOptions@Options@@QAE@XZ 004780b0 f i config.obj
 0001:00077390       ??1ViewerOptions@Options@@QAE@XZ 00478390 f i config.obj
 0001:00077570       ??0Confirmation@Options@@QAE@XZ 00478570 f i config.obj
 0001:000777a0       ??1Confirmation@Options@@QAE@XZ 004787a0 f i config.obj
 0001:00077910       ??0PluginConfirmation@Options@@QAE@XZ 00478910 f i config.obj
 0001:000779f0       ??1PluginConfirmation@Options@@QAE@XZ 004789f0 f i config.obj
 0001:00077a90       ??0AutoCompleteOptions@Options@@QAE@XZ 00478a90 f i config.obj
 0001:00077b90       ??1AutoCompleteOptions@Options@@QAE@XZ 00478b90 f i config.obj
 0001:00077c40       ??0DialogsOptions@Options@@QAE@XZ 00478c40 f i config.obj
 0001:00077d80       ??1DialogsOptions@Options@@QAE@XZ 00478d80 f i config.obj
 0001:00077e60       ??0VMenuOptions@Options@@QAE@XZ 00478e60 f i config.obj
 0001:00077f00       ??1ScreenSizes@Options@@QAE@XZ 00478f00 f i config.obj
 0001:00077f00       ??1PoliciesOptions@Options@@QAE@XZ 00478f00 f i config.obj
 0001:00077f60       ??1DeleteOptions@Options@@QAE@XZ 00478f60 f i config.obj
 0001:00077f60       ??1NowellOptions@Options@@QAE@XZ 00478f60 f i config.obj
 0001:00077fb0       ??0TreeOptions@Options@@QAE@XZ 00478fb0 f i config.obj
 0001:00078050       ??1TreeOptions@Options@@QAE@XZ 00479050 f i config.obj
 0001:00078050       ??1VMenuOptions@Options@@QAE@XZ 00479050 f i config.obj
 0001:000780c0       ?SetLeftRightMenuChecks@@YAXPAUMenuDataEx@@_N@Z 004790c0 f   config.obj
 0001:000781c0       ?UpdateSecondColumnPosition@?$DialogBuilderBase@UDialogItemEx@@@@IAEXXZ 004791c0 f i config.obj
 0001:00078220       ?SaveValues@?$DialogBuilderBase@UDialogItemEx@@@@IAEXXZ 00479220 f i config.obj
 0001:00078280       ?MaxTextWidth@?$DialogBuilderBase@UDialogItemEx@@@@IAEHXZ 00479280 f i config.obj
 0001:00078350       ??$_Allocate@UMenuDataEx@@@std@@YAPAUMenuDataEx@@IPAU1@@Z 00479350 f i config.obj
 0001:00078350       ??$_Allocate@U?$pair@PAVGeneralConfig@@Vfarconfig@Options@@@std@@@std@@YAPAU?$pair@PAVGeneralConfig@@Vfarconfig@Options@@@0@IPAU10@@Z 00479350 f i config.obj
 0001:000783e0       ??$_Allocate@UPanelViewSettings@@@std@@YAPAUPanelViewSettings@@IPAU1@@Z 004793e0 f i config.obj
 0001:00078470       ??$_Allocate@URegExpMatch@@@std@@YAPAURegExpMatch@@IPAU1@@Z 00479470 f i editor.obj
 0001:00078470       ??$_Allocate@UFarSettingsName@@@std@@YAPAUFarSettingsName@@IPAU1@@Z 00479470 f i plugsettings.obj
 0001:00078470       ??$_Allocate@VUnicodeString@@@std@@YAPAVUnicodeString@@IPAV1@@Z 00479470 f i config.obj
 0001:00078470       ??$_Allocate@VHelpRecord@@@std@@YAPAVHelpRecord@@IPAV1@@Z 00479470 f i help.obj
 0001:00078470       ??$_Allocate@_K@std@@YAPA_KIPA_K@Z 00479470 f i plugsettings.obj
 0001:00078500       ??$_Allocate@UDialogBuilderListItem2@@@std@@YAPAUDialogBuilderListItem2@@IPAU1@@Z 00479500 f i codepage.obj
 0001:00078500       ??$_Allocate@UFarColor@@@std@@YAPAUFarColor@@IPAU1@@Z 00479500 f i palette.obj
 0001:00078500       ??$_Allocate@UFarListItem@@@std@@YAPAUFarListItem@@IPAU1@@Z 00479500 f i config.obj
 0001:000785a0       ??$_Any_of@PAUFARConfigItem@@V<lambda9>@?A0x897958b7@@@std@@YA_NPAUFARConfigItem@@0V<lambda9>@?A0x897958b7@@@Z 004795a0 f i config.obj
 0001:00078610       ??_EIntOption@@UAEPAXI@Z   00479610 f i config.obj
 0001:00078610       ??_EBoolOption@@UAEPAXI@Z  00479610 f i config.obj
 0001:00078610       ??_EBool3Option@@UAEPAXI@Z 00479610 f i config.obj
 0001:00078610       ??_GBool3Option@@UAEPAXI@Z 00479610 f i config.obj
 0001:00078610       ??_GIntOption@@UAEPAXI@Z   00479610 f i config.obj
 0001:00078610       ??_GBoolOption@@UAEPAXI@Z  00479610 f i config.obj
 0001:00078670       ?EndColumns@?$DialogBuilderBase@UDialogItemEx@@@@QAEXXZ 00479670 f i config.obj
 0001:00078740       ?UpdateBorderSize@?$DialogBuilderBase@UDialogItemEx@@@@IAEXXZ 00479740 f i config.obj
 0001:000787c0       ?allocate@?$allocator@Ucolumn@@@std@@QAEPAUcolumn@@I@Z 004797c0 f i config.obj
 0001:000787c0       ?allocate@?$allocator@Utitles@KeyBar@@@std@@QAEPAUtitles@KeyBar@@I@Z 004797c0 f i keybar.obj
 0001:000787c0       ?allocate@?$allocator@V?$vector@Utitles@KeyBar@@V?$allocator@Utitles@KeyBar@@@std@@@std@@@std@@QAEPAV?$vector@Utitles@KeyBar@@V?$allocator@Utitles@KeyBar@@@std@@@2@I@Z 004797c0 f i keybar.obj
 0001:00078850       ??$_Copy_impl@PAUcolumn@@PAU1@@std@@YAPAUcolumn@@PAU1@00@Z 00479850 f i config.obj
 0001:00078890       ??$_For_each@PAUMenuDataEx@@V<lambda18>@?A0x897958b7@@@std@@YA?AV<lambda18>@?A0x897958b7@@PAUMenuDataEx@@0V12@@Z 00479890 f i config.obj
 0001:000788f0       ?IsDefault@StringOption@@UBE_NPBUFARConfigItem@@@Z 004798f0 f   config.obj
 0001:00078940       ?GetConfigValue@Options@@QAE_NIPB_WAAW4OptionType@Option@@AAPAV3@@Z 00479940 f   config.obj
 0001:000789a0       ??R<lambda19>@?A0x897958b7@@QBEXPAUMenuDataEx@@@Z 004799a0 f i config.obj
 0001:00078ab0       ?ShowDialog@?$DialogBuilderBase@UDialogItemEx@@@@QAE_NXZ 00479ab0 f i config.obj
 0001:00078af0       ??1?$unique_ptr@VHierarchicalConfig@@VHierarchicalConfigDeletor@@@std@@QAE@XZ 00479af0 f i config.obj
 0001:00078b00       ?_Buy@?$vector@Ucolumn@@V?$allocator@Ucolumn@@@std@@@std@@IAE_NI@Z 00479b00 f i config.obj
 0001:00078b50       ??$_For_each@PAU?$pair@PAVGeneralConfig@@Vfarconfig@Options@@@std@@V<lambda11>@?A0x897958b7@@@std@@YA?AV<lambda11>@?A0x897958b7@@PAU?$pair@PAVGeneralConfig@@Vfarconfig@Options@@@0@0V12@@Z 00479b50 f i config.obj
 0001:00078bb0       ??$_Cons_val@V?$allocator@U?$pair@PAVGeneralConfig@@Vfarconfig@Options@@@std@@@std@@U?$pair@PAVGeneralConfig@@Vfarconfig@Options@@@2@U32@@std@@YAXAAV?$allocator@U?$pair@PAVGeneralConfig@@Vfarconfig@Options@@@std@@@0@PAU?$pair@PAVGeneralConfig@@Vfarconfig@Options@@@0@$$QAU20@@Z 00479bb0 f i config.obj
 0001:00078bb0       ??$_Cons_val@V?$allocator@UPluginInfo@?1??OpenFilePlugin@PluginManager@@QAEPAXPBVUnicodeString@@HW4OPENFILEPLUGINTYPE@@@Z@@std@@UPluginInfo@?1??OpenFilePlugin@PluginManager@@QAEPAXPBVUnicodeString@@HW4OPENFILEPLUGINTYPE@@@Z@AAU3?1??45@QAEPAX0H1@Z@@std@@YAXAAV?$allocator@UPluginInfo@?1??OpenFilePlugin@PluginManager@@QAEPAXPBVUnicodeString@@HW4OPENFILEPLUGINTYPE@@@Z@@0@PAUPluginInfo@?1??OpenFilePlugin@PluginManager@@QAEPAXPBVUnicodeString@@HW4OPENFILEPLUGINTYPE@@@Z@AAU2?1??34@QAEPAX1H2@Z@@Z 00479bb0 f i plugins.obj
 0001:00078bb0       ??$_Cons_val@V?$allocator@UMenuDataEx@@@std@@UMenuDataEx@@U3@@std@@YAXAAV?$allocator@UMenuDataEx@@@0@PAUMenuDataEx@@$$QAU2@@Z 00479bb0 f i config.obj
 0001:00078c10       ??$_Uninit_move@PAUcolumn@@PAU1@V?$allocator@Ucolumn@@@std@@U1@@std@@YAPAUcolumn@@PAU1@00AAV?$allocator@Ucolumn@@@0@0U_Nonscalar_ptr_iterator_tag@0@@Z 00479c10 f i config.obj
 0001:00078c10       ??$_Uninit_copy@PAUcolumn@@PAU1@V?$allocator@Ucolumn@@@std@@@std@@YAPAUcolumn@@PAU1@00AAV?$allocator@Ucolumn@@@0@U_Nonscalar_ptr_iterator_tag@0@@Z 00479c10 f i config.obj
 0001:00078ca0       ??$_Uninit_move@PAUMenuDataEx@@PAU1@V?$allocator@UMenuDataEx@@@std@@U1@@std@@YAPAUMenuDataEx@@PAU1@00AAV?$allocator@UMenuDataEx@@@0@0U_Nonscalar_ptr_iterator_tag@0@@Z 00479ca0 f i config.obj
 0001:00078ca0       ??$_Uninit_move@PAU?$pair@PAVGeneralConfig@@Vfarconfig@Options@@@std@@PAU12@V?$allocator@U?$pair@PAVGeneralConfig@@Vfarconfig@Options@@@std@@@2@U12@@std@@YAPAU?$pair@PAVGeneralConfig@@Vfarconfig@Options@@@0@PAU10@00AAV?$allocator@U?$pair@PAVGeneralConfig@@Vfarconfig@Options@@@std@@@0@0U_Nonscalar_ptr_iterator_tag@0@@Z 00479ca0 f i config.obj
 0001:00078d30       ?_Target_type@?$_Impl_no_alloc1@U?$_Callable_obj@V<lambda2>@?A0x897958b7@@$0A@@tr1@std@@HH@tr1@std@@UBEABVtype_info@@XZ 00479d30 f i config.obj
 0001:00078d40       ??_G?$_Impl_no_alloc1@U?$_Callable_obj@V<lambda2>@?A0x897958b7@@$0A@@tr1@std@@HH@tr1@std@@UAEPAXI@Z 00479d40 f i config.obj
 0001:00078d40       ??_E?$_Impl_no_alloc1@U?$_Callable_obj@V<lambda2>@?A0x897958b7@@$0A@@tr1@std@@HH@tr1@std@@UAEPAXI@Z 00479d40 f i config.obj
 0001:00078da0       ?_Copy@?$_Impl_no_alloc1@U?$_Callable_obj@V<lambda2>@?A0x897958b7@@$0A@@tr1@std@@HH@tr1@std@@UAEPAV?$_Impl_base1@HH@23@PAX@Z 00479da0 f i config.obj
 0001:00078e60       ??R<lambda7>@?A0x897958b7@@QBEHH@Z 00479e60 f i config.obj
 0001:00078f30       ?_Target_type@?$_Impl_no_alloc1@U?$_Callable_obj@V<lambda7>@?A0x897958b7@@$0A@@tr1@std@@HH@tr1@std@@UBEABVtype_info@@XZ 00479f30 f i config.obj
 0001:00078f40       ??_G?$_Impl_no_alloc1@U?$_Callable_obj@V<lambda7>@?A0x897958b7@@$0A@@tr1@std@@HH@tr1@std@@UAEPAXI@Z 00479f40 f i config.obj
 0001:00078f40       ??_E?$_Impl_no_alloc1@U?$_Callable_obj@V<lambda7>@?A0x897958b7@@$0A@@tr1@std@@HH@tr1@std@@UAEPAXI@Z 00479f40 f i config.obj
 0001:00078fa0       ?_Copy@?$_Impl_no_alloc1@U?$_Callable_obj@V<lambda7>@?A0x897958b7@@$0A@@tr1@std@@HH@tr1@std@@UAEPAV?$_Impl_base1@HH@23@PAX@Z 00479fa0 f i config.obj
 0001:00079060       ?_Do_call@?$_Impl_no_alloc1@U?$_Callable_obj@V<lambda7>@?A0x897958b7@@$0A@@tr1@std@@HH@tr1@std@@UAEHH@Z 0047a060 f i config.obj
 0001:00079070       ?AutoCompleteSettings@Options@@AAEXXZ 0047a070 f   config.obj
 0001:00079170       ??1VMenu2@@UAE@XZ          0047a170 f i config.obj
 0001:000791f0       ?DialogSettings@Options@@AAEXXZ 0047a1f0 f   config.obj
 0001:00079330       ?CmdlineSettings@Options@@AAEXXZ 0047a330 f   config.obj
 0001:00079500       ?SetConfirmations@Options@@AAEXXZ 0047a500 f   config.obj
 0001:000796b0       ??8UnicodeString@@QBE_NABV0@@Z 0047a6b0 f i config.obj
 0001:000796e0       ??9UnicodeString@@QBE_NABV0@@Z 0047a6e0 f i config.obj
 0001:00079710       ??0LoadPluginsOptions@Options@@QAE@XZ 0047a710 f i config.obj
 0001:000797e0       ??1LangString@@UAE@XZ      0047a7e0 f i config.obj
 0001:000797e0       ??1FormatString@@UAE@XZ    0047a7e0 f i codepage.obj
 0001:00079870       ??1LoadPluginsOptions@Options@@QAE@XZ 0047a870 f i config.obj
 0001:00079970       ??$_Move@PAU?$pair@PAVGeneralConfig@@Vfarconfig@Options@@@std@@PAU12@@std@@YAPAU?$pair@PAVGeneralConfig@@Vfarconfig@Options@@@0@PAU10@00@Z 0047a970 f i config.obj
 0001:000799c0       ??$_Any_of@PAUFARConfigItem@@V<lambda8>@?A0x897958b7@@@std@@YA_NPAUFARConfigItem@@0V<lambda8>@?A0x897958b7@@@Z 0047a9c0 f i config.obj
 0001:00079ac0       ??$_Uninit_def_fill_n@PAUcolumn@@IU1@V?$allocator@Ucolumn@@@std@@U1@@std@@YAXPAUcolumn@@IPBU1@AAV?$allocator@Ucolumn@@@0@0U_Nonscalar_ptr_iterator_tag@0@@Z 0047aac0 f i config.obj
 0001:00079b50       ??$_Uninit_def_fill_n@PAUMenuDataEx@@IU1@V?$allocator@UMenuDataEx@@@std@@U1@@std@@YAXPAUMenuDataEx@@IPBU1@AAV?$allocator@UMenuDataEx@@@0@0U_Nonscalar_ptr_iterator_tag@0@@Z 0047ab50 f i config.obj
 0001:00079be0       ??$_Uninit_copy@V?$_Vector_const_iterator@V?$_Vector_val@Ucolumn@@V?$allocator@Ucolumn@@@std@@@std@@@std@@PAUcolumn@@V?$allocator@Ucolumn@@@2@@std@@YAPAUcolumn@@V?$_Vector_const_iterator@V?$_Vector_val@Ucolumn@@V?$allocator@Ucolumn@@@std@@@std@@@0@0PAU1@AAV?$allocator@Ucolumn@@@0@U_Nonscalar_ptr_iterator_tag@0@@Z 0047abe0 f i config.obj
 0001:00079c70       ?toString@IntOption@@UBE?BVUnicodeString@@XZ 0047ac70 f i config.obj
 0001:00079d70       ??4StringOption@@QAEAAV0@ABVUnicodeString@@@Z 0047ad70 f i config.obj
 0001:00079db0       ?SetFolderInfoFiles@Options@@AAEXXZ 0047adb0 f   config.obj
 0001:00079f50       ?ExInfo@IntOption@@UBE?BVUnicodeString@@XZ 0047af50 f   config.obj
 0001:0007a0d0       ??1FARConfigItem@@QAE@XZ   0047b0d0 f i config.obj
 0001:0007a170       ??R<lambda16>@?A0x897958b7@@QBE_NAAUPanelViewSettings@@I@Z 0047b170 f i config.obj
 0001:0007a650       ??R<lambda17>@?A0x897958b7@@QBEXABUPanelViewSettings@@I@Z 0047b650 f i config.obj
 0001:0007aae0       ?AddHotkeys@@YAXAAV?$vector@VUnicodeString@@V?$allocator@VUnicodeString@@@std@@@std@@PAUMenuDataEx@@I@Z 0047bae0 f   config.obj
 0001:0007ad80       ??$for_each_cnt@V?$_Vector_const_iterator@V?$_Vector_val@UPanelViewSettings@@V?$allocator@UPanelViewSettings@@@std@@@std@@@std@@V<lambda17>@?A0x897958b7@@@@YA?AV<lambda17>@?A0x897958b7@@V?$_Vector_const_iterator@V?$_Vector_val@UPanelViewSettings@@V?$allocator@UPanelViewSettings@@@std@@@std@@@std@@0V01@@Z 0047bd80 f i config.obj
 0001:0007adc0       ??$_Umove@PAUcolumn@@@?$vector@Ucolumn@@V?$allocator@Ucolumn@@@std@@@std@@IAEPAUcolumn@@PAU2@00@Z 0047bdc0 f i config.obj
 0001:0007adf0       ??$_Umove@PAUMenuDataEx@@@?$vector@UMenuDataEx@@V?$allocator@UMenuDataEx@@@std@@@std@@IAEPAUMenuDataEx@@PAU2@00@Z 0047bdf0 f i config.obj
 0001:0007adf0       ??$_Umove@PAU?$pair@PAVGeneralConfig@@Vfarconfig@Options@@@std@@@?$vector@U?$pair@PAVGeneralConfig@@Vfarconfig@Options@@@std@@V?$allocator@U?$pair@PAVGeneralConfig@@Vfarconfig@Options@@@std@@@2@@std@@IAEPAU?$pair@PAVGeneralConfig@@Vfarconfig@Options@@@1@PAU21@00@Z 0047bdf0 f i config.obj
 0001:0007ae20       ??$_For_each@PAUFARConfigItem@@V<lambda12>@?A0x897958b7@@@std@@YA?AV<lambda12>@?A0x897958b7@@PAUFARConfigItem@@0V12@@Z 0047be20 f i config.obj
 0001:0007afc0       ??$_For_each@PAUFARConfigItem@@V<lambda15>@?A0x897958b7@@@std@@YA?AV<lambda15>@?A0x897958b7@@PAUFARConfigItem@@0V12@@Z 0047bfc0 f i config.obj
 0001:0007b160       ??$_Transform@PAUFARConfigItem@@V?$_Vector_iterator@V?$_Vector_val@UFarListItem@@V?$allocator@UFarListItem@@@std@@@std@@@std@@V?$_Mem_fn1@UFarListItem@@P8FARConfigItem@@AE?AU1@XZU2@@tr1@3@@std@@YA?AV?$_Vector_iterator@V?$_Vector_val@UFarListItem@@V?$allocator@UFarListItem@@@std@@@std@@@0@PAUFARConfigItem@@0V10@V?$_Mem_fn1@UFarListItem@@P8FARConfigItem@@AE?AU1@XZU2@@tr1@0@@Z 0047c160 f i config.obj
 0001:0007b210       ??$_Uninit_def_fill_n@PAU?$pair@PAVGeneralConfig@@Vfarconfig@Options@@@std@@IU12@V?$allocator@U?$pair@PAVGeneralConfig@@Vfarconfig@Options@@@std@@@2@U12@@std@@YAXPAU?$pair@PAVGeneralConfig@@Vfarconfig@Options@@@0@IPBU10@AAV?$allocator@U?$pair@PAVGeneralConfig@@Vfarconfig@Options@@@std@@@0@0U_Nonscalar_ptr_iterator_tag@0@@Z 0047c210 f i config.obj
 0001:0007b2a0       ??$_Move@PAVUnicodeString@@PAV1@@std@@YAPAVUnicodeString@@PAV1@00U_Nonscalar_ptr_iterator_tag@0@@Z 0047c2a0 f i config.obj
 0001:0007b2f0       ?toString@BoolOption@@UBE?BVUnicodeString@@XZ 0047c2f0 f i config.obj
 0001:0007b3b0       ?ExInfo@StringOption@@UBE?BVUnicodeString@@XZ 0047c3b0 f i config.obj
 0001:0007b3b0       ?ExInfo@Bool3Option@@UBE?BVUnicodeString@@XZ 0047c3b0 f i config.obj
 0001:0007b3b0       ?ExInfo@BoolOption@@UBE?BVUnicodeString@@XZ 0047c3b0 f i config.obj
 0001:0007b430       ?typeToString@BoolOption@@UBE?BVUnicodeString@@XZ 0047c430 f i config.obj
 0001:0007b4b0       ?toString@Bool3Option@@UBE?BVUnicodeString@@XZ 0047c4b0 f i config.obj
 0001:0007b580       ?typeToString@Bool3Option@@UBE?BVUnicodeString@@XZ 0047c580 f i config.obj
 0001:0007b600       ?typeToString@IntOption@@UBE?BVUnicodeString@@XZ 0047c600 f i config.obj
 0001:0007b680       ??0StringOption@@QAE@XZ    0047c680 f i config.obj
 0001:0007b780       ?getType@StringOption@@UBE?BW4OptionType@Option@@XZ 0047c780 f i config.obj
 0001:0007b780       ?GetType@Dialog@@UAEHXZ    0047c780 f i codepage.obj
 0001:0007b790       ?toString@StringOption@@UBE?BVUnicodeString@@XZ 0047c790 f i config.obj
 0001:0007b810       ??1StringOption@@UAE@XZ    0047c810 f i config.obj
 0001:0007b8b0       ??4StringOption@@QAEAAV0@PB_W@Z 0047c8b0 f i config.obj
 0001:0007b9a0       ?typeToString@StringOption@@UBE?BVUnicodeString@@XZ 0047c9a0 f i config.obj
 0001:0007ba20       ??_GStringOption@@UAEPAXI@Z 0047ca20 f i config.obj
 0001:0007ba20       ??_EStringOption@@UAEPAXI@Z 0047ca20 f i config.obj
 0001:0007ba50       ?MakeListItem@FARConfigItem@@QAE?AUFarListItem@@XZ 0047ca50 f i config.obj
 0001:0007bd50       ?SetDefault@StringOption@@UAEXPBUFARConfigItem@@@Z 0047cd50 f   config.obj
 0001:0007be40       ?ReceiveValue@StringOption@@QAE_NPAVGeneralConfig@@ABVUnicodeString@@1PB_W@Z 0047ce40 f   config.obj
 0001:0007bf60       ?ReceiveValue@StringOption@@EAE_NPAVGeneralConfig@@ABVUnicodeString@@1PBUdefault_value@@@Z 0047cf60 f   config.obj
 0001:0007bf80       ??0EditorOptions@Options@@QAE@XZ 0047cf80 f i config.obj
 0001:0007c3d0       ??1EditorOptions@Options@@QAE@XZ 0047d3d0 f i config.obj
 0001:0007c6b0       ??0DizOptions@Options@@QAE@XZ 0047d6b0 f i config.obj
 0001:0007c7c0       ??1DizOptions@Options@@QAE@XZ 0047d7c0 f i config.obj
 0001:0007c880       ??0PanelOptions@Options@@QAE@XZ 0047d880 f i config.obj
 0001:0007ca40       ??1PanelOptions@Options@@QAE@XZ 0047da40 f i config.obj
 0001:0007cb80       ??0CodeXLAT@Options@@QAE@XZ 0047db80 f i config.obj
 0001:0007cc40       ??1CodeXLAT@Options@@QAE@XZ 0047dc40 f i config.obj
 0001:0007cce0       ??0ExecuteOptions@Options@@QAE@XZ 0047dce0 f i config.obj
 0001:0007cdf0       ??1ExecuteOptions@Options@@QAE@XZ 0047ddf0 f i config.obj
 0001:0007ceb0       ??0CommandLineOptions@Options@@QAE@XZ 0047deb0 f i config.obj
 0001:0007cf90       ??1CommandLineOptions@Options@@QAE@XZ 0047df90 f i config.obj
 0001:0007d030       ??0MacroOptions@Options@@QAE@XZ 0047e030 f i config.obj
 0001:0007d100       ??1MacroOptions@Options@@QAE@XZ 0047e100 f i config.obj
 0001:0007d1b0       ??0InfoPanelOptions@Options@@QAE@XZ 0047e1b0 f i config.obj
 0001:0007d290       ??1InfoPanelOptions@Options@@QAE@XZ 0047e290 f i config.obj
 0001:0007d330       ??1KnownModulesIDs@Options@@QAE@XZ 0047e330 f i config.obj
 0001:0007d390       ?InitLocalCFG@Options@@AAEXXZ 0047e390 f   config.obj
 0001:0007d640       ?GetConfigValue@Options@@QAE_NPB_W0AAVUnicodeString@@@Z 0047e640 f   config.obj
 0001:0007d690       ?SavePanelModes@Options@@AAEXXZ 0047e690 f   config.obj
 0001:0007d860       ?reserve@?$vector@Ucolumn@@V?$allocator@Ucolumn@@@std@@@std@@QAEXI@Z 0047e860 f i config.obj
 0001:0007d930       ?reserve@?$vector@UFarColor@@V?$allocator@UFarColor@@@std@@@std@@QAEXI@Z 0047e930 f i palette.obj
 0001:0007d930       ?reserve@?$vector@UFarListItem@@V?$allocator@UFarListItem@@@std@@@std@@QAEXI@Z 0047e930 f i config.obj
 0001:0007da20       ??$_Ucopy@V?$_Vector_const_iterator@V?$_Vector_val@Ucolumn@@V?$allocator@Ucolumn@@@std@@@std@@@std@@@?$vector@Ucolumn@@V?$allocator@Ucolumn@@@std@@@std@@IAEPAUcolumn@@V?$_Vector_const_iterator@V?$_Vector_val@Ucolumn@@V?$allocator@Ucolumn@@@std@@@std@@@1@0PAU2@@Z 0047ea20 f i config.obj
 0001:0007da50       ??$_Ucopy@PAUcolumn@@@?$vector@Ucolumn@@V?$allocator@Ucolumn@@@std@@@std@@IAEPAUcolumn@@PAU2@00@Z 0047ea50 f i config.obj
 0001:0007da80       ??$_For_each@PBU?$simple_pair@PB_WPB_W@@V<lambda1>@?A0x897958b7@@@std@@YA?AV<lambda1>@?A0x897958b7@@PBU?$simple_pair@PB_WPB_W@@0V12@@Z 0047ea80 f i config.obj
 0001:0007e040       ?MaskGroupsSettings@Options@@AAEXXZ 0047f040 f   config.obj
 0001:0007e3b0       ?InitRoamingCFG@Options@@AAEXXZ 0047f3b0 f   config.obj
 0001:000843b0       ??0?$vector@Ucolumn@@V?$allocator@Ucolumn@@@std@@@std@@QAE@ABV01@@Z 004853b0 f i config.obj
 0001:00084480       ?_Reserve@?$vector@Ucolumn@@V?$allocator@Ucolumn@@@std@@@std@@IAEXI@Z 00485480 f i config.obj
 0001:000844e0       ?reserve@?$vector@UMenuDataEx@@V?$allocator@UMenuDataEx@@@std@@@std@@QAEXI@Z 004854e0 f i config.obj
 0001:000844e0       ?reserve@?$vector@U?$pair@PAVGeneralConfig@@Vfarconfig@Options@@@std@@V?$allocator@U?$pair@PAVGeneralConfig@@Vfarconfig@Options@@@std@@@2@@std@@QAEXI@Z 004854e0 f i config.obj
 0001:000845d0       ?_Reserve@?$vector@UFarColor@@V?$allocator@UFarColor@@@std@@@std@@IAEXI@Z 004855d0 f i palette.obj
 0001:000845d0       ?_Reserve@?$vector@UFarListItem@@V?$allocator@UFarListItem@@@std@@@std@@IAEXI@Z 004855d0 f i config.obj
 0001:00084650       ??$_For_each@PAU?$pair@PAVGeneralConfig@@Vfarconfig@Options@@@std@@V<lambda10>@?A0x897958b7@@@std@@YA?AV<lambda10>@?A0x897958b7@@PAU?$pair@PAVGeneralConfig@@Vfarconfig@Options@@@0@0V12@@Z 00485650 f i config.obj
 0001:00084690       ??$_For_each@PBU?$pair@PAVGeneralConfig@@Vfarconfig@Options@@@std@@V<lambda14>@?A0x897958b7@@@std@@YA?AV<lambda14>@?A0x897958b7@@PBU?$pair@PAVGeneralConfig@@Vfarconfig@Options@@@0@0V12@@Z 00485690 f i config.obj
 0001:000846f0       ??$_Cons_val@V?$allocator@VUnicodeString@@@std@@VUnicodeString@@V3@@std@@YAXAAV?$allocator@VUnicodeString@@@0@PAVUnicodeString@@$$QAV2@@Z 004856f0 f i config.obj
 0001:00084770       ??$_Dest_val@V?$allocator@VUnicodeString@@@std@@VUnicodeString@@@std@@YAXAAV?$allocator@VUnicodeString@@@0@PAVUnicodeString@@@Z 00485770 f i config.obj
 0001:000847e0       ??$_Uninit_move@PAVUnicodeString@@PAV1@V?$allocator@VUnicodeString@@@std@@V1@@std@@YAPAVUnicodeString@@PAV1@00AAV?$allocator@VUnicodeString@@@0@0U_Nonscalar_ptr_iterator_tag@0@@Z 004857e0 f i config.obj
 0001:00084890       ??0PanelViewSettings@@QAE@XZ 00485890 f i config.obj
 0001:00084910       ??0PanelViewSettings@@QAE@ABU0@@Z 00485910 f i config.obj
 0001:000849c0       ??1PanelViewSettings@@QAE@XZ 004859c0 f i config.obj
 0001:00084a80       ??0FindFileOptions@Options@@QAE@XZ 00485a80 f i config.obj
 0001:00084bc0       ??1FindFileOptions@Options@@QAE@XZ 00485bc0 f i config.obj
 0001:00084cc0       ?resize@?$vector@Ucolumn@@V?$allocator@Ucolumn@@@std@@@std@@QAEXI@Z 00485cc0 f i config.obj
 0001:00084d70       ?clear@?$vector@Ucolumn@@V?$allocator@Ucolumn@@@std@@@std@@QAEXXZ 00485d70 f i config.obj
 0001:00084db0       ??1?$vector@V?$_List_iterator@V?$_List_val@U?$pair@$$CBU_GUID@@V?$unique_ptr@VPlugin@@U?$default_delete@VPlugin@@@std@@@std@@@std@@V?$allocator@U?$pair@$$CBU_GUID@@V?$unique_ptr@VPlugin@@U?$default_delete@VPlugin@@@std@@@std@@@std@@@2@@std@@@std@@V?$allocator@V?$_List_iterator@V?$_List_val@U?$pair@$$CBU_GUID@@V?$unique_ptr@VPlugin@@U?$default_delete@VPlugin@@@std@@@std@@@std@@V?$allocator@U?$pair@$$CBU_GUID@@V?$unique_ptr@VPlugin@@U?$default_delete@VPlugin@@@std@@@std@@@std@@@2@@std@@@std@@@2@@std@@QAE@XZ 00485db0 f i plugins.obj
 0001:00084db0       ??1?$vector@U_RM_PROCESS_INFO@@V?$allocator@U_RM_PROCESS_INFO@@@std@@@std@@QAE@XZ 00485db0 f i stddlg.obj
 0001:00084db0       ??1?$vector@V?$_List_const_iterator@V?$_List_val@_KV?$allocator@_K@std@@@std@@@std@@V?$allocator@V?$_List_const_iterator@V?$_List_val@_KV?$allocator@_K@std@@@std@@@std@@@2@@std@@QAE@XZ 00485db0 f i dirinfo.obj
 0001:00084db0       ??1?$vector@UFarListItem@@V?$allocator@UFarListItem@@@std@@@std@@QAE@XZ 00485db0 f i config.obj
 0001:00084db0       ??1?$vector@UFAR_CHAR_INFO@@V?$allocator@UFAR_CHAR_INFO@@@std@@@std@@QAE@XZ 00485db0 f i execute.obj
 0001:00084db0       ??1?$vector@U_CHAR_INFO@@V?$allocator@U_CHAR_INFO@@@std@@@std@@QAE@XZ 00485db0 f i console.obj
 0001:00084db0       ??1?$vector@V?$_List_const_iterator@V?$_List_val@PAVPlugin@@V?$allocator@PAVPlugin@@@std@@@std@@@std@@V?$allocator@V?$_List_const_iterator@V?$_List_val@PAVPlugin@@V?$allocator@PAVPlugin@@@std@@@std@@@std@@@2@@std@@QAE@XZ 00485db0 f i flplugin.obj
 0001:00084db0       ??1?$vector@PAVFrame@@V?$allocator@PAVFrame@@@std@@@std@@QAE@XZ 00485db0 f i manager.obj
 0001:00084db0       ??1?$vector@UMenuDataEx@@V?$allocator@UMenuDataEx@@@std@@@std@@QAE@XZ 00485db0 f i config.obj
 0001:00084db0       ??1?$vector@UDialogItemAutomation@@V?$allocator@UDialogItemAutomation@@@std@@@std@@QAE@XZ 00485db0 f i codepage.obj
 0001:00084db0       ??1?$vector@_KV?$allocator@_K@std@@@std@@QAE@XZ 00485db0 f i plugsettings.obj
 0001:00084db0       ??1?$vector@HV?$allocator@H@std@@@std@@QAE@XZ 00485db0 f i treelist.obj
 0001:00084db0       ??1?$vector@PAUMenuItemEx@@V?$allocator@PAUMenuItemEx@@@std@@@std@@QAE@XZ 00485db0 f i vmenu.obj
 0001:00084db0       ??1?$vector@Ucolumn@@V?$allocator@Ucolumn@@@std@@@std@@QAE@XZ 00485db0 f i config.obj
 0001:00084db0       ??1?$vector@UFarSettingsHistory@@V?$allocator@UFarSettingsHistory@@@std@@@std@@QAE@XZ 00485db0 f i plugapi.obj
 0001:00084db0       ?_Tidy@?$vector@HV?$allocator@H@std@@@std@@IAEXXZ 00485db0 f i treelist.obj
 0001:00084db0       ??1?$vector@UFarColor@@V?$allocator@UFarColor@@@std@@@std@@QAE@XZ 00485db0 f i config.obj
 0001:00084db0       ?_Tidy@?$vector@IV?$allocator@I@std@@@std@@IAEXXZ 00485db0 f i preservestyle.obj
 0001:00084db0       ??1?$vector@V?$_List_const_iterator@V?$_List_val@UFarColor@@V?$allocator@UFarColor@@@std@@@std@@@std@@V?$allocator@V?$_List_const_iterator@V?$_List_val@UFarColor@@V?$allocator@UFarColor@@@std@@@std@@@std@@@2@@std@@QAE@XZ 00485db0 f i global.obj
 0001:00084db0       ??1?$vector@_WV?$allocator@_W@std@@@std@@QAE@XZ 00485db0 f i viewer.obj
 0001:00084db0       ??1?$vector@PB_WV?$allocator@PB_W@std@@@std@@QAE@XZ 00485db0 f i message.obj
 0001:00084db0       ?_Tidy@?$vector@UDialogItemAutomation@@V?$allocator@UDialogItemAutomation@@@std@@@std@@IAEXXZ 00485db0 f i codepage.obj
 0001:00084db0       ??1?$vector@V?$_List_const_iterator@V?$_List_val@U_GUID@@V?$allocator@U_GUID@@@std@@@std@@@std@@V?$allocator@V?$_List_const_iterator@V?$_List_val@U_GUID@@V?$allocator@U_GUID@@@std@@@std@@@std@@@2@@std@@QAE@XZ 00485db0 f i global.obj
 0001:00084db0       ??1?$vector@PAXV?$allocator@PAX@std@@@std@@QAE@XZ 00485db0 f i configdb.obj
 0001:00084db0       ??1?$vector@U?$pair@PAVGeneralConfig@@Vfarconfig@Options@@@std@@V?$allocator@U?$pair@PAVGeneralConfig@@Vfarconfig@Options@@@std@@@2@@std@@QAE@XZ 00485db0 f i config.obj
 0001:00084db0       ??1?$vector@IV?$allocator@I@std@@@std@@QAE@XZ 00485db0 f i preservestyle.obj
 0001:00084db0       ?_Tidy@?$vector@Ucolumn@@V?$allocator@Ucolumn@@@std@@@std@@IAEXXZ 00485db0 f i config.obj
 0001:00084db0       ??1?$vector@EV?$allocator@E@std@@@std@@QAE@XZ 00485db0 f i cache.obj
 0001:00084db0       ??1?$vector@URegExpMatch@@V?$allocator@URegExpMatch@@@std@@@std@@QAE@XZ 00485db0 f i config.obj
 0001:00084db0       ??1?$vector@UFarSettingsName@@V?$allocator@UFarSettingsName@@@std@@@std@@QAE@XZ 00485db0 f i plugsettings.obj
 0001:00084db0       ??1?$vector@UPluginPanelItem@@V?$allocator@UPluginPanelItem@@@std@@@std@@QAE@XZ 00485db0 f i dirinfo.obj
 0001:00084de0       ?_Reserve@?$vector@U?$pair@PAVGeneralConfig@@Vfarconfig@Options@@@std@@V?$allocator@U?$pair@PAVGeneralConfig@@Vfarconfig@Options@@@std@@@2@@std@@IAEXI@Z 00485de0 f i config.obj
 0001:00084de0       ?_Reserve@?$vector@UMenuDataEx@@V?$allocator@UMenuDataEx@@@std@@@std@@IAEXI@Z 00485de0 f i config.obj
 0001:00084e60       ?resize@?$vector@UMenuDataEx@@V?$allocator@UMenuDataEx@@@std@@@std@@QAEXI@Z 00485e60 f i config.obj
 0001:00084f30       ?resize@?$vector@UFarListItem@@V?$allocator@UFarListItem@@@std@@@std@@QAEXI@Z 00485f30 f i config.obj
 0001:00084f30       ?resize@?$vector@UFarColor@@V?$allocator@UFarColor@@@std@@@std@@QAEXI@Z 00485f30 f i palette.obj
 0001:00084ff0       ??$_Uninit_def_fill_n@PAVUnicodeString@@IV1@V?$allocator@VUnicodeString@@@std@@V1@@std@@YAXPAVUnicodeString@@IPBV1@AAV?$allocator@VUnicodeString@@@0@0U_Nonscalar_ptr_iterator_tag@0@@Z 00485ff0 f i config.obj
 0001:000850b0       ??$_Destroy_range@V?$allocator@VUnicodeString@@@std@@@std@@YAXPAVUnicodeString@@0AAV?$allocator@VUnicodeString@@@0@U_Nonscalar_ptr_iterator_tag@0@@Z 004860b0 f i config.obj
 0001:00085140       ?clear@PanelViewSettings@@QAEXXZ 00486140 f i config.obj
 0001:000851c0       ??R<lambda3>@?A0x897958b7@@QBEXABUpanelmode_init@?1??ResetViewModes@@YAXPAUPanelViewSettings@@H@Z@AAU4@@Z 004861c0 f i config.obj
 0001:00085280       ??4?$vector@Ucolumn@@V?$allocator@Ucolumn@@@std@@@std@@QAEAAV01@ABV01@@Z 00486280 f i config.obj
 0001:00085360       ?resize@?$vector@U?$pair@PAVGeneralConfig@@Vfarconfig@Options@@@std@@V?$allocator@U?$pair@PAVGeneralConfig@@Vfarconfig@Options@@@std@@@2@@std@@QAEXI@Z 00486360 f i config.obj
 0001:00085410       ??$for_each_cnt@PBUpanelmode_init@?1??ResetViewModes@@YAXPAUPanelViewSettings@@H@Z@V<lambda4>@?A0x897958b7@@@@YA?AV<lambda4>@?A0x897958b7@@PBUpanelmode_init@?1??ResetViewModes@@YAXPAUPanelViewSettings@@H@Z@1V01@@Z 00486410 f i config.obj
 0001:00085460       ??$_Umove@PAVUnicodeString@@@?$vector@VUnicodeString@@V?$allocator@VUnicodeString@@@std@@@std@@IAEPAVUnicodeString@@PAV2@00@Z 00486460 f i config.obj
 0001:00085490       ??$_Cons_val@V?$allocator@UPanelViewSettings@@@std@@UPanelViewSettings@@U3@@std@@YAXAAV?$allocator@UPanelViewSettings@@@0@PAUPanelViewSettings@@$$QAU2@@Z 00486490 f i config.obj
 0001:000854f0       ?Save@Options@@QAEX_N@Z    004864f0 f   config.obj
 0001:00085cd0       ?ReallocDialogItems@?$DialogBuilderBase@UDialogItemEx@@@@IAEXXZ 00486cd0 f i config.obj
 0001:00085e80       ?_Destroy@?$vector@VUnicodeString@@V?$allocator@VUnicodeString@@@std@@@std@@IAEXPAVUnicodeString@@0@Z 00486e80 f i config.obj
 0001:00085ea0       ?reserve@?$vector@VUnicodeString@@V?$allocator@VUnicodeString@@@std@@@std@@QAEXI@Z 00486ea0 f i config.obj
 0001:00085f80       ??$_Move@PAUPanelViewSettings@@PAU1@@std@@YAPAUPanelViewSettings@@PAU1@00U_Nonscalar_ptr_iterator_tag@0@@Z 00486f80 f i config.obj
 0001:00085fe0       ??$swap@UPanelViewSettings@@@std@@YAXAAUPanelViewSettings@@0@Z 00486fe0 f i config.obj
 0001:000860a0       ?AddTextAfter@?$DialogBuilderBase@UDialogItemEx@@@@QAEPAUDialogItemEx@@PAU2@PB_W@Z 004870a0 f i config.obj
 0001:000861c0       ?AddSeparator@?$DialogBuilderBase@UDialogItemEx@@@@QAEXPB_W@Z 004871c0 f i config.obj
 0001:00086230       ?_Reserve@?$vector@VUnicodeString@@V?$allocator@VUnicodeString@@@std@@@std@@IAEXI@Z 00487230 f i config.obj
 0001:00086290       ??$_Uninit_move@PAUPanelViewSettings@@PAU1@V?$allocator@UPanelViewSettings@@@std@@U1@@std@@YAPAUPanelViewSettings@@PAU1@00AAV?$allocator@UPanelViewSettings@@@0@0U_Nonscalar_ptr_iterator_tag@0@@Z 00487290 f i config.obj
 0001:00086330       ??1masks@filemasks@@QAE@XZ 00487330 f i config.obj
 0001:000863c0       ?AddText@?$DialogBuilderBase@UDialogItemEx@@@@QAEPAUDialogItemEx@@H@Z 004873c0 f i config.obj
 0001:00086450       ?AddText@?$DialogBuilderBase@UDialogItemEx@@@@QAEPAUDialogItemEx@@PB_W@Z 00487450 f i config.obj
 0001:000864c0       ?AddCheckbox@?$DialogBuilderBase@UDialogItemEx@@@@QAEPAUDialogItemEx@@HPAHH_N@Z 004874c0 f i config.obj
 0001:000865f0       ?AddTextBefore@?$DialogBuilderBase@UDialogItemEx@@@@QAEPAUDialogItemEx@@PAU2@H@Z 004875f0 f i config.obj
 0001:00086740       ?AddOKCancel@?$DialogBuilderBase@UDialogItemEx@@@@QAEXHHH_N@Z 00487740 f i config.obj
 0001:000868c0       ??1?$vector@VUnicodeString@@V?$allocator@VUnicodeString@@@std@@@std@@QAE@XZ 004878c0 f i config.obj
 0001:000868c0       ?_Tidy@?$vector@VUnicodeString@@V?$allocator@VUnicodeString@@@std@@@std@@IAEXXZ 004878c0 f i config.obj
 0001:00086910       ?resize@?$vector@VUnicodeString@@V?$allocator@VUnicodeString@@@std@@@std@@QAEXI@Z 00487910 f i config.obj
 0001:000869b0       ??$_Uninit_def_fill_n@PAUPanelViewSettings@@IU1@V?$allocator@UPanelViewSettings@@@std@@U1@@std@@YAXPAUPanelViewSettings@@IPBU1@AAV?$allocator@UPanelViewSettings@@@0@0U_Nonscalar_ptr_iterator_tag@0@@Z 004879b0 f i config.obj
 0001:00086a60       ??$_Rotate@PAUPanelViewSettings@@HU1@@std@@YAXPAUPanelViewSettings@@00PAH0@Z 00487a60 f i config.obj
 0001:00086b40       ?SystemSettings@Options@@AAEXXZ 00487b40 f   config.obj
 0001:00086df0       ?PanelSettings@Options@@AAEXXZ 00487df0 f   config.obj
 0001:000870e0       ?TreeSettings@Options@@AAEXXZ 004880e0 f   config.obj
 0001:00087210       ?InterfaceSettings@Options@@AAEXXZ 00488210 f   config.obj
 0001:00087550       ?InfoPanelSettings@Options@@AAEXXZ 00488550 f   config.obj
 0001:00087970       ?VMenuSettings@Options@@AAEXXZ 00488970 f   config.obj
 0001:00087be0       ?PluginsManagerSettings@Options@@AAEXXZ 00488be0 f   config.obj
 0001:00087d30       ?SetDizConfig@Options@@AAEXXZ 00488d30 f   config.obj
 0001:00087f10       ?Edit@FARConfigItem@@QAE_N_N@Z 00488f10 f i config.obj
 0001:00088230       ?AdvancedConfigDlgProc@Options@@AAEHPAVDialog@@HHPAX@Z 00489230 f   config.obj
 0001:000887f0       ??1?$vector@UDialogBuilderListItem2@@V?$allocator@UDialogBuilderListItem2@@@std@@@std@@QAE@XZ 004897f0 f i config.obj
 0001:00088840       ??$_Umove@PAUPanelViewSettings@@@?$vector@UPanelViewSettings@@V?$allocator@UPanelViewSettings@@@std@@@std@@IAEPAUPanelViewSettings@@PAU2@00@Z 00489840 f i config.obj
 0001:00088870       ?ViewerConfig@Options@@AAEXAAUViewerOptions@1@_N@Z 00489870 f   config.obj
 0001:00088d30       ?EditorConfig@Options@@AAEXAAUEditorOptions@1@_N@Z 00489d30 f   config.obj
 0001:000891d0       ?reserve@?$vector@UPanelViewSettings@@V?$allocator@UPanelViewSettings@@@std@@@std@@QAEXI@Z 0048a1d0 f i config.obj
 0001:000892f0       ??1?$vector@UPanelViewSettings@@V?$allocator@UPanelViewSettings@@@std@@@std@@QAE@XZ 0048a2f0 f i config.obj
 0001:00089330       ?_Reserve@?$vector@UPanelViewSettings@@V?$allocator@UPanelViewSettings@@@std@@@std@@IAEXI@Z 0048a330 f i config.obj
 0001:000893b0       ?push_back@?$vector@UPanelViewSettings@@V?$allocator@UPanelViewSettings@@@std@@@std@@QAEXABUPanelViewSettings@@@Z 0048a3b0 f i config.obj
 0001:00089470       ?resize@?$vector@UPanelViewSettings@@V?$allocator@UPanelViewSettings@@@std@@@std@@QAEXI@Z 0048a470 f i config.obj
 0001:00089550       ??$?0V?$vector@UDialogItemEx@@V?$allocator@UDialogItemEx@@@std@@@std@@@Dialog@@QAE@AAV?$vector@UDialogItemEx@@V?$allocator@UDialogItemEx@@@std@@@std@@P6AHPAV0@HHPAX@Z2@Z 0048a550 f i config.obj
 0001:00089620       ??$?0V?$vector@UDialogItemEx@@V?$allocator@UDialogItemEx@@@std@@@std@@VMessage@@@Dialog@@QAE@AAV?$vector@UDialogItemEx@@V?$allocator@UDialogItemEx@@@std@@@std@@PAVMessage@@P83@AEHPAV0@HHPAX@Z3@Z 0048a620 f i message.obj
 0001:00089620       ??$?0V?$vector@UDialogItemEx@@V?$allocator@UDialogItemEx@@@std@@@std@@VFindFiles@@@Dialog@@QAE@AAV?$vector@UDialogItemEx@@V?$allocator@UDialogItemEx@@@std@@@std@@PAVFindFiles@@P83@AEHPAV0@HHPAX@Z3@Z 0048a620 f i findfile.obj
 0001:00089620       ??$?0V?$vector@UDialogItemEx@@V?$allocator@UDialogItemEx@@@std@@@std@@Vcodepages@@@Dialog@@QAE@AAV?$vector@UDialogItemEx@@V?$allocator@UDialogItemEx@@@std@@@std@@PAVcodepages@@P83@AEHPAV0@HHPAX@Z3@Z 0048a620 f i codepage.obj
 0001:00089620       ??$?0V?$vector@UDialogItemEx@@V?$allocator@UDialogItemEx@@@std@@@std@@VUserMenu@@@Dialog@@QAE@AAV?$vector@UDialogItemEx@@V?$allocator@UDialogItemEx@@@std@@@std@@PAVUserMenu@@P83@AEHPAV0@HHPAX@Z3@Z 0048a620 f i usermenu.obj
 0001:00089620       ??$?0V?$vector@UDialogItemEx@@V?$allocator@UDialogItemEx@@@std@@@std@@VViewer@@@Dialog@@QAE@AAV?$vector@UDialogItemEx@@V?$allocator@UDialogItemEx@@@std@@@std@@PAVViewer@@P83@AEHPAV0@HHPAX@Z3@Z 0048a620 f i viewer.obj
 0001:00089620       ??$?0V?$vector@UDialogItemEx@@V?$allocator@UDialogItemEx@@@std@@@std@@VShellCopy@@@Dialog@@QAE@AAV?$vector@UDialogItemEx@@V?$allocator@UDialogItemEx@@@std@@@std@@PAVShellCopy@@P83@AEHPAV0@HHPAX@Z3@Z 0048a620 f i copy.obj
 0001:00089620       ??$?0V?$vector@UDialogItemEx@@V?$allocator@UDialogItemEx@@@std@@@std@@VKeyMacro@@@Dialog@@QAE@AAV?$vector@UDialogItemEx@@V?$allocator@UDialogItemEx@@@std@@@std@@PAVKeyMacro@@P83@AEHPAV0@HHPAX@Z3@Z 0048a620 f i macro.obj
 0001:00089620       ??$?0V?$vector@UDialogItemEx@@V?$allocator@UDialogItemEx@@@std@@@std@@VOptions@@@Dialog@@QAE@AAV?$vector@UDialogItemEx@@V?$allocator@UDialogItemEx@@@std@@@std@@PAVOptions@@P83@AEHPAV0@HHPAX@Z3@Z 0048a620 f i config.obj
 0001:000896f0       ?ReadPanelModes@Options@@AAEXXZ 0048a6f0 f   config.obj
 0001:00089920       ?clear@?$list@Vmasks@filemasks@@V?$allocator@Vmasks@filemasks@@@std@@@std@@QAEXXZ 0048a920 f i config.obj
 0001:000899f0       ??0Options@@QAE@XZ         0048a9f0 f   config.obj
 0001:0008ac10       ?Load@Options@@QAEXXZ      0048bc10 f   config.obj
 0001:0008b2c0       ??1?$list@Vmasks@filemasks@@V?$allocator@Vmasks@filemasks@@@std@@@std@@QAE@XZ 0048c2c0 f i config.obj
 0001:0008b320       ??$MakeDialogItemsEx@$0BG@@@YA?AV?$vector@UDialogItemEx@@V?$allocator@UDialogItemEx@@@std@@@std@@AAY0BG@$$CBUFarDialogItem@@@Z 0048c320 f i config.obj
 0001:0008b390       ??$MakeDialogItemsEx@$00@@YA?AV?$vector@UDialogItemEx@@V?$allocator@UDialogItemEx@@@std@@@std@@AAY00$$CBUFarDialogItem@@@Z 0048c390 f i config.obj
 0001:0008b400       ??0filemasks@@QAE@XZ       0048c400 f i config.obj
 0001:0008b4f0       ??1filemasks@@QAE@XZ       0048c4f0 f i config.obj
 0001:0008b580       ??R<lambda2>@?A0x897958b7@@QBEHH@Z 0048c580 f i config.obj
 0001:0008bf00       ?SetFilePanelModes@Options@@AAEXXZ 0048cf00 f   config.obj
 0001:0008d930       ?AdvancedConfig@Options@@QAE_NW4farconfig_mode@1@@Z 0048e930 f   config.obj
 0001:0008dc70       ?ShellOptions@Options@@QAEXHPBU_MOUSE_EVENT_RECORD@@@Z 0048ec70 f   config.obj
 0001:0008fde0       ?_Do_call@?$_Impl_no_alloc1@U?$_Callable_obj@V<lambda2>@?A0x897958b7@@$0A@@tr1@std@@HH@tr1@std@@UAEHH@Z 00490de0 f i config.obj
 0001:0008fdf0       ??1XmlConfig@@UAE@XZ       00490df0 f i configdb.obj
 0001:0008fe00       ??_GXmlConfig@@UAEPAXI@Z   00490e00 f i configdb.obj
 0001:0008fe00       ??_EXmlConfig@@UAEPAXI@Z   00490e00 f i configdb.obj
 0001:0008fe30       ??1Transactional@@UAE@XZ   00490e30 f i configdb.obj
 0001:0008fe40       ??_ETransactional@@UAEPAXI@Z 00490e40 f i configdb.obj
 0001:0008fe40       ??_GTransactional@@UAEPAXI@Z 00490e40 f i configdb.obj
 0001:0008fe70       ??1GeneralConfig@@UAE@XZ   00490e70 f i configdb.obj
 0001:0008fed0       ??_GGeneralConfig@@UAEPAXI@Z 00490ed0 f i configdb.obj
 0001:0008fed0       ??_EGeneralConfig@@UAEPAXI@Z 00490ed0 f i configdb.obj
 0001:0008ff50       ??1HierarchicalConfig@@MAE@XZ 00490f50 f i configdb.obj
 0001:0008ffb0       ??_GHierarchicalConfig@@MAEPAXI@Z 00490fb0 f i configdb.obj
 0001:0008ffb0       ??_EHierarchicalConfig@@MAEPAXI@Z 00490fb0 f i configdb.obj
 0001:00090030       ??1ColorsConfig@@UAE@XZ    00491030 f i configdb.obj
 0001:00090090       ??_GColorsConfig@@UAEPAXI@Z 00491090 f i configdb.obj
 0001:00090090       ??_EColorsConfig@@UAEPAXI@Z 00491090 f i configdb.obj
 0001:00090110       ??1AssociationsConfig@@UAE@XZ 00491110 f i configdb.obj
 0001:00090170       ??_GAssociationsConfig@@UAEPAXI@Z 00491170 f i configdb.obj
 0001:00090170       ??_EAssociationsConfig@@UAEPAXI@Z 00491170 f i configdb.obj
 0001:000901f0       ??1PluginsCacheConfig@@UAE@XZ 004911f0 f i configdb.obj
 0001:00090250       ??_GPluginsCacheConfig@@UAEPAXI@Z 00491250 f i configdb.obj
 0001:00090250       ??_EPluginsCacheConfig@@UAEPAXI@Z 00491250 f i configdb.obj
 0001:000902d0       ??1PluginsHotkeysConfig@@UAE@XZ 004912d0 f i configdb.obj
 0001:00090330       ??_GPluginsHotkeysConfig@@UAEPAXI@Z 00491330 f i configdb.obj
 0001:00090330       ??_EPluginsHotkeysConfig@@UAEPAXI@Z 00491330 f i configdb.obj
 0001:000903b0       ??1HistoryConfig@@UAE@XZ   004913b0 f i configdb.obj
 0001:00090410       ??_EHistoryConfig@@UAEPAXI@Z 00491410 f i configdb.obj
 0001:00090410       ??_GHistoryConfig@@UAEPAXI@Z 00491410 f i configdb.obj
 0001:00090490       ?Element@TiXmlHandle@tinyxml@@QBEPAVTiXmlElement@2@XZ 00491490 f i configdb.obj
 0001:000904c0       ??1iGeneralConfigDb@@UAE@XZ 004914c0 f i configdb.obj
 0001:000905f0       ?RollbackTransaction@HierarchicalConfigDb@@UAE_NXZ 004915f0 f i configdb.obj
 0001:000905f0       ?RollbackTransaction@ColorsConfigDb@@UAE_NXZ 004915f0 f i configdb.obj
 0001:000905f0       ?RollbackTransaction@iGeneralConfigDb@@UAE_NXZ 004915f0 f i configdb.obj
 0001:000905f0       ?RollbackTransaction@PluginsCacheConfigDb@@UAE_NXZ 004915f0 f i configdb.obj
 0001:000905f0       ?RollbackTransaction@PluginsHotkeysConfigDb@@UAE_NXZ 004915f0 f i configdb.obj
 0001:000905f0       ?RollbackTransaction@AssociationsConfigDb@@UAE_NXZ 004915f0 f i configdb.obj
 0001:00090600       ?InitializeImpl@iGeneralConfigDb@@UAE_NABVUnicodeString@@_N@Z 00491600 f i configdb.obj
 0001:000906e0       ?SetValue@iGeneralConfigDb@@UAE_NABVUnicodeString@@00@Z 004916e0 f i configdb.obj
 0001:00090770       ?SetValue@iGeneralConfigDb@@UAE_NABVUnicodeString@@0_K@Z 00491770 f i configdb.obj
 0001:00090800       ?SetValue@iGeneralConfigDb@@UAE_NABVUnicodeString@@0PBXI@Z 00491800 f i configdb.obj
 0001:00090890       ?GetValue@iGeneralConfigDb@@UAE_NABVUnicodeString@@0PA_J_J@Z 00491890 f i configdb.obj
 0001:00090910       ?DeleteValue@iGeneralConfigDb@@UAE_NABVUnicodeString@@0@Z 00491910 f i configdb.obj
 0001:00090940       ??_EiGeneralConfigDb@@UAEPAXI@Z 00491940 f i configdb.obj
 0001:00090940       ??_GiGeneralConfigDb@@UAEPAXI@Z 00491940 f i configdb.obj
 0001:00090970       ??_EAssociationsConfig@@W3AEPAXI@Z 00491970 f i configdb.obj
 0001:00090980       ??_EGeneralConfig@@W3AEPAXI@Z 00491980 f i configdb.obj
 0001:00090990       ??_EiGeneralConfigDb@@W3AEPAXI@Z 00491990 f i configdb.obj
 0001:000909a0       ??_EHistoryConfig@@W3AEPAXI@Z 004919a0 f i configdb.obj
 0001:000909b0       ??_EColorsConfig@@W3AEPAXI@Z 004919b0 f i configdb.obj
 0001:000909c0       ??_EiGeneralConfigDb@@W7AEPAXI@Z 004919c0 f i configdb.obj
 0001:000909d0       ??_EPluginsCacheConfig@@W3AEPAXI@Z 004919d0 f i configdb.obj
 0001:000909e0       ??_EPluginsHotkeysConfig@@W3AEPAXI@Z 004919e0 f i configdb.obj
 0001:000909f0       ??_EHierarchicalConfig@@O3AEPAXI@Z 004919f0 f i configdb.obj
 0001:00090a00       ?SetName@HandleWrapper@@QAEXPB_W0@Z 00491a00 f i configdb.obj
 0001:00090a70       ??1TiXmlString@tinyxml@@QAE@XZ 00491a70 f i configdb.obj
 0001:00090a90       ??1TiXmlDocument@tinyxml@@UAE@XZ 00491a90 f i configdb.obj
 0001:00090b00       ?GetSelCount@Panel@@UAEIXZ 00491b00 f i infolist.obj
 0001:00090b00       ?ToDocument@TiXmlNode@tinyxml@@UBEPBVTiXmlDocument@2@XZ 00491b00 f i tinyxml.obj
 0001:00090b00       ?ToDocument@TiXmlNode@tinyxml@@UAEPAVTiXmlDocument@2@XZ 00491b00 f i tinyxml.obj
 0001:00090b00       ?WriteEvent@@YAHKPAU_EXCEPTION_POINTERS@@PAVPlugin@@PAXKKK@Z 00491b00 f i farexcpt.obj
 0001:00090b00       _sqlite3_release_memory    00491b00 f i sqlite.obj
 0001:00090b00       ?ToText@TiXmlNode@tinyxml@@UBEPBVTiXmlText@2@XZ 00491b00 f i configdb.obj
 0001:00090b00       ?ToUnknown@TiXmlNode@tinyxml@@UAEPAVTiXmlUnknown@2@XZ 00491b00 f i configdb.obj
 0001:00090b00       ?ToUnknown@TiXmlNode@tinyxml@@UBEPBVTiXmlUnknown@2@XZ 00491b00 f i configdb.obj
 0001:00090b00       ?ToElement@TiXmlNode@tinyxml@@UBEPBVTiXmlElement@2@XZ 00491b00 f i configdb.obj
 0001:00090b00       ?Export@XmlConfig@@UAEPAVTiXmlElement@tinyxml@@XZ 00491b00 f i configdb.obj
 0001:00090b00       ?ToComment@TiXmlNode@tinyxml@@UBEPBVTiXmlComment@2@XZ 00491b00 f i configdb.obj
 0001:00090b00       ?GetLastSelectedItem@Panel@@UBEPBUpanelitem@1@XZ 00491b00 f i infolist.obj
 0001:00090b00       ?GetTabExpandMode@EditControl@@EBE?BW4EXPAND_TABS@@XZ 00491b00 f i editcontrol.obj
 0001:00090b00       ?GetCurrentPos@Panel@@UBEHXZ 00491b00 f i infolist.obj
 0001:00090b00       ?GetFileCount@Panel@@UAEIXZ 00491b00 f i infolist.obj
 0001:00090b00       ?ToText@TiXmlNode@tinyxml@@UAEPAVTiXmlText@2@XZ 00491b00 f i configdb.obj
 0001:00090b00       ?GetType@FilePanels@@UAEHXZ 00491b00 f i filepanels.obj
 0001:00090b00       ?ToDeclaration@TiXmlNode@tinyxml@@UAEPAVTiXmlDeclaration@2@XZ 00491b00 f i configdb.obj
 0001:00090b00       ?ToElement@TiXmlNode@tinyxml@@UAEPAVTiXmlElement@2@XZ 00491b00 f i configdb.obj
 0001:00090b00       ?ToComment@TiXmlNode@tinyxml@@UAEPAVTiXmlComment@2@XZ 00491b00 f i configdb.obj
 0001:00090b00       ?GetPrevCurPos@Edit@@EBEHXZ 00491b00 f i edit.obj
 0001:00090b00       ?ToDeclaration@TiXmlNode@tinyxml@@UBEPBVTiXmlDeclaration@2@XZ 00491b00 f i configdb.obj
 0001:00090b00       ?GetRealSelCount@Panel@@UAEIXZ 00491b00 f i infolist.obj
 0001:00090b00       ?getType@BoolOption@@UBE?BW4OptionType@Option@@XZ 00491b00 f i config.obj
 0001:00090b00       ?GetPluginHandle@Panel@@UAEPAXXZ 00491b00 f i infolist.obj
 0001:00090b00       ?IsFileModified@Frame@@UBEHXZ 00491b00 f i codepage.obj
 0001:00090b10       ??_ETiXmlDocument@tinyxml@@UAEPAXI@Z 00491b10 f i configdb.obj
 0001:00090b10       ??_GTiXmlDocument@tinyxml@@UAEPAXI@Z 00491b10 f i configdb.obj
 0001:00090b90       ?GetValue@iGeneralConfigDb@@QAEHABVUnicodeString@@0PAXI@Z 00491b90 f i configdb.obj
 0001:00090c10       ?GetValue@iGeneralConfigDb@@UAEHABVUnicodeString@@0PAXIPBX@Z 00491c10 f i configdb.obj
 0001:00090c50       ??1?$unique_ptr@VPluginsCacheConfig@@U?$default_delete@VPluginsCacheConfig@@@std@@@std@@QAE@XZ 00491c50 f i configdb.obj
 0001:00090c50       ??1?$unique_ptr@VRegExp@@U?$default_delete@VRegExp@@@std@@@std@@QAE@XZ 00491c50 f i config.obj
 0001:00090c50       ??1?$unique_ptr@UFileListItem@@U?$default_delete@UFileListItem@@@std@@@std@@QAE@XZ 00491c50 f i filelist.obj
 0001:00090c50       ??1?$unique_ptr@VnsUniversalDetectorEx@@U?$default_delete@VnsUniversalDetectorEx@@@std@@@std@@QAE@XZ 00491c50 f i filestr.obj
 0001:00090c50       ??1?$unique_ptr@VAssociationsConfig@@U?$default_delete@VAssociationsConfig@@@std@@@std@@QAE@XZ 00491c50 f i configdb.obj
 0001:00090c50       ??1?$unique_ptr@VColorsConfig@@U?$default_delete@VColorsConfig@@@std@@@std@@QAE@XZ 00491c50 f i configdb.obj
 0001:00090c50       ??1?$unique_ptr@VHistoryConfig@@U?$default_delete@VHistoryConfig@@@std@@@std@@QAE@XZ 00491c50 f i configdb.obj
 0001:00090c50       ??1?$unique_ptr@VPlugin@@U?$default_delete@VPlugin@@@std@@@std@@QAE@XZ 00491c50 f i plugins.obj
 0001:00090c50       ??1?$unique_ptr@VGeneralConfig@@U?$default_delete@VGeneralConfig@@@std@@@std@@QAE@XZ 00491c50 f i configdb.obj
 0001:00090c50       ??1?$unique_ptr@UTreeItem@TreeList@@U?$default_delete@UTreeItem@TreeList@@@std@@@std@@QAE@XZ 00491c50 f i treelist.obj
 0001:00090c50       ??1?$unique_ptr@VPluginsHotkeysConfig@@U?$default_delete@VPluginsHotkeysConfig@@@std@@@std@@QAE@XZ 00491c50 f i configdb.obj
 0001:00090c50       ??1?$unique_ptr@VTiXmlDocument@tinyxml@@U?$default_delete@VTiXmlDocument@tinyxml@@@std@@@std@@QAE@XZ 00491c50 f i configdb.obj
 0001:00090c60       ?Open@Event@@QAE_N_N0@Z    00491c60 f i configdb.obj
 0001:00090ca0       ??1?$array_ptr@_W@@QAE@XZ  00491ca0 f i edit.obj
 0001:00090ca0       ??1?$array_ptr@D@@QAE@XZ   00491ca0 f i configdb.obj
 0001:00090cf0       ??0?$list@VUnicodeString@@V?$allocator@VUnicodeString@@@std@@@std@@QAE@XZ 00491cf0 f i configdb.obj
 0001:00090cf0       ??0?$list@U?$pair@HH@std@@V?$allocator@U?$pair@HH@std@@@2@@std@@QAE@XZ 00491cf0 f i codepage.obj
 0001:00090d90       ??1?$_Deque_val@UPushPopRecord@@V?$allocator@UPushPopRecord@@@std@@@std@@QAE@XZ 00491d90 f i cmdline.obj
 0001:00090d90       ??1?$_Deque_val@PAVMacroState@@V?$allocator@PAVMacroState@@@std@@@std@@QAE@XZ 00491d90 f i macro.obj
 0001:00090d90       ??1?$_Deque_val@UFarDialogEvent@@V?$allocator@UFarDialogEvent@@@std@@@std@@QAE@XZ 00491d90 f i PluginA.obj
 0001:00090d90       ??1?$_Deque_val@UStackHelpData@Help@@V?$allocator@UStackHelpData@Help@@@std@@@std@@QAE@XZ 00491d90 f i help.obj
 0001:00090d90       ??1?$_Deque_val@KV?$allocator@K@std@@@std@@QAE@XZ 00491d90 f i execute.obj
 0001:00090d90       ??1?$_Deque_val@PAUAsyncWorkItem@HistoryConfigCustom@@V?$allocator@PAUAsyncWorkItem@HistoryConfigCustom@@@std@@@std@@QAE@XZ 00491d90 f i configdb.obj
 0001:00090d90       ??1?$_Deque_val@UPreRedrawItem@@V?$allocator@UPreRedrawItem@@@std@@@std@@QAE@XZ 00491d90 f i global.obj
 0001:00090db0       ??$_Transform@Vus_iterator@UnicodeString@@V12@P6AGG@Z@std@@YA?AVus_iterator@UnicodeString@@V12@00P6AGG@Z@Z 00491db0 f i configdb.obj
 0001:00090e20       ??1palette@@QAE@XZ         00491e20 f i config.obj
 0001:00090e20       ??1MultiWaiter@@QAE@XZ     00491e20 f i configdb.obj
 0001:00090e20       ??1?$_Vb_val@V?$allocator@_N@std@@@std@@QAE@XZ 00491e20 f i preservestyle.obj
 0001:00091090       ??$_Cons_val@V?$allocator@VUnicodeString@@@std@@VUnicodeString@@AAV3@@std@@YAXAAV?$allocator@VUnicodeString@@@0@PAVUnicodeString@@AAV2@@Z 00492090 f i configdb.obj
 0001:00091110       ?Upper@@YAAAVUnicodeString@@AAV1@II@Z 00492110 f i configdb.obj
 0001:00091180       ??1HandleWrapper@@UAE@XZ   00492180 f i configdb.obj
 0001:00091230       ??_EHandleWrapper@@UAEPAXI@Z 00492230 f i configdb.obj
 0001:00091230       ??_GHandleWrapper@@UAEPAXI@Z 00492230 f i configdb.obj
 0001:00091260       ??0Thread@@QAE@XZ          00492260 f i configdb.obj
 0001:00091300       ?GetNamespace@Thread@@UBEPB_WXZ 00492300 f i configdb.obj
 0001:00091310       ??1Thread@@UAE@XZ          00492310 f i configdb.obj
 0001:00091360       ??_GThread@@UAEPAXI@Z      00492360 f i configdb.obj
 0001:00091360       ??_EThread@@UAEPAXI@Z      00492360 f i configdb.obj
 0001:000913c0       ??0Event@@QAE@XZ           004923c0 f i configdb.obj
 0001:00091460       ?GetNamespace@Event@@UBEPB_WXZ 00492460 f i configdb.obj
 0001:00091470       ??1Event@@UAE@XZ           00492470 f i configdb.obj
 0001:000914c0       ??_GEvent@@UAEPAXI@Z       004924c0 f i configdb.obj
 0001:000914c0       ??_EEvent@@UAEPAXI@Z       004924c0 f i configdb.obj
 0001:00091700       ??0Utf8String@@QAE@ABVUnicodeString@@@Z 00492700 f i configdb.obj
 0001:000917c0       ??0iGeneralConfigDb@@IAE@PB_W_N@Z 004927c0 f i configdb.obj
 0001:00091930       ?GetValue@iGeneralConfigDb@@QAE_NABVUnicodeString@@0AAV2@@Z 00492930 f i configdb.obj
 0001:000919b0       ?GetValue@iGeneralConfigDb@@UAE_NABVUnicodeString@@0AAV2@PB_W@Z 004929b0 f i configdb.obj
 0001:00091a10       ?EnumValues@iGeneralConfigDb@@UAE_NABVUnicodeString@@KAAV2@1@Z 00492a10 f i configdb.obj
 0001:00091ad0       ?EnumValues@iGeneralConfigDb@@UAE_NABVUnicodeString@@KAAV2@PAK@Z 00492ad0 f i configdb.obj
 0001:00091b60       ?Export@iGeneralConfigDb@@UAEPAVTiXmlElement@tinyxml@@XZ 00492b60 f i configdb.obj
 0001:00091db0       ?Import@iGeneralConfigDb@@UAE_NABVTiXmlHandle@tinyxml@@@Z 00492db0 f i configdb.obj
 0001:000920d0       ?GetKeyName@GeneralConfigDb@@EBEPBDXZ 004930d0 f i configdb.obj
 0001:000920e0       ??_EGeneralConfigDb@@W3AEPAXI@Z 004930e0 f i configdb.obj
 0001:000920e0       ??_ELocalGeneralConfigDb@@W3AEPAXI@Z 004930e0 f i configdb.obj
 0001:000920f0       ?GetKeyName@LocalGeneralConfigDb@@EBEPBDXZ 004930f0 f i configdb.obj
 0001:00092100       ??_ELocalGeneralConfigDb@@W7AEPAXI@Z 00493100 f i configdb.obj
 0001:00092100       ??_EGeneralConfigDb@@W7AEPAXI@Z 00493100 f i configdb.obj
 0001:00092110       ??_EGeneralConfigDb@@UAEPAXI@Z 00493110 f i configdb.obj
 0001:00092110       ??_GGeneralConfigDb@@UAEPAXI@Z 00493110 f i configdb.obj
 0001:00092110       ??_ELocalGeneralConfigDb@@UAEPAXI@Z 00493110 f i configdb.obj
 0001:00092110       ??_GLocalGeneralConfigDb@@UAEPAXI@Z 00493110 f i configdb.obj
 0001:00092170       ??1HierarchicalConfigDb@@MAE@XZ 00493170 f i configdb.obj
 0001:000922a0       ?SETranslator@@YAXIPAU_EXCEPTION_POINTERS@@@Z 004932a0 f i configdb.obj
 0001:00092300       ??0SException@@QAE@ABV0@@Z 00493300 f i configdb.obj
 0001:00092370       ?ThreadProc@HierarchicalConfigDb@@AAEIPAX@Z 00493370 f i configdb.obj
 0001:00092390       ?InitializeImpl@HierarchicalConfigDb@@UAE_NABVUnicodeString@@_N@Z 00493390 f i configdb.obj
 0001:00092520       ?Flush@HierarchicalConfigDb@@UAE_NXZ 00493520 f i configdb.obj
 0001:00092540       ?GetKeyID@HierarchicalConfigDb@@UAE_K_KABVUnicodeString@@@Z 00493540 f i configdb.obj
 0001:000925a0       ?SetKeyDescription@HierarchicalConfigDb@@UAE_N_KABVUnicodeString@@@Z 004935a0 f i configdb.obj
 0001:000925d0       ?SetValue@HierarchicalConfigDb@@UAE_N_KABVUnicodeString@@1@Z 004935d0 f i configdb.obj
 0001:00092610       ?SetValue@HierarchicalConfigDb@@UAE_N_KABVUnicodeString@@0@Z 00493610 f i configdb.obj
 0001:00092650       ?SetValue@HierarchicalConfigDb@@UAE_N_KABVUnicodeString@@PBXI@Z 00493650 f i configdb.obj
 0001:00092690       ?GetValue@HierarchicalConfigDb@@UAE_N_KABVUnicodeString@@PA_K@Z 00493690 f i configdb.obj
 0001:000926f0       ?DeleteKeyTree@HierarchicalConfigDb@@UAE_N_K@Z 004936f0 f i configdb.obj
 0001:00092710       ?DeleteValue@HierarchicalConfigDb@@UAE_N_KABVUnicodeString@@@Z 00493710 f i configdb.obj
 0001:00092740       ?Export@HierarchicalConfigDb@@QAEX_KPAVTiXmlElement@tinyxml@@@Z 00493740 f i configdb.obj
 0001:000929c0       ?Export@HierarchicalConfigDb@@UAEPAVTiXmlElement@tinyxml@@XZ 004939c0 f i configdb.obj
 0001:00092a50       ??_EHierarchicalConfigDb@@O3AEPAXI@Z 00493a50 f i configdb.obj
 0001:00092a60       ??_EHierarchicalConfigDb@@O7AEPAXI@Z 00493a60 f i configdb.obj
 0001:00092a70       ?GetValue@HierarchicalConfigDb@@UAEH_KABVUnicodeString@@PAXI@Z 00493a70 f i configdb.obj
 0001:00092af0       ?CreateKey@HierarchicalConfigDb@@UAE_K_KABVUnicodeString@@PBV2@@Z 00493af0 f i configdb.obj
 0001:00092cf0       ?push_back@?$vector@PAXV?$allocator@PAX@std@@@std@@QAEX$$QAPAX@Z 00493cf0 f i configdb.obj
 0001:00092da0       ??0HierarchicalConfigDb@@QAE@ABVUnicodeString@@_N@Z 00493da0 f i configdb.obj
 0001:00092f00       ?GetValue@HierarchicalConfigDb@@UAE_N_KABVUnicodeString@@AAV2@@Z 00493f00 f i configdb.obj
 0001:00092f80       ?EnumKeys@HierarchicalConfigDb@@UAE_N_KKAAVUnicodeString@@@Z 00493f80 f i configdb.obj
 0001:00093010       ?EnumValues@HierarchicalConfigDb@@UAE_N_KKAAVUnicodeString@@PAK@Z 00494010 f i configdb.obj
 0001:000930b0       ?SerializeBlob@HierarchicalConfigDb@@UAEXPBD0HPAVTiXmlElement@tinyxml@@@Z 004940b0 f i configdb.obj
 0001:00093140       ?DeserializeBlob@HierarchicalConfigDb@@UAEHPBD00PBVTiXmlElement@tinyxml@@AAV?$array_ptr@D@@@Z 00494140 f i configdb.obj
 0001:000931b0       ?Import@HierarchicalConfigDb@@QAEX_KPBVTiXmlElement@tinyxml@@@Z 004941b0 f i configdb.obj
 0001:00093600       ?Import@HierarchicalConfigDb@@UAE_NABVTiXmlHandle@tinyxml@@@Z 00494600 f i configdb.obj
 0001:000936a0       ??_EHierarchicalConfigDb@@MAEPAXI@Z 004946a0 f i configdb.obj
 0001:000936a0       ??_GHierarchicalConfigDb@@MAEPAXI@Z 004946a0 f i configdb.obj
 0001:00093810       ??_EHighlightHierarchicalConfigDb@@G3AEPAXI@Z 00494810 f i configdb.obj
 0001:00093820       ??_EHighlightHierarchicalConfigDb@@G7AEPAXI@Z 00494820 f i configdb.obj
 0001:00093830       ??$_For_each@PBU?$value_name_pair@_KPB_W@@V<lambda1>@?A0x2d97538e@@@std@@YA?AV<lambda1>@?A0x2d97538e@@PBU?$value_name_pair@_KPB_W@@0V12@@Z 00494830 f i configdb.obj
 0001:000938c0       ??$_For_each@V?$_List_unchecked_const_iterator@V?$_List_val@VUnicodeString@@V?$allocator@VUnicodeString@@@std@@@std@@U_Iterator_base0@2@@std@@V<lambda2>@?A0x2d97538e@@@std@@YA?AV<lambda2>@?A0x2d97538e@@V?$_List_unchecked_const_iterator@V?$_List_val@VUnicodeString@@V?$allocator@VUnicodeString@@@std@@@std@@U_Iterator_base0@2@@0@0V12@@Z 004948c0 f i configdb.obj
 0001:00093940       ??_EHighlightHierarchicalConfigDb@@EAEPAXI@Z 00494940 f i configdb.obj
 0001:00093940       ??_GHighlightHierarchicalConfigDb@@EAEPAXI@Z 00494940 f i configdb.obj
 0001:000939b0       ??0ColorsConfigDb@@QAE@XZ  004949b0 f i configdb.obj
 0001:00093b00       ?InitializeImpl@ColorsConfigDb@@UAE_NABVUnicodeString@@_N@Z 00494b00 f i configdb.obj
 0001:00093bc0       ??1ColorsConfigDb@@UAE@XZ  00494bc0 f i configdb.obj
 0001:00093c80       ?SetValue@ColorsConfigDb@@UAE_NABVUnicodeString@@ABUFarColor@@@Z 00494c80 f i configdb.obj
 0001:00093cf0       ?GetValue@ColorsConfigDb@@UAE_NABVUnicodeString@@AAUFarColor@@@Z 00494cf0 f i configdb.obj
 0001:00093d50       ??_EColorsConfigDb@@UAEPAXI@Z 00494d50 f i configdb.obj
 0001:00093d50       ??_GColorsConfigDb@@UAEPAXI@Z 00494d50 f i configdb.obj
 0001:00093d80       ??_EColorsConfigDb@@W3AEPAXI@Z 00494d80 f i configdb.obj
 0001:00093d90       ??_EColorsConfigDb@@W7AEPAXI@Z 00494d90 f i configdb.obj
 0001:00093da0       ??0AssociationsConfigDb@@QAE@XZ 00494da0 f i configdb.obj
 0001:00093f60       ??1AssociationsConfigDb@@UAE@XZ 00494f60 f i configdb.obj
 0001:00094090       ?InitializeImpl@AssociationsConfigDb@@UAE_NABVUnicodeString@@_N@Z 00495090 f i configdb.obj
 0001:00094280       ?SetCommand@AssociationsConfigDb@@UAE_N_KHABVUnicodeString@@_N@Z 00495280 f i configdb.obj
 0001:000942d0       ?SwapPositions@AssociationsConfigDb@@UAE_N_K0@Z 004952d0 f i configdb.obj
 0001:000943d0       ?AddType@AssociationsConfigDb@@UAE_K_KABVUnicodeString@@1@Z 004953d0 f i configdb.obj
 0001:00094440       ?UpdateType@AssociationsConfigDb@@UAE_N_KABVUnicodeString@@1@Z 00495440 f i configdb.obj
 0001:00094480       ?DelType@AssociationsConfigDb@@UAE_N_K@Z 00495480 f i configdb.obj
 0001:000944a0       ?Export@AssociationsConfigDb@@UAEPAVTiXmlElement@tinyxml@@XZ 004954a0 f i configdb.obj
 0001:000946d0       ??_GAssociationsConfigDb@@UAEPAXI@Z 004956d0 f i configdb.obj
 0001:000946d0       ??_EAssociationsConfigDb@@UAEPAXI@Z 004956d0 f i configdb.obj
 0001:00094700       ??_EAssociationsConfigDb@@W3AEPAXI@Z 00495700 f i configdb.obj
 0001:00094710       ??_EAssociationsConfigDb@@W7AEPAXI@Z 00495710 f i configdb.obj
 0001:00094720       ?Import@AssociationsConfigDb@@UAE_NABVTiXmlHandle@tinyxml@@@Z 00495720 f i configdb.obj
 0001:00094a90       ?EnumMasks@AssociationsConfigDb@@UAE_NKPA_KAAVUnicodeString@@@Z 00495a90 f i configdb.obj
 0001:00094b20       ?EnumMasksForType@AssociationsConfigDb@@UAE_NHKPA_KAAVUnicodeString@@@Z 00495b20 f i configdb.obj
 0001:00094bb0       ?GetMask@AssociationsConfigDb@@UAE_N_KAAVUnicodeString@@@Z 00495bb0 f i configdb.obj
 0001:00094c20       ?GetDescription@AssociationsConfigDb@@UAE_N_KAAVUnicodeString@@@Z 00495c20 f i configdb.obj
 0001:00094c90       ?GetCommand@AssociationsConfigDb@@UAE_N_KHAAVUnicodeString@@PA_N@Z 00495c90 f i configdb.obj
 0001:00094d20       ??0PluginsCacheConfigDb@@QAE@XZ 00495d20 f i configdb.obj
 0001:00094fd0       ?BeginTransaction@PluginsHotkeysConfigDb@@UAE_NXZ 00495fd0 f i configdb.obj
 0001:00094fd0       ?BeginTransaction@iGeneralConfigDb@@UAE_NXZ 00495fd0 f i configdb.obj
 0001:00094fd0       ?BeginTransaction@ColorsConfigDb@@UAE_NXZ 00495fd0 f i configdb.obj
 0001:00094fd0       ?BeginTransaction@PluginsCacheConfigDb@@UAE_NXZ 00495fd0 f i configdb.obj
 0001:00094fd0       ?BeginTransaction@HierarchicalConfigDb@@UAE_NXZ 00495fd0 f i configdb.obj
 0001:00094fd0       ?BeginTransaction@AssociationsConfigDb@@UAE_NXZ 00495fd0 f i configdb.obj
 0001:00094fe0       ?EndTransaction@PluginsHotkeysConfigDb@@UAE_NXZ 00495fe0 f i configdb.obj
 0001:00094fe0       ?EndTransaction@AssociationsConfigDb@@UAE_NXZ 00495fe0 f i configdb.obj
 0001:00094fe0       ?EndTransaction@PluginsCacheConfigDb@@UAE_NXZ 00495fe0 f i configdb.obj
 0001:00094fe0       ?EndTransaction@iGeneralConfigDb@@UAE_NXZ 00495fe0 f i configdb.obj
 0001:00094fe0       ?EndTransaction@HierarchicalConfigDb@@UAE_NXZ 00495fe0 f i configdb.obj
 0001:00094fe0       ?EndTransaction@ColorsConfigDb@@UAE_NXZ 00495fe0 f i configdb.obj
 0001:00094ff0       ?InitializeImpl@PluginsCacheConfigDb@@UAE_NABVUnicodeString@@_N@Z 00495ff0 f i configdb.obj
 0001:00095440       ??1PluginsCacheConfigDb@@UAE@XZ 00496440 f i configdb.obj
 0001:00095660       ?CreateCache@PluginsCacheConfigDb@@UAE_KABVUnicodeString@@@Z 00496660 f i configdb.obj
 0001:000956a0       ?GetCacheID@PluginsCacheConfigDb@@UAE_KABVUnicodeString@@@Z 004966a0 f i configdb.obj
 0001:000956f0       ?DeleteCache@PluginsCacheConfigDb@@UAE_NABVUnicodeString@@@Z 004966f0 f i configdb.obj
 0001:00095710       ?IsPreload@PluginsCacheConfigDb@@UAE_N_K@Z 00496710 f i configdb.obj
 0001:00095760       ?GetFlags@PluginsCacheConfigDb@@UAE_K_K@Z 00496760 f i configdb.obj
 0001:000957b0       ?SetPreload@PluginsCacheConfigDb@@UAE_N_K_N@Z 004967b0 f i configdb.obj
 0001:000957f0       ?SetSignature@PluginsCacheConfigDb@@UAE_N_KABVUnicodeString@@@Z 004967f0 f i configdb.obj
 0001:00095820       ?SetDiskMenuItem@PluginsCacheConfigDb@@UAE_N_KIABVUnicodeString@@1@Z 00496820 f i configdb.obj
 0001:00095870       ?SetPluginsMenuItem@PluginsCacheConfigDb@@UAE_N_KIABVUnicodeString@@1@Z 00496870 f i configdb.obj
 0001:000958c0       ?SetPluginsConfigMenuItem@PluginsCacheConfigDb@@UAE_N_KIABVUnicodeString@@1@Z 004968c0 f i configdb.obj
 0001:00095910       ?SetCommandPrefix@PluginsCacheConfigDb@@UAE_N_KABVUnicodeString@@@Z 00496910 f i configdb.obj
 0001:00095940       ?SetFlags@PluginsCacheConfigDb@@UAE_N_K0@Z 00496940 f i configdb.obj
 0001:00095970       ?SetExport@PluginsCacheConfigDb@@UAE_N_KABVUnicodeString@@_N@Z 00496970 f i configdb.obj
 0001:000959b0       ?SetMinFarVersion@PluginsCacheConfigDb@@UAE_N_KPBUVersionInfo@@@Z 004969b0 f i configdb.obj
 0001:000959e0       ?SetVersion@PluginsCacheConfigDb@@UAE_N_KPBUVersionInfo@@@Z 004969e0 f i configdb.obj
 0001:00095a10       ?SetGuid@PluginsCacheConfigDb@@UAE_N_KABVUnicodeString@@@Z 00496a10 f i configdb.obj
 0001:00095a40       ?SetTitle@PluginsCacheConfigDb@@UAE_N_KABVUnicodeString@@@Z 00496a40 f i configdb.obj
 0001:00095a70       ?SetAuthor@PluginsCacheConfigDb@@UAE_N_KABVUnicodeString@@@Z 00496a70 f i configdb.obj
 0001:00095aa0       ?SetDescription@PluginsCacheConfigDb@@UAE_N_KABVUnicodeString@@@Z 00496aa0 f i configdb.obj
 0001:00095ad0       ?DiscardCache@PluginsCacheConfigDb@@UAE_NXZ 00496ad0 f i configdb.obj
 0001:00095b00       ?IsCacheEmpty@PluginsCacheConfigDb@@UAE_NXZ 00496b00 f i configdb.obj
 0001:00095b30       ??_EPluginsCacheConfigDb@@UAEPAXI@Z 00496b30 f i configdb.obj
 0001:00095b30       ??_GPluginsCacheConfigDb@@UAEPAXI@Z 00496b30 f i configdb.obj
 0001:00095b60       ??_EPluginsCacheConfigDb@@W3AEPAXI@Z 00496b60 f i configdb.obj
 0001:00095b70       ??_EPluginsCacheConfigDb@@W7AEPAXI@Z 00496b70 f i configdb.obj
 0001:00095b80       ?GetExport@PluginsCacheConfigDb@@UAEPAX_KABVUnicodeString@@@Z 00496b80 f i configdb.obj
 0001:00095be0       ?GetMinFarVersion@PluginsCacheConfigDb@@UAE_N_KPAUVersionInfo@@@Z 00496be0 f i configdb.obj
 0001:00095c60       ?GetVersion@PluginsCacheConfigDb@@UAE_N_KPAUVersionInfo@@@Z 00496c60 f i configdb.obj
 0001:00095ce0       ?GetMenuItem@PluginsCacheConfigDb@@AAE_N_KW4MenuItemTypeEnum@1@IAAVUnicodeString@@2@Z 00496ce0 f i configdb.obj
 0001:00095da0       ?GetDiskMenuItem@PluginsCacheConfigDb@@UAE_N_KIAAVUnicodeString@@1@Z 00496da0 f i configdb.obj
 0001:00095dd0       ?GetPluginsMenuItem@PluginsCacheConfigDb@@UAE_N_KIAAVUnicodeString@@1@Z 00496dd0 f i configdb.obj
 0001:00095e00       ?GetPluginsConfigMenuItem@PluginsCacheConfigDb@@UAE_N_KIAAVUnicodeString@@1@Z 00496e00 f i configdb.obj
 0001:00095e30       ?EnumPlugins@PluginsCacheConfigDb@@UAE_NKAAVUnicodeString@@@Z 00496e30 f i configdb.obj
 0001:00095eb0       ??0PluginsHotkeysConfigDb@@QAE@XZ 00496eb0 f i configdb.obj
 0001:00096000       ?InitializeImpl@PluginsHotkeysConfigDb@@UAE_NABVUnicodeString@@_N@Z 00497000 f i configdb.obj
 0001:000960c0       ??1PluginsHotkeysConfigDb@@UAE@XZ 004970c0 f i configdb.obj
 0001:00096180       ?HotkeysPresent@PluginsHotkeysConfigDb@@UAE_NW4HotKeyTypeEnum@PluginsHotkeysConfig@@@Z 00497180 f i configdb.obj
 0001:000961c0       ?SetHotkey@PluginsHotkeysConfigDb@@UAE_NABVUnicodeString@@0W4HotKeyTypeEnum@PluginsHotkeysConfig@@0@Z 004971c0 f i configdb.obj
 0001:00096210       ?DelHotkey@PluginsHotkeysConfigDb@@UAE_NABVUnicodeString@@0W4HotKeyTypeEnum@PluginsHotkeysConfig@@@Z 00497210 f i configdb.obj
 0001:00096250       ??_EPluginsHotkeysConfigDb@@UAEPAXI@Z 00497250 f i configdb.obj
 0001:00096250       ??_GPluginsHotkeysConfigDb@@UAEPAXI@Z 00497250 f i configdb.obj
 0001:00096280       ??_EPluginsHotkeysConfigDb@@W3AEPAXI@Z 00497280 f i configdb.obj
 0001:00096290       ??_EPluginsHotkeysConfigDb@@W7AEPAXI@Z 00497290 f i configdb.obj
 0001:000962a0       ?Import@PluginsHotkeysConfigDb@@UAE_NABVTiXmlHandle@tinyxml@@@Z 004972a0 f i configdb.obj
 0001:00096560       ?Export@PluginsHotkeysConfigDb@@UAEPAVTiXmlElement@tinyxml@@XZ 00497560 f i configdb.obj
 0001:00096820       ?TryImportDatabase@Database@@AAEXPAVXmlConfig@@PBD_N@Z 00497820 f   configdb.obj
 0001:00096a80       ?ClearPluginsCache@Database@@SAXXZ 00497a80 f   configdb.obj
 0001:00096b00       ??$FlagsToString@V?$array@U?$value_name_pair@_KPB_W@@$04@tr1@std@@_K@@YA?BVUnicodeString@@AB_KABV?$array@U?$value_name_pair@_KPB_W@@$04@tr1@std@@_W@Z 00497b00 f i configdb.obj
 0001:00096ba0       ??$_Buynode@AAVUnicodeString@@@?$_List_val@VUnicodeString@@V?$allocator@VUnicodeString@@@std@@@std@@QAEPAU_Node@?$_List_nod@VUnicodeString@@V?$allocator@VUnicodeString@@@std@@@1@PAU231@0AAVUnicodeString@@@Z 00497ba0 f i configdb.obj
 0001:00096c70       ??$_Cons_val@V?$allocator@VUnicodeString@@@std@@VUnicodeString@@ABV3@@std@@YAXAAV?$allocator@VUnicodeString@@@0@PAVUnicodeString@@ABV2@@Z 00497c70 f i configdb.obj
 0001:00096cf0       ??$swap@VUnicodeString@@@std@@YAXAAVUnicodeString@@0@Z 00497cf0 f i configdb.obj
 0001:00096de0       ?SerializeBlob@HighlightHierarchicalConfigDb@@EAEXPBD0HPAVTiXmlElement@tinyxml@@@Z 00497de0 f i configdb.obj
 0001:000970b0       ?Export@ColorsConfigDb@@UAEPAVTiXmlElement@tinyxml@@XZ 004980b0 f i configdb.obj
 0001:000972a0       ?GetTextFromID@PluginsCacheConfigDb@@AAE?AVUnicodeString@@AAVSQLiteStmt@@_K@Z 004982a0 f i configdb.obj
 0001:00097360       ?GetSignature@PluginsCacheConfigDb@@UAE?AVUnicodeString@@_K@Z 00498360 f i configdb.obj
 0001:000973d0       ?GetGuid@PluginsCacheConfigDb@@UAE?AVUnicodeString@@_K@Z 004983d0 f i configdb.obj
 0001:00097440       ?GetTitle@PluginsCacheConfigDb@@UAE?AVUnicodeString@@_K@Z 00498440 f i configdb.obj
 0001:000974b0       ?GetAuthor@PluginsCacheConfigDb@@UAE?AVUnicodeString@@_K@Z 004984b0 f i configdb.obj
 0001:00097520       ?GetDescription@PluginsCacheConfigDb@@UAE?AVUnicodeString@@_K@Z 00498520 f i configdb.obj
 0001:00097590       ?GetCommandPrefix@PluginsCacheConfigDb@@UAE?AVUnicodeString@@_K@Z 00498590 f i configdb.obj
 0001:00097600       ?GetHotkey@PluginsHotkeysConfigDb@@UAE?AVUnicodeString@@ABV2@0W4HotKeyTypeEnum@PluginsHotkeysConfig@@@Z 00498600 f i configdb.obj
 0001:000976e0       ??$_Uninit_copy@V?$_List_const_iterator@V?$_List_val@VUnicodeString@@V?$allocator@VUnicodeString@@@std@@@std@@@std@@PAVUnicodeString@@V?$allocator@VUnicodeString@@@2@@std@@YAPAVUnicodeString@@V?$_List_const_iterator@V?$_List_val@VUnicodeString@@V?$allocator@VUnicodeString@@@std@@@std@@@0@0PAV1@AAV?$allocator@VUnicodeString@@@0@U_Nonscalar_ptr_iterator_tag@0@@Z 004986e0 f i configdb.obj
 0001:00097790       ??0?$SyncedQueue@PAUAsyncWorkItem@HistoryConfigCustom@@@@QAE@XZ 00498790 f i configdb.obj
 0001:00097860       ??1?$SyncedQueue@PAUAsyncWorkItem@HistoryConfigCustom@@@@QAE@XZ 00498860 f i configdb.obj
 0001:000978d0       ??$emplace_back@AAVUnicodeString@@@?$list@VUnicodeString@@V?$allocator@VUnicodeString@@@std@@@std@@QAEXAAVUnicodeString@@@Z 004988d0 f i configdb.obj
 0001:00097920       ??$Wrapper@V?$_Bind_fty@V?$_Mem_fn2@IP8HistoryConfigCustom@@AEIPAX@ZV1@PAX@tr1@std@@U_Notforced@23@V?$_Bind2@U?$_Callable_obj@V?$_Mem_fn2@IP8HistoryConfigCustom@@AEIPAX@ZV1@PAX@tr1@std@@$0A@@tr1@std@@PAVHistoryConfigCustom@@PAX@23@@tr1@std@@@Thread@@CGIPAX@Z 00498920 f i configdb.obj
 0001:00097920       ??$Wrapper@V?$_Bind_fty@V?$_Mem_fn2@IP8HierarchicalConfigDb@@AEIPAX@ZV1@PAX@tr1@std@@U_Notforced@23@V?$_Bind2@U?$_Callable_obj@V?$_Mem_fn2@IP8HierarchicalConfigDb@@AEIPAX@ZV1@PAX@tr1@std@@$0A@@tr1@std@@PAVHierarchicalConfigDb@@PAX@23@@tr1@std@@@Thread@@CGIPAX@Z 00498920 f i configdb.obj
 0001:00097970       ??$_Rotate@PAVUnicodeString@@HV1@@std@@YAXPAVUnicodeString@@00PAH0@Z 00498970 f i configdb.obj
 0001:00097a10       ??1HistoryConfigCustom@@UAE@XZ 00498a10 f i configdb.obj
 0001:00097d50       ?SetEditorPos@HistoryConfigCustom@@UAE_KABVUnicodeString@@HHHHI@Z 00498d50 f i configdb.obj
 0001:00097e00       ?GetEditorPos@HistoryConfigCustom@@UAE_KABVUnicodeString@@PAH111PAI@Z 00498e00 f i configdb.obj
 0001:00097ea0       ?SetEditorBookmark@HistoryConfigCustom@@UAE_N_KIHHHH@Z 00498ea0 f i configdb.obj
 0001:00097f10       ?GetEditorBookmark@HistoryConfigCustom@@UAE_N_KIPAH111@Z 00498f10 f i configdb.obj
 0001:00097fa0       ?SetViewerPos@HistoryConfigCustom@@UAE_KABVUnicodeString@@_J1HI@Z 00498fa0 f i configdb.obj
 0001:00098050       ?GetViewerPos@HistoryConfigCustom@@UAE_KABVUnicodeString@@PA_J1PAHPAI@Z 00499050 f i configdb.obj
 0001:000980f0       ?SetViewerBookmark@HistoryConfigCustom@@UAE_N_KI_J1@Z 004990f0 f i configdb.obj
 0001:00098150       ?GetViewerBookmark@HistoryConfigCustom@@UAE_N_KIPA_J1@Z 00499150 f i configdb.obj
 0001:000981d0       ?DeleteOldPositions@HistoryConfigCustom@@UAEXHH@Z 004991d0 f i configdb.obj
 0001:00098260       ??_EHistoryConfigCustom@@W3AEPAXI@Z 00499260 f i configdb.obj
 0001:00098270       ??_EHistoryConfigCustom@@W7AEPAXI@Z 00499270 f i configdb.obj
 0001:00098280       ??1CriticalSectionLock@@QAE@XZ 00499280 f i configdb.obj
 0001:00098290       ?BeginTransaction@HistoryConfigCustom@@UAE_NXZ 00499290 f i configdb.obj
 0001:000982c0       ?RollbackTransaction@HistoryConfigCustom@@UAE_NXZ 004992c0 f i configdb.obj
 0001:000982f0       ?Delete@HistoryConfigCustom@@UAE_N_K@Z 004992f0 f i configdb.obj
 0001:00098330       ?DeleteOldUnlocked@HistoryConfigCustom@@UAE_NKABVUnicodeString@@HH@Z 00499330 f i configdb.obj
 0001:000983c0       ?Count@HistoryConfigCustom@@UAEKKABVUnicodeString@@@Z 004993c0 f i configdb.obj
 0001:00098430       ?FlipLock@HistoryConfigCustom@@UAE_N_K@Z 00499430 f i configdb.obj
 0001:00098490       ?IsLocked@HistoryConfigCustom@@UAE_N_K@Z 00499490 f i configdb.obj
 0001:000984f0       ?DeleteAllUnlocked@HistoryConfigCustom@@UAE_NKABVUnicodeString@@@Z 004994f0 f i configdb.obj
 0001:00098540       ?begin@?$deque@PAUAsyncWorkItem@HistoryConfigCustom@@V?$allocator@PAUAsyncWorkItem@HistoryConfigCustom@@@std@@@std@@QAE?AV?$_Deque_iterator@PAUAsyncWorkItem@HistoryConfigCustom@@V?$allocator@PAUAsyncWorkItem@HistoryConfigCustom@@@std@@@2@XZ 00499540 f i configdb.obj
 0001:00098540       ?begin@?$deque@KV?$allocator@K@std@@@std@@QAE?AV?$_Deque_iterator@KV?$allocator@K@std@@@2@XZ 00499540 f i keyboard.obj
 0001:00098560       ?_Growmap@?$deque@KV?$allocator@K@std@@@std@@IAEXI@Z 00499560 f i keyboard.obj
 0001:00098560       ?_Growmap@?$deque@PAVMacroState@@V?$allocator@PAVMacroState@@@std@@@std@@IAEXI@Z 00499560 f i macro.obj
 0001:00098560       ?_Growmap@?$deque@PAUAsyncWorkItem@HistoryConfigCustom@@V?$allocator@PAUAsyncWorkItem@HistoryConfigCustom@@@std@@@std@@IAEXI@Z 00499560 f i configdb.obj
 0001:000986b0       ??0AsyncWorkItem@HistoryConfigCustom@@QAE@XZ 004996b0 f i configdb.obj
 0001:00098770       ??1AsyncWorkItem@HistoryConfigCustom@@QAE@XZ 00499770 f i configdb.obj
 0001:000988e0       ?push_back@?$deque@PAVMacroState@@V?$allocator@PAVMacroState@@@std@@@std@@QAEXABQAVMacroState@@@Z 004998e0 f i macro.obj
 0001:000988e0       ?push_back@?$deque@KV?$allocator@K@std@@@std@@QAEX$$QAK@Z 004998e0 f i keyboard.obj
 0001:000988e0       ?push_back@?$deque@PAUAsyncWorkItem@HistoryConfigCustom@@V?$allocator@PAUAsyncWorkItem@HistoryConfigCustom@@@std@@@std@@QAEXABQAUAsyncWorkItem@HistoryConfigCustom@@@Z 004998e0 f i configdb.obj
 0001:000989e0       ?Enum@HistoryConfigCustom@@UAE_NKKABVUnicodeString@@PA_KAAV2@PAHPA_N1222_N@Z 004999e0 f i configdb.obj
 0001:00098b90       ?EnumLargeHistories@HistoryConfigCustom@@UAE_NKHKAAVUnicodeString@@@Z 00499b90 f i configdb.obj
 0001:00098c40       ?GetNewest@HistoryConfigCustom@@UAE_NKABVUnicodeString@@AAV2@@Z 00499c40 f i configdb.obj
 0001:00098ce0       ?Get@HistoryConfigCustom@@UAE_N_KAAVUnicodeString@@@Z 00499ce0 f i configdb.obj
 0001:00098d70       ?Get@HistoryConfigCustom@@UAE_N_KAAVUnicodeString@@PAH111@Z 00499d70 f i configdb.obj
 0001:00098ec0       ?GetNext@HistoryConfigCustom@@UAE_KKABVUnicodeString@@_KAAV2@@Z 00499ec0 f i configdb.obj
 0001:00098fa0       ?GetPrev@HistoryConfigCustom@@UAE_KKABVUnicodeString@@_KAAV2@@Z 00499fa0 f i configdb.obj
 0001:00099140       ?CyclicGetPrev@HistoryConfigCustom@@UAE_KKABVUnicodeString@@_KAAV2@@Z 0049a140 f i configdb.obj
 0001:00099280       ?Pop@?$SyncedQueue@PAUAsyncWorkItem@HistoryConfigCustom@@@@QAEPAUAsyncWorkItem@HistoryConfigCustom@@XZ 0049a280 f i configdb.obj
 0001:00099350       ?ThreadProc@HistoryConfigCustom@@AAEIPAX@Z 0049a350 f i configdb.obj
 0001:000995d0       ?EndTransaction@HistoryConfigCustom@@UAE_NXZ 0049a5d0 f i configdb.obj
 0001:00099680       ?DeleteAndAddAsync@HistoryConfigCustom@@UAE_N_KKABVUnicodeString@@V2@H_NAAV2@44@Z 0049a680 f i configdb.obj
 0001:000997e0       ??_GHistoryConfigCustom@@UAEPAXI@Z 0049a7e0 f i configdb.obj
 0001:000997e0       ??_EHistoryConfigCustom@@UAEPAXI@Z 0049a7e0 f i configdb.obj
 0001:00099810       ??0HistoryConfigCustom@@QAE@XZ 0049a810 f i configdb.obj
 0001:00099af0       ??0HistoryConfigMemory@@QAE@XZ 0049aaf0 f i configdb.obj
 0001:00099be0       ??_EHistoryConfigMemory@@W7AEPAXI@Z 0049abe0 f i configdb.obj
 0001:00099be0       ??_EHistoryConfigDb@@W7AEPAXI@Z 0049abe0 f i configdb.obj
 0001:00099bf0       ?CheckDatabase@Database@@AAEXPAVSQLiteDb@@@Z 0049abf0 f   configdb.obj
 0001:00099db0       ??$CreateHierarchicalConfig@VHierarchicalConfigDb@@@Database@@AAE?AV?$unique_ptr@VHierarchicalConfig@@VHierarchicalConfigDeletor@@@std@@W4DBCHECK@0@ABVUnicodeString@@PBD_N3@Z 0049adb0 f i configdb.obj
 0001:00099e80       ??$CreateHierarchicalConfig@VHighlightHierarchicalConfigDb@@@Database@@AAE?AV?$unique_ptr@VHierarchicalConfig@@VHierarchicalConfigDeletor@@@std@@W4DBCHECK@0@ABVUnicodeString@@PBD_N3@Z 0049ae80 f i configdb.obj
 0001:00099f70       ??$CreateDatabase@VGeneralConfigDb@@@Database@@AAEPAVGeneralConfigDb@@PBD@Z 0049af70 f i configdb.obj
 0001:0009a030       ??$CreateDatabase@VLocalGeneralConfigDb@@@Database@@AAEPAVLocalGeneralConfigDb@@PBD@Z 0049b030 f i configdb.obj
 0001:0009a0f0       ??$CreateDatabase@VColorsConfigDb@@@Database@@AAEPAVColorsConfigDb@@PBD@Z 0049b0f0 f i configdb.obj
 0001:0009a190       ??$CreateDatabase@VAssociationsConfigDb@@@Database@@AAEPAVAssociationsConfigDb@@PBD@Z 0049b190 f i configdb.obj
 0001:0009a230       ??$CreateDatabase@VPluginsCacheConfigDb@@@Database@@AAEPAVPluginsCacheConfigDb@@PBD@Z 0049b230 f i configdb.obj
 0001:0009a2d0       ??$CreateDatabase@VPluginsHotkeysConfigDb@@@Database@@AAEPAVPluginsHotkeysConfigDb@@PBD@Z 0049b2d0 f i configdb.obj
 0001:0009a370       ??$CreateDatabase@VHistoryConfigMemory@@@Database@@AAEPAVHistoryConfigMemory@@PBD@Z 0049b370 f i configdb.obj
 0001:0009a410       ??$Starter@V?$_Bind_fty@V?$_Mem_fn2@IP8HistoryConfigCustom@@AEIPAX@ZV1@PAX@tr1@std@@U_Notforced@23@V?$_Bind2@U?$_Callable_obj@V?$_Mem_fn2@IP8HistoryConfigCustom@@AEIPAX@ZV1@PAX@tr1@std@@$0A@@tr1@std@@PAVHistoryConfigCustom@@PAX@23@@tr1@std@@@Thread@@AAE_N$$QAV?$_Bind_fty@V?$_Mem_fn2@IP8HistoryConfigCustom@@AEIPAX@ZV1@PAX@tr1@std@@U_Notforced@23@V?$_Bind2@U?$_Callable_obj@V?$_Mem_fn2@IP8HistoryConfigCustom@@AEIPAX@ZV1@PAX@tr1@std@@$0A@@tr1@std@@PAVHistoryConfigCustom@@PAX@23@@tr1@std@@@Z 0049b410 f i configdb.obj
 0001:0009a410       ??$Starter@V?$_Bind_fty@V?$_Mem_fn2@IP8HierarchicalConfigDb@@AEIPAX@ZV1@PAX@tr1@std@@U_Notforced@23@V?$_Bind2@U?$_Callable_obj@V?$_Mem_fn2@IP8HierarchicalConfigDb@@AEIPAX@ZV1@PAX@tr1@std@@$0A@@tr1@std@@PAVHierarchicalConfigDb@@PAX@23@@tr1@std@@@Thread@@AAE_N$$QAV?$_Bind_fty@V?$_Mem_fn2@IP8HierarchicalConfigDb@@AEIPAX@ZV1@PAX@tr1@std@@U_Notforced@23@V?$_Bind2@U?$_Callable_obj@V?$_Mem_fn2@IP8HierarchicalConfigDb@@AEIPAX@ZV1@PAX@tr1@std@@$0A@@tr1@std@@PAVHierarchicalConfigDb@@PAX@23@@tr1@std@@@Z 0049b410 f i configdb.obj
 0001:0009a490       ??$_Ucopy@V?$_List_const_iterator@V?$_List_val@VUnicodeString@@V?$allocator@VUnicodeString@@@std@@@std@@@std@@@?$vector@VUnicodeString@@V?$allocator@VUnicodeString@@@std@@@std@@IAEPAVUnicodeString@@V?$_List_const_iterator@V?$_List_val@VUnicodeString@@V?$allocator@VUnicodeString@@@std@@@std@@@1@0PAV2@@Z 0049b490 f i configdb.obj
 0001:0009a4c0       ??0HistoryConfigDb@@QAE@XZ 0049b4c0 f i configdb.obj
 0001:0009a5b0       ??_EHistoryConfigMemory@@W3AEPAXI@Z 0049b5b0 f i configdb.obj
 0001:0009a5b0       ??_EHistoryConfigDb@@W3AEPAXI@Z 0049b5b0 f i configdb.obj
 0001:0009a5c0       ??_EHistoryConfigDb@@UAEPAXI@Z 0049b5c0 f i configdb.obj
 0001:0009a5c0       ??_GHistoryConfigMemory@@UAEPAXI@Z 0049b5c0 f i configdb.obj
 0001:0009a5c0       ??_GHistoryConfigDb@@UAEPAXI@Z 0049b5c0 f i configdb.obj
 0001:0009a5c0       ??_EHistoryConfigMemory@@UAEPAXI@Z 0049b5c0 f i configdb.obj
 0001:0009a620       ?CreatePluginsConfig@Database@@QAE?AV?$unique_ptr@VHierarchicalConfig@@VHierarchicalConfigDeletor@@@std@@ABVUnicodeString@@_N@Z 0049b620 f   configdb.obj
 0001:0009a740       ?CreateFiltersConfig@Database@@QAE?AV?$unique_ptr@VHierarchicalConfig@@VHierarchicalConfigDeletor@@@std@@XZ 0049b740 f   configdb.obj
 0001:0009a810       ?CreateHighlightConfig@Database@@QAE?AV?$unique_ptr@VHierarchicalConfig@@VHierarchicalConfigDeletor@@@std@@XZ 0049b810 f   configdb.obj
 0001:0009a8e0       ?CreateShortcutsConfig@Database@@QAE?AV?$unique_ptr@VHierarchicalConfig@@VHierarchicalConfigDeletor@@@std@@XZ 0049b8e0 f   configdb.obj
 0001:0009a9b0       ?CreatePanelModeConfig@Database@@QAE?AV?$unique_ptr@VHierarchicalConfig@@VHierarchicalConfigDeletor@@@std@@XZ 0049b9b0 f   configdb.obj
 0001:0009aa80       ?Export@Database@@QAE_NABVUnicodeString@@@Z 0049ba80 f   configdb.obj
 0001:0009b280       ?Import@Database@@QAE_NABVUnicodeString@@@Z 0049c280 f   configdb.obj
 0001:0009b790       ??$CreateDatabase@VHistoryConfigDb@@@Database@@AAEPAVHistoryConfigDb@@PBD@Z 0049c790 f i configdb.obj
 0001:0009b830       ??$rotate@PAVUnicodeString@@@std@@YAPAVUnicodeString@@PAV1@00@Z 0049c830 f i configdb.obj
 0001:0009b870       ?AsyncFinish@HierarchicalConfigDb@@UAEXXZ 0049c870 f i configdb.obj
 0001:0009b980       ?StartThread@HistoryConfigCustom@@AAEXXZ 0049c980 f i configdb.obj
 0001:0009bad0       ?InitializeImpl@HistoryConfigCustom@@UAE_NABVUnicodeString@@_N@Z 0049cad0 f i configdb.obj
 0001:0009bee0       ??$StringToFlags@V?$array@U?$value_name_pair@_KPB_W@@$04@tr1@std@@@@YA_KABVUnicodeString@@ABV?$array@U?$value_name_pair@_KPB_W@@$04@tr1@std@@PB_W@Z 0049cee0 f i configdb.obj
 0001:0009bf90       ??$_Insert@V?$_List_const_iterator@V?$_List_val@VUnicodeString@@V?$allocator@VUnicodeString@@@std@@@std@@@std@@@?$vector@VUnicodeString@@V?$allocator@VUnicodeString@@@std@@@std@@QAEXV?$_Vector_const_iterator@V?$_Vector_val@VUnicodeString@@V?$allocator@VUnicodeString@@@std@@@std@@@1@V?$_List_const_iterator@V?$_List_val@VUnicodeString@@V?$allocator@VUnicodeString@@@std@@@std@@@1@1Uforward_iterator_tag@1@@Z 0049cf90 f i configdb.obj
 0001:0009c140       ?DeserializeBlob@HighlightHierarchicalConfigDb@@EAEHPBD00PBVTiXmlElement@tinyxml@@AAV?$array_ptr@D@@@Z 0049d140 f i configdb.obj
 0001:0009c300       ?Import@ColorsConfigDb@@UAE_NABVTiXmlHandle@tinyxml@@@Z 0049d300 f i configdb.obj
 0001:0009c530       ??0Database@@QAE@D@Z       0049d530 f   configdb.obj
 0001:0009c680       ??1Database@@QAE@XZ        0049d680 f   configdb.obj
 0001:0009c7f0       ??$insert@V?$_List_const_iterator@V?$_List_val@VUnicodeString@@V?$allocator@VUnicodeString@@@std@@@std@@@std@@@?$vector@VUnicodeString@@V?$allocator@VUnicodeString@@@std@@@std@@QAEXV?$_Vector_const_iterator@V?$_Vector_val@VUnicodeString@@V?$allocator@VUnicodeString@@@std@@@std@@@1@V?$_List_const_iterator@V?$_List_val@VUnicodeString@@V?$allocator@VUnicodeString@@@std@@@std@@@1@1@Z 0049d7f0 f i configdb.obj
 0001:0009c810       ??$emplace_back@PB_W@?$vector@VUnicodeString@@V?$allocator@VUnicodeString@@@std@@@std@@QAEX$$QAPB_W@Z 0049d810 f i configdb.obj
 0001:0009c810       ??$emplace_back@ABQB_W@?$vector@VUnicodeString@@V?$allocator@VUnicodeString@@@std@@@std@@QAEXABQB_W@Z 0049d810 f i plugins.obj
 0001:0009c8d0       ??$_Construct@V?$_List_const_iterator@V?$_List_val@VUnicodeString@@V?$allocator@VUnicodeString@@@std@@@std@@@std@@@?$vector@VUnicodeString@@V?$allocator@VUnicodeString@@@std@@@std@@QAEXV?$_List_const_iterator@V?$_List_val@VUnicodeString@@V?$allocator@VUnicodeString@@@std@@@std@@@1@0Uinput_iterator_tag@1@@Z 0049d8d0 f i configdb.obj
 0001:0009c950       ?ShowProblems@Database@@QAEHXZ 0049d950 f   configdb.obj
 0001:0009cab0       ??1console@@UAE@XZ         0049dab0 f i console.obj
 0001:0009cac0       ??_Gconsole@@UAEPAXI@Z     0049dac0 f i console.obj
 0001:0009cac0       ??_Econsole@@UAEPAXI@Z     0049dac0 f i console.obj
 0001:0009caf0       ??1basicconsole@@UAE@XZ    0049daf0 f i console.obj
 0001:0009cb40       ?Allocate@basicconsole@@UBE_NXZ 0049db40 f i console.obj
 0001:0009cb50       ?Free@basicconsole@@UBE_NXZ 0049db50 f i console.obj
 0001:0009cb60       ?GetInputHandle@basicconsole@@UBEPAXXZ 0049db60 f i console.obj
 0001:0009cb70       ?GetOutputHandle@basicconsole@@UBEPAXXZ 0049db70 f i console.obj
 0001:0009cb80       ?GetErrorHandle@basicconsole@@UBEPAXXZ 0049db80 f i console.obj
 0001:0009cb90       ?GetWindow@basicconsole@@UBEPAUHWND__@@XZ 0049db90 f i console.obj
 0001:0009cba0       ?GetSize@basicconsole@@UBE_NAAU_COORD@@@Z 0049dba0 f i console.obj
 0001:0009cc40       ?GetWindowRect@basicconsole@@UBE_NAAU_SMALL_RECT@@@Z 0049dc40 f i console.obj
 0001:0009cca0       ?SetWindowRect@basicconsole@@UBE_NABU_SMALL_RECT@@@Z 0049dca0 f i console.obj
 0001:0009ccd0       ?GetWorkingRect@basicconsole@@UBE_NAAU_SMALL_RECT@@@Z 0049dcd0 f i console.obj
 0001:0009cd50       ?GetKeyboardLayoutNameW@basicconsole@@UBE_NAAVUnicodeString@@@Z 0049dd50 f i console.obj
 0001:0009cda0       ?GetInputCodepage@basicconsole@@UBEIXZ 0049dda0 f i console.obj
 0001:0009cdb0       ?SetInputCodepage@basicconsole@@UBE_NI@Z 0049ddb0 f i console.obj
 0001:0009cdd0       ?GetOutputCodepage@basicconsole@@UBEIXZ 0049ddd0 f i console.obj
 0001:0009cde0       ?SetOutputCodepage@basicconsole@@UBE_NI@Z 0049dde0 f i console.obj
 0001:0009ce00       ?SetControlHandler@basicconsole@@UBE_NP6GHK@Z_N@Z 0049de00 f i console.obj
 0001:0009ce20       ?GetMode@basicconsole@@UBE_NPAXAAK@Z 0049de20 f i console.obj
 0001:0009ce40       ?SetMode@basicconsole@@UBE_NPAXK@Z 0049de40 f i console.obj
 0001:0009ce60       ?WriteInput@basicconsole@@UBE_NPAU_INPUT_RECORD@@IAAI@Z 0049de60 f i console.obj
 0001:0009ced0       ?Write@basicconsole@@UBE_NPB_WI@Z 0049ded0 f i console.obj
 0001:0009cf40       ?GetTextAttributes@basicconsole@@UBE_NAAUFarColor@@@Z 0049df40 f i console.obj
 0001:0009cfd0       ?SetTextAttributes@basicconsole@@UBE_NABUFarColor@@@Z 0049dfd0 f i console.obj
 0001:0009d010       ?GetCursorInfo@basicconsole@@UBE_NAAU_CONSOLE_CURSOR_INFO@@@Z 0049e010 f i console.obj
 0001:0009d030       ?SetCursorInfo@basicconsole@@UBE_NABU_CONSOLE_CURSOR_INFO@@@Z 0049e030 f i console.obj
 0001:0009d050       ?GetCursorPosition@basicconsole@@UBE_NAAU_COORD@@@Z 0049e050 f i console.obj
 0001:0009d0e0       ?FlushInputBuffer@basicconsole@@UBE_NXZ 0049e0e0 f i console.obj
 0001:0009d100       ?GetNumberOfInputEvents@basicconsole@@UBE_NAAI@Z 0049e100 f i console.obj
 0001:0009d130       ?GetAlias@basicconsole@@UBE_NPB_WPA_WI0@Z 0049e130 f i console.obj
 0001:0009d160       ?GetDisplayMode@basicconsole@@UBE_NAAK@Z 0049e160 f i console.obj
 0001:0009d180       ?SetActiveScreenBuffer@basicconsole@@UBE_NPAX@Z 0049e180 f i console.obj
 0001:0009d1a0       ?ClearExtraRegions@basicconsole@@UBE_NABUFarColor@@H@Z 0049e1a0 f i console.obj
 0001:0009d2b0       ?ScrollWindow@basicconsole@@UBE_NHH@Z 0049e2b0 f i console.obj
 0001:0009d400       ?ScrollWindowToBegin@basicconsole@@UBE_NXZ 0049e400 f i console.obj
 0001:0009d470       ?ScrollWindowToEnd@basicconsole@@UBE_NXZ 0049e470 f i console.obj
 0001:0009d4f0       ?ScrollScreenBuffer@basicconsole@@UBE_NH@Z 0049e4f0 f i console.obj
 0001:0009d5c0       ?IsFullscreenSupported@basicconsole@@UBE_NXZ 0049e5c0 f i console.obj
 0001:0009d640       ?ResetPosition@basicconsole@@UBE_NXZ 0049e640 f i console.obj
 0001:0009d6c0       ?GetColorDialog@basicconsole@@UBE_NAAUFarColor@@_N1@Z 0049e6c0 f i console.obj
 0001:0009d6e0       ?GetDelta@basicconsole@@UBEFXZ 0049e6e0 f i console.obj
 0001:0009d720       ??_Gbasicconsole@@UAEPAXI@Z 0049e720 f i console.obj
 0001:0009d720       ??_Ebasicconsole@@UAEPAXI@Z 0049e720 f i console.obj
 0001:0009d780       ?SetSize@basicconsole@@UBE_NU_COORD@@@Z 0049e780 f i console.obj
 0001:0009d8e0       ?PeekInput@basicconsole@@UBE_NPAU_INPUT_RECORD@@IAAI@Z 0049e8e0 f i console.obj
 0001:0009d9b0       ?ReadInput@basicconsole@@UBE_NPAU_INPUT_RECORD@@IAAI@Z 0049e9b0 f i console.obj
 0001:0009da80       ?Write@basicconsole@@UBE_NPB_W@Z 0049ea80 f i console.obj
 0001:0009dab0       ?SetCursorPosition@basicconsole@@UBE_NU_COORD@@@Z 0049eab0 f i console.obj
 0001:0009db60       ?GetLargestWindowSize@basicconsole@@UBE?AU_COORD@@XZ 0049eb60 f i console.obj
 0001:0009dc10       ??0extendedconsole@@QAE@XZ 0049ec10 f i console.obj
 0001:0009dda0       ?Commit@extendedconsole@@UBE_NXZ 0049eda0 f i console.obj
 0001:0009ddc0       ?GetTextAttributes@extendedconsole@@UBE_NAAUFarColor@@@Z 0049edc0 f i console.obj
 0001:0009dde0       ?SetTextAttributes@extendedconsole@@UBE_NABUFarColor@@@Z 0049ede0 f i console.obj
 0001:0009de30       ?ClearExtraRegions@extendedconsole@@UBE_NABUFarColor@@H@Z 0049ee30 f i console.obj
 0001:0009de60       ?GetColorDialog@extendedconsole@@UBE_NAAUFarColor@@_N1@Z 0049ee60 f i console.obj
 0001:0009dea0       ??_Gextendedconsole@@UAEPAXI@Z 0049eea0 f i console.obj
 0001:0009dea0       ??_Eextendedconsole@@UAEPAXI@Z 0049eea0 f i console.obj
 0001:0009df20       ?CreateInstance@console@@SAPAV1@_N@Z 0049ef20 f   console.obj
 0001:0009dfd0       ?SetTitle@basicconsole@@UBE_NABVUnicodeString@@@Z 0049efd0 f i console.obj
 0001:0009dff0       ?Write@basicconsole@@UBE_NABVUnicodeString@@@Z 0049eff0 f i console.obj
 0001:0009e010       ??$_Uninit_def_fill_n@PAU_CHAR_INFO@@IU1@V?$allocator@U_CHAR_INFO@@@std@@U1@@std@@YAXPAU_CHAR_INFO@@IPBU1@AAV?$allocator@U_CHAR_INFO@@@0@0U_Nonscalar_ptr_iterator_tag@0@@Z 0049f010 f i console.obj
 0001:0009e090       ?GetTitle@basicconsole@@UBE_NAAVUnicodeString@@@Z 0049f090 f i console.obj
 0001:0009e120       ?reserve@?$vector@U_CHAR_INFO@@V?$allocator@U_CHAR_INFO@@@std@@@std@@QAEXI@Z 0049f120 f i console.obj
 0001:0009e1f0       ?_Reserve@?$vector@U_CHAR_INFO@@V?$allocator@U_CHAR_INFO@@@std@@@std@@IAEXI@Z 0049f1f0 f i console.obj
 0001:0009e250       ?resize@?$vector@U_CHAR_INFO@@V?$allocator@U_CHAR_INFO@@@std@@@std@@QAEXI@Z 0049f250 f i console.obj
 0001:0009e2e0       ?ReadOutput@basicconsole@@UBE_NPAUFAR_CHAR_INFO@@U_COORD@@1AAU_SMALL_RECT@@@Z 0049f2e0 f i console.obj
 0001:0009e540       ?WriteOutput@basicconsole@@UBE_NPBUFAR_CHAR_INFO@@U_COORD@@1AAU_SMALL_RECT@@@Z 0049f540 f i console.obj
 0001:0009e790       ?ReadOutput@extendedconsole@@UBE_NPAUFAR_CHAR_INFO@@U_COORD@@1AAU_SMALL_RECT@@@Z 0049f790 f i console.obj
 0001:0009e7d0       ?WriteOutput@extendedconsole@@UBE_NPBUFAR_CHAR_INFO@@U_COORD@@1AAU_SMALL_RECT@@@Z 0049f7d0 f i console.obj
 0001:0009e810       ??0ConsoleTitle@@QAE@XZ    0049f810 f   constitle.obj
 0001:0009ef50       ?SetFarTitle@ConsoleTitle@@SAXABVUnicodeString@@@Z 0049ff50 f   constitle.obj
 0001:0009f160       ?RestoreTitle@ConsoleTitle@@SAXXZ 004a0160 f   constitle.obj
 0001:0009f1a0       ??0ConsoleTitle@@QAE@ABVUnicodeString@@@Z 004a01a0 f   constitle.obj
 0001:0009f280       ??1ConsoleTitle@@UAE@XZ    004a0280 f   constitle.obj
 0001:0009f3d0       ?Flush@ConsoleTitle@@EAEAAVBaseFormat@@XZ 004a03d0 f   constitle.obj
 0001:0009f400       ??_EConsoleTitle@@UAEPAXI@Z 004a0400 f i constitle.obj
 0001:0009f400       ??_GConsoleTitle@@UAEPAXI@Z 004a0400 f i constitle.obj
 0001:0009f430       ?DrawNames@CopyProgress@@AAEXXZ 004a0430 f   copy.obj
 0001:0009f4e0       ?GetParentFolder@@YAAAVUnicodeString@@ABV1@AAV1@@Z 004a04e0 f   copy.obj
 0001:0009f510       ?CheckAndUpdateConsole@@YAHH@Z 004a0510 f   copy.obj
 0001:0009f5c0       ?StrCmp@@YAHPB_W0@Z        004a05c0 f i copy.obj
 0001:0009f5f0       ??$?6VFormatString@@@FormatString@@QAEAAV0@ABV0@@Z 004a05f0 f i copy.obj
 0001:0009f620       ??1wakeful@@QAE@XZ         004a0620 f i copy.obj
 0001:0009f630       ?Flush@CopyProgress@@AAEXXZ 004a0630 f   copy.obj
 0001:0009f780       ??4LangString@@QAEAAV0@ABV0@@Z 004a0780 f i copy.obj
 0001:0009f7d0       ?Clear@FAR_FIND_DATA@@QAEXXZ 004a07d0 f i copy.obj
 0001:0009f820       ?StrCmpI@@YAHABVUnicodeString@@0@Z 004a0820 f i copy.obj
 0001:0009f850       ?PointToName@@YAPB_WABVUnicodeString@@@Z 004a0850 f i copy.obj
 0001:0009f870       ?PointToExt@@YAPB_WABVUnicodeString@@@Z 004a0870 f i copy.obj
 0001:0009f890       ??0FAR_FIND_DATA@@QAE@ABU0@@Z 004a0890 f i copy.obj
 0001:0009f990       ??0LangString@@QAE@XZ      004a0990 f i copy.obj
 0001:0009fa10       ?ShellSetAttr@ShellCopy@@AAE_NABVUnicodeString@@K@Z 004a0a10 f   copy.obj
 0001:0009fc80       ?_Growmap@?$deque@UPreRedrawItem@@V?$allocator@UPreRedrawItem@@@std@@@std@@IAEXI@Z 004a0c80 f i copy.obj
 0001:0009fdc0       ?_Splice_same@?$list@VUnicodeString@@V?$allocator@VUnicodeString@@@std@@@std@@QAEXV?$_List_const_iterator@V?$_List_val@VUnicodeString@@V?$allocator@VUnicodeString@@@std@@@std@@@2@AAV12@00I@Z 004a0dc0 f i copy.obj
 0001:0009fdc0       ?_Splice_same@?$list@_KV?$allocator@_K@std@@@std@@QAEXV?$_List_const_iterator@V?$_List_val@_KV?$allocator@_K@std@@@std@@@2@AAV12@00I@Z 004a0dc0 f i dirinfo.obj
 0001:0009fe40       ??1?$unique_ptr@VFindFile@@U?$default_delete@VFindFile@@@std@@@std@@QAE@XZ 004a0e40 f i copy.obj
 0001:000a0000       ??0CopyProgress@@QAE@_N00@Z 004a1000 f   copy.obj
 0001:000a0200       ?CmpFullNames@@YAHABVUnicodeString@@0@Z 004a1200 f   copy.obj
 0001:000a0330       ?CmpFullPath@@YAHABVUnicodeString@@0@Z 004a1330 f   copy.obj
 0001:000a0490       ??1CopyProgress@@QAE@XZ    004a1490 f i copy.obj
 0001:000a0680       ?SetDestDizPath@ShellCopy@@AAEXABVUnicodeString@@@Z 004a1680 f   copy.obj
 0001:000a0720       ??_GFormatString@@UAEPAXI@Z 004a1720 f i codepage.obj
 0001:000a0720       ??_GLangString@@UAEPAXI@Z  004a1720 f i copy.obj
 0001:000a0720       ??_ELangString@@UAEPAXI@Z  004a1720 f i copy.obj
 0001:000a0720       ??_EFormatString@@UAEPAXI@Z 004a1720 f i codepage.obj
 0001:000a07c0       ?GetSecurity@ShellCopy@@AAEHABVUnicodeString@@AAV?$block_ptr@U_SECURITY_DESCRIPTOR@@@@@Z 004a17c0 f   copy.obj
 0001:000a09c0       ?SetSecurity@ShellCopy@@AAEHABVUnicodeString@@ABV?$block_ptr@U_SECURITY_DESCRIPTOR@@@@@Z 004a19c0 f   copy.obj
 0001:000a0bc0       ?push_back@?$deque@UPreRedrawItem@@V?$allocator@UPreRedrawItem@@@std@@@std@@QAEXABUPreRedrawItem@@@Z 004a1bc0 f i copy.obj
 0001:000a0ca0       ??1ScanTreeData@@QAE@XZ    004a1ca0 f i copy.obj
 0001:000a0d40       ?CreateScanBackground@CopyProgress@@AAEXXZ 004a1d40 f   copy.obj
 0001:000a0ee0       ?CreateBackground@CopyProgress@@QAEXXZ 004a1ee0 f   copy.obj
 0001:000a1380       ?SetNames@CopyProgress@@QAEXABVUnicodeString@@0@Z 004a2380 f   copy.obj
 0001:000a1690       ?SetProgress@CopyProgress@@AAEX_N_K1@Z 004a2690 f   copy.obj
 0001:000a2070       ?CheckNulOrCon@@YA_NPB_W@Z 004a3070 f   copy.obj
 0001:000a2400       ?DeleteAfterMove@ShellCopy@@AAEHABVUnicodeString@@K@Z 004a3400 f   copy.obj
 0001:000a27f0       ?WarnDlgProc@ShellCopy@@AAEHPAVDialog@@HHPAX@Z 004a37f0 f   copy.obj
 0001:000a2be0       ?SetTotalProgressValue@CopyProgress@@QAEX_K0@Z 004a3be0 f i copy.obj
 0001:000a2c00       ??1FileWalker@@QAE@XZ      004a3c00 f i copy.obj
 0001:000a2c90       ?top@TPreRedrawFunc@@QAEAAUPreRedrawItem@@XZ 004a3c90 f i copy.obj
 0001:000a2c90       ?top@?$stack@UStackHelpData@Help@@V?$deque@UStackHelpData@Help@@V?$allocator@UStackHelpData@Help@@@std@@@std@@@std@@QAEAAUStackHelpData@Help@@XZ 004a3c90 f i help.obj
 0001:000a2ce0       ?PR_ShellCopyMsg@@YAXXZ    004a3ce0 f   copy.obj
 0001:000a2d40       ?ShellCopySecuryMsg@@YAHABVUnicodeString@@@Z 004a3d40 f   copy.obj
 0001:000a3150       ?CalcTotalSize@ShellCopy@@AAE_NXZ 004a4150 f   copy.obj
 0001:000a35e0       ?ShellSystemCopy@ShellCopy@@AAEHABVUnicodeString@@0ABUFAR_FIND_DATA@@@Z 004a45e0 f   copy.obj
 0001:000a3730       ?erase@?$list@VUnicodeString@@V?$allocator@VUnicodeString@@@std@@@std@@QAE?AV?$_List_iterator@V?$_List_val@VUnicodeString@@V?$allocator@VUnicodeString@@@std@@@std@@@2@V?$_List_const_iterator@V?$_List_val@VUnicodeString@@V?$allocator@VUnicodeString@@@std@@@std@@@2@@Z 004a4730 f i copy.obj
 0001:000a37e0       ??1?$unique_ptr@UScanTreeData@@U?$default_delete@UScanTreeData@@@std@@@std@@QAE@XZ 004a47e0 f i copy.obj
 0001:000a3800       ?CopyDlgProc@ShellCopy@@AAEHPAVDialog@@HHPAX@Z 004a4800 f   copy.obj
 0001:000a3da0       ??1ShellCopy@@QAE@XZ       004a4da0 f   copy.obj
 0001:000a4090       ??4?$list@VUnicodeString@@V?$allocator@VUnicodeString@@@std@@@std@@QAEAAV01@$$QAV01@@Z 004a5090 f i copy.obj
 0001:000a40e0       ?clear@?$list@V?$unique_ptr@UScanTreeData@@U?$default_delete@UScanTreeData@@@std@@@std@@V?$allocator@V?$unique_ptr@UScanTreeData@@U?$default_delete@UScanTreeData@@@std@@@std@@@2@@std@@QAEXXZ 004a50e0 f i copy.obj
 0001:000a4170       ??1?$list@V?$unique_ptr@UScanTreeData@@U?$default_delete@UScanTreeData@@@std@@@std@@V?$allocator@V?$unique_ptr@UScanTreeData@@U?$default_delete@UScanTreeData@@@std@@@std@@@2@@std@@QAE@XZ 004a5170 f i copy.obj
 0001:000a41d0       ??1ScanTree@@QAE@XZ        004a51d0 f i copy.obj
 0001:000a42c0       ?SetRecursiveSecurity@ShellCopy@@AAEHABVUnicodeString@@ABV?$block_ptr@U_SECURITY_DESCRIPTOR@@@@@Z 004a52c0 f   copy.obj
 0001:000a4480       ??$MakeDialogItemsEx@$0BF@@@YA?AV?$vector@UDialogItemEx@@V?$allocator@UDialogItemEx@@@std@@@std@@AAY0BF@$$CBUFarDialogItem@@@Z 004a5480 f i copy.obj
 0001:000a44f0       ??$MakeDialogItemsEx@$0O@@@YA?AV?$vector@UDialogItemEx@@V?$allocator@UDialogItemEx@@@std@@@std@@AAY0O@$$CBUFarDialogItem@@@Z 004a54f0 f i copy.obj
 0001:000a4560       ?AskOverwrite@ShellCopy@@AAEHABUFAR_FIND_DATA@@ABVUnicodeString@@1KHHHAAHAAV3@2@Z 004a5560 f   copy.obj
 0001:000a5c40       ?ShellCopyFile@ShellCopy@@AAEHABVUnicodeString@@ABUFAR_FIND_DATA@@AAV2@AAKH@Z 004a6c40 f   copy.obj
 0001:000a73b0       ?ShellCopyOneFile@ShellCopy@@AAE?AW4COPY_CODES@@ABVUnicodeString@@ABUFAR_FIND_DATA@@AAV3@HH@Z 004a83b0 f   copy.obj
 0001:000a91e0       ?CopyFileTree@ShellCopy@@AAE?AW4COPY_CODES@@ABVUnicodeString@@@Z 004aa1e0 f   copy.obj
 0001:000aaa10       ??0ShellCopy@@QAE@PAVPanel@@HHHHAAHPB_W_N@Z 004aba10 f   copy.obj
 0001:000ae0c0       ?CreateFilePanels@ControlObject@@QAEXXZ 004af0c0 f   ctrlobj.obj
 0001:000ae130       ?Cp@ControlObject@@QAEPAVFilePanels@@XZ 004af130 f   ctrlobj.obj
 0001:000ae140       ??1ControlObject@@QAE@XZ   004af140 f   ctrlobj.obj
 0001:000ae2d0       ??0ControlObject@@QAE@XZ   004af2d0 f   ctrlobj.obj
 0001:000ae5d0       ?ShowCopyright@ControlObject@@SAXK@Z 004af5d0 f   ctrlobj.obj
 0001:000ae810       ?Init@ControlObject@@QAEXH@Z 004af810 f   ctrlobj.obj
 0001:000aeae0       _wmemmove                  004afae0 f i cvtname.obj
 0001:000aeb00       ?MixToFullPath@@YA_NAAVUnicodeString@@@Z 004afb00 f   cvtname.obj
 0001:000aecf0       ?replace@UnicodeString@@QAEAAV1@IIPB_W@Z 004afcf0 f i cvtname.obj
 0001:000aed30       ??0UnicodeString@@QAE@PB_WI@Z 004afd30 f i cvtname.obj
 0001:000aedb0       ?ConvertNameToShort@@YAXABVUnicodeString@@AAV1@@Z 004afdb0 f   cvtname.obj
 0001:000aeee0       ??1?$block_ptr@U_SP_DEVICE_INTERFACE_DETAIL_DATA_W@@@@QAE@XZ 004afee0 f i hotplug.obj
 0001:000aeee0       ??1?$block_ptr@U_OBJECT_NAME_INFORMATION@@@@QAE@XZ 004afee0 f i farwinapi.obj
 0001:000aeee0       ??1?$block_ptr@U_REPARSE_DATA_BUFFER@@@@QAE@XZ 004afee0 f i flink.obj
 0001:000aeee0       ??1?$block_ptr@U_SECURITY_DESCRIPTOR@@@@QAE@XZ 004afee0 f i copy.obj
 0001:000aeee0       ??1?$block_ptr@UEditorBookmarks@@@@QAE@XZ 004afee0 f i PluginA.obj
 0001:000aeee0       ??1?$block_ptr@U_UNIVERSAL_NAME_INFOW@@@@QAE@XZ 004afee0 f i cvtname.obj
 0001:000aeee0       ??1Utf8String@@QAE@XZ      004afee0 f i configdb.obj
 0001:000aeee0       ??1?$block_ptr@U_TOKEN_PRIVILEGES@@@@QAE@XZ 004afee0 f i privilege.obj
 0001:000aeee0       ??1?$block_ptr@U_STORAGE_DEPENDENCY_INFO@@@@QAE@XZ 004afee0 f i flink.obj
 0001:000aeee0       ??1?$block_ptr@U_PRINTER_INFO_4W@@@@QAE@XZ 004afee0 f i print.obj
 0001:000aeee0       ??1?$block_ptr@UFarPanelDirectory@@@@QAE@XZ 004afee0 f i PluginA.obj
 0001:000aeee0       ??1?$block_ptr@U_SID@@@@QAE@XZ 004afee0 f i fileowner.obj
 0001:000aef30       ?RemoveDots@@YA_NABVUnicodeString@@AAV1@@Z 004aff30 f   cvtname.obj
 0001:000af0f0       ?MixToFullPath@@YA_NABVUnicodeString@@AAV1@0@Z 004b00f0 f   cvtname.obj
 0001:000af3e0       ?ConvertNameToFull@@YAXABVUnicodeString@@AAV1@PB_W@Z 004b03e0 f   cvtname.obj
 0001:000af520       ?ConvertNameToLong@@YAXABVUnicodeString@@AAV1@@Z 004b0520 f   cvtname.obj
 0001:000af670       ?PrepareDiskPath@@YAAAVUnicodeString@@AAV1@_N@Z 004b0670 f   cvtname.obj
 0001:000afab0       ?TryConvertVolumeGuidToDrivePath@@YA?AVUnicodeString@@ABV1@@Z 004b0ab0 f   cvtname.obj
 0001:000afe80       ?ConvertNameToReal@@YAXABVUnicodeString@@AAV1@@Z 004b0e80 f   cvtname.obj
 0001:000b0190       ?ConvertNameToUNC@@YAXAAVUnicodeString@@@Z 004b1190 f   cvtname.obj
 0001:000b0400       ?ConvertYearToFull@@YAKK@Z 004b1400 f   datetime.obj
 0001:000b0460       ?GetDateFormatW@@YAHXZ     004b1460 f   datetime.obj
 0001:000b0490       ?GetDateSeparator@@YA_WXZ  004b1490 f   datetime.obj
 0001:000b04d0       ?GetTimeSeparator@@YA_WXZ  004b14d0 f   datetime.obj
 0001:000b0690       ?Utc2Local@@YA_NABU_FILETIME@@AAU_SYSTEMTIME@@@Z 004b1690 f   datetime.obj
 0001:000b0840       ?Local2Utc@@YA_NABU_SYSTEMTIME@@AAU_FILETIME@@@Z 004b1840 f   datetime.obj
 0001:000b08a0       ??1loc_names@@QAE@XZ       004b18a0 f i datetime.obj
 0001:000b0940       ?GetFileDateAndTime@@YAXABVUnicodeString@@PAGIH@Z 004b1940 f   datetime.obj
 0001:000b0a60       ?StrToDateTime@@YAXABVUnicodeString@@0AAU_FILETIME@@H_W2_N@Z 004b1a60 f   datetime.obj
 0001:000b0c90       ?ConvertRelativeDate@@YAXABU_FILETIME@@AAVUnicodeString@@1@Z 004b1c90 f   datetime.obj
 0001:000b10f0       ?ConvertDate@@YAXABU_FILETIME@@AAVUnicodeString@@1HHHHH@Z 004b20f0 f   datetime.obj
 0001:000b1960       ?GetNames@@YAAAV?$array@Uloc_names@@$01@tr1@std@@XZ 004b2960 f   datetime.obj
 0001:000b1f30       ??$_For_each@PAUloc_names@@V<lambda1>@?A0xde2363fb@@@std@@YA?AV<lambda1>@?A0xde2363fb@@PAUloc_names@@0V12@@Z 004b2f30 f i datetime.obj
 0001:000b21b0       ?PrepareStrFTime@@YAXXZ    004b31b0 f   datetime.obj
 0001:000b2200       ?StrFTime@@YAIAAVUnicodeString@@PB_WPBUtm@@@Z 004b3200 f   datetime.obj
 0001:000b2b90       ?MkStrFTime@@YAIAAVUnicodeString@@PB_W@Z 004b3b90 f   datetime.obj
 0001:000b2d80       ??$_Fill@Vus_iterator@UnicodeString@@_W@std@@YAXVus_iterator@UnicodeString@@0AB_W@Z 004b3d80 f i delete.obj
 0001:000b2fa0       ?DeleteFileWithFolder@@YA_NABVUnicodeString@@@Z 004b3fa0 f   delete.obj
 0001:000b3090       ??$fill@Vus_iterator@UnicodeString@@_W@std@@YAXVus_iterator@UnicodeString@@0AB_W@Z 004b4090 f i delete.obj
 0001:000b30d0       ??1TPreRedrawFuncGuard@@QAE@XZ 004b40d0 f i delete.obj
 0001:000b30f0       ?AskDeleteReadOnly@ShellDelete@@AAE?AW4DEL_RESULT@@ABVUnicodeString@@K_N@Z 004b40f0 f   delete.obj
 0001:000b3320       ?ERemoveDirectory@ShellDelete@@AAE?AW4DEL_RESULT@@ABVUnicodeString@@W4DIRDELTYPE@@@Z 004b4320 f   delete.obj
 0001:000b35d0       ??0TPreRedrawFuncGuard@@QAE@P6AXXZ@Z 004b45d0 f i delete.obj
 0001:000b3ef0       ?RemoveToRecycleBin@ShellDelete@@AAE_NABVUnicodeString@@_NAAW4DEL_RESULT@@@Z 004b4ef0 f   delete.obj
 0001:000b4380       ?DeleteDirTree@@YAXABVUnicodeString@@@Z 004b5380 f   delete.obj
 0001:000b4570       ?ShellRemoveFile@ShellDelete@@AAE?AW4DEL_RESULT@@ABVUnicodeString@@_NHPAVConsoleTitle@@@Z 004b5570 f   delete.obj
 0001:000b4a20       ??0ShellDelete@@QAE@PAVPanel@@_N@Z 004b5a20 f   delete.obj
 0001:000b6090       ?ProcessKey@Dialog@@AAEXHI@Z 004b7090 f   dialog.obj
 0001:000b6100       ?GetMacroMode@Dialog@@UAE?AW4FARMACROAREA@@XZ 004b7100 f   dialog.obj
 0001:000b6100       ?GetType@VMenu2@@UAEHXZ    004b7100 f   vmenu2.obj
 0001:000b6110       ?FastHide@FolderTree@@UAEHXZ 004b7110 f   foldtree.obj
 0001:000b6110       ?FastHide@Dialog@@UAEHXZ   004b7110 f   dialog.obj
 0001:000b6130       ?SetId@Dialog@@QAEXABU_GUID@@@Z 004b7130 f   dialog.obj
 0001:000b6170       ?PluginDialogProc@@YAHPAVDialog@@HHPAX@Z 004b7170 f   dialog.obj
 0001:000b6190       ??0?$TaskBarState@$03@@QAE@XZ 004b7190 f i dialog.obj
 0001:000b6200       ??$CheckStructSize@UDialogInfo@@@@YA_NPBUDialogInfo@@@Z 004b7200 f i dialog.obj
 0001:000b6220       ??$CheckStructSize@UFarPanelDirectory@@@@YA_NPBUFarPanelDirectory@@@Z 004b7220 f i panel.obj
 0001:000b6220       ??$CheckStructSize@UEditorSetParameter@@@@YA_NPBUEditorSetParameter@@@Z 004b7220 f i editor.obj
 0001:000b6220       ??$CheckStructSize@UFarSetColors@@@@YA_NPBUFarSetColors@@@Z 004b7220 f i plugapi.obj
 0001:000b6220       ??$CheckStructSize@UFarListUpdate@@@@YA_NPBUFarListUpdate@@@Z 004b7220 f i dialog.obj
 0001:000b6220       ??$CheckStructSize@UFarListGetItem@@@@YA_NPBUFarListGetItem@@@Z 004b7220 f i dialog.obj
 0001:000b6220       ??$CheckStructSize@UFarListInsert@@@@YA_NPBUFarListInsert@@@Z 004b7220 f i dialog.obj
 0001:000b6240       ??$CheckNullOrStructSize@UFarGetDialogItem@@@@YA_NPBUFarGetDialogItem@@@Z 004b7240 f i dialog.obj
 0001:000b6240       ??$CheckNullOrStructSize@UFarListDelete@@@@YA_NPBUFarListDelete@@@Z 004b7240 f i dialog.obj
 0001:000b6240       ??$CheckNullOrStructSize@UFarGetPluginPanelItem@@@@YA_NPBUFarGetPluginPanelItem@@@Z 004b7240 f i panel.obj
 0001:000b6260       ??$_Find_if@PBUDialogItemEx@@V<lambda1>@?A0x80f5db50@@@std@@YAPBUDialogItemEx@@PBU1@0V<lambda1>@?A0x80f5db50@@@Z 004b7260 f i dialog.obj
 0001:000b62a0       ??$_For_each@PBUDialogItemEx@@V<lambda9>@?A0x80f5db50@@@std@@YA?AV<lambda9>@?A0x80f5db50@@PBUDialogItemEx@@0V12@@Z 004b72a0 f i dialog.obj
 0001:000b63b0       ?ChangeFlags@VMenu@@QAEKK_N@Z 004b73b0 f i dialog.obj
 0001:000b63f0       ?CheckDialogCoord@Dialog@@AAEXXZ 004b73f0 f   dialog.obj
 0001:000b64a0       ?Hide@Dialog@@UAEXXZ       004b74a0 f   dialog.obj
 0001:000b6520       ?ProcessRadioButton@Dialog@@AAEII@Z 004b7520 f   dialog.obj
 0001:000b66a0       ?ChangeFocus@Dialog@@AAEIIHH@Z 004b76a0 f   dialog.obj
 0001:000b67c0       ?AddToEditHistory@Dialog@@AAEHPBUDialogItemEx@@ABVUnicodeString@@@Z 004b77c0 f   dialog.obj
 0001:000b6870       ?SetHelp@Dialog@@QAEXABVUnicodeString@@@Z 004b7870 f   dialog.obj
 0001:000b68e0       ?ClearDone@Dialog@@QAEXXZ  004b78e0 f   dialog.obj
 0001:000b6950       ?SetExitCode@Dialog@@UAEXH@Z 004b7950 f   dialog.obj
 0001:000b69c0       ?DlgProc@Dialog@@QAEHHHPAX@Z 004b79c0 f   dialog.obj
 0001:000b6a90       ?SetPosition@Dialog@@UAEXHHHH@Z 004b7a90 f   dialog.obj
 0001:000b6b40       ?IsInited@Dialog@@QAEHXZ   004b7b40 f   dialog.obj
 0001:000b6bb0       ?CalcComboBoxPos@Dialog@@AAEXPAUDialogItemEx@@HAAH111@Z 004b7bb0 f   dialog.obj
 0001:000b6d10       ?SetComboBoxPos@Dialog@@AAEXPAUDialogItemEx@@@Z 004b7d10 f   dialog.obj
 0001:000b6d80       ?ProcessEvents@Dialog@@UAE_NXZ 004b7d80 f   dialog.obj
 0001:000b6d90       ??$_For_each@PBUDialogItemEx@@V<lambda4>@?A0x80f5db50@@@std@@YA?AV<lambda4>@?A0x80f5db50@@PBUDialogItemEx@@0V12@@Z 004b7d90 f i dialog.obj
 0001:000b6e20       ??$_For_each@PBUDialogItemEx@@V<lambda6>@?A0x80f5db50@@@std@@YA?AV<lambda6>@?A0x80f5db50@@PBUDialogItemEx@@0V12@@Z 004b7e20 f i dialog.obj
 0001:000b6f10       ??$_For_each@PAUDialogItemAutomation@@V<lambda11>@?A0x80f5db50@@@std@@YA?AV<lambda11>@?A0x80f5db50@@PAUDialogItemAutomation@@0V12@@Z 004b7f10 f i dialog.obj
 0001:000b6f10       ??$_For_each@PAUDialogItemAutomation@@V<lambda10>@?A0x80f5db50@@@std@@YA?AV<lambda10>@?A0x80f5db50@@PAUDialogItemAutomation@@0V12@@Z 004b7f10 f i dialog.obj
 0001:000b6f80       ?CtlColorDlgItem@Dialog@@AAEHQAUFarColor@@IW4FARDIALOGITEMTYPES@@_N2_K@Z 004b7f80 f   dialog.obj
 0001:000b7b40       ?ChangeFocus2@Dialog@@AAEXI@Z 004b8b40 f   dialog.obj
 0001:000b7e90       ?CheckHighlights@Dialog@@AAEHGH@Z 004b8e90 f   dialog.obj
 0001:000b8080       ??$for_each@V?$_Vector_const_iterator@V?$_Vector_val@UDialogItemEx@@V?$allocator@UDialogItemEx@@@std@@@std@@@std@@V<lambda6>@?A0x80f5db50@@@std@@YA?AV<lambda6>@?A0x80f5db50@@V?$_Vector_const_iterator@V?$_Vector_val@UDialogItemEx@@V?$allocator@UDialogItemEx@@@std@@@std@@@0@0V12@@Z 004b9080 f i dialog.obj
 0001:000b80c0       ??$find_if@V?$_Vector_iterator@V?$_Vector_val@UDialogItemEx@@V?$allocator@UDialogItemEx@@@std@@@std@@@std@@V<lambda5>@?A0x80f5db50@@@std@@YA?AV?$_Vector_iterator@V?$_Vector_val@UDialogItemEx@@V?$allocator@UDialogItemEx@@@std@@@std@@@0@V10@0V<lambda5>@?A0x80f5db50@@@Z 004b90c0 f i dialog.obj
 0001:000b80c0       ??$find_if@V?$_Vector_const_iterator@V?$_Vector_val@UDialogItemEx@@V?$allocator@UDialogItemEx@@@std@@@std@@@std@@V<lambda7>@?A0x80f5db50@@@std@@YA?AV?$_Vector_const_iterator@V?$_Vector_val@UDialogItemEx@@V?$allocator@UDialogItemEx@@@std@@@std@@@0@V10@0V<lambda7>@?A0x80f5db50@@@Z 004b90c0 f i dialog.obj
 0001:000b80f0       ?IsKeyHighlighted@@YA_NABVUnicodeString@@HHH@Z 004b90f0 f   dialog.obj
 0001:000b81f0       ?GetDialogTitle@Dialog@@AAEPB_WXZ 004b91f0 f   dialog.obj
 0001:000b8330       ?ProcessLastHistory@Dialog@@AAEXPAUDialogItemEx@@H@Z 004b9330 f   dialog.obj
 0001:000b83f0       ?GetItemRect@Dialog@@AAEHIAAU_SMALL_RECT@@@Z 004b93f0 f   dialog.obj
 0001:000b8780       ?ItemHasDropDownArrow@Dialog@@ABE_NPBUDialogItemEx@@@Z 004b9780 f   dialog.obj
 0001:000b87e0       ?LenStrItem@Dialog@@AAEHIABVUnicodeString@@@Z 004b97e0 f   dialog.obj
 0001:000b8870       ?SelectFromComboBox@Dialog@@AAEHPAUDialogItemEx@@PAVDlgEdit@@PAVVMenu@@@Z 004b9870 f   dialog.obj
 0001:000b8cf0       ??$_Uninit_move@PAUDialogItemAutomation@@PAU1@V?$allocator@UDialogItemAutomation@@@std@@U1@@std@@YAPAUDialogItemAutomation@@PAU1@00AAV?$allocator@UDialogItemAutomation@@@0@0U_Nonscalar_ptr_iterator_tag@0@@Z 004b9cf0 f i dialog.obj
 0001:000b8cf0       ??$_Uninit_copy@PAUDialogItemAutomation@@PAU1@V?$allocator@UDialogItemAutomation@@@std@@@std@@YAPAUDialogItemAutomation@@PAU1@00AAV?$allocator@UDialogItemAutomation@@@0@U_Nonscalar_ptr_iterator_tag@0@@Z 004b9cf0 f i codepage.obj
 0001:000b8f50       ?LenStrItem@Dialog@@AAEHI@Z 004b9f50 f   dialog.obj
 0001:000b9010       ?GetTypeAndName@Dialog@@UAEHAAVUnicodeString@@0@Z 004ba010 f   dialog.obj
 0001:000b9100       ?DefProc@Dialog@@QAEHHHPAX@Z 004ba100 f   dialog.obj
 0001:000b9530       ??$_For_each@PAUDialogItemEx@@V<lambda3>@?A0x80f5db50@@@std@@YA?AV<lambda3>@?A0x80f5db50@@PAUDialogItemEx@@0V12@@Z 004ba530 f i dialog.obj
 0001:000b9700       ?ItemToItemEx@@YAXPBUFarDialogItem@@PAUDialogItemEx@@I_N@Z 004ba700 f   dialog.obj
 0001:000b9870       ?DefProcFunction@@YAHPAVDialog@@HHPAX@Z 004ba870 f   dialog.obj
 0001:000b9890       ?Init@Dialog@@AAEXPAVDialogOwner@@P82@AEHPAV1@HHPAX@ZP6AH1HH2@Z2@Z 004ba890 f   dialog.obj
 0001:000b99a0       ?ProcessCenterGroup@Dialog@@AAEXXZ 004ba9a0 f   dialog.obj
 0001:000b9ba0       ?InitDialogObjects@Dialog@@IAEII@Z 004baba0 f   dialog.obj
 0001:000ba950       ?ShowDialog@Dialog@@AAEXI@Z 004bb950 f   dialog.obj
 0001:000bc000       ?Do_ProcessFirstCtrl@Dialog@@AAEHXZ 004bd000 f   dialog.obj
 0001:000bc110       ?Do_ProcessNextCtrl@Dialog@@AAEH_N0@Z 004bd110 f   dialog.obj
 0001:000bc2d0       ?Do_ProcessTab@Dialog@@AAEHH@Z 004bd2d0 f   dialog.obj
 0001:000bc450       ?AdjustEditPos@Dialog@@QAEXHH@Z 004bd450 f   dialog.obj
 0001:000bc520       ??$_Umove@PAUDialogItemAutomation@@@?$vector@UDialogItemAutomation@@V?$allocator@UDialogItemAutomation@@@std@@@std@@IAEPAUDialogItemAutomation@@PAU2@00@Z 004bd520 f i dialog.obj
 0001:000bc5f0       ?InitDialog@Dialog@@QAEXXZ 004bd5f0 f   dialog.obj
 0001:000bc6f0       ?DisplayObject@Dialog@@EAEXXZ 004bd6f0 f   dialog.obj
 0001:000bc780       ?SetItemRect@Dialog@@AAEHIPBU_SMALL_RECT@@@Z 004bd780 f   dialog.obj
 0001:000bca10       ?ProcessMoveDialog@Dialog@@AAEHK@Z 004bda10 f   dialog.obj
 0001:000bcfb0       ?CloseDialog@Dialog@@QAEHXZ 004bdfb0 f   dialog.obj
 0001:000bd0b0       ?reserve@?$vector@UDialogItemAutomation@@V?$allocator@UDialogItemAutomation@@@std@@@std@@QAEXI@Z 004be0b0 f i dialog.obj
 0001:000bd1b0       ?Show@Dialog@@UAEXXZ       004be1b0 f   dialog.obj
 0001:000bd270       ?_Reserve@?$vector@UDialogItemAutomation@@V?$allocator@UDialogItemAutomation@@@std@@@std@@IAEXI@Z 004be270 f i dialog.obj
 0001:000bd2f0       ??$_Cons_val@V?$allocator@UDialogItemEx@@@std@@UDialogItemEx@@AAU3@@std@@YAXAAV?$allocator@UDialogItemEx@@@0@PAUDialogItemEx@@AAU2@@Z 004be2f0 f i dialog.obj
 0001:000bd2f0       ??$_Cons_val@V?$allocator@UDialogItemEx@@@std@@UDialogItemEx@@U3@@std@@YAXAAV?$allocator@UDialogItemEx@@@0@PAUDialogItemEx@@$$QAU2@@Z 004be2f0 f i codepage.obj
 0001:000bd350       ?push_back@?$vector@UDialogItemAutomation@@V?$allocator@UDialogItemAutomation@@@std@@@std@@QAEXABUDialogItemAutomation@@@Z 004be350 f i dialog.obj
 0001:000bd420       ??$_For_each@PAUDialogItemEx@@V<lambda2>@?A0x80f5db50@@@std@@YA?AV<lambda2>@?A0x80f5db50@@PAUDialogItemEx@@0V12@@Z 004be420 f i dialog.obj
 0001:000bd600       ?AddAutomation@DialogItemEx@@QAE_NH_K00000@Z 004be600 f i dialog.obj
 0001:000bd680       ?SetAutomation@Dialog@@QAEHGG_K00000@Z 004be680 f   dialog.obj
 0001:000bd770       ?Process@Dialog@@QAEXXZ    004be770 f   dialog.obj
 0001:000bd920       ??$_Ucopy@PAUDialogItemEx@@@?$vector@UDialogItemEx@@V?$allocator@UDialogItemEx@@@std@@@std@@IAEPAUDialogItemEx@@PAU2@00@Z 004be920 f i dialog.obj
 0001:000bd950       ??$_Rotate@PAUDialogItemEx@@HU1@@std@@YAXPAUDialogItemEx@@00PAH0@Z 004be950 f i dialog.obj
 0001:000bdaf0       ??$rotate@PAUDialogItemEx@@@std@@YAPAUDialogItemEx@@PAU1@00@Z 004beaf0 f i dialog.obj
 0001:000bdb50       ??$_Insert@PAUDialogItemEx@@@?$vector@UDialogItemEx@@V?$allocator@UDialogItemEx@@@std@@@std@@QAEXV?$_Vector_const_iterator@V?$_Vector_val@UDialogItemEx@@V?$allocator@UDialogItemEx@@@std@@@std@@@1@PAUDialogItemEx@@1Uforward_iterator_tag@1@@Z 004beb50 f i dialog.obj
 0001:000bdd30       ??1Dialog@@UAE@XZ          004bed30 f   dialog.obj
 0001:000bdef0       ?Construct@Dialog@@AAEXPBQBUFarDialogItem@@IPAVDialogOwner@@P83@AEHPAV1@HHPAX@ZP6AH2HH3@Z3@Z 004beef0 f   dialog.obj
 0001:000bdf50       ?SelectFromEditHistory@Dialog@@AAEHPBUDialogItemEx@@PAVDlgEdit@@ABVUnicodeString@@AAV4@@Z 004bef50 f   dialog.obj
 0001:000be210       ??$_Assign@PAUDialogItemEx@@@?$vector@UDialogItemEx@@V?$allocator@UDialogItemEx@@@std@@@std@@QAEXPAUDialogItemEx@@0Uinput_iterator_tag@1@@Z 004bf210 f i dialog.obj
 0001:000be280       ?ProcessOpenComboBox@Dialog@@AAEHW4FARDIALOGITEMTYPES@@PAUDialogItemEx@@I@Z 004bf280 f   dialog.obj
 0001:000be460       ?SendMessageW@Dialog@@QAEHHHPAX@Z 004bf460 f   dialog.obj
 0001:000c0760       ?Construct@Dialog@@AAEXPAPAUDialogItemEx@@IPAVDialogOwner@@P83@AEHPAV1@HHPAX@ZP6AH2HH3@Z3@Z 004c1760 f   dialog.obj
 0001:000c07c0       ?VMProcess@Dialog@@UAE_JHPAX_J@Z 004c17c0 f   dialog.obj
 0001:000c0e70       ?ProcessMouse@Dialog@@UAEHPBU_MOUSE_EVENT_RECORD@@@Z 004c1e70 f   dialog.obj
 0001:000c1c00       ?Do_ProcessSpace@Dialog@@AAEHXZ 004c2c00 f   dialog.obj
 0001:000c1d50       ?ProcessHighlighting@Dialog@@AAEHHIH@Z 004c2d50 f   dialog.obj
 0001:000c20d0       ?ResizeConsole@Dialog@@UAEXXZ 004c30d0 f   dialog.obj
 0001:000c2250       ?ProcessKey@Dialog@@UAEHH@Z 004c3250 f   dialog.obj
 0001:000c3a40       ??$_For_each@PAUPluginPanelItem@@V<lambda1>@?A0xe0d015c0@@@std@@YA?AV<lambda1>@?A0xe0d015c0@@PAUPluginPanelItem@@0V12@@Z 004c4a40 f i dirinfo.obj
 0001:000c3ab0       ??R?$hash@_K@std@@QBEIAB_K@Z 004c4ab0 f i dirinfo.obj
 0001:000c3b20       ?allocate@?$allocator@UPluginPanelItem@@@std@@QAEPAUPluginPanelItem@@I@Z 004c4b20 f i dirinfo.obj
 0001:000c3bb0       ??$_Cons_val@V?$allocator@UPluginPanelItem@@@std@@UPluginPanelItem@@U3@@std@@YAXAAV?$allocator@UPluginPanelItem@@@0@PAUPluginPanelItem@@$$QAU2@@Z 004c4bb0 f i dirinfo.obj
 0001:000c3c10       ??$fill@PAV?$_List_iterator@V?$_List_val@U?$pair@$$CBU_GUID@@V?$unique_ptr@VPlugin@@U?$default_delete@VPlugin@@@std@@@std@@@std@@V?$allocator@U?$pair@$$CBU_GUID@@V?$unique_ptr@VPlugin@@U?$default_delete@VPlugin@@@std@@@std@@@std@@@2@@std@@@std@@V12@@std@@YAXPAV?$_List_iterator@V?$_List_val@U?$pair@$$CBU_GUID@@V?$unique_ptr@VPlugin@@U?$default_delete@VPlugin@@@std@@@std@@@std@@V?$allocator@U?$pair@$$CBU_GUID@@V?$unique_ptr@VPlugin@@U?$default_delete@VPlugin@@@std@@@std@@@std@@@2@@std@@@0@0ABV10@@Z 004c4c10 f i plugins.obj
 0001:000c3c10       ??$fill@PAV?$_List_const_iterator@V?$_List_val@_KV?$allocator@_K@std@@@std@@@std@@V12@@std@@YAXPAV?$_List_const_iterator@V?$_List_val@_KV?$allocator@_K@std@@@std@@@0@0ABV10@@Z 004c4c10 f i dirinfo.obj
 0001:000c3c10       ??$fill@PAV?$_List_const_iterator@V?$_List_val@PAVPlugin@@V?$allocator@PAVPlugin@@@std@@@std@@@std@@V12@@std@@YAXPAV?$_List_const_iterator@V?$_List_val@PAVPlugin@@V?$allocator@PAVPlugin@@@std@@@std@@@0@0ABV10@@Z 004c4c10 f i flplugin.obj
 0001:000c3c10       ??$fill@PAV?$_List_const_iterator@V?$_List_val@UFarColor@@V?$allocator@UFarColor@@@std@@@std@@@std@@V12@@std@@YAXPAV?$_List_const_iterator@V?$_List_val@UFarColor@@V?$allocator@UFarColor@@@std@@@std@@@0@0ABV10@@Z 004c4c10 f i edit.obj
 0001:000c3c10       ??$fill@PAV?$_List_const_iterator@V?$_List_val@U_GUID@@V?$allocator@U_GUID@@@std@@@std@@@std@@V12@@std@@YAXPAV?$_List_const_iterator@V?$_List_val@U_GUID@@V?$allocator@U_GUID@@@std@@@std@@@0@0ABV10@@Z 004c4c10 f i edit.obj
 0001:000c3c10       ??$fill@PAHH@std@@YAXPAH0ABH@Z 004c4c10 f i treelist.obj
 0001:000c3c30       ??$_Buynode@AAUPluginHandle@@@?$_List_val@UPluginHandle@@V?$allocator@UPluginHandle@@@std@@@std@@QAEPAU_Node@?$_List_nod@UPluginHandle@@V?$allocator@UPluginHandle@@@std@@@1@PAU231@0AAUPluginHandle@@@Z 004c4c30 f i plugins.obj
 0001:000c3c30       ??$_Buynode@U?$pair@HH@std@@@?$_List_val@U?$pair@HH@std@@V?$allocator@U?$pair@HH@std@@@2@@std@@QAEPAU_Node@?$_List_nod@U?$pair@HH@std@@V?$allocator@U?$pair@HH@std@@@2@@1@PAU231@0$$QAU?$pair@HH@1@@Z 004c4c30 f i editor.obj
 0001:000c3c30       ??$_Buynode@AAU_SMALL_RECT@@@?$_List_val@U_SMALL_RECT@@V?$allocator@U_SMALL_RECT@@@std@@@std@@QAEPAU_Node@?$_List_nod@U_SMALL_RECT@@V?$allocator@U_SMALL_RECT@@@std@@@1@PAU231@0AAU_SMALL_RECT@@@Z 004c4c30 f i scrbuf.obj
 0001:000c3c30       ??$_Buynode@AA_K@?$_List_val@_KV?$allocator@_K@std@@@std@@QAEPAU_Node@?$_List_nod@_KV?$allocator@_K@std@@@1@PAU231@0AA_K@Z 004c4c30 f i dirinfo.obj
 0001:000c3d00       ??$_Find_end@PB_WPB_WHH@std@@YAPB_WPB_W000PAH1@Z 004c4d00 f i dirinfo.obj
 0001:000c3d70       ??$_Uninit_move@PAUPluginPanelItem@@PAU1@V?$allocator@UPluginPanelItem@@@std@@U1@@std@@YAPAUPluginPanelItem@@PAU1@00AAV?$allocator@UPluginPanelItem@@@0@0U_Nonscalar_ptr_iterator_tag@0@@Z 004c4d70 f i dirinfo.obj
 0001:000c3e00       ?rfind@UnicodeString@@QBEI_WI@Z 004c4e00 f i dirinfo.obj
 0001:000c3e60       ??$_Umove@PAUPluginPanelItem@@@?$vector@UPluginPanelItem@@V?$allocator@UPluginPanelItem@@@std@@@std@@IAEPAUPluginPanelItem@@PAU2@00@Z 004c4e60 f i dirinfo.obj
 0001:000c3e90       ?reserve@?$vector@UPluginPanelItem@@V?$allocator@UPluginPanelItem@@@std@@@std@@QAEXI@Z 004c4e90 f i dirinfo.obj
 0001:000c3f80       ?_Reserve@?$vector@UPluginPanelItem@@V?$allocator@UPluginPanelItem@@@std@@@std@@IAEXI@Z 004c4f80 f i dirinfo.obj
 0001:000c4b90       ?push_back@?$vector@UPluginPanelItem@@V?$allocator@UPluginPanelItem@@@std@@@std@@QAEX$$QAUPluginPanelItem@@@Z 004c5b90 f i dirinfo.obj
 0001:000c4c50       ?FreePluginDirList@@YAXPAXPBUPluginPanelItem@@@Z 004c5c50 f   dirinfo.obj
 0001:000c4cb0       ?GetPluginDirList@@YAHPAVPlugin@@PAXABVUnicodeString@@PAPAUPluginPanelItem@@PAI@Z 004c5cb0 f   dirinfo.obj
 0001:000c5200       ?GetPluginDirInfo@@YAHPAXABVUnicodeString@@AAK2AA_K3@Z 004c6200 f   dirinfo.obj
 0001:000c5300       ?_Check_size@?$_Hash@V?$_Uset_traits@_KV?$_Hash_compare@_KV?$hash@_K@std@@U?$equal_to@_K@2@@std@@V?$allocator@_K@2@$0A@@tr1@std@@@std@@IAEXXZ 004c6300 f i dirinfo.obj
 0001:000c53b0       ??0?$_Hash@V?$_Uset_traits@_KV?$_Hash_compare@_KV?$hash@_K@std@@U?$equal_to@_K@2@@std@@V?$allocator@_K@2@$0A@@tr1@std@@@std@@QAE@ABV?$_Hash_compare@_KV?$hash@_K@std@@U?$equal_to@_K@2@@1@ABV?$allocator@_K@1@@Z 004c63b0 f i dirinfo.obj
 0001:000c54c0       ?_Insert@?$_Hash@V?$_Uset_traits@_KV?$_Hash_compare@_KV?$hash@_K@std@@U?$equal_to@_K@2@@std@@V?$allocator@_K@2@$0A@@tr1@std@@@std@@IAE?AU?$pair@V?$_List_const_iterator@V?$_List_val@_KV?$allocator@_K@std@@@std@@@std@@_N@2@AB_KV?$_List_const_iterator@V?$_List_val@_KV?$allocator@_K@std@@@std@@@2@@Z 004c64c0 f i dirinfo.obj
 0001:000c5600       ?_Reinsert@?$_Hash@V?$_Uset_traits@_KV?$_Hash_compare@_KV?$hash@_K@std@@U?$equal_to@_K@2@@std@@V?$allocator@_K@2@$0A@@tr1@std@@@std@@IAEXV?$_List_const_iterator@V?$_List_val@_KV?$allocator@_K@std@@@std@@@2@@Z 004c6600 f i dirinfo.obj
 0001:000c5650       ?GetDirInfo@@YAHPB_WABVUnicodeString@@AAUDirInfoData@@JPAVFileFilter@@K@Z 004c6650 f   dirinfo.obj
 0001:000c6420       ?FarChDir@@YAHABVUnicodeString@@H@Z 004c7420 f   dirmix.obj
 0001:000c6680       ?TestFolder@@YAHABVUnicodeString@@@Z 004c7680 f   dirmix.obj
 0001:000c69d0       ?CheckShortcutFolder@@YAHPAVUnicodeString@@HH@Z 004c79d0 f   dirmix.obj
 0001:000c6ce0       ?CreatePath@@YAXABVUnicodeString@@_N@Z 004c7ce0 f   dirmix.obj
 0001:000c6f30       ?IsUnicodeOrUtfCodePage@@YA_NI@Z 004c7f30 f i dizlist.obj
 0001:000c6f60       ?_Max@?$_Tree_val@V?$_Tmap_traits@VUnicodeString@@V?$list@VUnicodeString@@V?$allocator@VUnicodeString@@@std@@@std@@Udiz_less@@V?$allocator@U?$pair@$$CBVUnicodeString@@V?$list@VUnicodeString@@V?$allocator@VUnicodeString@@@std@@@std@@@std@@@3@$0A@@std@@@std@@SAPAU_Node@?$_Tree_nod@V?$_Tmap_traits@VUnicodeString@@V?$list@VUnicodeString@@V?$allocator@VUnicodeString@@@std@@@std@@Udiz_less@@V?$allocator@U?$pair@$$CBVUnicodeString@@V?$list@VUnicodeString@@V?$allocator@VUnicodeString@@@std@@@std@@@std@@@3@$0A@@std@@@2@PAU342@@Z 004c7f60 f i dizlist.obj
 0001:000c6f80       ?_Min@?$_Tree_val@V?$_Tmap_traits@VUnicodeString@@V?$list@VUnicodeString@@V?$allocator@VUnicodeString@@@std@@@std@@Udiz_less@@V?$allocator@U?$pair@$$CBVUnicodeString@@V?$list@VUnicodeString@@V?$allocator@VUnicodeString@@@std@@@std@@@std@@@3@$0A@@std@@@std@@SAPAU_Node@?$_Tree_nod@V?$_Tmap_traits@VUnicodeString@@V?$list@VUnicodeString@@V?$allocator@VUnicodeString@@@std@@@std@@Udiz_less@@V?$allocator@U?$pair@$$CBVUnicodeString@@V?$list@VUnicodeString@@V?$allocator@VUnicodeString@@@std@@@std@@@std@@@3@$0A@@std@@@2@PAU342@@Z 004c7f80 f i dizlist.obj
 0001:000c6fa0       ??E?$_Tree_unchecked_const_iterator@V?$_Tree_val@V?$_Tmap_traits@VUnicodeString@@V?$list@VUnicodeString@@V?$allocator@VUnicodeString@@@std@@@std@@Udiz_less@@V?$allocator@U?$pair@$$CBVUnicodeString@@V?$list@VUnicodeString@@V?$allocator@VUnicodeString@@@std@@@std@@@std@@@3@$0A@@std@@@std@@U_Iterator_base0@2@@std@@QAEAAV01@XZ 004c7fa0 f i dizlist.obj
 0001:000c6ff0       ??F?$_Tree_unchecked_const_iterator@V?$_Tree_val@V?$_Tmap_traits@VUnicodeString@@V?$list@VUnicodeString@@V?$allocator@VUnicodeString@@@std@@@std@@Udiz_less@@V?$allocator@U?$pair@$$CBVUnicodeString@@V?$list@VUnicodeString@@V?$allocator@VUnicodeString@@@std@@@std@@@std@@@3@$0A@@std@@@std@@U_Iterator_base0@2@@std@@QAEAAV01@XZ 004c7ff0 f i dizlist.obj
 0001:000c7050       ?GetDizName@DizList@@QAEXAAVUnicodeString@@@Z 004c8050 f   dizlist.obj
 0001:000c7060       ?_Rrotate@?$_Tree@V?$_Tmap_traits@VUnicodeString@@V?$list@VUnicodeString@@V?$allocator@VUnicodeString@@@std@@@std@@Udiz_less@@V?$allocator@U?$pair@$$CBVUnicodeString@@V?$list@VUnicodeString@@V?$allocator@VUnicodeString@@@std@@@std@@@std@@@3@$0A@@std@@@std@@IAEXPAU_Node@?$_Tree_nod@V?$_Tmap_traits@VUnicodeString@@V?$list@VUnicodeString@@V?$allocator@VUnicodeString@@@std@@@std@@Udiz_less@@V?$allocator@U?$pair@$$CBVUnicodeString@@V?$list@VUnicodeString@@V?$allocator@VUnicodeString@@@std@@@std@@@std@@@3@$0A@@std@@@2@@Z 004c8060 f i dizlist.obj
 0001:000c70c0       ?_Lrotate@?$_Tree@V?$_Tmap_traits@VUnicodeString@@V?$list@VUnicodeString@@V?$allocator@VUnicodeString@@@std@@@std@@Udiz_less@@V?$allocator@U?$pair@$$CBVUnicodeString@@V?$list@VUnicodeString@@V?$allocator@VUnicodeString@@@std@@@std@@@std@@@3@$0A@@std@@@std@@IAEXPAU_Node@?$_Tree_nod@V?$_Tmap_traits@VUnicodeString@@V?$list@VUnicodeString@@V?$allocator@VUnicodeString@@@std@@@std@@Udiz_less@@V?$allocator@U?$pair@$$CBVUnicodeString@@V?$list@VUnicodeString@@V?$allocator@VUnicodeString@@@std@@@std@@@std@@@3@$0A@@std@@@2@@Z 004c80c0 f i dizlist.obj
 0001:000c7120       ??Rdiz_less@@QBE_NABVUnicodeString@@0@Z 004c8120 f i dizlist.obj
 0001:000c7160       ?_Lbound@?$_Tree@V?$_Tmap_traits@VUnicodeString@@V?$list@VUnicodeString@@V?$allocator@VUnicodeString@@@std@@@std@@Udiz_less@@V?$allocator@U?$pair@$$CBVUnicodeString@@V?$list@VUnicodeString@@V?$allocator@VUnicodeString@@@std@@@std@@@std@@@3@$0A@@std@@@std@@IAEPAU_Node@?$_Tree_nod@V?$_Tmap_traits@VUnicodeString@@V?$list@VUnicodeString@@V?$allocator@VUnicodeString@@@std@@@std@@Udiz_less@@V?$allocator@U?$pair@$$CBVUnicodeString@@V?$list@VUnicodeString@@V?$allocator@VUnicodeString@@@std@@@std@@@std@@@3@$0A@@std@@@2@ABVUnicodeString@@@Z 004c8160 f i dizlist.obj
 0001:000c71c0       ??$_For_each@V?$_List_unchecked_const_iterator@V?$_List_val@VUnicodeString@@V?$allocator@VUnicodeString@@@std@@@std@@U_Iterator_base0@2@@std@@V<lambda1>@?A0xefa25853@@@std@@YA?AV<lambda1>@?A0xefa25853@@V?$_List_unchecked_const_iterator@V?$_List_val@VUnicodeString@@V?$allocator@VUnicodeString@@@std@@@std@@U_Iterator_base0@2@@0@0V12@@Z 004c81c0 f i dizlist.obj
 0001:000c7230       ?PR_ReadingMsg@DizList@@SAXXZ 004c8230 f   dizlist.obj
 0001:000c7320       ?find@?$_Tree@V?$_Tmap_traits@VUnicodeString@@V?$list@VUnicodeString@@V?$allocator@VUnicodeString@@@std@@@std@@Udiz_less@@V?$allocator@U?$pair@$$CBVUnicodeString@@V?$list@VUnicodeString@@V?$allocator@VUnicodeString@@@std@@@std@@@std@@@3@$0A@@std@@@std@@QAE?AV?$_Tree_iterator@V?$_Tree_val@V?$_Tmap_traits@VUnicodeString@@V?$list@VUnicodeString@@V?$allocator@VUnicodeString@@@std@@@std@@Udiz_less@@V?$allocator@U?$pair@$$CBVUnicodeString@@V?$list@VUnicodeString@@V?$allocator@VUnicodeString@@@std@@@std@@@std@@@3@$0A@@std@@@std@@@2@ABVUnicodeString@@@Z 004c8320 f i dizlist.obj
 0001:000c7390       ?Find@DizList@@AAE?AV?$_Tree_iterator@V?$_Tree_val@V?$_Tmap_traits@VUnicodeString@@V?$list@VUnicodeString@@V?$allocator@VUnicodeString@@@std@@@std@@Udiz_less@@V?$allocator@U?$pair@$$CBVUnicodeString@@V?$list@VUnicodeString@@V?$allocator@VUnicodeString@@@std@@@std@@@std@@@3@$0A@@std@@@std@@@std@@ABVUnicodeString@@0@Z 004c8390 f   dizlist.obj
 0001:000c7550       ?Flush@DizList@@QAE_NABVUnicodeString@@PBV2@@Z 004c8550 f   dizlist.obj
 0001:000c7ac0       ?GetDizTextAddr@DizList@@QAEPB_WABVUnicodeString@@0_J@Z 004c8ac0 f   dizlist.obj
 0001:000c7c60       ?_Buynode@?$_List_val@VUnicodeString@@V?$allocator@VUnicodeString@@@std@@@std@@QAEPAU_Node@?$_List_nod@VUnicodeString@@V?$allocator@VUnicodeString@@@std@@@2@PAU342@0ABVUnicodeString@@@Z 004c8c60 f i dizlist.obj
 0001:000c7d30       ??$_Buynode@AAPB_W@?$_List_val@VUnicodeString@@V?$allocator@VUnicodeString@@@std@@@std@@QAEPAU_Node@?$_List_nod@VUnicodeString@@V?$allocator@VUnicodeString@@@std@@@1@PAU231@0AAPB_W@Z 004c8d30 f i treelist.obj
 0001:000c7d30       ??$_Buynode@PA_W@?$_List_val@VUnicodeString@@V?$allocator@VUnicodeString@@@std@@@std@@QAEPAU_Node@?$_List_nod@VUnicodeString@@V?$allocator@VUnicodeString@@@std@@@1@PAU231@0$$QAPA_W@Z 004c8d30 f i treelist.obj
 0001:000c7d30       ??$_Buynode@AAPA_W@?$_List_val@VUnicodeString@@V?$allocator@VUnicodeString@@@std@@@std@@QAEPAU_Node@?$_List_nod@VUnicodeString@@V?$allocator@VUnicodeString@@@std@@@1@PAU231@0AAPA_W@Z 004c8d30 f i dizlist.obj
 0001:000c7e00       ?_Insert@?$list@VUnicodeString@@V?$allocator@VUnicodeString@@@std@@@std@@QAEXV?$_List_const_iterator@V?$_List_val@VUnicodeString@@V?$allocator@VUnicodeString@@@std@@@std@@@2@ABVUnicodeString@@@Z 004c8e00 f i dizlist.obj
 0001:000c7e50       ??$_Insert@V?$_List_iterator@V?$_List_val@UListItem@?1??StringToList@@YA?AV?$list@VUnicodeString@@V?$allocator@VUnicodeString@@@std@@@std@@ABVUnicodeString@@KPB_W@Z@V?$allocator@UListItem@?1??StringToList@@YA?AV?$list@VUnicodeString@@V?$allocator@VUnicodeString@@@std@@@std@@ABVUnicodeString@@KPB_W@Z@@4@@std@@@std@@@?$list@VUnicodeString@@V?$allocator@VUnicodeString@@@std@@@std@@QAEXV?$_List_const_iterator@V?$_List_val@VUnicodeString@@V?$allocator@VUnicodeString@@@std@@@std@@@1@V?$_List_iterator@V?$_List_val@UListItem@?1??StringToList@@YA?AV?$list@VUnicodeString@@V?$allocator@VUnicodeString@@@std@@@std@@ABVUnicodeString@@KPB_W@Z@V?$allocator@UListItem@?1??StringToList@@YA?AV?$list@VUnicodeString@@V?$allocator@VUnicodeString@@@std@@@std@@ABVUnicodeString@@KPB_W@Z@@4@@std@@@1@1Uforward_iterator_tag@1@@Z 004c8e50 f i strmix.obj
 0001:000c7e50       ??$_Insert@V?$_List_const_iterator@V?$_List_val@VUnicodeString@@V?$allocator@VUnicodeString@@@std@@@std@@@std@@@?$list@VUnicodeString@@V?$allocator@VUnicodeString@@@std@@@std@@QAEXV?$_List_const_iterator@V?$_List_val@VUnicodeString@@V?$allocator@VUnicodeString@@@std@@@std@@@1@00Uforward_iterator_tag@1@@Z 004c8e50 f i dizlist.obj
 0001:000c7f00       ??$insert@V?$_List_const_iterator@V?$_List_val@VUnicodeString@@V?$allocator@VUnicodeString@@@std@@@std@@@std@@@?$list@VUnicodeString@@V?$allocator@VUnicodeString@@@std@@@std@@QAEXV?$_List_const_iterator@V?$_List_val@VUnicodeString@@V?$allocator@VUnicodeString@@@std@@@std@@@1@00@Z 004c8f00 f i dizlist.obj
 0001:000c7f00       ??$insert@V?$_List_iterator@V?$_List_val@UListItem@?1??StringToList@@YA?AV?$list@VUnicodeString@@V?$allocator@VUnicodeString@@@std@@@std@@ABVUnicodeString@@KPB_W@Z@V?$allocator@UListItem@?1??StringToList@@YA?AV?$list@VUnicodeString@@V?$allocator@VUnicodeString@@@std@@@std@@ABVUnicodeString@@KPB_W@Z@@4@@std@@@std@@@?$list@VUnicodeString@@V?$allocator@VUnicodeString@@@std@@@std@@QAEXV?$_List_const_iterator@V?$_List_val@VUnicodeString@@V?$allocator@VUnicodeString@@@std@@@std@@@1@V?$_List_iterator@V?$_List_val@UListItem@?1??StringToList@@YA?AV?$list@VUnicodeString@@V?$allocator@VUnicodeString@@@std@@@std@@ABVUnicodeString@@KPB_W@Z@V?$allocator@UListItem@?1??StringToList@@YA?AV?$list@VUnicodeString@@V?$allocator@VUnicodeString@@@std@@@std@@ABVUnicodeString@@KPB_W@Z@@4@@std@@@1@1@Z 004c8f00 f i strmix.obj
 0001:000c7f20       ??0?$list@VUnicodeString@@V?$allocator@VUnicodeString@@@std@@@std@@QAE@ABV01@@Z 004c8f20 f i dizlist.obj
 0001:000c7ff0       ??1?$pair@$$CBVUnicodeString@@V?$list@VUnicodeString@@V?$allocator@VUnicodeString@@@std@@@std@@@std@@QAE@XZ 004c8ff0 f i dizlist.obj
 0001:000c8040       ??0?$list@VUnicodeString@@V?$allocator@VUnicodeString@@@std@@@std@@QAE@$$QAV01@@Z 004c9040 f i dizlist.obj
 0001:000c8110       ?_Insert@?$_Tree@V?$_Tmap_traits@VUnicodeString@@V?$list@VUnicodeString@@V?$allocator@VUnicodeString@@@std@@@std@@Udiz_less@@V?$allocator@U?$pair@$$CBVUnicodeString@@V?$list@VUnicodeString@@V?$allocator@VUnicodeString@@@std@@@std@@@std@@@3@$0A@@std@@@std@@IAE?AV?$_Tree_iterator@V?$_Tree_val@V?$_Tmap_traits@VUnicodeString@@V?$list@VUnicodeString@@V?$allocator@VUnicodeString@@@std@@@std@@Udiz_less@@V?$allocator@U?$pair@$$CBVUnicodeString@@V?$list@VUnicodeString@@V?$allocator@VUnicodeString@@@std@@@std@@@std@@@3@$0A@@std@@@std@@@2@_NPAU_Node@?$_Tree_nod@V?$_Tmap_traits@VUnicodeString@@V?$list@VUnicodeString@@V?$allocator@VUnicodeString@@@std@@@std@@Udiz_less@@V?$allocator@U?$pair@$$CBVUnicodeString@@V?$list@VUnicodeString@@V?$allocator@VUnicodeString@@@std@@@std@@@std@@@3@$0A@@std@@@2@1@Z 004c9110 f i dizlist.obj
 0001:000c8370       ?erase@?$_Tree@V?$_Tmap_traits@VUnicodeString@@V?$list@VUnicodeString@@V?$allocator@VUnicodeString@@@std@@@std@@Udiz_less@@V?$allocator@U?$pair@$$CBVUnicodeString@@V?$list@VUnicodeString@@V?$allocator@VUnicodeString@@@std@@@std@@@std@@@3@$0A@@std@@@std@@QAE?AV?$_Tree_iterator@V?$_Tree_val@V?$_Tmap_traits@VUnicodeString@@V?$list@VUnicodeString@@V?$allocator@VUnicodeString@@@std@@@std@@Udiz_less@@V?$allocator@U?$pair@$$CBVUnicodeString@@V?$list@VUnicodeString@@V?$allocator@VUnicodeString@@@std@@@std@@@std@@@3@$0A@@std@@@std@@@2@V?$_Tree_const_iterator@V?$_Tree_val@V?$_Tmap_traits@VUnicodeString@@V?$list@VUnicodeString@@V?$allocator@VUnicodeString@@@std@@@std@@Udiz_less@@V?$allocator@U?$pair@$$CBVUnicodeString@@V?$list@VUnicodeString@@V?$allocator@VUnicodeString@@@std@@@std@@@std@@@3@$0A@@std@@@std@@@2@@Z 004c9370 f i dizlist.obj
 0001:000c8660       ?_Erase@?$_Tree@V?$_Tmap_traits@VUnicodeString@@V?$list@VUnicodeString@@V?$allocator@VUnicodeString@@@std@@@std@@Udiz_less@@V?$allocator@U?$pair@$$CBVUnicodeString@@V?$list@VUnicodeString@@V?$allocator@VUnicodeString@@@std@@@std@@@std@@@3@$0A@@std@@@std@@IAEXPAU_Node@?$_Tree_nod@V?$_Tmap_traits@VUnicodeString@@V?$list@VUnicodeString@@V?$allocator@VUnicodeString@@@std@@@std@@Udiz_less@@V?$allocator@U?$pair@$$CBVUnicodeString@@V?$list@VUnicodeString@@V?$allocator@VUnicodeString@@@std@@@std@@@std@@@3@$0A@@std@@@2@@Z 004c9660 f i dizlist.obj
 0001:000c8750       ?_Linsert@?$_Tree@V?$_Tmap_traits@VUnicodeString@@V?$list@VUnicodeString@@V?$allocator@VUnicodeString@@@std@@@std@@Udiz_less@@V?$allocator@U?$pair@$$CBVUnicodeString@@V?$list@VUnicodeString@@V?$allocator@VUnicodeString@@@std@@@std@@@std@@@3@$0A@@std@@@std@@QAE?AU?$pair@V?$_Tree_iterator@V?$_Tree_val@V?$_Tmap_traits@VUnicodeString@@V?$list@VUnicodeString@@V?$allocator@VUnicodeString@@@std@@@std@@Udiz_less@@V?$allocator@U?$pair@$$CBVUnicodeString@@V?$list@VUnicodeString@@V?$allocator@VUnicodeString@@@std@@@std@@@std@@@3@$0A@@std@@@std@@@std@@_N@2@PAU_Node@?$_Tree_nod@V?$_Tmap_traits@VUnicodeString@@V?$list@VUnicodeString@@V?$allocator@VUnicodeString@@@std@@@std@@Udiz_less@@V?$allocator@U?$pair@$$CBVUnicodeString@@V?$list@VUnicodeString@@V?$allocator@VUnicodeString@@@std@@@std@@@std@@@3@$0A@@std@@@2@_N@Z 004c9750 f i dizlist.obj
 0001:000c88c0       ?_Insert@?$_Tree@V?$_Tmap_traits@VUnicodeString@@V?$list@VUnicodeString@@V?$allocator@VUnicodeString@@@std@@@std@@Udiz_less@@V?$allocator@U?$pair@$$CBVUnicodeString@@V?$list@VUnicodeString@@V?$allocator@VUnicodeString@@@std@@@std@@@std@@@3@$0A@@std@@@std@@QAE?AV?$_Tree_iterator@V?$_Tree_val@V?$_Tmap_traits@VUnicodeString@@V?$list@VUnicodeString@@V?$allocator@VUnicodeString@@@std@@@std@@Udiz_less@@V?$allocator@U?$pair@$$CBVUnicodeString@@V?$list@VUnicodeString@@V?$allocator@VUnicodeString@@@std@@@std@@@std@@@3@$0A@@std@@@std@@@2@V?$_Tree_const_iterator@V?$_Tree_val@V?$_Tmap_traits@VUnicodeString@@V?$list@VUnicodeString@@V?$allocator@VUnicodeString@@@std@@@std@@Udiz_less@@V?$allocator@U?$pair@$$CBVUnicodeString@@V?$list@VUnicodeString@@V?$allocator@VUnicodeString@@@std@@@std@@@std@@@3@$0A@@std@@@std@@@2@PAU_Node@?$_Tree_nod@V?$_Tmap_traits@VUnicodeString@@V?$list@VUnicodeString@@V?$allocator@VUnicodeString@@@std@@@std@@Udiz_less@@V?$allocator@U?$pair@$$CBVUnicodeString@@V?$list@VUnicodeString@@V?$allocator@VUnicodeString@@@std@@@std@@@std@@@3@$0A@@std@@@2@@Z 004c98c0 f i dizlist.obj
 0001:000c8a80       ?DeleteDiz@DizList@@QAE_NABVUnicodeString@@0@Z 004c9a80 f   dizlist.obj
 0001:000c8ac0       ?erase@?$_Tree@V?$_Tmap_traits@VUnicodeString@@V?$list@VUnicodeString@@V?$allocator@VUnicodeString@@@std@@@std@@Udiz_less@@V?$allocator@U?$pair@$$CBVUnicodeString@@V?$list@VUnicodeString@@V?$allocator@VUnicodeString@@@std@@@std@@@std@@@3@$0A@@std@@@std@@QAE?AV?$_Tree_iterator@V?$_Tree_val@V?$_Tmap_traits@VUnicodeString@@V?$list@VUnicodeString@@V?$allocator@VUnicodeString@@@std@@@std@@Udiz_less@@V?$allocator@U?$pair@$$CBVUnicodeString@@V?$list@VUnicodeString@@V?$allocator@VUnicodeString@@@std@@@std@@@std@@@3@$0A@@std@@@std@@@2@V?$_Tree_const_iterator@V?$_Tree_val@V?$_Tmap_traits@VUnicodeString@@V?$list@VUnicodeString@@V?$allocator@VUnicodeString@@@std@@@std@@Udiz_less@@V?$allocator@U?$pair@$$CBVUnicodeString@@V?$list@VUnicodeString@@V?$allocator@VUnicodeString@@@std@@@std@@@std@@@3@$0A@@std@@@std@@@2@0@Z 004c9ac0 f i dizlist.obj
 0001:000c8b80       ??$_Cons_val@V?$allocator@U?$pair@$$CBVUnicodeString@@V?$list@VUnicodeString@@V?$allocator@VUnicodeString@@@std@@@std@@@std@@@std@@U?$pair@$$CBVUnicodeString@@V?$list@VUnicodeString@@V?$allocator@VUnicodeString@@@std@@@std@@@2@U32@@std@@YAXAAV?$allocator@U?$pair@$$CBVUnicodeString@@V?$list@VUnicodeString@@V?$allocator@VUnicodeString@@@std@@@std@@@std@@@0@PAU?$pair@$$CBVUnicodeString@@V?$list@VUnicodeString@@V?$allocator@VUnicodeString@@@std@@@std@@@0@$$QAU20@@Z 004c9b80 f i dizlist.obj
 0001:000c8c10       ?Reset@DizList@@QAEXXZ     004c9c10 f   dizlist.obj
 0001:000c8c50       ??$_Buynode@U?$pair@$$CBVUnicodeString@@V?$list@VUnicodeString@@V?$allocator@VUnicodeString@@@std@@@std@@@std@@@?$_Tree_val@V?$_Tmap_traits@VUnicodeString@@V?$list@VUnicodeString@@V?$allocator@VUnicodeString@@@std@@@std@@Udiz_less@@V?$allocator@U?$pair@$$CBVUnicodeString@@V?$list@VUnicodeString@@V?$allocator@VUnicodeString@@@std@@@std@@@std@@@3@$0A@@std@@@std@@QAEPAU_Node@?$_Tree_nod@V?$_Tmap_traits@VUnicodeString@@V?$list@VUnicodeString@@V?$allocator@VUnicodeString@@@std@@@std@@Udiz_less@@V?$allocator@U?$pair@$$CBVUnicodeString@@V?$list@VUnicodeString@@V?$allocator@VUnicodeString@@@std@@@std@@@std@@@3@$0A@@std@@@1@$$QAU?$pair@$$CBVUnicodeString@@V?$list@VUnicodeString@@V?$allocator@VUnicodeString@@@std@@@std@@@1@@Z 004c9c50 f i dizlist.obj
 0001:000c8d30       ??1?$_Tree@V?$_Tmap_traits@VUnicodeString@@V?$list@VUnicodeString@@V?$allocator@VUnicodeString@@@std@@@std@@Udiz_less@@V?$allocator@U?$pair@$$CBVUnicodeString@@V?$list@VUnicodeString@@V?$allocator@VUnicodeString@@@std@@@std@@@std@@@3@$0A@@std@@@std@@QAE@XZ 004c9d30 f i dizlist.obj
 0001:000c8da0       ??1?$map@VUnicodeString@@V?$list@VUnicodeString@@V?$allocator@VUnicodeString@@@std@@@std@@Udiz_less@@V?$allocator@U?$pair@$$CBVUnicodeString@@V?$list@VUnicodeString@@V?$allocator@VUnicodeString@@@std@@@std@@@std@@@3@@std@@QAE@XZ 004c9da0 f i dizlist.obj
 0001:000c8e10       ??1DizList@@QAE@XZ         004c9e10 f   dizlist.obj
 0001:000c8f00       ?AddRecord@DizList@@AAE?AV?$_Tree_iterator@V?$_Tree_val@V?$_Tmap_traits@VUnicodeString@@V?$list@VUnicodeString@@V?$allocator@VUnicodeString@@@std@@@std@@Udiz_less@@V?$allocator@U?$pair@$$CBVUnicodeString@@V?$list@VUnicodeString@@V?$allocator@VUnicodeString@@@std@@@std@@@std@@@3@$0A@@std@@@std@@@std@@ABVUnicodeString@@0@Z 004c9f00 f   dizlist.obj
 0001:000c9050       ?AddRecord@DizList@@AAE?AV?$_Tree_iterator@V?$_Tree_val@V?$_Tmap_traits@VUnicodeString@@V?$list@VUnicodeString@@V?$allocator@VUnicodeString@@@std@@@std@@Udiz_less@@V?$allocator@U?$pair@$$CBVUnicodeString@@V?$list@VUnicodeString@@V?$allocator@VUnicodeString@@@std@@@std@@@std@@@3@$0A@@std@@@std@@@std@@ABVUnicodeString@@@Z 004ca050 f   dizlist.obj
 0001:000c91b0       ?AddDizText@DizList@@QAEXABVUnicodeString@@00@Z 004ca1b0 f   dizlist.obj
 0001:000c9380       ?CopyDiz@DizList@@QAE_NABVUnicodeString@@000PAV1@@Z 004ca380 f   dizlist.obj
 0001:000c9490       ??0DizList@@QAE@XZ         004ca490 f   dizlist.obj
 0001:000c9560       ?Read@DizList@@QAEXABVUnicodeString@@PBV2@@Z 004ca560 f   dizlist.obj
 0001:000c9990       ?SetHistory@DlgEdit@@QAEXABVUnicodeString@@@Z 004ca990 f   dlgedit.obj
 0001:000c9a30       ?ProcessKey@DlgEdit@@UAEHH@Z 004caa30 f   dlgedit.obj
 0001:000c9a40       ?ProcessMouse@DlgEdit@@UAEHPBU_MOUSE_EVENT_RECORD@@@Z 004caa40 f   dlgedit.obj
 0001:000c9a50       ?DisplayObject@DlgEdit@@EAEXXZ 004caa50 f   dlgedit.obj
 0001:000c9a60       ?SetPosition@DlgEdit@@UAEXHHHH@Z 004caa60 f   dlgedit.obj
 0001:000c9a70       ?Show@DlgEdit@@UAEXXZ      004caa70 f   dlgedit.obj
 0001:000c9a80       ?GetPosition@DlgEdit@@UBEXAAH000@Z 004caa80 f   dlgedit.obj
 0001:000c9a90       ?SetDialogParent@DlgEdit@@QAEXK@Z 004caa90 f   dlgedit.obj
 0001:000c9aa0       ?GetMaxLength@DlgEdit@@QAEHXZ 004caaa0 f   dlgedit.obj
 0001:000c9ac0       ?SetMaxLength@DlgEdit@@QAEXH@Z 004caac0 f   dlgedit.obj
 0001:000c9ae0       ?SetInputMask@DlgEdit@@QAEXABVUnicodeString@@@Z 004caae0 f   dlgedit.obj
 0001:000c9b00       ?GetStringAddr@DlgEdit@@QAEPB_WXZ 004cab00 f   dlgedit.obj
 0001:000c9b10       ?SetHiString@DlgEdit@@QAEXABVUnicodeString@@@Z 004cab10 f   dlgedit.obj
 0001:000c9b20       ?Changed@DlgEdit@@QAEXXZ   004cab20 f   dlgedit.obj
 0001:000c9b30       ?GetString@DlgEdit@@QAEXAAVUnicodeString@@H@Z 004cab30 f   dlgedit.obj
 0001:000c9b50       ?SetCurPos@DlgEdit@@QAEXHH@Z 004cab50 f   dlgedit.obj
 0001:000c9b70       ?GetCurPos@DlgEdit@@QAEHXZ 004cab70 f   dlgedit.obj
 0001:000c9b80       ?GetTabCurPos@DlgEdit@@QAEHXZ 004cab80 f   dlgedit.obj
 0001:000c9b90       ?SetTabCurPos@DlgEdit@@QAEXH@Z 004cab90 f   dlgedit.obj
 0001:000c9ba0       ?SetObjectColor@DlgEdit@@QAEXABUFarColor@@00@Z 004caba0 f   dlgedit.obj
 0001:000c9bb0       ?FastShow@DlgEdit@@QAEXXZ  004cabb0 f   dlgedit.obj
 0001:000c9bc0       ?GetLeftPos@DlgEdit@@QAEHXZ 004cabc0 f   dlgedit.obj
 0001:000c9bd0       ?SetLeftPos@DlgEdit@@QAEXHH@Z 004cabd0 f   dlgedit.obj
 0001:000c9be0       ?GetLength@DlgEdit@@QAEHXZ 004cabe0 f   dlgedit.obj
 0001:000c9bf0       ?Select@DlgEdit@@QAEXHH@Z  004cabf0 f   dlgedit.obj
 0001:000c9c00       ?GetSelection@DlgEdit@@QAEXAAH0@Z 004cac00 f   dlgedit.obj
 0001:000c9c10       ?Xlat@DlgEdit@@QAEX_N@Z    004cac10 f   dlgedit.obj
 0001:000c9c20       ?GetStrSize@DlgEdit@@QAEHH@Z 004cac20 f   dlgedit.obj
 0001:000c9c30       ?SetCursorType@DlgEdit@@QAEX_NK@Z 004cac30 f   dlgedit.obj
 0001:000c9c40       ?GetCursorType@DlgEdit@@QAEXAA_NAAK@Z 004cac40 f   dlgedit.obj
 0001:000c9c50       ?Flags@DlgEdit@@QAEAAV?$TBitFlags@K@@XZ 004cac50 f   dlgedit.obj
 0001:000c9c60       ?Hide@DlgEdit@@UAEXXZ      004cac60 f   dlgedit.obj
 0001:000c9c70       ?Hide0@DlgEdit@@UAEXXZ     004cac70 f   dlgedit.obj
 0001:000c9c80       ?ShowConsoleTitle@DlgEdit@@UAEXXZ 004cac80 f   dlgedit.obj
 0001:000c9c90       ?SetScreenPosition@DlgEdit@@UAEXXZ 004cac90 f   dlgedit.obj
 0001:000c9ca0       ?ResizeConsole@DlgEdit@@UAEXXZ 004caca0 f   dlgedit.obj
 0001:000c9cb0       ?VMProcess@DlgEdit@@UAE_JHPAX_J@Z 004cacb0 f   dlgedit.obj
 0001:000c9ce0       ?HistoryGetSimilar@DlgEdit@@QAE_NAAVUnicodeString@@H_N@Z 004cace0 f   dlgedit.obj
 0001:000c9d00       ?SetOvertypeMode@Edit@@QAEX_N@Z 004cad00 f i dlgedit.obj
 0001:000c9d20       ?SetDropDownBox@DlgEdit@@QAEX_N@Z 004cad20 f   dlgedit.obj
 0001:000c9d50       ?SetPasswordMode@DlgEdit@@QAEX_N@Z 004cad50 f   dlgedit.obj
 0001:000c9d80       ?SetOvertypeMode@DlgEdit@@QAEX_N@Z 004cad80 f   dlgedit.obj
 0001:000c9db0       ?GetOvertypeMode@DlgEdit@@QAE_NXZ 004cadb0 f   dlgedit.obj
 0001:000c9dc0       ?SetEditBeyondEnd@DlgEdit@@QAEX_N@Z 004cadc0 f   dlgedit.obj
 0001:000c9df0       ?SetClearFlag@DlgEdit@@QAEX_N@Z 004cadf0 f   dlgedit.obj
 0001:000c9e20       ?GetClearFlag@DlgEdit@@QAEHXZ 004cae20 f   dlgedit.obj
 0001:000c9e30       ?SetPersistentBlocks@DlgEdit@@QAEX_N@Z 004cae30 f   dlgedit.obj
 0001:000c9e60       ?SetDelRemovesBlocks@DlgEdit@@QAEX_N@Z 004cae60 f   dlgedit.obj
 0001:000c9e90       ?GetReadOnly@DlgEdit@@QAE_NXZ 004cae90 f   dlgedit.obj
 0001:000c9ea0       ?SetReadOnly@DlgEdit@@QAEX_N@Z 004caea0 f   dlgedit.obj
 0001:000c9ed0       ?EditChange@DlgEdit@@CAXPAX@Z 004caed0 f   dlgedit.obj
 0001:000c9f00       ?SetString@DlgEdit@@QAEXABVUnicodeString@@_NH@Z 004caf00 f   dlgedit.obj
 0001:000c9f60       ??0DlgEdit@@QAE@PAVDialog@@IW4DLGEDITTYPE@@@Z 004caf60 f   dlgedit.obj
 0001:000ca120       ??1DlgEdit@@UAE@XZ         004cb120 f   dlgedit.obj
 0001:000ca1e0       ??_EDlgEdit@@UAEPAXI@Z     004cb1e0 f i dlgedit.obj
 0001:000ca1e0       ??_GDlgEdit@@UAEPAXI@Z     004cb1e0 f i dlgedit.obj
 0001:000ca210       ?IsDriveTypeRemote@@YA_NI@Z 004cb210 f   drivemix.obj
 0001:000ca230       ??$_Any_of@PBQAUHKEY__@@V<lambda1>@?A0x78a8824e@@@std@@YA_NPBQAUHKEY__@@0V<lambda1>@?A0x78a8824e@@@Z 004cb230 f i drivemix.obj
 0001:000ca2c0       ?FarGetLogicalDrives@@YAKXZ 004cb2c0 f   drivemix.obj
 0001:000ca340       ?CheckDisksProps@@YAHABVUnicodeString@@0H@Z 004cb340 f   drivemix.obj
 0001:000ca970       ?IsSelection@Edit@@QAE_NXZ 004cb970 f i edit.obj
 0001:000ca990       ?GetOwner@ColorItem@@QBEABU_GUID@@XZ 004cb990 f   edit.obj
 0001:000ca9a0       ??1Edit@@UAE@XZ            004cb9a0 f   edit.obj
 0001:000caa20       ?RecurseProcessKey@Edit@@AAEHH@Z 004cba20 f   edit.obj
 0001:000caa40       ?GetCharSetName@nsEscCharSetProber@ucd@@UAEPBDXZ 004cba40 f   nsUniversalDetectorEx.obj
 0001:000caa40       ?GetStringAddr@Edit@@QAEPB_WXZ 004cba40 f   edit.obj
 0001:000caa50       ?SetEOL@Edit@@QAEXPB_W@Z   004cba50 f   edit.obj
 0001:000caab0       ?GetEOL@Edit@@QAEPB_WXZ    004cbab0 f   edit.obj
 0001:000caac0       ?GetBinaryString@Edit@@QAEXPAPB_W0AAH@Z 004cbac0 f   edit.obj
 0001:000cab00       _IsEqualGUID               004cbb00 f i edit.obj
 0001:000cab70       ?GetLength@Edit@@QAEHXZ    004cbb70 f   edit.obj
 0001:000cab80       ?TabPosToReal@Edit@@QAEHH@Z 004cbb80 f   edit.obj
 0001:000cac20       ?Select@Edit@@QAEXHH@Z     004cbc20 f   edit.obj
 0001:000cac60       ?AddSelect@Edit@@QAEXHH@Z  004cbc60 f   edit.obj
 0001:000cacc0       ?GetSelection@Edit@@QAEXAAH0@Z 004cbcc0 f   edit.obj
 0001:000cacf0       ?GetRealSelection@Edit@@QAEXAAH0@Z 004cbcf0 f   edit.obj
 0001:000cad10       ?GetColor@Edit@@QAEHPAUColorItem@@H@Z 004cbd10 f   edit.obj
 0001:000cad60       ?CheckCharMask@Edit@@IAEH_W@Z 004cbd60 f   edit.obj
 0001:000cada0       ?GetSelectedColor@Edit@@EBEABUFarColor@@XZ 004cbda0 f   edit.obj
 0001:000cadb0       ?GetNormalColor@Edit@@EBEABUFarColor@@XZ 004cbdb0 f   edit.obj
 0001:000cadb0       ?GetUnchangedColor@Edit@@EBEABUFarColor@@XZ 004cbdb0 f   edit.obj
 0001:000cadc0       ?GetTabSize@Edit@@EBE?BHXZ 004cbdc0 f   edit.obj
 0001:000cadd0       ?GetTabExpandMode@Edit@@EBE?BW4EXPAND_TABS@@XZ 004cbdd0 f   edit.obj
 0001:000cade0       ?WordDiv@Edit@@EBEABVUnicodeString@@XZ 004cbde0 f   edit.obj
 0001:000cadf0       ?GetCursorSize@Edit@@EAEHXZ 004cbdf0 f   edit.obj
 0001:000cadf0       ?DoShowDialog@?$DialogBuilderBase@UDialogItemEx@@@@MAEHXZ 004cbdf0 f   FarDlgBuilder.obj
 0001:000cadf0       ?GetMaxLength@Edit@@UBEHXZ 004cbdf0 f   edit.obj
 0001:000cae00       ?GetMacroSelectionStart@Edit@@EBEHXZ 004cbe00 f   edit.obj
 0001:000cae10       ?SetMacroSelectionStart@Edit@@EAEXH@Z 004cbe10 f   edit.obj
 0001:000cae30       ?GetLineCursorPos@Edit@@EBEHXZ 004cbe30 f   edit.obj
 0001:000cae40       ?SetLineCursorPos@Edit@@EAEXH@Z 004cbe40 f   edit.obj
 0001:000cae60       ?Swap@?$TBitFlags@K@@QAEABKABK@Z 004cbe60 f i edit.obj
 0001:000cae90       ?IsEol@@YAH_W@Z            004cbe90 f i edit.obj
 0001:000caeb0       ??0Edit@@QAE@PAVScreenObject@@_N@Z 004cbeb0 f   edit.obj
 0001:000cb020       ??_GEdit@@UAEPAXI@Z        004cc020 f i edit.obj
 0001:000cb020       ??_EEdit@@UAEPAXI@Z        004cc020 f i edit.obj
 0001:000cb0b0       ?SetCursorType@Edit@@QAEX_NK@Z 004cc0b0 f   edit.obj
 0001:000cb0f0       ?GetCursorType@Edit@@QAEXAA_NAAK@Z 004cc0f0 f   edit.obj
 0001:000cb110       ?GetSelString@Edit@@QAEHPA_WH@Z 004cc110 f   edit.obj
 0001:000cb180       ?InsertTab@Edit@@QAEXXZ    004cc180 f   edit.obj
 0001:000cb260       ?ReplaceTabs@Edit@@QAE_NXZ 004cc260 f   edit.obj
 0001:000cb3a0       ?RealPosToTab@Edit@@AAEHHHHPAH@Z 004cc3a0 f   edit.obj
 0001:000cb470       ?DeleteColor@Edit@@QAEHHABU_GUID@@_N@Z 004cc470 f   edit.obj
 0001:000cb5d0       ?SetDialogParent@Edit@@QAEXK@Z 004cc5d0 f   edit.obj
 0001:000cb630       ??1?$_Temp_iterator@UColorItem@@@std@@QAE@XZ 004cc630 f i edit.obj
 0001:000cb640       ??$_Lower_bound@PAUColorItem@@U1@H@std@@YAPAUColorItem@@PAU1@0ABU1@PAH@Z 004cc640 f i edit.obj
 0001:000cb6a0       ??$_Upper_bound@PAUColorItem@@U1@H@std@@YAPAUColorItem@@PAU1@0ABU1@PAH@Z 004cc6a0 f i edit.obj
 0001:000cb700       ??4?$_Temp_iterator@UColorItem@@@std@@QAEAAV01@$$QAUColorItem@@@Z 004cc700 f i edit.obj
 0001:000cb7e0       ??$_Move_backward@PAUColorItem@@PAU1@@std@@YAPAUColorItem@@PAU1@00U_Nonscalar_ptr_iterator_tag@0@@Z 004cc7e0 f i edit.obj
 0001:000cb830       ??$_Rotate@PAUColorItem@@HU1@@std@@YAXPAUColorItem@@00PAH0@Z 004cc830 f i edit.obj
 0001:000cb980       ?RealPosToTab@Edit@@QAEHH@Z 004cc980 f   edit.obj
 0001:000cb9a0       ?ApplyColor@Edit@@AAEXABUFarColor@@@Z 004cc9a0 f   edit.obj
 0001:000cbbf0       ??$_Cons_val@V?$allocator@UFarColor@@@std@@UFarColor@@ABU3@@std@@YAXAAV?$allocator@UFarColor@@@0@PAUFarColor@@ABU2@@Z 004ccbf0 f i edit.obj
 0001:000cbc70       ??$_Cons_val@V?$allocator@U_GUID@@@std@@U_GUID@@ABU3@@std@@YAXAAV?$allocator@U_GUID@@@0@PAU_GUID@@ABU2@@Z 004ccc70 f i edit.obj
 0001:000cbc70       ??$_Cons_val@V?$allocator@Ucolumn@@@std@@Ucolumn@@ABU3@@std@@YAXAAV?$allocator@Ucolumn@@@0@PAUcolumn@@ABU2@@Z 004ccc70 f i config.obj
 0001:000cbce0       ??$get_temporary_buffer@UColorItem@@@std@@YA?AU?$pair@PAUColorItem@@H@0@H@Z 004ccce0 f i edit.obj
 0001:000cbda0       ??$_Move@PAUColorItem@@V?$_Temp_iterator@UColorItem@@@std@@@std@@YA?AV?$_Temp_iterator@UColorItem@@@0@PAUColorItem@@0V10@U_Nonscalar_ptr_iterator_tag@0@@Z 004ccda0 f i edit.obj
 0001:000cbe40       ?Search@Edit@@QAEHABVUnicodeString@@00AAVRegExp@@PAURegExpMatch@@AAV2@HHHHHHPAH@Z 004cce40 f   edit.obj
 0001:000cbeb0       ?GetTabCurPos@Edit@@QAEHXZ 004cceb0 f   edit.obj
 0001:000cbec0       ?KeyMatchedMask@Edit@@AAEHHABVUnicodeString@@@Z 004ccec0 f   edit.obj
 0001:000cc010       ?FixLeftPos@Edit@@AAEXH@Z  004cd010 f   edit.obj
 0001:000cc060       ??0?$array_ptr@_W@@QAE@I_N@Z 004cd060 f i edit.obj
 0001:000cc100       ?_Splice_same@?$list@UFarColor@@V?$allocator@UFarColor@@@std@@@std@@QAEXV?$_List_const_iterator@V?$_List_val@UFarColor@@V?$allocator@UFarColor@@@std@@@std@@@2@AAV12@00I@Z 004cd100 f i edit.obj
 0001:000cc180       ?_Splice_same@?$list@U_GUID@@V?$allocator@U_GUID@@@std@@@std@@QAEXV?$_List_const_iterator@V?$_List_val@U_GUID@@V?$allocator@U_GUID@@@std@@@std@@@2@AAV12@00I@Z 004cd180 f i edit.obj
 0001:000cc200       ?_Buynode@?$_List_val@UFarColor@@V?$allocator@UFarColor@@@std@@@std@@QAEPAU_Node@?$_List_nod@UFarColor@@V?$allocator@UFarColor@@@std@@@2@PAU342@0ABUFarColor@@@Z 004cd200 f i edit.obj
 0001:000cc2d0       ?_Buynode@?$_List_val@U_GUID@@V?$allocator@U_GUID@@@std@@@std@@QAEPAU_Node@?$_List_nod@U_GUID@@V?$allocator@U_GUID@@@std@@@2@PAU342@0ABU_GUID@@@Z 004cd2d0 f i edit.obj
 0001:000cc3a0       ?_Maxlen@?$_Temp_iterator@UColorItem@@@std@@QAEHXZ 004cd3a0 f i edit.obj
 0001:000cc400       ??$_Uninit_move@PAV?$_List_const_iterator@V?$_List_val@PAVPlugin@@V?$allocator@PAVPlugin@@@std@@@std@@@std@@PAV12@V?$allocator@V?$_List_const_iterator@V?$_List_val@PAVPlugin@@V?$allocator@PAVPlugin@@@std@@@std@@@std@@@2@V12@@std@@YAPAV?$_List_const_iterator@V?$_List_val@PAVPlugin@@V?$allocator@PAVPlugin@@@std@@@std@@@0@PAV10@00AAV?$allocator@V?$_List_const_iterator@V?$_List_val@PAVPlugin@@V?$allocator@PAVPlugin@@@std@@@std@@@std@@@0@0U_Nonscalar_ptr_iterator_tag@0@@Z 004cd400 f i flplugin.obj
 0001:000cc400       ??$_Uninit_move@PAV?$_List_const_iterator@V?$_List_val@UFarColor@@V?$allocator@UFarColor@@@std@@@std@@@std@@PAV12@V?$allocator@V?$_List_const_iterator@V?$_List_val@UFarColor@@V?$allocator@UFarColor@@@std@@@std@@@std@@@2@V12@@std@@YAPAV?$_List_const_iterator@V?$_List_val@UFarColor@@V?$allocator@UFarColor@@@std@@@std@@@0@PAV10@00AAV?$allocator@V?$_List_const_iterator@V?$_List_val@UFarColor@@V?$allocator@UFarColor@@@std@@@std@@@std@@@0@0U_Nonscalar_ptr_iterator_tag@0@@Z 004cd400 f i edit.obj
 0001:000cc400       ??$_Uninit_move@PAU_CHAR_INFO@@PAU1@V?$allocator@U_CHAR_INFO@@@std@@U1@@std@@YAPAU_CHAR_INFO@@PAU1@00AAV?$allocator@U_CHAR_INFO@@@0@0U_Nonscalar_ptr_iterator_tag@0@@Z 004cd400 f i console.obj
 0001:000cc400       ??$_Uninit_move@PAV?$_List_const_iterator@V?$_List_val@U_GUID@@V?$allocator@U_GUID@@@std@@@std@@@std@@PAV12@V?$allocator@V?$_List_const_iterator@V?$_List_val@U_GUID@@V?$allocator@U_GUID@@@std@@@std@@@std@@@2@V12@@std@@YAPAV?$_List_const_iterator@V?$_List_val@U_GUID@@V?$allocator@U_GUID@@@std@@@std@@@0@PAV10@00AAV?$allocator@V?$_List_const_iterator@V?$_List_val@U_GUID@@V?$allocator@U_GUID@@@std@@@std@@@std@@@0@0U_Nonscalar_ptr_iterator_tag@0@@Z 004cd400 f i edit.obj
 0001:000cc400       ??$_Uninit_move@PAV?$_List_const_iterator@V?$_List_val@_KV?$allocator@_K@std@@@std@@@std@@PAV12@V?$allocator@V?$_List_const_iterator@V?$_List_val@_KV?$allocator@_K@std@@@std@@@std@@@2@V12@@std@@YAPAV?$_List_const_iterator@V?$_List_val@_KV?$allocator@_K@std@@@std@@@0@PAV10@00AAV?$allocator@V?$_List_const_iterator@V?$_List_val@_KV?$allocator@_K@std@@@std@@@std@@@0@0U_Nonscalar_ptr_iterator_tag@0@@Z 004cd400 f i dirinfo.obj
 0001:000cc400       ??$_Uninit_move@PAV?$_List_iterator@V?$_List_val@U?$pair@$$CBU_GUID@@V?$unique_ptr@VPlugin@@U?$default_delete@VPlugin@@@std@@@std@@@std@@V?$allocator@U?$pair@$$CBU_GUID@@V?$unique_ptr@VPlugin@@U?$default_delete@VPlugin@@@std@@@std@@@std@@@2@@std@@@std@@PAV12@V?$allocator@V?$_List_iterator@V?$_List_val@U?$pair@$$CBU_GUID@@V?$unique_ptr@VPlugin@@U?$default_delete@VPlugin@@@std@@@std@@@std@@V?$allocator@U?$pair@$$CBU_GUID@@V?$unique_ptr@VPlugin@@U?$default_delete@VPlugin@@@std@@@std@@@std@@@2@@std@@@std@@@2@V12@@std@@YAPAV?$_List_iterator@V?$_List_val@U?$pair@$$CBU_GUID@@V?$unique_ptr@VPlugin@@U?$default_delete@VPlugin@@@std@@@std@@@std@@V?$allocator@U?$pair@$$CBU_GUID@@V?$unique_ptr@VPlugin@@U?$default_delete@VPlugin@@@std@@@std@@@std@@@2@@std@@@0@PAV10@00AAV?$allocator@V?$_List_iterator@V?$_List_val@U?$pair@$$CBU_GUID@@V?$unique_ptr@VPlugin@@U?$default_delete@VPlugin@@@std@@@std@@@std@@V?$allocator@U?$pair@$$CBU_GUID@@V?$unique_ptr@VPlugin@@U?$default_delete@VPlugin@@@std@@@std@@@std@@@2@@std@@@std@@@0@0U_Nonscalar_ptr_iterator_tag@0@@Z 004cd400 f i plugins.obj
 0001:000cc490       ??$_Insertion_sort1@PAUColorItem@@U1@@std@@YAXPAUColorItem@@00@Z 004cd490 f i edit.obj
 0001:000cc580       ??$_Move@PAUColorItem@@V?$_Temp_iterator@UColorItem@@@std@@@std@@YA?AV?$_Temp_iterator@UColorItem@@@0@PAUColorItem@@0V10@@Z 004cd580 f i edit.obj
 0001:000cc620       ??$_Merge@PAUColorItem@@PAU1@PAU1@@std@@YAPAUColorItem@@PAU1@0000@Z 004cd620 f i edit.obj
 0001:000cc710       ??$_Merge_backward@PAUColorItem@@PAU1@PAU1@@std@@YAPAUColorItem@@PAU1@0000@Z 004cd710 f i edit.obj
 0001:000cc7c0       ??$_Merge@PAUColorItem@@PAU1@V?$_Temp_iterator@UColorItem@@@std@@@std@@YA?AV?$_Temp_iterator@UColorItem@@@0@PAUColorItem@@000V10@@Z 004cd7c0 f i edit.obj
 0001:000cc8e0       ?GetInputMask@Edit@@EBE?BVUnicodeString@@XZ 004cd8e0 f i edit.obj
 0001:000cc950       ?GetNextCursorPos@Edit@@AAEHHH@Z 004cd950 f   edit.obj
 0001:000ccab0       ?SetTabCurPos@Edit@@QAEXH@Z 004cdab0 f   edit.obj
 0001:000ccbf0       ?DeleteBlock@Edit@@IAEXXZ  004cdbf0 f   edit.obj
 0001:000ccd90       ??$_Chunked_merge@PAUColorItem@@V?$_Temp_iterator@UColorItem@@@std@@H@std@@YAXPAUColorItem@@0V?$_Temp_iterator@UColorItem@@@0@HH@Z 004cdd90 f i edit.obj
 0001:000ccef0       ??$_Chunked_merge@PAUColorItem@@PAU1@H@std@@YAXPAUColorItem@@00HH@Z 004cdef0 f i edit.obj
 0001:000ccfa0       ??$_Buffered_rotate@PAUColorItem@@HU1@@std@@YAPAUColorItem@@PAU1@00HHAAV?$_Temp_iterator@UColorItem@@@0@@Z 004cdfa0 f i edit.obj
 0001:000cd180       ?IsWordDiv@@YA_NABVUnicodeString@@_W@Z 004ce180 f i edit.obj
 0001:000cd1c0       ?DisplayObject@Edit@@EAEXXZ 004ce1c0 f   edit.obj
 0001:000cd300       ?FastShow@Edit@@UAEXXZ     004ce300 f   edit.obj
 0001:000cdaf0       ?VMProcess@Edit@@UAE_JHPAX_J@Z 004ceaf0 f   edit.obj
 0001:000cddd0       ?InsertKey@Edit@@AAEHH@Z   004cedd0 f   edit.obj
 0001:000ce190       ?GetString@Edit@@QAEXAAVUnicodeString@@@Z 004cf190 f   edit.obj
 0001:000ce1d0       ?SetBinaryString@Edit@@QAEXPB_WH@Z 004cf1d0 f   edit.obj
 0001:000ce460       ?InsertBinaryString@Edit@@QAEXPB_WH@Z 004cf460 f   edit.obj
 0001:000ce7a0       ?ProcessMouse@Edit@@UAEHPBU_MOUSE_EVENT_RECORD@@@Z 004cf7a0 f   edit.obj
 0001:000ce8d0       ?Xlat@Edit@@QAEX_N@Z       004cf8d0 f   edit.obj
 0001:000ceb30       ??$_Umove@PAV?$_List_const_iterator@V?$_List_val@_KV?$allocator@_K@std@@@std@@@std@@@?$vector@V?$_List_const_iterator@V?$_List_val@_KV?$allocator@_K@std@@@std@@@std@@V?$allocator@V?$_List_const_iterator@V?$_List_val@_KV?$allocator@_K@std@@@std@@@std@@@2@@std@@IAEPAV?$_List_const_iterator@V?$_List_val@_KV?$allocator@_K@std@@@std@@@1@PAV21@00@Z 004cfb30 f i dirinfo.obj
 0001:000ceb30       ??$_Umove@PAV?$_List_const_iterator@V?$_List_val@U_GUID@@V?$allocator@U_GUID@@@std@@@std@@@std@@@?$vector@V?$_List_const_iterator@V?$_List_val@U_GUID@@V?$allocator@U_GUID@@@std@@@std@@@std@@V?$allocator@V?$_List_const_iterator@V?$_List_val@U_GUID@@V?$allocator@U_GUID@@@std@@@std@@@std@@@2@@std@@IAEPAV?$_List_const_iterator@V?$_List_val@U_GUID@@V?$allocator@U_GUID@@@std@@@std@@@1@PAV21@00@Z 004cfb30 f i edit.obj
 0001:000ceb30       ??$_Umove@PAU_CHAR_INFO@@@?$vector@U_CHAR_INFO@@V?$allocator@U_CHAR_INFO@@@std@@@std@@IAEPAU_CHAR_INFO@@PAU2@00@Z 004cfb30 f i console.obj
 0001:000ceb30       ??$_Umove@PAV?$_List_const_iterator@V?$_List_val@UFarColor@@V?$allocator@UFarColor@@@std@@@std@@@std@@@?$vector@V?$_List_const_iterator@V?$_List_val@UFarColor@@V?$allocator@UFarColor@@@std@@@std@@@std@@V?$allocator@V?$_List_const_iterator@V?$_List_val@UFarColor@@V?$allocator@UFarColor@@@std@@@std@@@std@@@2@@std@@IAEPAV?$_List_const_iterator@V?$_List_val@UFarColor@@V?$allocator@UFarColor@@@std@@@std@@@1@PAV21@00@Z 004cfb30 f i edit.obj
 0001:000ceb30       ??$_Umove@PAV?$_List_const_iterator@V?$_List_val@PAVPlugin@@V?$allocator@PAVPlugin@@@std@@@std@@@std@@@?$vector@V?$_List_const_iterator@V?$_List_val@PAVPlugin@@V?$allocator@PAVPlugin@@@std@@@std@@@std@@V?$allocator@V?$_List_const_iterator@V?$_List_val@PAVPlugin@@V?$allocator@PAVPlugin@@@std@@@std@@@std@@@2@@std@@IAEPAV?$_List_const_iterator@V?$_List_val@PAVPlugin@@V?$allocator@PAVPlugin@@@std@@@std@@@1@PAV21@00@Z 004cfb30 f i flplugin.obj
 0001:000ceb30       ??$_Umove@PAV?$_List_iterator@V?$_List_val@U?$pair@$$CBU_GUID@@V?$unique_ptr@VPlugin@@U?$default_delete@VPlugin@@@std@@@std@@@std@@V?$allocator@U?$pair@$$CBU_GUID@@V?$unique_ptr@VPlugin@@U?$default_delete@VPlugin@@@std@@@std@@@std@@@2@@std@@@std@@@?$vector@V?$_List_iterator@V?$_List_val@U?$pair@$$CBU_GUID@@V?$unique_ptr@VPlugin@@U?$default_delete@VPlugin@@@std@@@std@@@std@@V?$allocator@U?$pair@$$CBU_GUID@@V?$unique_ptr@VPlugin@@U?$default_delete@VPlugin@@@std@@@std@@@std@@@2@@std@@@std@@V?$allocator@V?$_List_iterator@V?$_List_val@U?$pair@$$CBU_GUID@@V?$unique_ptr@VPlugin@@U?$default_delete@VPlugin@@@std@@@std@@@std@@V?$allocator@U?$pair@$$CBU_GUID@@V?$unique_ptr@VPlugin@@U?$default_delete@VPlugin@@@std@@@std@@@std@@@2@@std@@@std@@@2@@std@@IAEPAV?$_List_iterator@V?$_List_val@U?$pair@$$CBU_GUID@@V?$unique_ptr@VPlugin@@U?$default_delete@VPlugin@@@std@@@std@@@std@@V?$allocator@U?$pair@$$CBU_GUID@@V?$unique_ptr@VPlugin@@U?$default_delete@VPlugin@@@std@@@std@@@std@@@2@@std@@@1@PAV21@00@Z 004cfb30 f i plugins.obj
 0001:000ceb60       ??$_Buffered_merge_sort@PAUColorItem@@HU1@@std@@YAXPAUColorItem@@0HAAV?$_Temp_iterator@UColorItem@@@0@@Z 004cfb60 f i edit.obj
 0001:000cec40       ??$_Buffered_merge@PAUColorItem@@HU1@@std@@YAXPAUColorItem@@00HHAAV?$_Temp_iterator@UColorItem@@@0@@Z 004cfc40 f i edit.obj
 0001:000ceee0       ?ProcessCtrlQ@Edit@@AAEHXZ 004cfee0 f   edit.obj
 0001:000cef50       ?SetHiString@Edit@@QAEXABVUnicodeString@@@Z 004cff50 f   edit.obj
 0001:000cf010       ?SetString@Edit@@QAEXPB_WH@Z 004d0010 f   edit.obj
 0001:000cf060       ?InsertString@Edit@@QAEXABVUnicodeString@@@Z 004d0060 f   edit.obj
 0001:000cf0a0       ??$_Stable_sort@PAUColorItem@@HU1@@std@@YAXPAUColorItem@@0HAAV?$_Temp_iterator@UColorItem@@@0@@Z 004d00a0 f i edit.obj
 0001:000cf150       ?ProcessInsPath@Edit@@AAEHHHH@Z 004d0150 f   edit.obj
 0001:000cf300       ?ProcessInsPlainText@Edit@@AAEHPB_W@Z 004d0300 f   edit.obj
 0001:000cf3d0       ?AppendString@Edit@@QAEXPB_W@Z 004d03d0 f   edit.obj
 0001:000cf510       ??$_Stable_sort@PAUColorItem@@HU1@@std@@YAXPAUColorItem@@0PAH0@Z 004d0510 f i edit.obj
 0001:000cf5b0       ?ProcessKey@Edit@@UAEHH@Z  004d05b0 f   edit.obj
 0001:000d10d0       ?AddColor@Edit@@QAEXPAUColorItem@@_N@Z 004d20d0 f   edit.obj
 0001:000d11f0       ?SortColorUnlocked@Edit@@QAEXXZ 004d21f0 f   edit.obj
 0001:000d1250       ?_Check_size@?$_Hash@V?$_Uset_traits@UFarColor@@V?$_Hash_compare@UFarColor@@Ucolor_hash@@Ucolor_equal@@@std@@V?$allocator@UFarColor@@@3@$0A@@tr1@std@@@std@@IAEXXZ 004d2250 f i edit.obj
 0001:000d1300       ?_Check_size@?$_Hash@V?$_Uset_traits@U_GUID@@V?$_Hash_compare@U_GUID@@Uuuid_hash@@Uuuid_equal@@@std@@V?$allocator@U_GUID@@@3@$0A@@tr1@std@@@std@@IAEXXZ 004d2300 f i edit.obj
 0001:000d13b0       ?_Insert@?$_Hash@V?$_Uset_traits@UFarColor@@V?$_Hash_compare@UFarColor@@Ucolor_hash@@Ucolor_equal@@@std@@V?$allocator@UFarColor@@@3@$0A@@tr1@std@@@std@@IAE?AU?$pair@V?$_List_const_iterator@V?$_List_val@UFarColor@@V?$allocator@UFarColor@@@std@@@std@@@std@@_N@2@ABUFarColor@@V?$_List_const_iterator@V?$_List_val@UFarColor@@V?$allocator@UFarColor@@@std@@@std@@@2@@Z 004d23b0 f i edit.obj
 0001:000d1510       ?_Insert@?$_Hash@V?$_Uset_traits@U_GUID@@V?$_Hash_compare@U_GUID@@Uuuid_hash@@Uuuid_equal@@@std@@V?$allocator@U_GUID@@@3@$0A@@tr1@std@@@std@@IAE?AU?$pair@V?$_List_const_iterator@V?$_List_val@U_GUID@@V?$allocator@U_GUID@@@std@@@std@@@std@@_N@2@ABU_GUID@@V?$_List_const_iterator@V?$_List_val@U_GUID@@V?$allocator@U_GUID@@@std@@@std@@@2@@Z 004d2510 f i edit.obj
 0001:000d1650       ?_Reinsert@?$_Hash@V?$_Uset_traits@UFarColor@@V?$_Hash_compare@UFarColor@@Ucolor_hash@@Ucolor_equal@@@std@@V?$allocator@UFarColor@@@3@$0A@@tr1@std@@@std@@IAEXV?$_List_const_iterator@V?$_List_val@UFarColor@@V?$allocator@UFarColor@@@std@@@std@@@2@@Z 004d2650 f i edit.obj
 0001:000d16a0       ?_Reinsert@?$_Hash@V?$_Uset_traits@U_GUID@@V?$_Hash_compare@U_GUID@@Uuuid_hash@@Uuuid_equal@@@std@@V?$allocator@U_GUID@@@3@$0A@@tr1@std@@@std@@IAEXV?$_List_const_iterator@V?$_List_val@U_GUID@@V?$allocator@U_GUID@@@std@@@std@@@2@@Z 004d26a0 f i edit.obj
 0001:000d16f0       ?SetOwner@ColorItem@@QAEXABU_GUID@@@Z 004d26f0 f   edit.obj
 0001:000d1770       ?SetColor@ColorItem@@QAEXABUFarColor@@@Z 004d2770 f   edit.obj
 0001:000d17f0       ?SetObjectColor@EditControl@@QAEXW4PaletteColors@@00@Z 004d27f0 f   editcontrol.obj
 0001:000d18d0       ?SetObjectColor@EditControl@@QAEXABUFarColor@@00@Z 004d28d0 f   editcontrol.obj
 0001:000d1970       ?GetSelectedColor@EditControl@@EBEABUFarColor@@XZ 004d2970 f   editcontrol.obj
 0001:000d1980       ?GetUnchangedColor@EditControl@@EBEABUFarColor@@XZ 004d2980 f   editcontrol.obj
 0001:000d1990       ?GetTabSize@EditControl@@EBE?BHXZ 004d2990 f   editcontrol.obj
 0001:000d19b0       ?WordDiv@EditControl@@EBEABVUnicodeString@@XZ 004d29b0 f   editcontrol.obj
 0001:000d19d0       ?Show@EditControl@@UAEXXZ  004d29d0 f   editcontrol.obj
 0001:000d1a00       ?SetMenuPos@EditControl@@AAEXAAVVMenu2@@@Z 004d2a00 f   editcontrol.obj
 0001:000d1b10       ?ProcessMouse@EditControl@@UAEHPBU_MOUSE_EVENT_RECORD@@@Z 004d2b10 f   editcontrol.obj
 0001:000d1c00       ?_Target_type@?$_Impl_no_alloc1@U?$_Callable_obj@V<lambda5>@?A0x1b51cb85@@$0A@@tr1@std@@HH@tr1@std@@UBEABVtype_info@@XZ 004d2c00 f i editcontrol.obj
 0001:000d1c10       ??_G?$_Impl_no_alloc1@U?$_Callable_obj@V<lambda5>@?A0x1b51cb85@@$0A@@tr1@std@@HH@tr1@std@@UAEPAXI@Z 004d2c10 f i editcontrol.obj
 0001:000d1c10       ??_E?$_Impl_no_alloc1@U?$_Callable_obj@V<lambda5>@?A0x1b51cb85@@$0A@@tr1@std@@HH@tr1@std@@UAEPAXI@Z 004d2c10 f i editcontrol.obj
 0001:000d1c70       ?_Copy@?$_Impl_no_alloc1@U?$_Callable_obj@V<lambda5>@?A0x1b51cb85@@$0A@@tr1@std@@HH@tr1@std@@UAEPAV?$_Impl_base1@HH@23@PAX@Z 004d2c70 f i editcontrol.obj
 0001:000d1d20       ?SetInputMask@EditControl@@EAEXABVUnicodeString@@@Z 004d2d20 f   editcontrol.obj
 0001:000d1d50       ??0EditControl@@QAE@PAVScreenObject@@PAUCallback@0@_NPAVHistory@@PAUFarList@@K@Z 004d2d50 f   editcontrol.obj
 0001:000d1e80       ?GetMaxLength@EditControl@@UBEHXZ 004d2e80 f i editcontrol.obj
 0001:000d1e90       ?GetPrevCurPos@EditControl@@EBEHXZ 004d2e90 f i editcontrol.obj
 0001:000d1ea0       ?SetPrevCurPos@EditControl@@EAEXH@Z 004d2ea0 f i editcontrol.obj
 0001:000d1eb0       ?GetCursorSize@EditControl@@EAEHXZ 004d2eb0 f i editcontrol.obj
 0001:000d1ec0       ?SetCursorSize@EditControl@@EAEXH@Z 004d2ec0 f i editcontrol.obj
 0001:000d1ed0       ?GetMacroSelectionStart@EditControl@@EBEHXZ 004d2ed0 f i editcontrol.obj
 0001:000d1ee0       ?SetMacroSelectionStart@EditControl@@EAEXH@Z 004d2ee0 f i editcontrol.obj
 0001:000d1ef0       ?GetLineCursorPos@EditControl@@EBEHXZ 004d2ef0 f i editcontrol.obj
 0001:000d1f00       ?SetLineCursorPos@EditControl@@EAEXH@Z 004d2f00 f i editcontrol.obj
 0001:000d1f10       ?DisableCallback@EditControl@@EAEXXZ 004d2f10 f i editcontrol.obj
 0001:000d1f30       ?RevertCallback@EditControl@@EAEXXZ 004d2f30 f i editcontrol.obj
 0001:000d1f40       ?GetInputMask@EditControl@@EBE?BVUnicodeString@@XZ 004d2f40 f i editcontrol.obj
 0001:000d1fc0       ?RefreshStrByMask@EditControl@@MAEXH@Z 004d2fc0 f   editcontrol.obj
 0001:000d2100       ??$_Find@V?$_List_unchecked_const_iterator@V?$_List_val@VUnicodeString@@V?$allocator@VUnicodeString@@@std@@@std@@U_Iterator_base0@2@@std@@VUnicodeString@@@std@@YA?AV?$_List_unchecked_const_iterator@V?$_List_val@VUnicodeString@@V?$allocator@VUnicodeString@@@std@@@std@@U_Iterator_base0@2@@0@V10@0ABVUnicodeString@@@Z 004d3100 f i editcontrol.obj
 0001:000d2150       ??_GEditControl@@UAEPAXI@Z 004d3150 f i editcontrol.obj
 0001:000d2150       ??_EEditControl@@UAEPAXI@Z 004d3150 f i editcontrol.obj
 0001:000d21f0       ??$?0V<lambda5>@?A0x1b51cb85@@@?$function@$$A6AHH@Z@tr1@std@@QAE@V<lambda5>@?A0x1b51cb85@@@Z 004d31f0 f i editcontrol.obj
 0001:000d22c0       ?EnumFiles@@YAXAAVVMenu2@@ABVUnicodeString@@@Z 004d32c0 f   editcontrol.obj
 0001:000d2970       ??$_For_each@V?$_List_unchecked_const_iterator@V?$_List_val@VUnicodeString@@V?$allocator@VUnicodeString@@@std@@@std@@U_Iterator_base0@2@@std@@V<lambda1>@?A0x1b51cb85@@@std@@YA?AV<lambda1>@?A0x1b51cb85@@V?$_List_unchecked_const_iterator@V?$_List_val@VUnicodeString@@V?$allocator@VUnicodeString@@@std@@@std@@U_Iterator_base0@2@@0@0V12@@Z 004d3970 f i editcontrol.obj
 0001:000d2a60       ??$_For_each@V?$_List_unchecked_const_iterator@V?$_List_val@VUnicodeString@@V?$allocator@VUnicodeString@@@std@@@std@@U_Iterator_base0@2@@std@@V<lambda4>@?A0x1b51cb85@@@std@@YA?AV<lambda4>@?A0x1b51cb85@@V?$_List_unchecked_const_iterator@V?$_List_val@VUnicodeString@@V?$allocator@VUnicodeString@@@std@@@std@@U_Iterator_base0@2@@0@0V12@@Z 004d3a60 f i editcontrol.obj
 0001:000d2b50       ??$_For_each@V?$_List_unchecked_const_iterator@V?$_List_val@VUnicodeString@@V?$allocator@VUnicodeString@@@std@@@std@@U_Iterator_base0@2@@std@@V<lambda2>@?A0x1b51cb85@@@std@@YA?AV<lambda2>@?A0x1b51cb85@@V?$_List_unchecked_const_iterator@V?$_List_val@VUnicodeString@@V?$allocator@VUnicodeString@@@std@@@std@@U_Iterator_base0@2@@0@0V12@@Z 004d3b50 f i editcontrol.obj
 0001:000d2d80       ?EnumModules@@YA_NABVUnicodeString@@PAVVMenu2@@@Z 004d3d80 f   editcontrol.obj
 0001:000d35b0       ?AutoCompleteProc@EditControl@@AAEH_N0AAHW4FARMACROAREA@@@Z 004d45b0 f   editcontrol.obj
 0001:000d3e00       ??R<lambda5>@?A0x1b51cb85@@QBEHH@Z 004d4e00 f i editcontrol.obj
 0001:000d4780       ?AutoComplete@EditControl@@QAEX_N0@Z 004d5780 f   editcontrol.obj
 0001:000d48e0       ?Changed@EditControl@@UAEX_N@Z 004d58e0 f   editcontrol.obj
 0001:000d4920       ?_Do_call@?$_Impl_no_alloc1@U?$_Callable_obj@V<lambda5>@?A0x1b51cb85@@$0A@@tr1@std@@HH@tr1@std@@UAEHH@Z 004d5920 f i editcontrol.obj
 0001:000d4930       ??4Bool3Option@@QAEAAV0@H@Z 004d5930 f i editor.obj
 0001:000d4970       ?SetAutoIndent@Editor@@QAEX_N@Z 004d5970 f i editor.obj
 0001:000d49a0       ?SetCharCodeBase@Editor@@QAEXH@Z 004d59a0 f i editor.obj
 0001:000d49f0       ?IsCharKey@@YA_NI@Z        004d59f0 f i editor.obj
 0001:000d4a20       ?CheckLine@Editor@@AAE_NPBVEdit@@@Z 004d5a20 f   editor.obj
 0001:000d4a50       ?CalcDistance@Editor@@AAEHPBVEdit@@0H@Z 004d5a50 f   editor.obj
 0001:000d4a90       ?Down@Editor@@AAEXXZ       004d5a90 f   editor.obj
 0001:000d4af0       ?ScrollDown@Editor@@AAEXXZ 004d5af0 f   editor.obj
 0001:000d4b60       ?Up@Editor@@AAEXXZ         004d5b60 f   editor.obj
 0001:000d4ba0       ?ScrollUp@Editor@@AAEXXZ   004d5ba0 f   editor.obj
 0001:000d4bf0       ?Block2Text@Editor@@AAEPA_WPA_W@Z 004d5bf0 f   editor.obj
 0001:000d4dc0       ?GoToLine@Editor@@AAEXH@Z  004d5dc0 f   editor.obj
 0001:000d4ee0       ?SelectAll@Editor@@AAEXXZ  004d5ee0 f   editor.obj
 0001:000d4f30       ?SetStartPos@Editor@@QAEXHH@Z 004d5f30 f   editor.obj
 0001:000d4f60       ?GetCurPos@Editor@@QAEJ_N0@Z 004d5f60 f   editor.obj
 0001:000d5060       ?VBlock2Text@Editor@@AAEPA_WPA_W@Z 004d6060 f   editor.obj
 0001:000d5290       ?ClearSessionBookmarks@Editor@@AAEHXZ 004d6290 f   editor.obj
 0001:000d5310       ?DeleteSessionBookmark@Editor@@AAEHPAUInternalEditorSessionBookMark@@@Z 004d6310 f   editor.obj
 0001:000d5370       ?AddSessionBookmark@Editor@@AAEHH@Z 004d6370 f   editor.obj
 0001:000d5460       ?InsertSessionBookmarkBack@Editor@@AAEHPAUInternalEditorSessionBookMark@@@Z 004d6460 f   editor.obj
 0001:000d55e0       ?PointerToSessionBookmark@Editor@@AAEPAUInternalEditorSessionBookMark@@H@Z 004d65e0 f   editor.obj
 0001:000d5620       ?PushSessionBookMark@Editor@@AAEHXZ 004d6620 f   editor.obj
 0001:000d5650       ?CurrentSessionBookmarkIdx@Editor@@AAEHXZ 004d6650 f   editor.obj
 0001:000d5680       ?GetSessionBookmark@Editor@@AAEHHPAUInternalEditorBookmark@@@Z 004d6680 f   editor.obj
 0001:000d5710       ?GetSessionBookmarks@Editor@@AAEHPAUEditorBookmarks@@@Z 004d6710 f   editor.obj
 0001:000d57d0       ?InitSessionBookmarksForPlugin@Editor@@CA_NPAUEditorBookmarks@@IAAI@Z 004d67d0 f   editor.obj
 0001:000d5820       ?GetStringByNumber@Editor@@AAEPAVEdit@@H@Z 004d6820 f   editor.obj
 0001:000d5950       ?SetReplaceMode@Editor@@SAX_N@Z 004d6950 f   editor.obj
 0001:000d5960       ?AdjustVBlock@Editor@@QAEXH@Z 004d6960 f   editor.obj
 0001:000d59e0       ?SetTabSize@Editor@@QAEXH@Z 004d69e0 f   editor.obj
 0001:000d5a20       ?SetCacheParams@Editor@@QAEXAAUEditorPosCache@@_N@Z 004d6a20 f   editor.obj
 0001:000d5cb0       ?GetCacheParams@Editor@@QAEXAAUEditorPosCache@@@Z 004d6cb0 f   editor.obj
 0001:000d5d30       ?EditSetCodePage@Editor@@QAEKPAVEdit@@I_NAAPADAAH@Z 004d6d30 f   editor.obj
 0001:000d5ef0       ?TryCodePage@Editor@@QAE_NIAAH0@Z 004d6ef0 f   editor.obj
 0001:000d6080       ?SetCodePage@Editor@@QAE_NI@Z 004d7080 f   editor.obj
 0001:000d6270       ?GetCodePage@Editor@@QAEIXZ 004d7270 f   editor.obj
 0001:000d6280       ?DrawScrollbar@Editor@@QAEXXZ 004d7280 f   editor.obj
 0001:000d6300       ?SortColorUnlock@Editor@@QAEXXZ 004d7300 f   editor.obj
 0001:000d6350       ??$CheckStructSize@UEditorGetString@@@@YA_NPBUEditorGetString@@@Z 004d7350 f i editor.obj
 0001:000d6350       ??$CheckStructSize@UEditorDeleteColor@@@@YA_NPBUEditorDeleteColor@@@Z 004d7350 f i editor.obj
 0001:000d6350       ??$CheckStructSize@UEditorSetPosition@@@@YA_NPBUEditorSetPosition@@@Z 004d7350 f i dialog.obj
 0001:000d6370       ??$CheckStructSize@UEditorSubscribeChangeEvent@@@@YA_NPBUEditorSubscribeChangeEvent@@@Z 004d7370 f i editor.obj
 0001:000d6370       ??$CheckStructSize@UFarListTitles@@@@YA_NPBUFarListTitles@@@Z 004d7370 f i dialog.obj
 0001:000d6370       ??$CheckStructSize@UEditorSetString@@@@YA_NPBUEditorSetString@@@Z 004d7370 f i editor.obj
 0001:000d6390       ??$CheckStructSize@UEditorInfo@@@@YA_NPBUEditorInfo@@@Z 004d7390 f i editor.obj
 0001:000d63b0       ??$CheckStructSize@UEditorColor@@@@YA_NPBUEditorColor@@@Z 004d73b0 f i editor.obj
 0001:000d63d0       ??4BoolOption@@QAEAAV0@ABV0@@Z 004d73d0 f i editor.obj
 0001:000d6410       ?AddSessionBM@EditorUndoData@@QAEXPBUInternalEditorSessionBookMark@@@Z 004d7410 f i editor.obj
 0001:000d6480       ??1EditorBlockGuard@Editor@@QAE@XZ 004d7480 f i editor.obj
 0001:000d6490       ?ShowEditor@Editor@@AAEXXZ 004d7490 f   editor.obj
 0001:000d6920       ?TextChanged@Editor@@AAEX_N@Z 004d7920 f   editor.obj
 0001:000d6940       ?BlockStart2NumLine@Editor@@AAEHPAH@Z 004d7940 f   editor.obj
 0001:000d69d0       ?BlockEnd2NumLine@Editor@@AAEHPAH@Z 004d79d0 f   editor.obj
 0001:000d6ae0       ?IsFileChanged@Editor@@QBEHXZ 004d7ae0 f   editor.obj
 0001:000d6af0       ?IsFileModified@Editor@@QBEHXZ 004d7af0 f   editor.obj
 0001:000d6b00       ?VCopy@Editor@@AAEXH@Z     004d7b00 f   editor.obj
 0001:000d6b70       ?SetBookmark@Editor@@AAEHH@Z 004d7b70 f   editor.obj
 0001:000d6be0       ?GetSessionBookmarksForPlugin@Editor@@AAEIPAUEditorBookmarks@@@Z 004d7be0 f   editor.obj
 0001:000d6c40       ?SetDelRemovesBlocks@Editor@@QAEX_N@Z 004d7c40 f   editor.obj
 0001:000d6cb0       ?SetShowWhiteSpace@Editor@@QAEXH@Z 004d7cb0 f   editor.obj
 0001:000d6d50       ?SetPersistentBlocks@Editor@@QAEX_N@Z 004d7d50 f   editor.obj
 0001:000d6dc0       ?SetCursorBeyondEOL@Editor@@QAEX_N@Z 004d7dc0 f   editor.obj
 0001:000d6e40       ?CreateString@Editor@@QAEPAVEdit@@PB_WH@Z 004d7e40 f   editor.obj
 0001:000d6f70       ?InsertString@Editor@@QAEPAVEdit@@PB_WHPAV2@H@Z 004d7f70 f   editor.obj
 0001:000d6ff0       ?Change@Editor@@AAEXW4EDITOR_CHANGETYPE@@H@Z 004d7ff0 f   editor.obj
 0001:000d7070       ?TurnOffMarkingBlock@Editor@@IAEXXZ 004d8070 f   editor.obj
 0001:000d7080       ??0?$array@Uviewer_bookmark@@$09@tr1@std@@QAE@XZ 004d8080 f i viewer.obj
 0001:000d7080       ??0?$array@Ueditor_bookmark@@$09@tr1@std@@QAE@XZ 004d8080 f i editor.obj
 0001:000d7120       ?DisplayObject@Editor@@EAEXXZ 004d8120 f   editor.obj
 0001:000d7130       ?Copy@Editor@@AAEXH@Z      004d8130 f   editor.obj
 0001:000d71a0       ?UnmarkBlock@Editor@@AAEXXZ 004d81a0 f   editor.obj
 0001:000d7260       ?UnmarkEmptyBlock@Editor@@AAEXXZ 004d8260 f   editor.obj
 0001:000d72e0       ?GotoBookmark@Editor@@AAEHH@Z 004d82e0 f   editor.obj
 0001:000d7370       ?RestoreSessionBookmark@Editor@@AAEHXZ 004d8370 f   editor.obj
 0001:000d7420       ?PrevSessionBookmark@Editor@@AAEHXZ 004d8420 f   editor.obj
 0001:000d7440       ?NextSessionBookmark@Editor@@AAEHXZ 004d8440 f   editor.obj
 0001:000d7460       ?GotoSessionBookmark@Editor@@AAEHH@Z 004d8460 f   editor.obj
 0001:000d74c0       ?PopSessionBookMark@Editor@@AAEHXZ 004d84c0 f   editor.obj
 0001:000d7510       ?SetConvertTabs@Editor@@QAEXH@Z 004d8510 f   editor.obj
 0001:000d75d0       ?_Target_type@?$_Impl_no_alloc1@U?$_Callable_obj@V<lambda3>@?A0xf318948e@@$0A@@tr1@std@@HH@tr1@std@@UBEABVtype_info@@XZ 004d85d0 f i editor.obj
 0001:000d75e0       ??_E?$_Impl_no_alloc1@U?$_Callable_obj@V<lambda3>@?A0xf318948e@@$0A@@tr1@std@@HH@tr1@std@@UAEPAXI@Z 004d85e0 f i editor.obj
 0001:000d75e0       ??_G?$_Impl_no_alloc1@U?$_Callable_obj@V<lambda3>@?A0xf318948e@@$0A@@tr1@std@@HH@tr1@std@@UAEPAXI@Z 004d85e0 f i editor.obj
 0001:000d7640       ?_Copy@?$_Impl_no_alloc1@U?$_Callable_obj@V<lambda3>@?A0xf318948e@@$0A@@tr1@std@@HH@tr1@std@@UAEPAV?$_Impl_base1@HH@23@PAX@Z 004d8640 f i editor.obj
 0001:000d7700       ?KeepInitParameters@Editor@@QAEXXZ 004d8700 f   editor.obj
 0001:000d77a0       ?ProcessMouse@Editor@@UAEHPBU_MOUSE_EVENT_RECORD@@@Z 004d87a0 f   editor.obj
 0001:000d7be0       ??R<lambda3>@?A0xf318948e@@QBEHH@Z 004d8be0 f i editor.obj
 0001:000d7e50       ?GetRowCol@Editor@@QAEXABVUnicodeString@@PAH1@Z 004d8e50 f   editor.obj
 0001:000d8000       ?BackSessionBookmark@Editor@@AAEHXZ 004d9000 f   editor.obj
 0001:000d8070       ?ProcessVBlockMarking@Editor@@QAEXXZ 004d9070 f   editor.obj
 0001:000d8120       ??0?$list@U_GUID@@V?$allocator@U_GUID@@@std@@@std@@QAE@XZ 004d9120 f i editor.obj
 0001:000d81c0       ?remove@?$list@U_GUID@@V?$allocator@U_GUID@@@std@@@std@@QAEXABU_GUID@@@Z 004d91c0 f i editor.obj
 0001:000d8240       ??$for_each@V?$_Array_iterator@Ueditor_bookmark@@$09@std@@V<lambda2>@?A0xf318948e@@@std@@YA?AV<lambda2>@?A0xf318948e@@V?$_Array_iterator@Ueditor_bookmark@@$09@0@0V12@@Z 004d9240 f i editor.obj
 0001:000d8290       ??$unique@P6A_NABU_GUID@@0@Z@?$list@U_GUID@@V?$allocator@U_GUID@@@std@@@std@@QAEXP6A_NABU_GUID@@0@Z@Z 004d9290 f i editor.obj
 0001:000d82e0       ??$_Uninit_def_fill_n@PAURegExpMatch@@IU1@V?$allocator@URegExpMatch@@@std@@U1@@std@@YAXPAURegExpMatch@@IPBU1@AAV?$allocator@URegExpMatch@@@0@0U_Nonscalar_ptr_iterator_tag@0@@Z 004d92e0 f i editor.obj
 0001:000d8370       ??1EditorUndoData@@QAE@XZ  004d9370 f i editor.obj
 0001:000d8400       ??4EditorUndoData@@QAEAAU0@$$QAU0@@Z 004d9400 f i editor.obj
 0001:000d8460       ?SetData@EditorUndoData@@QAEXHPB_W0HHH@Z 004d9460 f i editor.obj
 0001:000d8570       ??4EditorOptions@Options@@QAEAAU01@ABU01@@Z 004d9570 f i editor.obj
 0001:000d8a80       ?GoToPosition@Editor@@AAEXXZ 004d9a80 f   editor.obj
 0001:000d8bf0       ?SetOptions@Editor@@QAEXABUEditorOptions@Options@@@Z 004d9bf0 f   editor.obj
 0001:000d8ca0       ??$_Reset@V<lambda3>@?A0xf318948e@@@?$_Function_impl1@HH@tr1@std@@IAEXV<lambda3>@?A0xf318948e@@@Z 004d9ca0 f i editor.obj
 0001:000d8d80       ?_Do_call@?$_Impl_no_alloc1@U?$_Callable_obj@V<lambda3>@?A0xf318948e@@$0A@@tr1@std@@HH@tr1@std@@UAEHH@Z 004d9d80 f i editor.obj
 0001:000d8d90       ?Lower@@YAAAVUnicodeString@@AAV1@II@Z 004d9d90 f i editor.obj
 0001:000d8e00       ?push_back@?$list@U_GUID@@V?$allocator@U_GUID@@@std@@@std@@QAEXABU_GUID@@@Z 004d9e00 f i editor.obj
 0001:000d8e50       ?reserve@?$vector@UFarSettingsName@@V?$allocator@UFarSettingsName@@@std@@@std@@QAEXI@Z 004d9e50 f i plugsettings.obj
 0001:000d8e50       ?reserve@?$vector@URegExpMatch@@V?$allocator@URegExpMatch@@@std@@@std@@QAEXI@Z 004d9e50 f i editor.obj
 0001:000d8f20       ??$merge@P6A_NABU_GUID@@0@Z@?$list@U_GUID@@V?$allocator@U_GUID@@@std@@@std@@QAEXAAV01@P6A_NABU_GUID@@1@Z@Z 004d9f20 f i editor.obj
 0001:000d8fa0       ??$_Cons_val@V?$allocator@UEditorUndoData@@@std@@UEditorUndoData@@U3@@std@@YAXAAV?$allocator@UEditorUndoData@@@0@PAUEditorUndoData@@$$QAU2@@Z 004d9fa0 f i editor.obj
 0001:000d9010       ?EditorShowMsg@Editor@@CAXABVUnicodeString@@00H@Z 004da010 f   editor.obj
 0001:000d9410       ?PR_EditorShowMsg@Editor@@SAXXZ 004da410 f   editor.obj
 0001:000d9580       ?_Reserve@?$vector@URegExpMatch@@V?$allocator@URegExpMatch@@@std@@@std@@IAEXI@Z 004da580 f i editor.obj
 0001:000d95e0       ??$_Buynode@UEditorUndoData@@@?$_List_val@UEditorUndoData@@V?$allocator@UEditorUndoData@@@std@@@std@@QAEPAU_Node@?$_List_nod@UEditorUndoData@@V?$allocator@UEditorUndoData@@@std@@@1@PAU231@0$$QAUEditorUndoData@@@Z 004da5e0 f i editor.obj
 0001:000d96b0       ?resize@?$vector@URegExpMatch@@V?$allocator@URegExpMatch@@@std@@@std@@QAEXI@Z 004da6b0 f i editor.obj
 0001:000d9740       ?erase@?$list@UEditorUndoData@@V?$allocator@UEditorUndoData@@@std@@@std@@QAE?AV?$_List_iterator@V?$_List_val@UEditorUndoData@@V?$allocator@UEditorUndoData@@@std@@@std@@@2@V?$_List_const_iterator@V?$_List_val@UEditorUndoData@@V?$allocator@UEditorUndoData@@@std@@@std@@@2@@Z 004da740 f i editor.obj
 0001:000d97c0       ?clear@?$list@UEditorUndoData@@V?$allocator@UEditorUndoData@@@std@@@std@@QAEXXZ 004da7c0 f i editor.obj
 0001:000d9890       ??$sort@P6A_NABU_GUID@@0@Z@?$list@U_GUID@@V?$allocator@U_GUID@@@std@@@std@@QAEXP6A_NABU_GUID@@0@Z@Z 004da890 f i editor.obj
 0001:000d9bb0       ?FreeAllocatedData@Editor@@QAEX_N@Z 004dabb0 f   editor.obj
 0001:000d9c10       ??1?$list@UEditorUndoData@@V?$allocator@UEditorUndoData@@@std@@@std@@QAE@XZ 004dac10 f i editor.obj
 0001:000d9c70       ??0Editor@@QAE@PAVScreenObject@@_N@Z 004dac70 f   editor.obj
 0001:000da040       ??1Editor@@UAE@XZ          004db040 f   editor.obj
 0001:000da170       ?AddUndoData@Editor@@AAEXHPB_W0HHH@Z 004db170 f   editor.obj
 0001:000da4b0       ?DeleteVBlock@Editor@@AAEXXZ 004db4b0 f   editor.obj
 0001:000da760       ?VPaste@Editor@@AAEXPA_W@Z 004db760 f   editor.obj
 0001:000da990       ?VBlockShift@Editor@@AAEXH@Z 004db990 f   editor.obj
 0001:000dad30       ?Xlat@Editor@@QAEXXZ       004dbd30 f   editor.obj
 0001:000db140       ??_EEditor@@UAEPAXI@Z      004dc140 f i editor.obj
 0001:000db140       ??_GEditor@@UAEPAXI@Z      004dc140 f i editor.obj
 0001:000db170       ?DeleteString@Editor@@AAEXPAVEdit@@HHH@Z 004dc170 f   editor.obj
 0001:000db3e0       ?InsertString@Editor@@AAEXXZ 004dc3e0 f   editor.obj
 0001:000dbbd0       ??1AutoUndoBlock@@QAE@XZ   004dcbd0 f i editor.obj
 0001:000dbbf0       ?Search@Editor@@AAEHH@Z    004dcbf0 f   editor.obj
 0001:000ddd90       ?Paste@Editor@@AAEXPB_W@Z  004ded90 f   editor.obj
 0001:000de0f0       ?DeleteBlock@Editor@@AAEXXZ 004df0f0 f   editor.obj
 0001:000de470       ?Undo@Editor@@AAEXH@Z      004df470 f   editor.obj
 0001:000de7d0       ?BlockLeft@Editor@@AAEXXZ  004df7d0 f   editor.obj
 0001:000dead0       ?BlockRight@Editor@@AAEXXZ 004dfad0 f   editor.obj
 0001:000ded70       ?EditorControl@Editor@@QAEHHHPAX@Z 004dfd70 f   editor.obj
 0001:000dfe80       ?VMProcess@Editor@@UAE_JHPAX_J@Z 004e0e80 f   editor.obj
 0001:000e06f0       ?ProcessKey@Editor@@UAEHH@Z 004e16f0 f   editor.obj
 0001:000e3c90       ?EjectVolume@@YAH_W_K@Z    004e4c90 f   eject.obj
 0001:000e4050       ?IsEjectableMedia@@YA_N_WIH@Z 004e5050 f   eject.obj
 0001:000e41c0       ??0ERRORCODES@@QAE@XZ      004e51c0 f i elevation.obj
 0001:000e41c0       ??0GuardLastError@@QAE@XZ  004e51c0 f i elevation.obj
 0001:000e41f0       ??1GuardLastError@@QAE@XZ  004e51f0 f i elevation.obj
 0001:000e4220       ??$Read@VUnicodeString@@@pipe@@YA_NPAXAAVUnicodeString@@@Z 004e5220 f i elevation.obj
 0001:000e42b0       ?ResetApprove@elevation@@QAEXXZ 004e52b0 f   elevation.obj
 0001:000e42e0       ?Write@elevation@@ABE_NPBXI@Z 004e52e0 f   elevation.obj
 0001:000e4340       ?ElevationApproveDlgProc@@YAHPAVDialog@@HHPAX@Z 004e5340 f   elevation.obj
 0001:000e43d0       ?Write@elevated@@ABE_NPBXI@Z 004e53d0 f i elevation.obj
 0001:000e4430       ?ExitHandler@elevated@@AAEXXZ 004e5430 f i elevation.obj
 0001:000e4440       ??$Write@U_SHFILEOPSTRUCTW@@@pipe@@YA_NPAXABU_SHFILEOPSTRUCTW@@@Z 004e5440 f i elevation.obj
 0001:000e44b0       ??$Write@U_VIRTUAL_STORAGE_TYPE@@@pipe@@YA_NPAXABU_VIRTUAL_STORAGE_TYPE@@@Z 004e54b0 f i elevation.obj
 0001:000e4520       ??$Write@H@pipe@@YA_NPAXABH@Z 004e5520 f i elevation.obj
 0001:000e4520       ??$Write@W4_VIRTUAL_DISK_ACCESS_MASK@@@pipe@@YA_NPAXABW4_VIRTUAL_DISK_ACCESS_MASK@@@Z 004e5520 f i elevation.obj
 0001:000e4520       ??$Write@W4ELEVATION_COMMAND@@@pipe@@YA_NPAXABW4ELEVATION_COMMAND@@@Z 004e5520 f i elevation.obj
 0001:000e4520       ??$Write@W4_OPEN_VIRTUAL_DISK_FLAG@@@pipe@@YA_NPAXABW4_OPEN_VIRTUAL_DISK_FLAG@@@Z 004e5520 f i elevation.obj
 0001:000e4520       ??$Write@K@pipe@@YA_NPAXABK@Z 004e5520 f i elevation.obj
 0001:000e4590       ??$Write@T_LARGE_INTEGER@@@pipe@@YA_NPAXABT_LARGE_INTEGER@@@Z 004e5590 f i elevation.obj
 0001:000e4590       ??$Write@UERRORCODES@@@pipe@@YA_NPAXABUERRORCODES@@@Z 004e5590 f i elevation.obj
 0001:000e4590       ??$Write@U_OPEN_VIRTUAL_DISK_PARAMETERS@@@pipe@@YA_NPAXABU_OPEN_VIRTUAL_DISK_PARAMETERS@@@Z 004e5590 f i elevation.obj
 0001:000e4600       ?IsMainThread@global@@QBE_NXZ 004e5600 f i elevation.obj
 0001:000e4620       ??0DisableElevation@@QAE@XZ 004e5620 f   elevation.obj
 0001:000e4650       ??1DisableElevation@@QAE@XZ 004e5650 f   elevation.obj
 0001:000e4670       ?ElevationRequired@@YA_NW4ELEVATION_MODE@@_N@Z 004e5670 f   elevation.obj
 0001:000e46d0       ??0?$TaskBarState@$07@@QAE@XZ 004e56d0 f i elevation.obj
 0001:000e4740       ??1?$TaskBarState@$07@@QAE@XZ 004e5740 f i elevation.obj
 0001:000e4760       ??$Read@_N@elevation@@ABE_NAA_N@Z 004e5760 f i elevation.obj
 0001:000e47d0       ??$Read@T_LARGE_INTEGER@@@elevation@@ABE_NAAT_LARGE_INTEGER@@@Z 004e57d0 f i elevation.obj
 0001:000e4840       ??$Read@H@elevation@@ABE_NAAH@Z 004e5840 f i elevation.obj
 0001:000e4840       ??$Read@K@elevation@@ABE_NAAK@Z 004e5840 f i elevation.obj
 0001:000e48b0       ??$Write@_N@elevation@@ABE_NAB_N@Z 004e58b0 f i elevation.obj
 0001:000e4910       ??$Write@_N@elevated@@ABE_NAB_N@Z 004e5910 f i elevation.obj
 0001:000e4980       ??$Read@H@elevated@@ABE_NAAH@Z 004e5980 f i elevation.obj
 0001:000e4980       ??$Read@K@elevated@@ABE_NAAK@Z 004e5980 f i elevation.obj
 0001:000e4980       ??$Read@W4_VIRTUAL_DISK_ACCESS_MASK@@@elevated@@ABE_NAAW4_VIRTUAL_DISK_ACCESS_MASK@@@Z 004e5980 f i elevation.obj
 0001:000e4980       ??$Read@W4_OPEN_VIRTUAL_DISK_FLAG@@@elevated@@ABE_NAAW4_OPEN_VIRTUAL_DISK_FLAG@@@Z 004e5980 f i elevation.obj
 0001:000e49f0       ??$Read@_N@elevated@@ABE_NAA_N@Z 004e59f0 f i elevation.obj
 0001:000e4a60       ??$Read@U_OPEN_VIRTUAL_DISK_PARAMETERS@@@elevated@@ABE_NAAU_OPEN_VIRTUAL_DISK_PARAMETERS@@@Z 004e5a60 f i elevation.obj
 0001:000e4ad0       ?ReceiveLastError@elevation@@ABE_NXZ 004e5ad0 f   elevation.obj
 0001:000e4b50       ?CopyProgressRoutineWrapper@elevated@@CGKT_LARGE_INTEGER@@000KKPAX11@Z 004e5b50 f i elevation.obj
 0001:000e4c70       ??1?$unique_ptr@VEvent@@U?$default_delete@VEvent@@@std@@@std@@QAE@XZ 004e5c70 f i elevation.obj
 0001:000e4c80       ?reset@?$unique_ptr@VEvent@@U?$default_delete@VEvent@@@std@@@std@@QAEXPAVEvent@@@Z 004e5c80 f i elevation.obj
 0001:000e4cb0       ??$Write@VUnicodeString@@@elevation@@ABE_NABVUnicodeString@@@Z 004e5cb0 f i elevation.obj
 0001:000e4d20       ??0EAData@@QAE@ABVUnicodeString@@W4LNGID@@AA_N22@Z 004e5d20 f i elevation.obj
 0001:000e4d90       ??1EAData@@QAE@XZ          004e5d90 f i elevation.obj
 0001:000e4de0       ??$Read@V?$array_ptr@D@@@pipe@@YA_NPAXAAV?$array_ptr@D@@@Z 004e5de0 f i elevation.obj
 0001:000e4e80       ??0elevation@@QAE@XZ       004e5e80 f   elevation.obj
 0001:000e4f10       ??1elevation@@QAE@XZ       004e5f10 f   elevation.obj
 0001:000e4fe0       ?fCallbackRoutine@elevation@@QBEXP6GKT_LARGE_INTEGER@@000KKPAX11@Z@Z 004e5fe0 f   elevation.obj
 0001:000e5120       ?CreateDirectoryExHandler@elevated@@AAEXXZ 004e6120 f i elevation.obj
 0001:000e52a0       ?RemoveDirectoryHandler@elevated@@AAEXXZ 004e62a0 f i elevation.obj
 0001:000e53a0       ?DeleteFileHandler@elevated@@AAEXXZ 004e63a0 f i elevation.obj
 0001:000e54a0       ?CopyFileExHandler@elevated@@AAEXXZ 004e64a0 f i elevation.obj
 0001:000e5680       ?MoveFileExHandler@elevated@@AAEXXZ 004e6680 f i elevation.obj
 0001:000e57f0       ?GetFileAttributesHandler@elevated@@AAEXXZ 004e67f0 f i elevation.obj
 0001:000e58f0       ?SetFileAttributesHandler@elevated@@AAEXXZ 004e68f0 f i elevation.obj
 0001:000e5a00       ?CreateHardLinkHandler@elevated@@AAEXXZ 004e6a00 f i elevation.obj
 0001:000e5b60       ?CreateSymbolicLinkHandler@elevated@@AAEXXZ 004e6b60 f i elevation.obj
 0001:000e5cd0       ?MoveToRecycleBinHandler@elevated@@AAEXXZ 004e6cd0 f i elevation.obj
 0001:000e5e60       ?SetOwnerHandler@elevated@@AAEXXZ 004e6e60 f i elevation.obj
 0001:000e5fc0       ?CreateFileHandler@elevated@@AAEXXZ 004e6fc0 f i elevation.obj
 0001:000e6160       ?SetEncryptionHandler@elevated@@AAEXXZ 004e7160 f i elevation.obj
 0001:000e6270       ?OpenVirtualDiskHandler@elevated@@AAEXXZ 004e7270 f i elevation.obj
 0001:000e6460       ?Initialize@elevation@@AAE_NXZ 004e7460 f   elevation.obj
 0001:000e6a80       ?Run@elevated@@QAEHPB_WK_N@Z 004e7a80 f i elevation.obj
 0001:000e6df0       ?ElevationMain@@YAHPB_WK_N@Z 004e7df0 f   elevation.obj
 0001:000e6e10       ??$MakeDialogItemsEx@$08@@YA?AV?$vector@UDialogItemEx@@V?$allocator@UDialogItemEx@@@std@@@std@@AAY08$$CBUFarDialogItem@@@Z 004e7e10 f i elevation.obj
 0001:000e6e80       ?ElevationApproveDlgSync@@YAXPAX@Z 004e7e80 f   elevation.obj
 0001:000e74a0       ?ElevationApproveDlg@elevation@@AAE_NW4LNGID@@ABVUnicodeString@@@Z 004e84a0 f   elevation.obj
 0001:000e76b0       ?fCreateDirectoryEx@elevation@@QAE_NABVUnicodeString@@0PAU_SECURITY_ATTRIBUTES@@@Z 004e86b0 f   elevation.obj
 0001:000e7830       ?fRemoveDirectory@elevation@@QAE_NABVUnicodeString@@@Z 004e8830 f   elevation.obj
 0001:000e7970       ?fDeleteFile@elevation@@QAE_NABVUnicodeString@@@Z 004e8970 f   elevation.obj
 0001:000e7ab0       ?fCopyFileEx@elevation@@QAE_NABVUnicodeString@@0P6GKT_LARGE_INTEGER@@111KKPAX22@Z2PAHK@Z 004e8ab0 f   elevation.obj
 0001:000e7ca0       ?fMoveFileEx@elevation@@QAE_NABVUnicodeString@@0K@Z 004e8ca0 f   elevation.obj
 0001:000e7e10       ?fGetFileAttributes@elevation@@QAEKABVUnicodeString@@@Z 004e8e10 f   elevation.obj
 0001:000e7f60       ?fSetFileAttributes@elevation@@QAE_NABVUnicodeString@@K@Z 004e8f60 f   elevation.obj
 0001:000e80c0       ?fCreateHardLink@elevation@@QAE_NABVUnicodeString@@0PAU_SECURITY_ATTRIBUTES@@@Z 004e90c0 f   elevation.obj
 0001:000e8230       ?fCreateSymbolicLink@elevation@@QAE_NABVUnicodeString@@0K@Z 004e9230 f   elevation.obj
 0001:000e83a0       ?fMoveToRecycleBin@elevation@@QAEHAAU_SHFILEOPSTRUCTW@@@Z 004e93a0 f   elevation.obj
 0001:000e85e0       ?fSetOwner@elevation@@QAE_NABVUnicodeString@@0@Z 004e95e0 f   elevation.obj
 0001:000e8740       ?fCreateFile@elevation@@QAEPAXABVUnicodeString@@KKPAU_SECURITY_ATTRIBUTES@@KKPAX@Z 004e9740 f   elevation.obj
 0001:000e8910       ?fSetFileEncryption@elevation@@QAE_NABVUnicodeString@@_N@Z 004e9910 f   elevation.obj
 0001:000e8a70       ?fOpenVirtualDisk@elevation@@QAE_NAAU_VIRTUAL_STORAGE_TYPE@@ABVUnicodeString@@W4_VIRTUAL_DISK_ACCESS_MASK@@W4_OPEN_VIRTUAL_DISK_FLAG@@AAU_OPEN_VIRTUAL_DISK_PARAMETERS@@AAPAX@Z 004e9a70 f   elevation.obj
 0001:000e8dd0       ??$_Cons_val@V?$allocator@UFAR_CHAR_INFO@@@std@@UFAR_CHAR_INFO@@U3@@std@@YAXAAV?$allocator@UFAR_CHAR_INFO@@@0@PAUFAR_CHAR_INFO@@$$QAU2@@Z 004e9dd0 f i execute.obj
 0001:000e8e30       ??$_Uninit_move@PAUFAR_CHAR_INFO@@PAU1@V?$allocator@UFAR_CHAR_INFO@@@std@@U1@@std@@YAPAUFAR_CHAR_INFO@@PAU1@00AAV?$allocator@UFAR_CHAR_INFO@@@0@0U_Nonscalar_ptr_iterator_tag@0@@Z 004e9e30 f i execute.obj
 0001:000e8f00       ??$_Any_of@V?$_List_unchecked_const_iterator@V?$_List_val@VUnicodeString@@V?$allocator@VUnicodeString@@@std@@@std@@U_Iterator_base0@2@@std@@V<lambda1>@?A0x345ad157@@@std@@YA_NV?$_List_unchecked_const_iterator@V?$_List_val@VUnicodeString@@V?$allocator@VUnicodeString@@@std@@@std@@U_Iterator_base0@2@@0@0V<lambda1>@?A0x345ad157@@@Z 004e9f00 f i execute.obj
 0001:000e8f00       ??$_Any_of@V?$_List_unchecked_const_iterator@V?$_List_val@VUnicodeString@@V?$allocator@VUnicodeString@@@std@@@std@@U_Iterator_base0@2@@std@@V<lambda4>@?A0x345ad157@@@std@@YA_NV?$_List_unchecked_const_iterator@V?$_List_val@VUnicodeString@@V?$allocator@VUnicodeString@@@std@@@std@@U_Iterator_base0@2@@0@0V<lambda4>@?A0x345ad157@@@Z 004e9f00 f i execute.obj
 0001:000e8f00       ??$_Any_of@V?$_List_unchecked_const_iterator@V?$_List_val@U?$pair@VUnicodeString@@H@std@@V?$allocator@U?$pair@VUnicodeString@@H@std@@@2@@std@@U_Iterator_base0@2@@std@@V<lambda3>@?A0x41da663a@@@std@@YA_NV?$_List_unchecked_const_iterator@V?$_List_val@U?$pair@VUnicodeString@@H@std@@V?$allocator@U?$pair@VUnicodeString@@H@std@@@2@@std@@U_Iterator_base0@2@@0@0V<lambda3>@?A0x41da663a@@@Z 004e9f00 f i filefilter.obj
 0001:000e8f50       ??$_Uninit_def_fill_n@PAUFAR_CHAR_INFO@@IU1@V?$allocator@UFAR_CHAR_INFO@@@std@@U1@@std@@YAXPAUFAR_CHAR_INFO@@IPBU1@AAV?$allocator@UFAR_CHAR_INFO@@@0@0U_Nonscalar_ptr_iterator_tag@0@@Z 004e9f50 f i execute.obj
 0001:000e8ff0       ??$_Umove@PAUFAR_CHAR_INFO@@@?$vector@UFAR_CHAR_INFO@@V?$allocator@UFAR_CHAR_INFO@@@std@@@std@@IAEPAUFAR_CHAR_INFO@@PAU2@00@Z 004e9ff0 f i execute.obj
 0001:000e9390       ?GetShellType@@YA_NABVUnicodeString@@AAV1@W4ASSOCIATIONTYPE@@@Z 004ea390 f   execute.obj
 0001:000e96c0       ?PrepareOSIfExist@@YAPB_WABVUnicodeString@@@Z 004ea6c0 f   execute.obj
 0001:000e9c70       ?ProcessOSAliases@@YA_NAAVUnicodeString@@@Z 004eac70 f   execute.obj
 0001:000ea000       ?reserve@?$vector@UFAR_CHAR_INFO@@V?$allocator@UFAR_CHAR_INFO@@@std@@@std@@QAEXI@Z 004eb000 f i execute.obj
 0001:000ea0d0       ??$_Any_of@PBQAUHKEY__@@V<lambda3>@?A0x345ad157@@@std@@YA_NPBQAUHKEY__@@0V<lambda3>@?A0x345ad157@@@Z 004eb0d0 f i execute.obj
 0001:000ea210       ?replace@UnicodeString@@QAEAAV1@III_W@Z 004eb210 f i execute.obj
 0001:000ea480       ?_Reserve@?$vector@UFAR_CHAR_INFO@@V?$allocator@UFAR_CHAR_INFO@@@std@@@std@@IAEXI@Z 004eb480 f i execute.obj
 0001:000ea4e0       ?resize@?$vector@UFAR_CHAR_INFO@@V?$allocator@UFAR_CHAR_INFO@@@std@@@std@@QAEXI@Z 004eb4e0 f i execute.obj
 0001:000ea580       ??$_Any_of@V?$_List_unchecked_const_iterator@V?$_List_val@VUnicodeString@@V?$allocator@VUnicodeString@@@std@@@std@@U_Iterator_base0@2@@std@@V<lambda2>@?A0x345ad157@@@std@@YA_NV?$_List_unchecked_const_iterator@V?$_List_val@VUnicodeString@@V?$allocator@VUnicodeString@@@std@@@std@@U_Iterator_base0@2@@0@0V<lambda2>@?A0x345ad157@@@Z 004eb580 f i execute.obj
 0001:000ea610       ?reset@?$unique_ptr@V?$queue@KV?$deque@KV?$allocator@K@std@@@std@@@std@@U?$default_delete@V?$queue@KV?$deque@KV?$allocator@K@std@@@std@@@std@@@2@@std@@QAEXPAV?$queue@KV?$deque@KV?$allocator@K@std@@@std@@@2@@Z 004eb610 f i execute.obj
 0001:000eb5b0       ?IsBatchExtType@@YA_NABVUnicodeString@@@Z 004ec5b0 f   execute.obj
 0001:000eb650       ?Execute@@YAHABVUnicodeString@@_N111111@Z 004ec650 f   execute.obj
 0001:000ecd30       ?GetLangString@DialogBuilder@@MAEPB_WH@Z 004edd30 f   FarDlgBuilder.obj
 0001:000ecd50       ?StartFSWatcher@Panel@@UAEX_N0@Z 004edd50 f i infolist.obj
 0001:000ecd50       ?DeleteDiz@Panel@@UAEXABVUnicodeString@@0@Z 004edd50 f i infolist.obj
 0001:000ecd50       ?InitDialogItem@?$DialogBuilderBase@UDialogItemEx@@@@MAEXPAUDialogItemEx@@PB_W@Z 004edd50 f i FarDlgBuilder.obj
 0001:000ecd50       ?SaveValue@?$DialogItemBinding@UDialogItemEx@@@@UAEXPAUDialogItemEx@@H@Z 004edd50 f i FarDlgBuilder.obj
 0001:000ecd60       ?CreateCheckBoxBinding@?$DialogBuilderBase@UDialogItemEx@@@@MAEPAU?$DialogItemBinding@UDialogItemEx@@@@PAHH@Z 004edd60 f i FarDlgBuilder.obj
 0001:000ecd60       ?ProcessSynchroEvent@PluginA@wrapper@@UAEHHPAX@Z 004edd60 f i PluginA.obj
 0001:000ecd60       ?AddIntEditField@?$DialogBuilderBase@UDialogItemEx@@@@UAEPAUDialogItemEx@@PAHH@Z 004edd60 f i FarDlgBuilder.obj
 0001:000ecd60       ?GetCustomData@PluginA@wrapper@@UAEHPB_WPAPA_W@Z 004edd60 f i PluginA.obj
 0001:000ecd60       ?ProcessPluginEvent@Panel@@UAEHHPAX@Z 004edd60 f i infolist.obj
 0001:000ecd60       ?SendKeyToPlugin@Panel@@UAEHK_N@Z 004edd60 f i infolist.obj
 0001:000ecd70       ??1?$DialogItemBinding@UDialogItemEx@@@@UAE@XZ 004edd70 f i FarDlgBuilder.obj
 0001:000ecd80       ??_G?$DialogItemBinding@UDialogItemEx@@@@UAEPAXI@Z 004edd80 f i FarDlgBuilder.obj
 0001:000ecd80       ??_E?$DialogItemBinding@UDialogItemEx@@@@UAEPAXI@Z 004edd80 f i FarDlgBuilder.obj
 0001:000ecdb0       ?SaveValue@?$CheckBoxBinding@UDialogItemEx@@@@UAEXPAUDialogItemEx@@H@Z 004eddb0 f i FarDlgBuilder.obj
 0001:000ecdf0       ??_5IntOption@@QAEAAV0@_J@Z 004eddf0 f i FarDlgBuilder.obj
 0001:000ece20       ?SaveValue@?$FarCheckBoxIntBinding@VIntOption@@@@UAEXPAUDialogItemEx@@H@Z 004ede20 f i FarDlgBuilder.obj
 0001:000ece90       ?SaveValue@?$FarCheckBoxBool3Binding@VBool3Option@@@@UAEXPAUDialogItemEx@@H@Z 004ede90 f i FarDlgBuilder.obj
 0001:000ecee0       ?SaveValue@?$FarCheckBoxBoolBinding@VBoolOption@@@@UAEXPAUDialogItemEx@@H@Z 004edee0 f i FarDlgBuilder.obj
 0001:000ecf20       ?SaveValue@?$RadioButtonBinding@UDialogItemEx@@@@UAEXPAUDialogItemEx@@H@Z 004edf20 f i FarDlgBuilder.obj
 0001:000ecf40       ?SaveValue@?$FarRadioButtonBinding@VIntOption@@@@UAEXPAUDialogItemEx@@H@Z 004edf40 f i FarDlgBuilder.obj
 0001:000ecf80       ?SaveValue@?$EditFieldBinding@AAVUnicodeString@@@@UAEXPAUDialogItemEx@@H@Z 004edf80 f i FarDlgBuilder.obj
 0001:000ecfa0       ??0?$EditFieldIntBinding@H@@QAE@PAHH@Z 004edfa0 f i FarDlgBuilder.obj
 0001:000ed050       ??0?$EditFieldIntBinding@VIntOption@@@@QAE@PAVIntOption@@H@Z 004ee050 f i FarDlgBuilder.obj
 0001:000ed100       ??0?$EditFieldHexBinding@VIntOption@@@@QAE@PAVIntOption@@H@Z 004ee100 f i FarDlgBuilder.obj
 0001:000ed1b0       ?SaveValue@?$FarComboBoxBinding@VIntOption@@@@UAEXPAUDialogItemEx@@H@Z 004ee1b0 f i FarDlgBuilder.obj
 0001:000ed1f0       ??_G?$FarComboBoxBinding@VIntOption@@@@UAEPAXI@Z 004ee1f0 f i FarDlgBuilder.obj
 0001:000ed1f0       ??_E?$FarComboBoxBinding@VIntOption@@@@UAEPAXI@Z 004ee1f0 f i FarDlgBuilder.obj
 0001:000ed270       ??_E?$FarCheckBoxIntBinding@VIntOption@@@@UAEPAXI@Z 004ee270 f i FarDlgBuilder.obj
 0001:000ed270       ??_G?$CheckBoxBinding@UDialogItemEx@@@@UAEPAXI@Z 004ee270 f i FarDlgBuilder.obj
 0001:000ed270       ??_G?$EditFieldBinding@AAVStringOption@@@@UAEPAXI@Z 004ee270 f i FarDlgBuilder.obj
 0001:000ed270       ??_E?$FarCheckBoxBool3Binding@VBool3Option@@@@UAEPAXI@Z 004ee270 f i FarDlgBuilder.obj
 0001:000ed270       ??_G?$FarRadioButtonBinding@VIntOption@@@@UAEPAXI@Z 004ee270 f i FarDlgBuilder.obj
 0001:000ed270       ??_E?$FarRadioButtonBinding@VIntOption@@@@UAEPAXI@Z 004ee270 f i FarDlgBuilder.obj
 0001:000ed270       ??_G?$EditFieldBinding@AAVUnicodeString@@@@UAEPAXI@Z 004ee270 f i FarDlgBuilder.obj
 0001:000ed270       ??_E?$EditFieldBinding@AAVStringOption@@@@UAEPAXI@Z 004ee270 f i FarDlgBuilder.obj
 0001:000ed270       ??_G?$EditFieldIntBinding@VIntOption@@@@UAEPAXI@Z 004ee270 f i FarDlgBuilder.obj
 0001:000ed270       ??_E?$EditFieldIntBinding@VIntOption@@@@UAEPAXI@Z 004ee270 f i FarDlgBuilder.obj
 0001:000ed270       ??_E?$FarCheckBoxBoolBinding@VBoolOption@@@@UAEPAXI@Z 004ee270 f i FarDlgBuilder.obj
 0001:000ed270       ??_E?$EditFieldIntBinding@H@@UAEPAXI@Z 004ee270 f i FarDlgBuilder.obj
 0001:000ed270       ??_G?$FarCheckBoxBoolBinding@VBoolOption@@@@UAEPAXI@Z 004ee270 f i FarDlgBuilder.obj
 0001:000ed270       ??_E?$CheckBoxBinding@UDialogItemEx@@@@UAEPAXI@Z 004ee270 f i FarDlgBuilder.obj
 0001:000ed270       ??_G?$EditFieldIntBinding@H@@UAEPAXI@Z 004ee270 f i FarDlgBuilder.obj
 0001:000ed270       ??_G?$FarCheckBoxIntBinding@VIntOption@@@@UAEPAXI@Z 004ee270 f i FarDlgBuilder.obj
 0001:000ed270       ??_G?$FarCheckBoxBool3Binding@VBool3Option@@@@UAEPAXI@Z 004ee270 f i FarDlgBuilder.obj
 0001:000ed270       ??_G?$RadioButtonBinding@UDialogItemEx@@@@UAEPAXI@Z 004ee270 f i FarDlgBuilder.obj
 0001:000ed270       ??_E?$EditFieldHexBinding@VIntOption@@@@UAEPAXI@Z 004ee270 f i FarDlgBuilder.obj
 0001:000ed270       ??_E?$EditFieldBinding@AAVUnicodeString@@@@UAEPAXI@Z 004ee270 f i FarDlgBuilder.obj
 0001:000ed270       ??_G?$EditFieldHexBinding@VIntOption@@@@UAEPAXI@Z 004ee270 f i FarDlgBuilder.obj
 0001:000ed270       ??_E?$RadioButtonBinding@UDialogItemEx@@@@UAEPAXI@Z 004ee270 f i FarDlgBuilder.obj
 0001:000ed2d0       ?CreateCheckBoxBinding@DialogBuilder@@MAEPAU?$DialogItemBinding@UDialogItemEx@@@@PAHH@Z 004ee2d0 f   FarDlgBuilder.obj
 0001:000ed370       ?CreateCheckBoxBinding@DialogBuilder@@IAEPAU?$DialogItemBinding@UDialogItemEx@@@@AAVIntOption@@H@Z 004ee370 f   FarDlgBuilder.obj
 0001:000ed410       ?CreateCheckBoxBinding@DialogBuilder@@IAEPAU?$DialogItemBinding@UDialogItemEx@@@@AAVBool3Option@@@Z 004ee410 f   FarDlgBuilder.obj
 0001:000ed4a0       ?CreateCheckBoxBinding@DialogBuilder@@IAEPAU?$DialogItemBinding@UDialogItemEx@@@@AAVBoolOption@@@Z 004ee4a0 f   FarDlgBuilder.obj
 0001:000ed530       ?CreateRadioButtonBinding@DialogBuilder@@MAEPAU?$DialogItemBinding@UDialogItemEx@@@@PAH@Z 004ee530 f   FarDlgBuilder.obj
 0001:000ed5c0       ?TextWidth@DialogBuilder@@MAEHABUDialogItemEx@@@Z 004ee5c0 f   FarDlgBuilder.obj
 0001:000ed5d0       ?SaveValue@?$EditFieldIntBinding@H@@UAEXPAUDialogItemEx@@H@Z 004ee5d0 f i FarDlgBuilder.obj
 0001:000ed600       ?SaveValue@?$EditFieldIntBinding@VIntOption@@@@UAEXPAUDialogItemEx@@H@Z 004ee600 f i FarDlgBuilder.obj
 0001:000ed650       ?SaveValue@?$EditFieldHexBinding@VIntOption@@@@UAEXPAUDialogItemEx@@H@Z 004ee650 f i FarDlgBuilder.obj
 0001:000ed6a0       ?SaveValue@?$EditFieldBinding@AAVStringOption@@@@UAEXPAUDialogItemEx@@H@Z 004ee6a0 f i FarDlgBuilder.obj
 0001:000ed6e0       ?InitDialogItem@DialogBuilder@@MAEXPAUDialogItemEx@@PB_W@Z 004ee6e0 f   FarDlgBuilder.obj
 0001:000ed740       ?LinkFlagsByID@DialogBuilder@@AAEXPAUDialogItemEx@@H_K@Z 004ee740 f   FarDlgBuilder.obj
 0001:000ed7e0       ??1?$DialogBuilderBase@UDialogItemEx@@@@MAE@XZ 004ee7e0 f i FarDlgBuilder.obj
 0001:000ed850       ??_E?$DialogBuilderBase@UDialogItemEx@@@@MAEPAXI@Z 004ee850 f i FarDlgBuilder.obj
 0001:000ed850       ??_G?$DialogBuilderBase@UDialogItemEx@@@@MAEPAXI@Z 004ee850 f i FarDlgBuilder.obj
 0001:000ed880       ??1DialogBuilder@@UAE@XZ   004ee880 f   FarDlgBuilder.obj
 0001:000ed8d0       ?LinkFlags@DialogBuilder@@QAEXPAUDialogItemEx@@0_K_N@Z 004ee8d0 f   FarDlgBuilder.obj
 0001:000ed9b0       ??0DialogBuilder@@QAE@W4LNGID@@PB_W@Z 004ee9b0 f   FarDlgBuilder.obj
 0001:000edab0       ??_EDialogBuilder@@UAEPAXI@Z 004eeab0 f i FarDlgBuilder.obj
 0001:000edab0       ??_GDialogBuilder@@UAEPAXI@Z 004eeab0 f i FarDlgBuilder.obj
 0001:000edb10       ??0DialogBuilder@@QAE@XZ   004eeb10 f   FarDlgBuilder.obj
 0001:000edbf0       ?AddEditField@DialogBuilder@@QAEPAUDialogItemEx@@PAVUnicodeString@@HPB_W_K@Z 004eebf0 f   FarDlgBuilder.obj
 0001:000edd30       ?AddEditField@DialogBuilder@@QAEPAUDialogItemEx@@AAVStringOption@@HPB_W_K@Z 004eed30 f   FarDlgBuilder.obj
 0001:000ede70       ?AddFixEditField@DialogBuilder@@QAEPAUDialogItemEx@@PAVUnicodeString@@HPB_W@Z 004eee70 f   FarDlgBuilder.obj
 0001:000edf90       ?AddConstEditField@DialogBuilder@@QAEPAUDialogItemEx@@ABVUnicodeString@@H_K@Z 004eef90 f   FarDlgBuilder.obj
 0001:000ee020       ?AddIntEditField@DialogBuilder@@UAEPAUDialogItemEx@@PAHH@Z 004ef020 f   FarDlgBuilder.obj
 0001:000ee1f0       ?AddIntEditField@DialogBuilder@@UAEPAUDialogItemEx@@AAVIntOption@@H@Z 004ef1f0 f   FarDlgBuilder.obj
 0001:000ee3c0       ?AddHexEditField@DialogBuilder@@UAEPAUDialogItemEx@@AAVIntOption@@H@Z 004ef3c0 f   FarDlgBuilder.obj
 0001:000ee5e0       ?AddComboBox@DialogBuilder@@QAEPAUDialogItemEx@@AAVIntOption@@HPBUDialogBuilderListItem@@I_K@Z 004ef5e0 f   FarDlgBuilder.obj
 0001:000ee780       ?AddComboBox@DialogBuilder@@QAEPAUDialogItemEx@@AAVIntOption@@HABV?$vector@UDialogBuilderListItem2@@V?$allocator@UDialogBuilderListItem2@@@std@@@std@@_K@Z 004ef780 f   FarDlgBuilder.obj
 0001:000ee940       ?AddCheckbox@DialogBuilder@@QAEPAUDialogItemEx@@HAAVBool3Option@@@Z 004ef940 f   FarDlgBuilder.obj
 0001:000eea60       ?AddCheckbox@DialogBuilder@@QAEPAUDialogItemEx@@HAAVIntOption@@H_N@Z 004efa60 f   FarDlgBuilder.obj
 0001:000eeb90       ?AddCheckbox@DialogBuilder@@QAEPAUDialogItemEx@@PB_WAAVBoolOption@@@Z 004efb90 f   FarDlgBuilder.obj
 0001:000eec90       ?AddCheckbox@DialogBuilder@@QAEPAUDialogItemEx@@HAAVBoolOption@@@Z 004efc90 f   FarDlgBuilder.obj
 0001:000eecc0       ?AddRadioButtons@DialogBuilder@@QAEXAAVIntOption@@HQBH_N@Z 004efcc0 f   FarDlgBuilder.obj
 0001:000eee80       ?AddOKCancel@DialogBuilder@@QAEXXZ 004efe80 f   FarDlgBuilder.obj
 0001:000eee90       ?AddOK@DialogBuilder@@QAEXXZ 004efe90 f   FarDlgBuilder.obj
 0001:000eef20       ??$?0$$CBV?$pass_as_container_t@UDialogItemEx@@@@@Dialog@@QAE@ABV?$pass_as_container_t@UDialogItemEx@@@@P6AHPAV0@HHPAX@Z2@Z 004eff20 f i FarDlgBuilder.obj
 0001:000eefe0       ?DoShowDialog@DialogBuilder@@MAEHXZ 004effe0 f   FarDlgBuilder.obj
 0001:000ef140       ?GetFunctionName@@YAPB_WH@Z 004f0140 f   farexcpt.obj
 0001:000ef2f0       ?ExcDlgProc@@YAHPAVDialog@@HHPAX@Z 004f02f0 f   farexcpt.obj
 0001:000ef490       ??$ClearStruct@UPLUGINRECORD@@@@YAXAAUPLUGINRECORD@@@Z 004f0490 f i farexcpt.obj
 0001:000efc70       ??$MakeDialogItemsEx@$0M@@@YA?AV?$vector@UDialogItemEx@@V?$allocator@UDialogItemEx@@@std@@@std@@AAY0M@$$CBUFarDialogItem@@@Z 004f0c70 f i farexcpt.obj
 0001:000f0f50       ?xfilter@@YGKHPAU_EXCEPTION_POINTERS@@PAVPlugin@@K@Z 004f1f50 f   farexcpt.obj
 0001:000f12c0       ??_V@YAXPAX@Z              004f22c0 f   farrtl.obj
 0001:000f12c0       ?xf_free@@YAXPAX@Z         004f22c0 f   farrtl.obj
 0001:000f12c0       ??3@YAXPAX@Z               004f22c0 f   farrtl.obj
 0001:000f12d0       ?xf_realloc@@YAPAXPAXI@Z   004f22d0 f   farrtl.obj
 0001:000f12f0       ?xf_realloc_nomove@@YAPAXPAXI@Z 004f22f0 f   farrtl.obj
 0001:000f1340       ??_U@YAPAXI@Z              004f2340 f   farrtl.obj
 0001:000f1340       ??2@YAPAXI@Z               004f2340 f   farrtl.obj
 0001:000f1340       ?xf_malloc@@YAPAXI@Z       004f2340 f   farrtl.obj
 0001:000f1350       ?DuplicateString@@YAPADPBD@Z 004f2350 f   farrtl.obj
 0001:000f1390       ?DuplicateString@@YAPA_WPB_W@Z 004f2390 f   farrtl.obj
 0001:000f13f0       ?xstrncpy@@YAPADPADPBDI@Z  004f23f0 f   farrtl.obj
 0001:000f1420       ?xwcsncpy@@YAPA_WPA_WPB_WI@Z 004f2420 f   farrtl.obj
 0001:000f1460       ?Read@File@@QAE_NPAXKAAKPAU_OVERLAPPED@@@Z 004f2460 f   farwinapi.obj
 0001:000f14c0       ?Write@File@@QAE_NPBXKAAKPAU_OVERLAPPED@@@Z 004f24c0 f   farwinapi.obj
 0001:000f1520       ?Write@File@@QAE_NPBXIAAI@Z 004f2520 f   farwinapi.obj
 0001:000f15b0       ?SetEnd@File@@QAE_NXZ      004f25b0 f   farwinapi.obj
 0001:000f15f0       ?FlushBuffers@File@@QAE_NXZ 004f25f0 f   farwinapi.obj
 0001:000f1600       ?GetInformation@File@@QAE_NAAU_BY_HANDLE_FILE_INFORMATION@@@Z 004f2600 f   farwinapi.obj
 0001:000f1620       ?IoControl@File@@QAE_NKPAXK0KPAKPAU_OVERLAPPED@@@Z 004f2620 f   farwinapi.obj
 0001:000f1660       ?GetStorageDependencyInformation@File@@QAE_NW4_GET_STORAGE_DEPENDENCY_FLAG@@KPAU_STORAGE_DEPENDENCY_INFO@@PAK@Z 004f2660 f   farwinapi.obj
 0001:000f16a0       ?Close@File@@QAE_NXZ       004f26a0 f   farwinapi.obj
 0001:000f16d0       ?GetPercent@FileWalker@@QBEHXZ 004f26d0 f   farwinapi.obj
 0001:000f1720       ?apiRegEnumKeyEx@@YAHPAUHKEY__@@KAAVUnicodeString@@PAU_FILETIME@@@Z 004f2720 f   farwinapi.obj
 0001:000f1780       ?apiFindNextFileName@@YAHPAXAAVUnicodeString@@@Z 004f2780 f   farwinapi.obj
 0001:000f1800       ?apiSetFileEncryptionInternal@@YA_NPB_W_N@Z 004f2800 f   farwinapi.obj
 0001:000f1830       ?apiGetLogicalDriveStrings@@YA_NAAVUnicodeString@@@Z 004f2830 f   farwinapi.obj
 0001:000f1890       ?GetFileTimeEx@@YA_NPAXPAU_FILETIME@@111@Z 004f2890 f   farwinapi.obj
 0001:000f1980       ?SetFileTimeEx@@YA_NPAXPBU_FILETIME@@111@Z 004f2980 f   farwinapi.obj
 0001:000f1a50       ??$_For_each@PBQAXV<lambda1>@?A0xb7b1f37b@@@std@@YA?AV<lambda1>@?A0xb7b1f37b@@PBQAX0V12@@Z 004f2a50 f i farwinapi.obj
 0001:000f1aa0       ??4FAR_FIND_DATA@@QAEAAU0@ABU0@@Z 004f2aa0 f i farwinapi.obj
 0001:000f1b30       ??0File@@QAE@XZ            004f2b30 f   farwinapi.obj
 0001:000f1b50       ??1File@@QAE@XZ            004f2b50 f   farwinapi.obj
 0001:000f1b80       ?SetTime@File@@QAE_NPBU_FILETIME@@000@Z 004f2b80 f   farwinapi.obj
 0001:000f1bb0       ?GetSize@File@@QAE_NAA_K@Z 004f2bb0 f   farwinapi.obj
 0001:000f1c10       ?NtQueryDirectoryFile@File@@QAE_NPAXKW4_FILE_INFORMATION_CLASS@@_NPB_W2PAJ@Z 004f2c10 f   farwinapi.obj
 0001:000f1cc0       ?Eof@File@@QAE_NXZ         004f2cc0 f   farwinapi.obj
 0001:000f1d40       ?GetLastNtStatus@@YAJXZ    004f2d40 f   farwinapi.obj
 0001:000f1d60       ?apiFindNextStream@@YAHPAX0@Z 004f2d60 f   farwinapi.obj
 0001:000f1df0       ?SetPointer@File@@QAE_N_JPA_JK@Z 004f2df0 f   farwinapi.obj
 0001:000f1e80       ?FindCloseInternal@@YA_NPAX@Z 004f2e80 f   farwinapi.obj
 0001:000f1f00       ?apiGetEnvironmentVariable@@YAKABVUnicodeString@@AAV1@@Z 004f2f00 f   farwinapi.obj
 0001:000f1fa0       ?apiGetTempPath@@YAKAAVUnicodeString@@@Z 004f2fa0 f   farwinapi.obj
 0001:000f2030       ?apiGetModuleFileNameEx@@YAKPAXPAUHINSTANCE__@@AAVUnicodeString@@@Z 004f3030 f   farwinapi.obj
 0001:000f2100       ?apiWNetGetConnection@@YAKABVUnicodeString@@AAV1@@Z 004f3100 f   farwinapi.obj
 0001:000f2160       ?apiGetVolumeInformation@@YAHABVUnicodeString@@PAV1@PAK221@Z 004f3160 f   farwinapi.obj
 0001:000f21f0       ?CreateSymbolicLinkInternal@@YA_NABVUnicodeString@@0K@Z 004f31f0 f   farwinapi.obj
 0001:000f2250       ?CreateHardLinkInternal@@YA_NABVUnicodeString@@0PAU_SECURITY_ATTRIBUTES@@@Z 004f3250 f   farwinapi.obj
 0001:000f22b0       ?apiFindStreamClose@@YAHPAX@Z 004f32b0 f   farwinapi.obj
 0001:000f2360       ?apiSearchPath@@YA_NPB_WABVUnicodeString@@0AAV1@@Z 004f3360 f   farwinapi.obj
 0001:000f23d0       ?apiQueryDosDevice@@YA_NABVUnicodeString@@AAV1@@Z 004f33d0 f   farwinapi.obj
 0001:000f2460       ?apiOpenVirtualDiskInternal@@YA_NAAU_VIRTUAL_STORAGE_TYPE@@ABVUnicodeString@@W4_VIRTUAL_DISK_ACCESS_MASK@@W4_OPEN_VIRTUAL_DISK_FLAG@@AAU_OPEN_VIRTUAL_DISK_PARAMETERS@@AAPAX@Z 004f3460 f   farwinapi.obj
 0001:000f24b0       ?FindNextFileInternal@@YA_NPAXAAUFAR_FIND_DATA@@@Z 004f34b0 f   farwinapi.obj
 0001:000f26c0       ??1FindFile@@QAE@XZ        004f36c0 f   farwinapi.obj
 0001:000f2720       ?Get@FindFile@@QAE_NAAUFAR_FIND_DATA@@@Z 004f3720 f   farwinapi.obj
 0001:000f27b0       ?Step@FileWalker@@QAE_NXZ  004f37b0 f   farwinapi.obj
 0001:000f2870       ?GetChunkOffset@FileWalker@@QBE_KXZ 004f3870 f   farwinapi.obj
 0001:000f2880       ?GetChunkSize@FileWalker@@QBEKXZ 004f3880 f   farwinapi.obj
 0001:000f2890       ?apiDeleteFile@@YAHABVUnicodeString@@@Z 004f3890 f   farwinapi.obj
 0001:000f2980       ?apiRemoveDirectory@@YAHABVUnicodeString@@@Z 004f3980 f   farwinapi.obj
 0001:000f2a70       ?apiCreateFile@@YAPAXABVUnicodeString@@KKPAU_SECURITY_ATTRIBUTES@@KKPAX_N@Z 004f3a70 f   farwinapi.obj
 0001:000f2c30       ?apiGetModuleFileName@@YAKPAUHINSTANCE__@@AAVUnicodeString@@@Z 004f3c30 f   farwinapi.obj
 0001:000f2c50       ?apiExpandEnvironmentStrings@@YA_NABVUnicodeString@@AAV1@@Z 004f3c50 f   farwinapi.obj
 0001:000f2d80       ?apiIsDiskInDrive@@YAHABVUnicodeString@@@Z 004f3d80 f   farwinapi.obj
 0001:000f2ee0       ?apiGetFileTypeByName@@YAHABVUnicodeString@@@Z 004f3ee0 f   farwinapi.obj
 0001:000f2f30       ?apiGetDiskSize@@YA_NABVUnicodeString@@PA_K11@Z 004f3f30 f   farwinapi.obj
 0001:000f3060       ?apiFindFirstFileName@@YAPAXABVUnicodeString@@KAAV1@@Z 004f4060 f   farwinapi.obj
 0001:000f3180       ?apiCreateDirectoryEx@@YAHABVUnicodeString@@0PAU_SECURITY_ATTRIBUTES@@@Z 004f4180 f   farwinapi.obj
 0001:000f3300       ?apiGetFileAttributes@@YAKABVUnicodeString@@@Z 004f4300 f   farwinapi.obj
 0001:000f33f0       ?apiSetFileAttributes@@YAHABVUnicodeString@@K@Z 004f43f0 f   farwinapi.obj
 0001:000f34e0       ?apiCreateSymbolicLink@@YA_NABVUnicodeString@@0K@Z 004f44e0 f   farwinapi.obj
 0001:000f3620       ?apiSetFileEncryption@@YA_NABVUnicodeString@@_N@Z 004f4620 f   farwinapi.obj
 0001:000f3730       ?apiCreateHardLink@@YAHABVUnicodeString@@0PAU_SECURITY_ATTRIBUTES@@@Z 004f4730 f   farwinapi.obj
 0001:000f38f0       ?EnumRegValueEx@@YAHPAUHKEY__@@ABVUnicodeString@@KAAV2@2PAKPA_J3@Z 004f48f0 f   farwinapi.obj
 0001:000f3b10       ?apiGetFileSecurity@@YA_NABVUnicodeString@@KAAV?$block_ptr@U_SECURITY_DESCRIPTOR@@@@@Z 004f4b10 f   farwinapi.obj
 0001:000f3c20       ?apiSetFileSecurity@@YA_NABVUnicodeString@@KABV?$block_ptr@U_SECURITY_DESCRIPTOR@@@@@Z 004f4c20 f   farwinapi.obj
 0001:000f3cf0       ?apiOpenVirtualDisk@@YA_NAAU_VIRTUAL_STORAGE_TYPE@@ABVUnicodeString@@W4_VIRTUAL_DISK_ACCESS_MASK@@W4_OPEN_VIRTUAL_DISK_FLAG@@AAU_OPEN_VIRTUAL_DISK_PARAMETERS@@AAPAX@Z 004f4cf0 f   farwinapi.obj
 0001:000f3e10       ??$emplace_back@UChunk@FileWalker@@@?$list@UChunk@FileWalker@@V?$allocator@UChunk@FileWalker@@@std@@@std@@QAEX$$QAUChunk@FileWalker@@@Z 004f4e10 f i farwinapi.obj
 0001:000f3e60       ?Open@File@@QAE_NABVUnicodeString@@KKPAU_SECURITY_ATTRIBUTES@@KKPAV1@_N@Z 004f4e60 f   farwinapi.obj
 0001:000f3eb0       ?InitWalk@FileWalker@@QAE_NI@Z 004f4eb0 f   farwinapi.obj
 0001:000f4130       ?apiCopyFileEx@@YAHABVUnicodeString@@0P6GKT_LARGE_INTEGER@@111KKPAX22@Z2PAHK@Z 004f5130 f   farwinapi.obj
 0001:000f4360       ?apiMoveFile@@YAHABVUnicodeString@@0@Z 004f5360 f   farwinapi.obj
 0001:000f4540       ?apiMoveFileEx@@YAHABVUnicodeString@@0K@Z 004f5540 f   farwinapi.obj
 0001:000f4760       ?strCurrentDirectory@@YAAAVUnicodeString@@XZ 004f5760 f   farwinapi.obj
 0001:000f47e0       ?apiGetCurrentDirectory@@YAKAAVUnicodeString@@@Z 004f57e0 f   farwinapi.obj
 0001:000f48d0       ?apiCreateDirectory@@YAHABVUnicodeString@@PAU_SECURITY_ATTRIBUTES@@@Z 004f58d0 f   farwinapi.obj
 0001:000f49a0       ?apiFindFirstStream@@YAPAXABVUnicodeString@@W4_STREAM_INFO_LEVELS@@PAXK@Z 004f59a0 f   farwinapi.obj
 0001:000f4c00       ?apiGetVolumeNameForVolumeMountPoint@@YA_NABVUnicodeString@@AAV1@@Z 004f5c00 f   farwinapi.obj
 0001:000f4d10       ?GetFileTimeSimple@@YA_NABVUnicodeString@@PAU_FILETIME@@111@Z 004f5d10 f   farwinapi.obj
 0001:000f4dc0       ?RegQueryStringValue@@YAHPAUHKEY__@@ABVUnicodeString@@AAV2@PB_W@Z 004f5dc0 f   farwinapi.obj
 0001:000f4ea0       ?FindFirstFileInternal@@YAPAXABVUnicodeString@@AAUFAR_FIND_DATA@@@Z 004f5ea0 f   farwinapi.obj
 0001:000f5220       ??0FindFile@@QAE@ABVUnicodeString@@_N@Z 004f6220 f   farwinapi.obj
 0001:000f54b0       ??0FileWalker@@QAE@XZ      004f64b0 f   farwinapi.obj
 0001:000f5580       ?apiGetFindDataEx@@YA_NABVUnicodeString@@AAUFAR_FIND_DATA@@_N@Z 004f6580 f   farwinapi.obj
 0001:000f57d0       ?internalNtQueryGetFinalPathNameByHandle@@YA_NPAXAAVUnicodeString@@@Z 004f67d0 f   farwinapi.obj
 0001:000f5c70       ?apiGetFinalPathNameByHandle@@YA_NPAXAAVUnicodeString@@@Z 004f6c70 f   farwinapi.obj
 0001:000f5d20       ?apiEnableLowFragmentationHeap@@YAXXZ 004f6d20 f   farwinapi.obj
 0001:000f5e00       ?apiSetCurrentDirectory@@YAHABVUnicodeString@@_N@Z 004f6e00 f   farwinapi.obj
 0001:000f60a0       ?InitCurrentDirectory@@YAXXZ 004f70a0 f   farwinapi.obj
 0001:000f62a0       ?ESetFileAttributes@@YAHABVUnicodeString@@KH@Z 004f72a0 f   fileattr.obj
 0001:000f64c0       ?ESetFileCompression@@YAHABVUnicodeString@@HKH@Z 004f74c0 f   fileattr.obj
 0001:000f66f0       ?ESetFileEncryption@@YAHABVUnicodeString@@_NKHH@Z 004f76f0 f   fileattr.obj
 0001:000f6910       ?ESetFileTime@@YAHABVUnicodeString@@PBU_FILETIME@@111KH@Z 004f7910 f   fileattr.obj
 0001:000f6c90       ?ESetFileSparse@@YAHABVUnicodeString@@_NKH@Z 004f7c90 f   fileattr.obj
 0001:000f6f10       ?ESetFileOwner@@YAHABVUnicodeString@@0H@Z 004f7f10 f   fileattr.obj
 0001:000f7120       ?EDeleteReparsePoint@@YAHABVUnicodeString@@KH@Z 004f8120 f   fileattr.obj
 0001:000f7310       ?IsUnicodeCodePage@@YA_NI@Z 004f8310 f i fileedit.obj
 0001:000f7330       ?IsInternalKeyReal@@YA_NI@Z 004f8330 f i fileedit.obj
 0001:000f73a0       ?SetNamesList@FileEditor@@QAEXPAVNamesList@@@Z 004f83a0 f   fileedit.obj
 0001:000f7420       ?GetCanLoseFocus@FileEditor@@EBEHH@Z 004f8420 f   fileedit.obj
 0001:000f7450       ?FastHide@FileEditor@@EAEHXZ 004f8450 f   fileedit.obj
 0001:000f7470       ?ProcessEditorInput@FileEditor@@AAEHPAU_INPUT_RECORD@@@Z 004f8470 f   fileedit.obj
 0001:000f74a0       ?ChangeEditKeyBar@FileEditor@@AAEXXZ 004f84a0 f   fileedit.obj
 0001:000f7510       ?EditorGetFileAttributes@FileEditor@@AAEKABVUnicodeString@@@Z 004f8510 f   fileedit.obj
 0001:000f7590       ?SetEditorOptions@FileEditor@@QAEXABUEditorOptions@Options@@@Z 004f8590 f   fileedit.obj
 0001:000f75a0       ?OnChangeFocus@FileEditor@@EAEXH@Z 004f85a0 f   fileedit.obj
 0001:000f75f0       ?GetDefaultCodePage@FileEditor@@AAEIXZ 004f85f0 f   fileedit.obj
 0001:000f7630       ??$CheckNullOrStructSize@UEditorBookmarks@@@@YA_NPBUEditorBookmarks@@@Z 004f8630 f i fileedit.obj
 0001:000f7650       ??$CheckStructSize@UFarSetKeyBarTitles@@@@YA_NPBUFarSetKeyBarTitles@@@Z 004f8650 f i fileedit.obj
 0001:000f7650       ??$CheckStructSize@UEditorUndoRedo@@@@YA_NPBUEditorUndoRedo@@@Z 004f8650 f i editor.obj
 0001:000f7670       ?hndOpenEditor@@YAHPAVDialog@@HHPAX@Z 004f8670 f   fileedit.obj
 0001:000f7740       ?hndSaveFileAs@@YAHPAVDialog@@HHPAX@Z 004f8740 f   fileedit.obj
 0001:000f78f0       ?InitKeyBar@FileEditor@@EAEXXZ 004f88f0 f   fileedit.obj
 0001:000f7a60       ?Show@FileEditor@@UAEXXZ   004f8a60 f   fileedit.obj
 0001:000f7b50       ?DisplayObject@FileEditor@@EAEXXZ 004f8b50 f   fileedit.obj
 0001:000f7bc0       ?VMProcess@FileEditor@@UAE_JHPAX_J@Z 004f8bc0 f   fileedit.obj
 0001:000f7e10       ?ProcessMouse@FileEditor@@EAEHPBU_MOUSE_EVENT_RECORD@@@Z 004f8e10 f   fileedit.obj
 0001:000f7e90       ?SetScreenPosition@FileEditor@@EAEXXZ 004f8e90 f   fileedit.obj
 0001:000f7ec0       ?SetLockEditor@FileEditor@@QAEXH@Z 004f8ec0 f   fileedit.obj
 0001:000f7ef0       ?ResizeConsole@FileEditor@@EAEXXZ 004f8ef0 f   fileedit.obj
 0001:000f7f00       ?SetPluginTitle@FileEditor@@QAEXPBVUnicodeString@@@Z 004f8f00 f   fileedit.obj
 0001:000f7f30       ?GetTitle@FileEditor@@EAEAAVUnicodeString@@AAV2@HH@Z 004f8f30 f   fileedit.obj
 0001:000f7f80       ??$for_each_cnt@V?$_Array_const_iterator@Ueditor_bookmark@@$09@std@@V<lambda1>@?A0xb03d330e@@@@YA?AV<lambda1>@?A0xb03d330e@@V?$_Array_const_iterator@Ueditor_bookmark@@$09@std@@0V01@@Z 004f8f80 f i fileedit.obj
 0001:000f8000       ?OnDestroy@FileEditor@@EAEXXZ 004f9000 f   fileedit.obj
 0001:000f80a0       ?UpdateFileList@FileEditor@@AAEHXZ 004f90a0 f   fileedit.obj
 0001:000f82a0       ?ShowStatus@FileEditor@@QAEXXZ 004f92a0 f   fileedit.obj
 0001:000f8be0       ?SetPluginData@FileEditor@@AAEXPBVUnicodeString@@@Z 004f9be0 f   fileedit.obj
 0001:000f8d20       ?LoadFromCache@FileEditor@@AAE_NAAUEditorPosCache@@@Z 004f9d20 f   fileedit.obj
 0001:000f8f10       ?SetCodePage@FileEditor@@QAE_NI@Z 004f9f10 f   fileedit.obj
 0001:000f90c0       ?AskOverwrite@FileEditor@@AAE_NABVUnicodeString@@@Z 004fa0c0 f   fileedit.obj
 0001:000f9220       ?GetTypeAndName@FileEditor@@UAEHAAVUnicodeString@@0@Z 004fa220 f   fileedit.obj
 0001:000f9290       ?ShowConsoleTitle@FileEditor@@EAEXXZ 004fa290 f   fileedit.obj
 0001:000f9570       ?SetFileName@FileEditor@@AAEHABVUnicodeString@@@Z 004fa570 f   fileedit.obj
 0001:000f9770       ?SetTitle@FileEditor@@AAEXPBVUnicodeString@@@Z 004fa770 f   fileedit.obj
 0001:000f98b0       ?GetEditorOptions@FileEditor@@QAEXAAUEditorOptions@Options@@@Z 004fa8b0 f   fileedit.obj
 0001:000f98d0       ?SaveToCache@FileEditor@@AAEXXZ 004fa8d0 f   fileedit.obj
 0001:000f9b50       ?LoadFile@FileEditor@@AAEHABVUnicodeString@@AAH@Z 004fab50 f   fileedit.obj
 0001:000fa950       ?SaveFile@FileEditor@@AAEHABVUnicodeString@@H_NHI1@Z 004fb950 f   fileedit.obj
 0001:000fbc80       ?Init@FileEditor@@AAEXABVUnicodeString@@IPBV2@KHH1HH@Z 004fcc80 f   fileedit.obj
 0001:000fc640       ?ProcessQuitKey@FileEditor@@AAEHHH@Z 004fd640 f   fileedit.obj
 0001:000fc8f0       ??1?$vector@Utitles@KeyBar@@V?$allocator@Utitles@KeyBar@@@std@@@std@@QAE@XZ 004fd8f0 f i fileedit.obj
 0001:000fc8f0       ?_Tidy@?$vector@Utitles@KeyBar@@V?$allocator@Utitles@KeyBar@@@std@@@std@@IAEXXZ 004fd8f0 f i fileedit.obj
 0001:000fc930       ??$_Dest_val@V?$allocator@V?$vector@Utitles@KeyBar@@V?$allocator@Utitles@KeyBar@@@std@@@std@@@std@@V?$vector@Utitles@KeyBar@@V?$allocator@Utitles@KeyBar@@@std@@@2@@std@@YAXAAV?$allocator@V?$vector@Utitles@KeyBar@@V?$allocator@Utitles@KeyBar@@@std@@@std@@@0@PAV?$vector@Utitles@KeyBar@@V?$allocator@Utitles@KeyBar@@@std@@@0@@Z 004fd930 f i fileedit.obj
 0001:000fc970       ??$_Destroy_range@V?$allocator@V?$vector@Utitles@KeyBar@@V?$allocator@Utitles@KeyBar@@@std@@@std@@@std@@@std@@YAXPAV?$vector@Utitles@KeyBar@@V?$allocator@Utitles@KeyBar@@@std@@@0@0AAV?$allocator@V?$vector@Utitles@KeyBar@@V?$allocator@Utitles@KeyBar@@@std@@@std@@@0@U_Nonscalar_ptr_iterator_tag@0@@Z 004fd970 f i fileedit.obj
 0001:000fc9c0       ??$MakeDialogItemsEx@$0BA@@@YA?AV?$vector@UDialogItemEx@@V?$allocator@UDialogItemEx@@@std@@@std@@AAY0BA@$$CBUFarDialogItem@@@Z 004fd9c0 f i fileedit.obj
 0001:000fca30       ?dlgOpenEditor@@YA_NAAVUnicodeString@@AAI@Z 004fda30 f   fileedit.obj
 0001:000fd030       ?dlgSaveFileAs@@YA_NAAVUnicodeString@@AAHAAIAA_N@Z 004fe030 f   fileedit.obj
 0001:000fdac0       ?ReProcessKey@FileEditor@@AAEHHH@Z 004feac0 f   fileedit.obj
 0001:000feef0       ?EditorControl@FileEditor@@QAEHHHPAX@Z 004ffef0 f   fileedit.obj
 0001:000ff5c0       ?ProcessKey@FileEditor@@EAEHH@Z 005005c0 f   fileedit.obj
 0001:000ff5e0       ??1?$vector@V?$vector@Utitles@KeyBar@@V?$allocator@Utitles@KeyBar@@@std@@@std@@V?$allocator@V?$vector@Utitles@KeyBar@@V?$allocator@Utitles@KeyBar@@@std@@@std@@@2@@std@@QAE@XZ 005005e0 f i fileedit.obj
 0001:000ff630       ??1KeyBar@@UAE@XZ          00500630 f i fileedit.obj
 0001:000ff700       ??_EKeyBar@@UAEPAXI@Z      00500700 f i fileedit.obj
 0001:000ff700       ??_GKeyBar@@UAEPAXI@Z      00500700 f i fileedit.obj
 0001:000ff730       ??0FileEditor@@QAE@ABVUnicodeString@@IKHHPBV1@H@Z 00500730 f   fileedit.obj
 0001:000ff8c0       ?SetExitCode@Frame@@UAEXH@Z 005008c0 f i fileedit.obj
 0001:000ff8d0       ?GetMacroMode@Frame@@UAE?AW4FARMACROAREA@@XZ 005008d0 f i fileedit.obj
 0001:000ff8e0       ?IsFileModified@FileEditor@@UBEHXZ 005008e0 f i fileedit.obj
 0001:000ff8f0       ?GetTypeName@FileEditor@@EAEPB_WXZ 005008f0 f i fileedit.obj
 0001:000ff900       ?getType@IntOption@@UBE?BW4OptionType@Option@@XZ 00500900 f i config.obj
 0001:000ff900       ?GetType@FileEditor@@EAEHXZ 00500900 f i fileedit.obj
 0001:000ff910       ??0FileEditor@@QAE@ABVUnicodeString@@IKHHPBV1@HHHHHH@Z 00500910 f   fileedit.obj
 0001:000ffb90       ??1FileEditor@@UAE@XZ      00500b90 f   fileedit.obj
 0001:000ffea0       ??_EFileEditor@@UAEPAXI@Z  00500ea0 f i fileedit.obj
 0001:000ffea0       ??_GFileEditor@@UAEPAXI@Z  00500ea0 f i fileedit.obj
 0001:000ffed0       ?SetCheck@MenuItemEx@@QAE_KH@Z 00500ed0 f i filefilter.obj
 0001:000fff20       ?GetHostPanel@FileFilter@@AAEPAVPanel@@XZ 00500f20 f   filefilter.obj
 0001:000fff80       ?GetFFFT@FileFilter@@AAE?AW4enumFileFilterFlagsType@@XZ 00500f80 f   filefilter.obj
 0001:000fffe0       ?GetCheck@FileFilter@@AAEHPBVFileFilterParams@@@Z 00500fe0 f   filefilter.obj
 0001:00100080       ?UpdateCurrentTime@FileFilter@@QAEXXZ 00501080 f   filefilter.obj
 0001:001000d0       ??1?$_Impl_base1@IPAX@tr1@std@@UAE@XZ 005010d0 f i interf.obj
 0001:001000d0       ??1?$_Impl_base1@HH@tr1@std@@UAE@XZ 005010d0 f i codepage.obj
 0001:001000d0       ??1?$_Impl_base2@HHPAX@tr1@std@@UAE@XZ 005010d0 f i filefilter.obj
 0001:001000d0       ??1?$_Impl_base1@XI@tr1@std@@UAE@XZ 005010d0 f i preservestyle.obj
 0001:001000e0       ??_G?$_Impl_base2@HHPAX@tr1@std@@UAEPAXI@Z 005010e0 f i filefilter.obj
 0001:001000e0       ??_E?$_Impl_base2@HHPAX@tr1@std@@UAEPAXI@Z 005010e0 f i filefilter.obj
 0001:001000e0       ??_E?$_Impl_base1@IPAX@tr1@std@@UAEPAXI@Z 005010e0 f i interf.obj
 0001:001000e0       ??_G?$_Impl_base1@XI@tr1@std@@UAEPAXI@Z 005010e0 f i preservestyle.obj
 0001:001000e0       ??_E?$_Impl_base1@XI@tr1@std@@UAEPAXI@Z 005010e0 f i preservestyle.obj
 0001:001000e0       ??_E?$_Impl_base1@HH@tr1@std@@UAEPAXI@Z 005010e0 f i codepage.obj
 0001:001000e0       ??_G?$_Impl_base1@IPAX@tr1@std@@UAEPAXI@Z 005010e0 f i interf.obj
 0001:001000e0       ??_G?$_Impl_base1@HH@tr1@std@@UAEPAXI@Z 005010e0 f i codepage.obj
 0001:00100110       ??0FileFilter@@QAE@PAVPanel@@W4FAR_FILE_FILTER_TYPE@@@Z 00501110 f   filefilter.obj
 0001:00100170       ?at@?$vector@V?$unique_ptr@VFileFilterParams@@U?$default_delete@VFileFilterParams@@@std@@@std@@V?$allocator@V?$unique_ptr@VFileFilterParams@@U?$default_delete@VFileFilterParams@@@std@@@std@@@2@@std@@QAEAAV?$unique_ptr@VFileFilterParams@@U?$default_delete@VFileFilterParams@@@std@@@2@I@Z 00501170 f i filefilter.obj
 0001:001001a0       ?FileInFilter@FileFilter@@QAE_NABUFAR_FIND_DATA@@PAW4enumFileInFilterType@@PBVUnicodeString@@@Z 005011a0 f   filefilter.obj
 0001:00100470       ?IsEnabledOnPanel@FileFilter@@QAE_NXZ 00501470 f   filefilter.obj
 0001:00100500       ?SwapFilter@FileFilter@@SAXXZ 00501500 f   filefilter.obj
 0001:001005c0       ?_Target_type@?$_Impl_no_alloc2@U?$_Callable_obj@V<lambda2>@?A0x41da663a@@$0A@@tr1@std@@HHPAX@tr1@std@@UBEABVtype_info@@XZ 005015c0 f i filefilter.obj
 0001:001005d0       ??_G?$_Impl_no_alloc2@U?$_Callable_obj@V<lambda2>@?A0x41da663a@@$0A@@tr1@std@@HHPAX@tr1@std@@UAEPAXI@Z 005015d0 f i filefilter.obj
 0001:001005d0       ??_E?$_Impl_no_alloc2@U?$_Callable_obj@V<lambda2>@?A0x41da663a@@$0A@@tr1@std@@HHPAX@tr1@std@@UAEPAXI@Z 005015d0 f i filefilter.obj
 0001:00100630       ?ClearAllFlags@FileFilterParams@@QAEXXZ 00501630 f i filefilter.obj
 0001:00100660       ?_Copy@?$_Impl_no_alloc2@U?$_Callable_obj@V<lambda2>@?A0x41da663a@@$0A@@tr1@std@@HHPAX@tr1@std@@UAEPAV?$_Impl_base2@HHPAX@23@PAX@Z 00501660 f i filefilter.obj
 0001:00100720       ?erase@?$list@U?$pair@HH@std@@V?$allocator@U?$pair@HH@std@@@2@@std@@QAE?AV?$_List_iterator@V?$_List_val@U?$pair@HH@std@@V?$allocator@U?$pair@HH@std@@@2@@std@@@2@V?$_List_const_iterator@V?$_List_val@U?$pair@HH@std@@V?$allocator@U?$pair@HH@std@@@2@@std@@@2@@Z 00501720 f i filefilter.obj
 0001:00100760       ?FileInFilter@FileFilter@@QAE_NPBUFileListItem@@PAW4enumFileInFilterType@@@Z 00501760 f   filefilter.obj
 0001:00100890       ?FileInFilter@FileFilter@@QAE_NABUPluginPanelItem@@PAW4enumFileInFilterType@@@Z 00501890 f   filefilter.obj
 0001:00100940       ??1<unnamed-type-FSize>@FileFilterParams@@QAE@XZ 00501940 f i filefilter.obj
 0001:00100a00       ??$?0AAVUnicodeString@@AAH@?$pair@VUnicodeString@@H@std@@QAE@AAVUnicodeString@@AAH@Z 00501a00 f i filefilter.obj
 0001:00100a70       ??$_For_each@PBV?$unique_ptr@VFileFilterParams@@U?$default_delete@VFileFilterParams@@@std@@@std@@V<lambda1>@?A0x41da663a@@@std@@YA?AV<lambda1>@?A0x41da663a@@PBV?$unique_ptr@VFileFilterParams@@U?$default_delete@VFileFilterParams@@@std@@@0@0V12@@Z 00501a70 f i filefilter.obj
 0001:00100b80       ??$_Cons_val@V?$allocator@U?$pair@HH@std@@@std@@U?$pair@HH@2@ABU32@@std@@YAXAAV?$allocator@U?$pair@HH@std@@@0@PAU?$pair@HH@0@ABU20@@Z 00501b80 f i filefilter.obj
 0001:00100be0       ?SaveFilters@FileFilter@@SAXXZ 00501be0 f   filefilter.obj
 0001:00101e30       ?_Buynode@?$_List_val@U?$pair@HH@std@@V?$allocator@U?$pair@HH@std@@@2@@std@@QAEPAU_Node@?$_List_nod@U?$pair@HH@std@@V?$allocator@U?$pair@HH@std@@@2@@2@PAU342@0ABU?$pair@HH@2@@Z 00502e30 f i filefilter.obj
 0001:00101f00       ?_Insert@?$list@U?$pair@HH@std@@V?$allocator@U?$pair@HH@std@@@2@@std@@QAEXV?$_List_const_iterator@V?$_List_val@U?$pair@HH@std@@V?$allocator@U?$pair@HH@std@@@2@@std@@@2@ABU?$pair@HH@2@@Z 00502f00 f i filefilter.obj
 0001:00101f50       ??$_Insert@V?$_List_const_iterator@V?$_List_val@U?$pair@HH@std@@V?$allocator@U?$pair@HH@std@@@2@@std@@@std@@@?$list@U?$pair@HH@std@@V?$allocator@U?$pair@HH@std@@@2@@std@@QAEXV?$_List_const_iterator@V?$_List_val@U?$pair@HH@std@@V?$allocator@U?$pair@HH@std@@@2@@std@@@1@00Uforward_iterator_tag@1@@Z 00502f50 f i filefilter.obj
 0001:00102000       ??$insert@V?$_List_const_iterator@V?$_List_val@U?$pair@HH@std@@V?$allocator@U?$pair@HH@std@@@2@@std@@@std@@@?$list@U?$pair@HH@std@@V?$allocator@U?$pair@HH@std@@@2@@std@@QAEXV?$_List_const_iterator@V?$_List_val@U?$pair@HH@std@@V?$allocator@U?$pair@HH@std@@@2@@std@@@1@00@Z 00503000 f i filefilter.obj
 0001:00102020       ??$_Cons_val@V?$allocator@U?$pair@VUnicodeString@@H@std@@@std@@U?$pair@VUnicodeString@@H@2@U32@@std@@YAXAAV?$allocator@U?$pair@VUnicodeString@@H@std@@@0@PAU?$pair@VUnicodeString@@H@0@$$QAU20@@Z 00503020 f i filefilter.obj
 0001:001020a0       ??0?$list@U?$pair@HH@std@@V?$allocator@U?$pair@HH@std@@@2@@std@@QAE@ABV01@@Z 005030a0 f i filefilter.obj
 0001:00102170       ??$_Buynode@U?$pair@VUnicodeString@@H@std@@@?$_List_val@U?$pair@VUnicodeString@@H@std@@V?$allocator@U?$pair@VUnicodeString@@H@std@@@2@@std@@QAEPAU_Node@?$_List_nod@U?$pair@VUnicodeString@@H@std@@V?$allocator@U?$pair@VUnicodeString@@H@std@@@2@@1@PAU231@0$$QAU?$pair@VUnicodeString@@H@1@@Z 00503170 f i filefilter.obj
 0001:00102240       ??0MenuItemEx@@QAE@ABU0@@Z 00503240 f i filefilter.obj
 0001:001022f0       ?clear@?$list@U?$pair@VUnicodeString@@UFarColor@@@std@@V?$allocator@U?$pair@VUnicodeString@@UFarColor@@@std@@@2@@std@@QAEXXZ 005032f0 f i cmdline.obj
 0001:001022f0       ?clear@?$list@U?$pair@VUnicodeString@@H@std@@V?$allocator@U?$pair@VUnicodeString@@H@std@@@2@@std@@QAEXXZ 005032f0 f i filefilter.obj
 0001:001023a0       ??$emplace_back@U?$pair@VUnicodeString@@H@std@@@?$list@U?$pair@VUnicodeString@@H@std@@V?$allocator@U?$pair@VUnicodeString@@H@std@@@2@@std@@QAEX$$QAU?$pair@VUnicodeString@@H@1@@Z 005033a0 f i filefilter.obj
 0001:001023f0       ?ParseAndAddMasks@FileFilter@@AAEHAAV?$list@U?$pair@VUnicodeString@@H@std@@V?$allocator@U?$pair@VUnicodeString@@H@std@@@2@@std@@ABVUnicodeString@@KH@Z 005033f0 f   filefilter.obj
 0001:001025a0       ??1?$list@U?$pair@VUnicodeString@@H@std@@V?$allocator@U?$pair@VUnicodeString@@H@std@@@2@@std@@QAE@XZ 005035a0 f i filefilter.obj
 0001:001025a0       ??1?$list@U?$pair@VUnicodeString@@UFarColor@@@std@@V?$allocator@U?$pair@VUnicodeString@@UFarColor@@@std@@@2@@std@@QAE@XZ 005035a0 f i cmdline.obj
 0001:00102600       ?merge@?$list@U?$pair@VUnicodeString@@H@std@@V?$allocator@U?$pair@VUnicodeString@@H@std@@@2@@std@@QAEXAAV12@@Z 00503600 f i filefilter.obj
 0001:001026d0       ?sort@?$list@U?$pair@VUnicodeString@@H@std@@V?$allocator@U?$pair@VUnicodeString@@H@std@@@2@@std@@QAEXXZ 005036d0 f i filefilter.obj
 0001:00102980       ??1<unnamed-type-FMask>@FileFilterParams@@QAE@XZ 00503980 f i filefilter.obj
 0001:00102a50       ??_GFileFilterParams@@QAEPAXI@Z 00503a50 f i filefilter.obj
 0001:00102af0       ??1?$unique_ptr@VFileFilterParams@@U?$default_delete@VFileFilterParams@@@std@@@std@@QAE@XZ 00503af0 f i filefilter.obj
 0001:00102b00       ??$_Move@PAV?$unique_ptr@VFileFilterParams@@U?$default_delete@VFileFilterParams@@@std@@@std@@PAV12@@std@@YAPAV?$unique_ptr@VFileFilterParams@@U?$default_delete@VFileFilterParams@@@std@@@0@PAV10@00U_Nonscalar_ptr_iterator_tag@0@@Z 00503b00 f i filefilter.obj
 0001:00102b50       ??$_Uninit_move@PAV?$unique_ptr@VFileFilterParams@@U?$default_delete@VFileFilterParams@@@std@@@std@@PAV12@V?$allocator@V?$unique_ptr@VFileFilterParams@@U?$default_delete@VFileFilterParams@@@std@@@std@@@2@V12@@std@@YAPAV?$unique_ptr@VFileFilterParams@@U?$default_delete@VFileFilterParams@@@std@@@0@PAV10@00AAV?$allocator@V?$unique_ptr@VFileFilterParams@@U?$default_delete@VFileFilterParams@@@std@@@std@@@0@0U_Nonscalar_ptr_iterator_tag@0@@Z 00503b50 f i filefilter.obj
 0001:00102c00       ??$_Destroy_range@V?$allocator@V?$unique_ptr@VFileFilterParams@@U?$default_delete@VFileFilterParams@@@std@@@std@@@std@@@std@@YAXPAV?$unique_ptr@VFileFilterParams@@U?$default_delete@VFileFilterParams@@@std@@@0@0AAV?$allocator@V?$unique_ptr@VFileFilterParams@@U?$default_delete@VFileFilterParams@@@std@@@std@@@0@U_Nonscalar_ptr_iterator_tag@0@@Z 00503c00 f i filefilter.obj
 0001:00102cb0       ??$_Umove@PAV?$unique_ptr@VFileFilterParams@@U?$default_delete@VFileFilterParams@@@std@@@std@@@?$vector@V?$unique_ptr@VFileFilterParams@@U?$default_delete@VFileFilterParams@@@std@@@std@@V?$allocator@V?$unique_ptr@VFileFilterParams@@U?$default_delete@VFileFilterParams@@@std@@@std@@@2@@std@@IAEPAV?$unique_ptr@VFileFilterParams@@U?$default_delete@VFileFilterParams@@@std@@@1@PAV21@00@Z 00503cb0 f i filefilter.obj
 0001:00102ce0       ?reserve@?$vector@V?$unique_ptr@VFileFilterParams@@U?$default_delete@VFileFilterParams@@@std@@@std@@V?$allocator@V?$unique_ptr@VFileFilterParams@@U?$default_delete@VFileFilterParams@@@std@@@std@@@2@@std@@QAEXI@Z 00503ce0 f i filefilter.obj
 0001:00102dc0       ??1?$vector@V?$unique_ptr@VFileFilterParams@@U?$default_delete@VFileFilterParams@@@std@@@std@@V?$allocator@V?$unique_ptr@VFileFilterParams@@U?$default_delete@VFileFilterParams@@@std@@@std@@@2@@std@@QAE@XZ 00503dc0 f i filefilter.obj
 0001:00102e10       ?erase@?$vector@V?$unique_ptr@VFileFilterParams@@U?$default_delete@VFileFilterParams@@@std@@@std@@V?$allocator@V?$unique_ptr@VFileFilterParams@@U?$default_delete@VFileFilterParams@@@std@@@std@@@2@@std@@QAE?AV?$_Vector_iterator@V?$_Vector_val@V?$unique_ptr@VFileFilterParams@@U?$default_delete@VFileFilterParams@@@std@@@std@@V?$allocator@V?$unique_ptr@VFileFilterParams@@U?$default_delete@VFileFilterParams@@@std@@@std@@@2@@std@@@2@V?$_Vector_const_iterator@V?$_Vector_val@V?$unique_ptr@VFileFilterParams@@U?$default_delete@VFileFilterParams@@@std@@@std@@V?$allocator@V?$unique_ptr@VFileFilterParams@@U?$default_delete@VFileFilterParams@@@std@@@std@@@2@@std@@@2@@Z 00503e10 f i filefilter.obj
 0001:00102e60       ?_Reserve@?$vector@V?$unique_ptr@VFileFilterParams@@U?$default_delete@VFileFilterParams@@@std@@@std@@V?$allocator@V?$unique_ptr@VFileFilterParams@@U?$default_delete@VFileFilterParams@@@std@@@std@@@2@@std@@IAEXI@Z 00503e60 f i filefilter.obj
 0001:00102ec0       ??$emplace_back@PAVFileFilterParams@@@?$vector@V?$unique_ptr@VFileFilterParams@@U?$default_delete@VFileFilterParams@@@std@@@std@@V?$allocator@V?$unique_ptr@VFileFilterParams@@U?$default_delete@VFileFilterParams@@@std@@@std@@@2@@std@@QAEX$$QAPAVFileFilterParams@@@Z 00503ec0 f i filefilter.obj
 0001:00102f80       ?InitFilter@FileFilter@@SAXXZ 00503f80 f   filefilter.obj
 0001:00104730       ?CloseFilter@FileFilter@@SAXXZ 00505730 f   filefilter.obj
 0001:001047d0       ??$emplace@PAVFileFilterParams@@@?$vector@V?$unique_ptr@VFileFilterParams@@U?$default_delete@VFileFilterParams@@@std@@@std@@V?$allocator@V?$unique_ptr@VFileFilterParams@@U?$default_delete@VFileFilterParams@@@std@@@std@@@2@@std@@QAE?AV?$_Vector_iterator@V?$_Vector_val@V?$unique_ptr@VFileFilterParams@@U?$default_delete@VFileFilterParams@@@std@@@std@@V?$allocator@V?$unique_ptr@VFileFilterParams@@U?$default_delete@VFileFilterParams@@@std@@@std@@@2@@std@@@1@V?$_Vector_const_iterator@V?$_Vector_val@V?$unique_ptr@VFileFilterParams@@U?$default_delete@VFileFilterParams@@@std@@@std@@V?$allocator@V?$unique_ptr@VFileFilterParams@@U?$default_delete@VFileFilterParams@@@std@@@std@@@2@@std@@@1@$$QAPAVFileFilterParams@@@Z 005057d0 f i filefilter.obj
 0001:00104820       ??R<lambda2>@?A0x41da663a@@QBEHHPAX@Z 00505820 f i filefilter.obj
 0001:00105130       ?ProcessSelection@FileFilter@@AAEXPAVVMenu2@@@Z 00506130 f   filefilter.obj
 0001:00105640       ?FilterEdit@FileFilter@@QAE_NXZ 00506640 f   filefilter.obj
 0001:00106320       ?_Do_call@?$_Impl_no_alloc2@U?$_Callable_obj@V<lambda2>@?A0x41da663a@@$0A@@tr1@std@@HHPAX@tr1@std@@UAEHHPAX@Z 00507320 f i filefilter.obj
 0001:00106330       ?SetDate@FileFilterParams@@QAEX_NKU_FILETIME@@10@Z 00507330 f   filefilterparams.obj
 0001:00106370       ?SetHardLinks@FileFilterParams@@QAEX_NKK@Z 00507370 f   filefilterparams.obj
 0001:00106390       ?SetAttr@FileFilterParams@@QAEX_NKK@Z 00507390 f   filefilterparams.obj
 0001:001063b0       ?SetColors@FileFilterParams@@QAEXPBUHighlightDataColor@@@Z 005073b0 f   filefilterparams.obj
 0001:001063d0       ?ToDeclaration@TiXmlDeclaration@tinyxml@@UBEPBV12@XZ 005073d0 f   tinyxml.obj
 0001:001063d0       ?ToUnknown@TiXmlUnknown@tinyxml@@UAEPAV12@XZ 005073d0 f   tinyxml.obj
 0001:001063d0       ?Flush@BaseFormat@@MAEAAV1@XZ 005073d0 f   codepage.obj
 0001:001063d0       ?ToText@TiXmlText@tinyxml@@UAEPAV12@XZ 005073d0 f   tinyxml.obj
 0001:001063d0       ?ToDocument@TiXmlDocument@tinyxml@@UAEPAV12@XZ 005073d0 f   configdb.obj
 0001:001063d0       ?ToUnknown@TiXmlUnknown@tinyxml@@UBEPBV12@XZ 005073d0 f   tinyxml.obj
 0001:001063d0       ?ToComment@TiXmlComment@tinyxml@@UBEPBV12@XZ 005073d0 f   tinyxml.obj
 0001:001063d0       ?ToDocument@TiXmlDocument@tinyxml@@UBEPBV12@XZ 005073d0 f   configdb.obj
 0001:001063d0       ?ToComment@TiXmlComment@tinyxml@@UAEPAV12@XZ 005073d0 f   tinyxml.obj
 0001:001063d0       ?ToText@TiXmlText@tinyxml@@UBEPBV12@XZ 005073d0 f   tinyxml.obj
 0001:001063d0       ?GetTitle@FileFilterParams@@QBEABVUnicodeString@@XZ 005073d0 f   filefilterparams.obj
 0001:001063d0       ?ToElement@TiXmlElement@tinyxml@@UAEPAV12@XZ 005073d0 f   tinyxml.obj
 0001:001063d0       ?ToElement@TiXmlElement@tinyxml@@UBEPBV12@XZ 005073d0 f   tinyxml.obj
 0001:001063d0       ?ToDeclaration@TiXmlDeclaration@tinyxml@@UAEPAV12@XZ 005073d0 f   tinyxml.obj
 0001:001063e0       ?GetDate@FileFilterParams@@QBE_NPAKPAU_FILETIME@@1PA_N@Z 005073e0 f   filefilterparams.obj
 0001:00106430       ?GetHardLinks@FileFilterParams@@QBE_NPAK0@Z 00507430 f   filefilterparams.obj
 0001:00106460       ?GetAttr@FileFilterParams@@QBE_NPAK0@Z 00507460 f   filefilterparams.obj
 0001:00106490       ?GetColors@FileFilterParams@@QBEXPAUHighlightDataColor@@@Z 00507490 f   filefilterparams.obj
 0001:001064b0       ?HighlightDlgUpdateUserControl@@YAXPAUFAR_CHAR_INFO@@ABUHighlightDataColor@@@Z 005074b0 f   filefilterparams.obj
 0001:001067a0       ?SetTitle@FileFilterParams@@QAEXABVUnicodeString@@@Z 005077a0 f   filefilterparams.obj
 0001:001067b0       ?SetMask@FileFilterParams@@QAEX_NABVUnicodeString@@@Z 005077b0 f   filefilterparams.obj
 0001:001067f0       ?SetSize@FileFilterParams@@QAEX_NABVUnicodeString@@1@Z 005077f0 f   filefilterparams.obj
 0001:00106840       ?FilterDlgRelativeDateItemsUpdate@@YAXPAVDialog@@_N@Z 00507840 f   filefilterparams.obj
 0001:00106940       ?GetMask@FileFilterParams@@QBE_NPAPB_W@Z 00507940 f   filefilterparams.obj
 0001:00106960       ?FileInFilter@FileFilterParams@@QAE_NABUFAR_FIND_DATA@@_KPBVUnicodeString@@@Z 00507960 f   filefilterparams.obj
 0001:00106ae0       ??4FileFilterParams@@QAEAAV0@ABV0@@Z 00507ae0 f   filefilterparams.obj
 0001:00106cb0       ?FileInFilter@FileFilterParams@@QAE_NPBUFileListItem@@_K@Z 00507cb0 f   filefilterparams.obj
 0001:00106df0       ?MenuString@@YAXAAVUnicodeString@@PAVFileFilterParams@@_NH2PB_W3@Z 00507df0 f   filefilterparams.obj
 0001:00107320       ?FileFilterConfigDlgProc@@YAHPAVDialog@@HHPAX@Z 00508320 f   filefilterparams.obj
 0001:00107ac0       ??$MakeDialogItemsEx@$0DO@@@YA?AV?$vector@UDialogItemEx@@V?$allocator@UDialogItemEx@@@std@@@std@@AAY0DO@$$CBUFarDialogItem@@@Z 00508ac0 f i filefilterparams.obj
 0001:00107b30       ??0<unnamed-type-FMask>@FileFilterParams@@QAE@XZ 00508b30 f i filefilterparams.obj
 0001:00107c40       ?FileFilterConfig@@YA_NPAVFileFilterParams@@_N@Z 00508c40 f   filefilterparams.obj
 0001:0010b630       ??0FileFilterParams@@QAE@XZ 0050c630 f   filefilterparams.obj
 0001:0010b7f0       ?IsFullScreen@Panel@@QBE_NXZ 0050c7f0 f i filelist.obj
 0001:0010b810       ?Up@FileList@@AAEXH@Z      0050c810 f   filelist.obj
 0001:0010b840       ?less_opt@@YA_N_N@Z        0050c840 f i filelist.obj
 0001:0010b860       ?SetFocus@FileList@@UAEXXZ 0050c860 f   filelist.obj
 0001:0010b890       ?SendKeyToPlugin@FileList@@UAEHK_N@Z 0050c890 f   filelist.obj
 0001:0010b950       ?GetPluginInfo@FileList@@QAE_NPAUPluginInfo@@@Z 0050c950 f   filelist.obj
 0001:0010b9a0       ?StrCmpNN@@YAHPB_WH0H@Z    0050c9a0 f i filelist.obj
 0001:0010b9d0       ?StrCmpN@@YAHPB_W0H@Z      0050c9d0 f i filelist.obj
 0001:0010ba00       ?StrCmpC@@YAHPB_W0@Z       0050ca00 f i filelist.obj
 0001:0010ba20       ?NumStrCmpNI@@YAHPB_WH0H@Z 0050ca20 f i filelist.obj
 0001:0010ba40       ?NumStrCmpI@@YAHPB_W0@Z    0050ca40 f i filelist.obj
 0001:0010ba60       ?NumStrCmpC@@YAHPB_W0@Z    0050ca60 f i filelist.obj
 0001:0010ba80       ?Select@FileList@@AAEXPAUFileListItem@@H@Z 0050ca80 f   filelist.obj
 0001:0010bb10       ?UngetSelName@FileList@@UAEXXZ 0050cb10 f   filelist.obj
 0001:0010bb20       ?GetCurrentPos@FileList@@UBEHXZ 0050cb20 f   filelist.obj
 0001:0010bb20       ?GetCurrentPos@TreeList@@UBEHXZ 0050cb20 f   treelist.obj
 0001:0010bb30       ?DeleteDiz@FileList@@UAEXABVUnicodeString@@0@Z 0050cb30 f   filelist.obj
 0001:0010bb50       ?FlushDiz@FileList@@UAEXXZ 0050cb50 f   filelist.obj
 0001:0010bb70       ?GetDizName@FileList@@UAEXAAVUnicodeString@@@Z 0050cb70 f   filelist.obj
 0001:0010bb90       ?CopyDiz@FileList@@UAEXABVUnicodeString@@000PAVDizList@@@Z 0050cb90 f   filelist.obj
 0001:0010bba0       ?SetReturnCurrentFile@FileList@@UAEXH@Z 0050cba0 f   filelist.obj
 0001:0010bbb0       ?SetSelectedFirstMode@FileList@@EAEX_N@Z 0050cbb0 f   filelist.obj
 0001:0010bbd0       ?UpdateKeyBar@FileList@@UAEXXZ 0050cbd0 f   filelist.obj
 0001:0010bc30       ?ChangeNumericSort@Panel@@UAEX_N@Z 0050cc30 f i filelist.obj
 0001:0010bc40       ?ChangeCaseSensitiveSort@Panel@@UAEX_N@Z 0050cc40 f i filelist.obj
 0001:0010bc50       ?ChangeDirectoriesFirst@Panel@@UAEX_N@Z 0050cc50 f i filelist.obj
 0001:0010bc70       ?ChangeSortOrder@Panel@@UAEXH@Z 0050cc70 f i filelist.obj
 0001:0010bc80       ?Down@FileList@@AAEXH@Z    0050cc80 f   filelist.obj
 0001:0010bcc0       ?Scroll@FileList@@AAEXH@Z  0050ccc0 f   filelist.obj
 0001:0010bd20       ?CorrectPosition@FileList@@AAEXXZ 0050cd20 f   filelist.obj
 0001:0010bdf0       ?ChangeNumericSort@FileList@@UAEX_N@Z 0050cdf0 f   filelist.obj
 0001:0010be20       ?ChangeCaseSensitiveSort@FileList@@UAEX_N@Z 0050ce20 f   filelist.obj
 0001:0010be50       ?ChangeDirectoriesFirst@FileList@@UAEX_N@Z 0050ce50 f   filelist.obj
 0001:0010be80       ?GoToFile@FileList@@UAEHJ@Z 0050ce80 f   filelist.obj
 0001:0010bec0       ?GetRealSelCount@FileList@@UAEIXZ 0050cec0 f   filelist.obj
 0001:0010bee0       ?ClearLastGetSelection@FileList@@UAEXXZ 0050cee0 f   filelist.obj
 0001:0010bf60       ?GetLastSelectedItem@FileList@@UBEPBUFileListItem@@XZ 0050cf60 f   filelist.obj
 0001:0010bf90       ?ChangeSortOrder@FileList@@UAEXH@Z 0050cf90 f   filelist.obj
 0001:0010bfc0       ?GetItem@FileList@@UBEPBUFileListItem@@I@Z 0050cfc0 f   filelist.obj
 0001:0010c010       ??$_For_each@PBV?$unique_ptr@UFileListItem@@U?$default_delete@UFileListItem@@@std@@@std@@V<lambda3>@?A0x44355304@@@std@@YA?AV<lambda3>@?A0x44355304@@PBV?$unique_ptr@UFileListItem@@U?$default_delete@UFileListItem@@@std@@@0@0V12@@Z 0050d010 f i filelist.obj
 0001:0010c090       ??$_For_each@PBV?$unique_ptr@UFileListItem@@U?$default_delete@UFileListItem@@@std@@@std@@V<lambda5>@?A0x44355304@@@std@@YA?AV<lambda5>@?A0x44355304@@PBV?$unique_ptr@UFileListItem@@U?$default_delete@UFileListItem@@@std@@@0@0V12@@Z 0050d090 f i filelist.obj
 0001:0010c150       ??$_For_each@PBV?$unique_ptr@UFileListItem@@U?$default_delete@UFileListItem@@@std@@@std@@V<lambda13>@?A0x44355304@@@std@@YA?AV<lambda13>@?A0x44355304@@PBV?$unique_ptr@UFileListItem@@U?$default_delete@UFileListItem@@@std@@@0@0V12@@Z 0050d150 f i filelist.obj
 0001:0010c1d0       ?SetSortMode@FileList@@UAEXH@Z 0050d1d0 f   filelist.obj
 0001:0010c240       ?FindNext@FileList@@UAEJHABVUnicodeString@@@Z 0050d240 f   filelist.obj
 0001:0010c2d0       ?IsSelected@FileList@@UAEHABVUnicodeString@@@Z 0050d2d0 f   filelist.obj
 0001:0010c320       ?IsSelected@FileList@@UAEHI@Z 0050d320 f   filelist.obj
 0001:0010c350       ?FilterIsEnabled@FileList@@UAE_NXZ 0050d350 f   filelist.obj
 0001:0010c370       ?FileInFilter@FileList@@UAE_NI@Z 0050d370 f   filelist.obj
 0001:0010c3d0       ?GetSelCount@FileList@@UAEIXZ 0050d3d0 f   filelist.obj
 0001:0010c420       ?GetSelName@FileList@@UAEHPAVUnicodeString@@AAK0PAUFAR_FIND_DATA@@@Z 0050d420 f   filelist.obj
 0001:0010c810       ?GetLastSelectedSize@FileList@@UAE_KXZ 0050d810 f   filelist.obj
 0001:0010c850       ?GetCurName@FileList@@EAEHAAVUnicodeString@@0@Z 0050d850 f   filelist.obj
 0001:0010c8d0       ?GetFileName@FileList@@UAEHAAVUnicodeString@@HAAK@Z 0050d8d0 f   filelist.obj
 0001:0010c930       ??$_For_each@PBV?$unique_ptr@UFileListItem@@U?$default_delete@UFileListItem@@@std@@@std@@V<lambda1>@?A0x44355304@@@std@@YA?AV<lambda1>@?A0x44355304@@PBV?$unique_ptr@UFileListItem@@U?$default_delete@UFileListItem@@@std@@@0@0V12@@Z 0050d930 f i filelist.obj
 0001:0010c990       ??$_For_each@PBV?$unique_ptr@UFileListItem@@U?$default_delete@UFileListItem@@@std@@@std@@V<lambda7>@?A0x44355304@@@std@@YA?AV<lambda7>@?A0x44355304@@PBV?$unique_ptr@UFileListItem@@U?$default_delete@UFileListItem@@@std@@@0@0V12@@Z 0050d990 f i filelist.obj
 0001:0010ca30       ??$_For_each@PBV?$unique_ptr@UFileListItem@@U?$default_delete@UFileListItem@@@std@@@std@@V<lambda8>@?A0x44355304@@@std@@YA?AV<lambda8>@?A0x44355304@@PBV?$unique_ptr@UFileListItem@@U?$default_delete@UFileListItem@@@std@@@0@0V12@@Z 0050da30 f i filelist.obj
 0001:0010ca30       ??$_For_each@PBV?$unique_ptr@UFileListItem@@U?$default_delete@UFileListItem@@@std@@@std@@V<lambda9>@?A0x44355304@@@std@@YA?AV<lambda9>@?A0x44355304@@PBV?$unique_ptr@UFileListItem@@U?$default_delete@UFileListItem@@@std@@@0@0V12@@Z 0050da30 f i filelist.obj
 0001:0010ca80       ??$_For_each@PBV?$unique_ptr@UFileListItem@@U?$default_delete@UFileListItem@@@std@@@std@@V<lambda10>@?A0x44355304@@@std@@YA?AV<lambda10>@?A0x44355304@@PBV?$unique_ptr@UFileListItem@@U?$default_delete@UFileListItem@@@std@@@0@0V12@@Z 0050da80 f i filelist.obj
 0001:0010cbb0       ??$_For_each@PBV?$unique_ptr@UFileListItem@@U?$default_delete@UFileListItem@@@std@@@std@@V<lambda11>@?A0x44355304@@@std@@YA?AV<lambda11>@?A0x44355304@@PBV?$unique_ptr@UFileListItem@@U?$default_delete@UFileListItem@@@std@@@0@0V12@@Z 0050dbb0 f i filelist.obj
 0001:0010cc40       ??$_For_each@PBV?$unique_ptr@UFileListItem@@U?$default_delete@UFileListItem@@@std@@@std@@V<lambda12>@?A0x44355304@@@std@@YA?AV<lambda12>@?A0x44355304@@PBV?$unique_ptr@UFileListItem@@U?$default_delete@UFileListItem@@@std@@@0@0V12@@Z 0050dc40 f i filelist.obj
 0001:0010ccd0       ??$_For_each@PBV?$unique_ptr@UFileListItem@@U?$default_delete@UFileListItem@@@std@@@std@@V<lambda15>@?A0x44355304@@@std@@YA?AV<lambda15>@?A0x44355304@@PBV?$unique_ptr@UFileListItem@@U?$default_delete@UFileListItem@@@std@@@0@0V12@@Z 0050dcd0 f i filelist.obj
 0001:0010cd90       ?_Target_type@?$_Impl_no_alloc1@U?$_Callable_obj@V<lambda16>@?A0x44355304@@$0A@@tr1@std@@HH@tr1@std@@UBEABVtype_info@@XZ 0050dd90 f i filelist.obj
 0001:0010cda0       ??_E?$_Impl_no_alloc1@U?$_Callable_obj@V<lambda16>@?A0x44355304@@$0A@@tr1@std@@HH@tr1@std@@UAEPAXI@Z 0050dda0 f i filelist.obj
 0001:0010cda0       ??_G?$_Impl_no_alloc1@U?$_Callable_obj@V<lambda16>@?A0x44355304@@$0A@@tr1@std@@HH@tr1@std@@UAEPAXI@Z 0050dda0 f i filelist.obj
 0001:0010ce00       ??R<lambda16>@?A0x44355304@@QBEHH@Z 0050de00 f i filelist.obj
 0001:0010d090       ?_Copy@?$_Impl_no_alloc1@U?$_Callable_obj@V<lambda16>@?A0x44355304@@$0A@@tr1@std@@HH@tr1@std@@UAEPAV?$_Impl_base1@HH@23@PAX@Z 0050e090 f i filelist.obj
 0001:0010d150       ??Rlist_less@@QBE_NABV?$unique_ptr@UFileListItem@@U?$default_delete@UFileListItem@@@std@@@std@@0@Z 0050e150 f i filelist.obj
 0001:0010db30       ?MoveToMouse@FileList@@UAEXPBU_MOUSE_EVENT_RECORD@@@Z 0050eb30 f   filelist.obj
 0001:0010dc70       ?SetViewMode@FileList@@UAEXH@Z 0050ec70 f   filelist.obj
 0001:0010e090       ?FindFile@FileList@@UAEJABVUnicodeString@@H@Z 0050f090 f   filelist.obj
 0001:0010e170       ?ClearSelection@FileList@@UAEXXZ 0050f170 f   filelist.obj
 0001:0010e1b0       ?DescribeFiles@FileList@@AAEXXZ 0050f1b0 f   filelist.obj
 0001:0010e630       ?IfGoHome@FileList@@UAEX_W@Z 0050f630 f   filelist.obj
 0001:0010e7d0       ??1?$unique_ptr@VFileFilter@@U?$default_delete@VFileFilter@@@std@@@std@@QAE@XZ 0050f7d0 f i filelist.obj
 0001:0010e7f0       ??$any_of@V?$_Vector_const_iterator@V?$_Vector_val@V?$unique_ptr@UFileListItem@@U?$default_delete@UFileListItem@@@std@@@std@@V?$allocator@V?$unique_ptr@UFileListItem@@U?$default_delete@UFileListItem@@@std@@@std@@@2@@std@@@std@@V<lambda18>@?A0x44355304@@@std@@YA_NV?$_Vector_const_iterator@V?$_Vector_val@V?$unique_ptr@UFileListItem@@U?$default_delete@UFileListItem@@@std@@@std@@V?$allocator@V?$unique_ptr@UFileListItem@@U?$default_delete@UFileListItem@@@std@@@std@@@2@@std@@@0@0V<lambda18>@?A0x44355304@@@Z 0050f7f0 f i filelist.obj
 0001:0010e820       ?_Do_call@?$_Impl_no_alloc1@U?$_Callable_obj@V<lambda16>@?A0x44355304@@$0A@@tr1@std@@HH@tr1@std@@UAEHH@Z 0050f820 f i filelist.obj
 0001:0010e830       ??$_Push_heap@PAV?$unique_ptr@UFileListItem@@U?$default_delete@UFileListItem@@@std@@@std@@HV12@Ulist_less@@@std@@YAXPAV?$unique_ptr@UFileListItem@@U?$default_delete@UFileListItem@@@std@@@0@HH$$QAV10@Ulist_less@@@Z 0050f830 f i filelist.obj
 0001:0010e8d0       ??1panelitem@Panel@@UAE@XZ 0050f8d0 f i filelist.obj
 0001:0010e950       ??_Epanelitem@Panel@@UAEPAXI@Z 0050f950 f i filelist.obj
 0001:0010e950       ??_Gpanelitem@Panel@@UAEPAXI@Z 0050f950 f i filelist.obj
 0001:0010e9f0       ??1FileListItem@@UAE@XZ    0050f9f0 f   filelist.obj
 0001:0010eba0       ?ChangeDir@FileList@@AAE_NABVUnicodeString@@_N1PBUFileListItem@@@Z 0050fba0 f   filelist.obj
 0001:0010f630       ?FindPartName@FileList@@UAEHABVUnicodeString@@HHH@Z 00510630 f   filelist.obj
 0001:0010fb50       ?UpdateViewPanel@FileList@@UAEXXZ 00510b50 f   filelist.obj
 0001:0010fe10       ?CompareDir@FileList@@UAEXXZ 00510e10 f   filelist.obj
 0001:00110560       ?SetTitle@FileList@@UAEXXZ 00511560 f   filelist.obj
 0001:00110710       ?SaveSelection@FileList@@UAEXXZ 00511710 f   filelist.obj
 0001:00110740       ?RestoreSelection@FileList@@UAEXXZ 00511740 f   filelist.obj
 0001:00110790       ?EditFilter@FileList@@UAEXXZ 00511790 f   filelist.obj
 0001:00110830       ?ApplyCommand@FileList@@AAE_NXZ 00511830 f   filelist.obj
 0001:00110df0       ?CountDirSize@FileList@@AAEX_K@Z 00511df0 f   filelist.obj
 0001:00111320       ?ProcessCopyKeys@FileList@@AAEXH@Z 00512320 f   filelist.obj
 0001:001116f0       ?PluginPanelHelp@FileList@@QAEHPAX@Z 005126f0 f   filelist.obj
 0001:00111ac0       ?AddPluginPrefix@FileList@@SAAAVUnicodeString@@PAV1@AAV2@@Z 00512ac0 f   filelist.obj
 0001:00111bb0       ??$_Move@PAV?$unique_ptr@UFileListItem@@U?$default_delete@UFileListItem@@@std@@@std@@PAV12@@std@@YAPAV?$unique_ptr@UFileListItem@@U?$default_delete@UFileListItem@@@std@@@0@PAV10@00U_Nonscalar_ptr_iterator_tag@0@@Z 00512bb0 f i filelist.obj
 0001:00111bb0       ??$_Move@PAV?$unique_ptr@UTreeItem@TreeList@@U?$default_delete@UTreeItem@TreeList@@@std@@@std@@PAV12@@std@@YAPAV?$unique_ptr@UTreeItem@TreeList@@U?$default_delete@UTreeItem@TreeList@@@std@@@0@PAV10@00U_Nonscalar_ptr_iterator_tag@0@@Z 00512bb0 f i treelist.obj
 0001:00111c00       ??$_Adjust_heap@PAV?$unique_ptr@UFileListItem@@U?$default_delete@UFileListItem@@@std@@@std@@HV12@Ulist_less@@@std@@YAXPAV?$unique_ptr@UFileListItem@@U?$default_delete@UFileListItem@@@std@@@0@HH$$QAV10@Ulist_less@@@Z 00512c00 f i filelist.obj
 0001:00111cc0       ??_EFileListItem@@UAEPAXI@Z 00512cc0 f i filelist.obj
 0001:00111cc0       ??_GFileListItem@@UAEPAXI@Z 00512cc0 f i filelist.obj
 0001:00111cf0       ?SetCurDir@FileList@@UAE_NABVUnicodeString@@_N1@Z 00512cf0 f   filelist.obj
 0001:00111eb0       ?GetCurBaseName@FileList@@EAEHAAVUnicodeString@@0@Z 00512eb0 f   filelist.obj
 0001:00111f70       ?CreateFullPathName@FileList@@QAE_NABVUnicodeString@@0KAAV2@HH@Z 00512f70 f   filelist.obj
 0001:001121f0       ?GetPrevViewMode@FileList@@UAEHXZ 005131f0 f   filelist.obj
 0001:00112220       ?GetPrevSortMode@FileList@@UAEHXZ 00513220 f   filelist.obj
 0001:00112240       ?GetPrevSortOrder@FileList@@UAEHXZ 00513240 f   filelist.obj
 0001:00112260       ?GetPrevNumericSort@FileList@@UAE_NXZ 00513260 f   filelist.obj
 0001:00112290       ?GetPrevCaseSensitiveSort@FileList@@UAE_NXZ 00513290 f   filelist.obj
 0001:001122c0       ?GetPrevDirectoriesFirst@FileList@@UAE_NXZ 005132c0 f   filelist.obj
 0001:001122f0       ??$_For_each@V?$_List_unchecked_const_iterator@V?$_List_val@VUnicodeString@@V?$allocator@VUnicodeString@@@std@@@std@@U_Iterator_base0@2@@std@@V<lambda2>@?A0x44355304@@@std@@YA?AV<lambda2>@?A0x44355304@@V?$_List_unchecked_const_iterator@V?$_List_val@VUnicodeString@@V?$allocator@VUnicodeString@@@std@@@std@@U_Iterator_base0@2@@0@0V12@@Z 005132f0 f i filelist.obj
 0001:00112470       ??$_For_each@V?$_List_unchecked_const_iterator@V?$_List_val@VUnicodeString@@V?$allocator@VUnicodeString@@@std@@@std@@U_Iterator_base0@2@@std@@V<lambda4>@?A0x44355304@@@std@@YA?AV<lambda4>@?A0x44355304@@V?$_List_unchecked_const_iterator@V?$_List_val@VUnicodeString@@V?$allocator@VUnicodeString@@@std@@@std@@U_Iterator_base0@2@@0@0V12@@Z 00513470 f i filelist.obj
 0001:001125f0       ??$_For_each@V?$_List_unchecked_const_iterator@V?$_List_val@VUnicodeString@@V?$allocator@VUnicodeString@@@std@@@std@@U_Iterator_base0@2@@std@@V<lambda6>@?A0x44355304@@@std@@YA?AV<lambda6>@?A0x44355304@@V?$_List_unchecked_const_iterator@V?$_List_val@VUnicodeString@@V?$allocator@VUnicodeString@@@std@@@std@@U_Iterator_base0@2@@0@0V12@@Z 005135f0 f i filelist.obj
 0001:00112740       ??$_Make_heap@PAV?$unique_ptr@UFileListItem@@U?$default_delete@UFileListItem@@@std@@@std@@HV12@Ulist_less@@@std@@YAXPAV?$unique_ptr@UFileListItem@@U?$default_delete@UFileListItem@@@std@@@0@0Ulist_less@@PAH0@Z 00513740 f i filelist.obj
 0001:001127e0       ??$_Insertion_sort1@PAV?$unique_ptr@UFileListItem@@U?$default_delete@UFileListItem@@@std@@@std@@Ulist_less@@V12@@std@@YAXPAV?$unique_ptr@UFileListItem@@U?$default_delete@UFileListItem@@@std@@@0@0Ulist_less@@0@Z 005137e0 f i filelist.obj
 0001:00112950       ?CopyFiles@FileList@@AAEXXZ 00513950 f   filelist.obj
 0001:00112bd0       ?CopyNames@FileList@@AAEX_N0@Z 00513bd0 f   filelist.obj
 0001:001132f0       ?SelectSortMode@FileList@@AAEXXZ 005142f0 f   filelist.obj
 0001:00113ab0       ??$_Median@PAV?$unique_ptr@UFileListItem@@U?$default_delete@UFileListItem@@@std@@@std@@Ulist_less@@@std@@YAXPAV?$unique_ptr@UFileListItem@@U?$default_delete@UFileListItem@@@std@@@0@00Ulist_less@@@Z 00514ab0 f i filelist.obj
 0001:00113c80       ??1PluginsListItem@@QAE@XZ 00514c80 f i filelist.obj
 0001:00113d50       ??$_Unguarded_partition@PAV?$unique_ptr@UFileListItem@@U?$default_delete@UFileListItem@@@std@@@std@@Ulist_less@@@std@@YA?AU?$pair@PAV?$unique_ptr@UFileListItem@@U?$default_delete@UFileListItem@@@std@@@std@@PAV12@@0@PAV?$unique_ptr@UFileListItem@@U?$default_delete@UFileListItem@@@std@@@0@0Ulist_less@@@Z 00514d50 f i filelist.obj
 0001:00113f00       ??$_Sort_heap@PAV?$unique_ptr@UFileListItem@@U?$default_delete@UFileListItem@@@std@@@std@@Ulist_less@@@std@@YAXPAV?$unique_ptr@UFileListItem@@U?$default_delete@UFileListItem@@@std@@@0@0Ulist_less@@@Z 00514f00 f i filelist.obj
 0001:00113fd0       ?reserve@?$vector@V?$unique_ptr@UTreeItem@TreeList@@U?$default_delete@UTreeItem@TreeList@@@std@@@std@@V?$allocator@V?$unique_ptr@UTreeItem@TreeList@@U?$default_delete@UTreeItem@TreeList@@@std@@@std@@@2@@std@@QAEXI@Z 00514fd0 f i treelist.obj
 0001:00113fd0       ?reserve@?$vector@V?$unique_ptr@UFileListItem@@U?$default_delete@UFileListItem@@@std@@@std@@V?$allocator@V?$unique_ptr@UFileListItem@@U?$default_delete@UFileListItem@@@std@@@std@@@2@@std@@QAEXI@Z 00514fd0 f i filelist.obj
 0001:001140b0       ?erase@?$vector@V?$unique_ptr@UFileListItem@@U?$default_delete@UFileListItem@@@std@@@std@@V?$allocator@V?$unique_ptr@UFileListItem@@U?$default_delete@UFileListItem@@@std@@@std@@@2@@std@@QAE?AV?$_Vector_iterator@V?$_Vector_val@V?$unique_ptr@UFileListItem@@U?$default_delete@UFileListItem@@@std@@@std@@V?$allocator@V?$unique_ptr@UFileListItem@@U?$default_delete@UFileListItem@@@std@@@std@@@2@@std@@@2@V?$_Vector_const_iterator@V?$_Vector_val@V?$unique_ptr@UFileListItem@@U?$default_delete@UFileListItem@@@std@@@std@@V?$allocator@V?$unique_ptr@UFileListItem@@U?$default_delete@UFileListItem@@@std@@@std@@@2@@std@@@2@0@Z 005150b0 f i filelist.obj
 0001:001140b0       ?erase@?$vector@V?$unique_ptr@UTreeItem@TreeList@@U?$default_delete@UTreeItem@TreeList@@@std@@@std@@V?$allocator@V?$unique_ptr@UTreeItem@TreeList@@U?$default_delete@UTreeItem@TreeList@@@std@@@std@@@2@@std@@QAE?AV?$_Vector_iterator@V?$_Vector_val@V?$unique_ptr@UTreeItem@TreeList@@U?$default_delete@UTreeItem@TreeList@@@std@@@std@@V?$allocator@V?$unique_ptr@UTreeItem@TreeList@@U?$default_delete@UTreeItem@TreeList@@@std@@@std@@@2@@std@@@2@V?$_Vector_const_iterator@V?$_Vector_val@V?$unique_ptr@UTreeItem@TreeList@@U?$default_delete@UTreeItem@TreeList@@@std@@@std@@V?$allocator@V?$unique_ptr@UTreeItem@TreeList@@U?$default_delete@UTreeItem@TreeList@@@std@@@std@@@2@@std@@@2@0@Z 005150b0 f i treelist.obj
 0001:00114120       ?_Tidy@?$vector@V?$unique_ptr@UFileListItem@@U?$default_delete@UFileListItem@@@std@@@std@@V?$allocator@V?$unique_ptr@UFileListItem@@U?$default_delete@UFileListItem@@@std@@@std@@@2@@std@@IAEXXZ 00515120 f i filelist.obj
 0001:00114120       ?_Tidy@?$vector@V?$unique_ptr@UTreeItem@TreeList@@U?$default_delete@UTreeItem@TreeList@@@std@@@std@@V?$allocator@V?$unique_ptr@UTreeItem@TreeList@@U?$default_delete@UTreeItem@TreeList@@@std@@@std@@@2@@std@@IAEXXZ 00515120 f i treelist.obj
 0001:00114160       ?_Reserve@?$vector@V?$unique_ptr@UTreeItem@TreeList@@U?$default_delete@UTreeItem@TreeList@@@std@@@std@@V?$allocator@V?$unique_ptr@UTreeItem@TreeList@@U?$default_delete@UTreeItem@TreeList@@@std@@@std@@@2@@std@@IAEXI@Z 00515160 f i treelist.obj
 0001:00114160       ?_Reserve@?$vector@V?$unique_ptr@UFileListItem@@U?$default_delete@UFileListItem@@@std@@@std@@V?$allocator@V?$unique_ptr@UFileListItem@@U?$default_delete@UFileListItem@@@std@@@std@@@2@@std@@IAEXI@Z 00515160 f i filelist.obj
 0001:001141c0       ??$_Sort@PAV?$unique_ptr@UFileListItem@@U?$default_delete@UFileListItem@@@std@@@std@@HUlist_less@@@std@@YAXPAV?$unique_ptr@UFileListItem@@U?$default_delete@UFileListItem@@@std@@@0@0HUlist_less@@@Z 005151c0 f i filelist.obj
 0001:001142b0       ??1?$vector@V?$unique_ptr@UFileListItem@@U?$default_delete@UFileListItem@@@std@@@std@@V?$allocator@V?$unique_ptr@UFileListItem@@U?$default_delete@UFileListItem@@@std@@@std@@@2@@std@@QAE@XZ 005152b0 f i filelist.obj
 0001:001142b0       ??1?$vector@V?$unique_ptr@UTreeItem@TreeList@@U?$default_delete@UTreeItem@TreeList@@@std@@@std@@V?$allocator@V?$unique_ptr@UTreeItem@TreeList@@U?$default_delete@UTreeItem@TreeList@@@std@@@std@@@2@@std@@QAE@XZ 005152b0 f i treelist.obj
 0001:001142c0       ?DeleteListData@FileList@@AAEXAAV?$vector@V?$unique_ptr@UFileListItem@@U?$default_delete@UFileListItem@@@std@@@std@@V?$allocator@V?$unique_ptr@UFileListItem@@U?$default_delete@UFileListItem@@@std@@@std@@@2@@std@@@Z 005152c0 f   filelist.obj
 0001:00114300       ?SortFileList@FileList@@UAEXH@Z 00515300 f   filelist.obj
 0001:001144a0       ??1PrevDataItem@FileList@@QAE@XZ 005154a0 f i filelist.obj
 0001:00114520       ??$_For_each@V?$_List_unchecked_iterator@V?$_List_val@UPrevDataItem@FileList@@V?$allocator@UPrevDataItem@FileList@@@std@@@std@@@std@@V<lambda19>@?A0x44355304@@@std@@YA?AV<lambda19>@?A0x44355304@@V?$_List_unchecked_iterator@V?$_List_val@UPrevDataItem@FileList@@V?$allocator@UPrevDataItem@FileList@@@std@@@std@@@0@0V12@@Z 00515520 f i filelist.obj
 0001:001145c0       ?clear@?$list@UPluginsListItem@@V?$allocator@UPluginsListItem@@@std@@@std@@QAEXXZ 005155c0 f i filelist.obj
 0001:00114640       ??0PrevDataItem@FileList@@QAE@ABVUnicodeString@@$$QAV?$vector@V?$unique_ptr@UFileListItem@@U?$default_delete@UFileListItem@@@std@@@std@@V?$allocator@V?$unique_ptr@UFileListItem@@U?$default_delete@UFileListItem@@@std@@@std@@@2@@std@@H@Z 00515640 f i filelist.obj
 0001:001146f0       ??0PrevDataItem@FileList@@QAE@$$QAU01@@Z 005156f0 f i filelist.obj
 0001:001147b0       ??1?$list@UPluginsListItem@@V?$allocator@UPluginsListItem@@@std@@@std@@QAE@XZ 005157b0 f i filelist.obj
 0001:00114810       ??$_Dest_val@V?$allocator@U_Node@?$_List_nod@UPrevDataItem@FileList@@V?$allocator@UPrevDataItem@FileList@@@std@@@std@@@std@@U_Node@?$_List_nod@UPrevDataItem@FileList@@V?$allocator@UPrevDataItem@FileList@@@std@@@2@@std@@YAXAAV?$allocator@U_Node@?$_List_nod@UPrevDataItem@FileList@@V?$allocator@UPrevDataItem@FileList@@@std@@@std@@@0@PAU_Node@?$_List_nod@UPrevDataItem@FileList@@V?$allocator@UPrevDataItem@FileList@@@std@@@0@@Z 00515810 f i filelist.obj
 0001:001148a0       ?clear@?$list@UPrevDataItem@FileList@@V?$allocator@UPrevDataItem@FileList@@@std@@@std@@QAEXXZ 005158a0 f i filelist.obj
 0001:001149b0       ??$_Cons_val@V?$allocator@UPrevDataItem@FileList@@@std@@UPrevDataItem@FileList@@U34@@std@@YAXAAV?$allocator@UPrevDataItem@FileList@@@0@PAUPrevDataItem@FileList@@$$QAU23@@Z 005159b0 f i filelist.obj
 0001:00114a10       ?ClearAllItem@FileList@@MAEXXZ 00515a10 f   filelist.obj
 0001:00114a40       ??1?$list@UPrevDataItem@FileList@@V?$allocator@UPrevDataItem@FileList@@@std@@@std@@QAE@XZ 00515a40 f i filelist.obj
 0001:00114aa0       ??$_Buynode@UPrevDataItem@FileList@@@?$_List_val@UPrevDataItem@FileList@@V?$allocator@UPrevDataItem@FileList@@@std@@@std@@QAEPAU_Node@?$_List_nod@UPrevDataItem@FileList@@V?$allocator@UPrevDataItem@FileList@@@std@@@1@PAU231@0$$QAUPrevDataItem@FileList@@@Z 00515aa0 f i filelist.obj
 0001:00114b70       ??0FileList@@QAE@XZ        00515b70 f   filelist.obj
 0001:00114ee0       ?GetColumnsCount@FileList@@UAEHXZ 00515ee0 f i filelist.obj
 0001:00114ef0       ?GetSelectedFirstMode@FileList@@EAE_NXZ 00515ef0 f i filelist.obj
 0001:00114f00       ??_EFileList@@GBM@AEPAXI@Z 00515f00 f i filelist.obj
 0001:00114f10       ?GetFileCount@FileList@@UAEIXZ 00515f10 f i filelist.obj
 0001:00114f20       ??1FileList@@EAE@XZ        00515f20 f   filelist.obj
 0001:00115120       ??_GFileList@@EAEPAXI@Z    00516120 f i filelist.obj
 0001:00115120       ??_EFileList@@EAEPAXI@Z    00516120 f i filelist.obj
 0001:00115150       ?SelectFiles@FileList@@AAEJHPB_W@Z 00516150 f   filelist.obj
 0001:00115ef0       ??$emplace_back@UPrevDataItem@FileList@@@?$list@UPrevDataItem@FileList@@V?$allocator@UPrevDataItem@FileList@@@std@@@std@@QAEX$$QAUPrevDataItem@FileList@@@Z 00516ef0 f i filelist.obj
 0001:00115f40       ?VMProcess@FileList@@UAE_JHPAX_J@Z 00516f40 f   filelist.obj
 0001:001165b0       ?OpenFilePlugin@FileList@@QAEPAXPBVUnicodeString@@HW4OPENFILEPLUGINTYPE@@@Z 005175b0 f   filelist.obj
 0001:00116830       ?ProcessEnter@FileList@@AAEX_N000W4OPENFILEPLUGINTYPE@@@Z 00517830 f   filelist.obj
 0001:00116f10       ?ProcessMouse@FileList@@UAEHPBU_MOUSE_EVENT_RECORD@@@Z 00517f10 f   filelist.obj
 0001:00117500       ?ProcessKey@FileList@@UAEHH@Z 00518500 f   filelist.obj
 0001:0011b260       ??$_None_of@V?$_List_unchecked_const_iterator@V?$_List_val@Vmasks@filemasks@@V?$allocator@Vmasks@filemasks@@@std@@@std@@U_Iterator_base0@2@@std@@V<lambda1>@?A0xd159d3ca@@@std@@YA_NV?$_List_unchecked_const_iterator@V?$_List_val@Vmasks@filemasks@@V?$allocator@Vmasks@filemasks@@@std@@@std@@U_Iterator_base0@2@@0@0V<lambda1>@?A0xd159d3ca@@@Z 0051c260 f i filemasks.obj
 0001:0011b260       ??$_None_of@V?$_List_unchecked_const_iterator@V?$_List_val@Vmasks@filemasks@@V?$allocator@Vmasks@filemasks@@@std@@@std@@U_Iterator_base0@2@@std@@V<lambda2>@?A0xd159d3ca@@@std@@YA_NV?$_List_unchecked_const_iterator@V?$_List_val@Vmasks@filemasks@@V?$allocator@Vmasks@filemasks@@@std@@@std@@U_Iterator_base0@2@@0@0V<lambda2>@?A0xd159d3ca@@@Z 0051c260 f i filemasks.obj
 0001:0011b2a0       ??$_Any_of@V?$_List_unchecked_const_iterator@V?$_List_val@VUnicodeString@@V?$allocator@VUnicodeString@@@std@@@std@@U_Iterator_base0@2@@std@@V<lambda4>@?A0xd159d3ca@@@std@@YA_NV?$_List_unchecked_const_iterator@V?$_List_val@VUnicodeString@@V?$allocator@VUnicodeString@@@std@@@std@@U_Iterator_base0@2@@0@0V<lambda4>@?A0xd159d3ca@@@Z 0051c2a0 f i filemasks.obj
 0001:0011b2f0       ?empty@filemasks@@QBE_NXZ  0051c2f0 f   filemasks.obj
 0001:0011b340       ??$_For_each@V?$_List_unchecked_const_iterator@V?$_List_val@VUnicodeString@@V?$allocator@VUnicodeString@@@std@@@std@@U_Iterator_base0@2@@std@@V<lambda3>@?A0xd159d3ca@@@std@@YA?AV<lambda3>@?A0xd159d3ca@@V?$_List_unchecked_const_iterator@V?$_List_val@VUnicodeString@@V?$allocator@VUnicodeString@@@std@@@std@@U_Iterator_base0@2@@0@0V12@@Z 0051c340 f i filemasks.obj
 0001:0011b3d0       ?ErrorMessage@filemasks@@QBEXXZ 0051c3d0 f   filemasks.obj
 0001:0011b500       ??$_Find@V?$_List_unchecked_const_iterator@V?$_List_val@Vmasks@filemasks@@V?$allocator@Vmasks@filemasks@@@std@@@std@@U_Iterator_base0@2@@std@@VUnicodeString@@@std@@YA?AV?$_List_unchecked_const_iterator@V?$_List_val@Vmasks@filemasks@@V?$allocator@Vmasks@filemasks@@@std@@@std@@U_Iterator_base0@2@@0@V10@0ABVUnicodeString@@@Z 0051c500 f i filemasks.obj
 0001:0011b5b0       ?Compare@filemasks@@QBE_NABVUnicodeString@@@Z 0051c5b0 f   filemasks.obj
 0001:0011b600       ?Free@masks@filemasks@@QAEXXZ 0051c600 f   filemasks.obj
 0001:0011b650       ??0masks@filemasks@@QAE@XZ 0051c650 f i filemasks.obj
 0001:0011b700       ??4masks@filemasks@@QAEAAV01@$$QAV01@@Z 0051c700 f   filemasks.obj
 0001:0011b7a0       ?Set@masks@filemasks@@QAE_NABVUnicodeString@@@Z 0051c7a0 f   filemasks.obj
 0001:0011bb30       ??0masks@filemasks@@QAE@$$QAV01@@Z 0051cb30 f i filemasks.obj
 0001:0011bbf0       ??$_Cons_val@V?$allocator@Vmasks@filemasks@@@std@@Vmasks@filemasks@@V34@@std@@YAXAAV?$allocator@Vmasks@filemasks@@@0@PAVmasks@filemasks@@$$QAV23@@Z 0051cbf0 f i filemasks.obj
 0001:0011bc50       ??$_Buynode@Vmasks@filemasks@@@?$_List_val@Vmasks@filemasks@@V?$allocator@Vmasks@filemasks@@@std@@@std@@QAEPAU_Node@?$_List_nod@Vmasks@filemasks@@V?$allocator@Vmasks@filemasks@@@std@@@1@PAU231@0$$QAVmasks@filemasks@@@Z 0051cc50 f i filemasks.obj
 0001:0011bd20       ??$emplace_back@Vmasks@filemasks@@@?$list@Vmasks@filemasks@@V?$allocator@Vmasks@filemasks@@@std@@@std@@QAEX$$QAVmasks@filemasks@@@Z 0051cd20 f i filemasks.obj
 0001:0011bd70       ?Set@filemasks@@QAE_NABVUnicodeString@@K@Z 0051cd70 f   filemasks.obj
 0001:0011c610       ?SetOwnerInternal@@YA_NPB_W0@Z 0051d610 f   fileowner.obj
 0001:0011c770       ??$_Find_if@V?$_List_unchecked_const_iterator@V?$_List_val@USIDCacheItem@@V?$allocator@USIDCacheItem@@@std@@@std@@U_Iterator_base0@2@@std@@V<lambda1>@?A0x76abb40e@@@std@@YA?AV?$_List_unchecked_const_iterator@V?$_List_val@USIDCacheItem@@V?$allocator@USIDCacheItem@@@std@@@std@@U_Iterator_base0@2@@0@V10@0V<lambda1>@?A0x76abb40e@@@Z 0051d770 f i fileowner.obj
 0001:0011c7c0       ??1SIDCacheItem@@QAE@XZ    0051d7c0 f i fileowner.obj
 0001:0011c850       ?GetNameFromSIDCache@@YA_NPAXAAVUnicodeString@@@Z 0051d850 f   fileowner.obj
 0001:0011c8a0       ?SetOwner@@YA_NABVUnicodeString@@0@Z 0051d8a0 f   fileowner.obj
 0001:0011c9a0       ??0SIDCacheItem@@QAE@ABVUnicodeString@@PAX@Z 0051d9a0 f i fileowner.obj
 0001:0011cbd0       ??0SIDCacheItem@@QAE@$$QAU0@@Z 0051dbd0 f i fileowner.obj
 0001:0011cc80       ??$_Cons_val@V?$allocator@USIDCacheItem@@@std@@USIDCacheItem@@U3@@std@@YAXAAV?$allocator@USIDCacheItem@@@0@PAUSIDCacheItem@@$$QAU2@@Z 0051dc80 f i fileowner.obj
 0001:0011cce0       ??$_Buynode@USIDCacheItem@@@?$_List_val@USIDCacheItem@@V?$allocator@USIDCacheItem@@@std@@@std@@QAEPAU_Node@?$_List_nod@USIDCacheItem@@V?$allocator@USIDCacheItem@@@std@@@1@PAU231@0$$QAUSIDCacheItem@@@Z 0051dce0 f i fileowner.obj
 0001:0011cdb0       ?clear@?$list@USIDCacheItem@@V?$allocator@USIDCacheItem@@@std@@@std@@QAEXXZ 0051ddb0 f i fileowner.obj
 0001:0011ce80       ?SIDCacheFlush@@YAXXZ      0051de80 f   fileowner.obj
 0001:0011cf00       ?AddSIDToCache@@YA_NABVUnicodeString@@PAXAAV1@@Z 0051df00 f   fileowner.obj
 0001:0011d090       ?GetFileOwner@@YA_NABVUnicodeString@@0AAV1@@Z 0051e090 f   fileowner.obj
 0001:0011d1c0       ??1MenuBar@@UAE@XZ         0051e1c0 f i filepanels.obj
 0001:0011d210       ??_GMenuBar@@UAEPAXI@Z     0051e210 f i filepanels.obj
 0001:0011d210       ??_EMenuBar@@UAEPAXI@Z     0051e210 f i filepanels.obj
 0001:0011d270       ??_6IntOption@@QAEAAV0@_J@Z 0051e270 f i filepanels.obj
 0001:0011d2a0       ??FIntOption@@QAEAAV0@XZ   0051e2a0 f i filepanels.obj
 0001:0011d2d0       ??EIntOption@@QAEAAV0@XZ   0051e2d0 f i filepanels.obj
 0001:0011d300       ?RedrawKeyBar@FilePanels@@UAEXXZ 0051e300 f   filepanels.obj
 0001:0011d320       ?CreatePanel@FilePanels@@QAEPAVPanel@@H@Z 0051e320 f   filepanels.obj
 0001:0011d420       ?DeletePanel@FilePanels@@QAEXPAVPanel@@@Z 0051e420 f   filepanels.obj
 0001:0011d460       ?VMProcess@FilePanels@@UAE_JHPAX_J@Z 0051e460 f   filepanels.obj
 0001:0011d580       ?GetAnotherPanel@FilePanels@@QAEPAVPanel@@PBV2@@Z 0051e580 f   filepanels.obj
 0001:0011d5a0       ?OnChangeFocus@FilePanels@@UAEXH@Z 0051e5a0 f   filepanels.obj
 0001:0011d600       ?ProcessMouse@FilePanels@@UAEHPBU_MOUSE_EVENT_RECORD@@@Z 0051e600 f   filepanels.obj
 0001:0011d660       ?ShowConsoleTitle@FilePanels@@UAEXXZ 0051e660 f   filepanels.obj
 0001:0011d680       ?ResizeConsole@FilePanels@@UAEXXZ 0051e680 f   filepanels.obj
 0001:0011d6d0       ?FastHide@FilePanels@@UAEHXZ 0051e6d0 f   filepanels.obj
 0001:0011d6f0       ?Refresh@FilePanels@@UAEXXZ 0051e6f0 f   filepanels.obj
 0001:0011d6f0       ?Refresh@Frame@@UAEXXZ     0051e6f0 f   codepage.obj
 0001:0011d700       ?GetMacroMode@FilePanels@@UAE?AW4FARMACROAREA@@XZ 0051e700 f   filepanels.obj
 0001:0011d730       ??FIntOption@@QAE?AV0@H@Z  0051e730 f i filepanels.obj
 0001:0011d7c0       ??EIntOption@@QAE?AV0@H@Z  0051e7c0 f i filepanels.obj
 0001:0011d850       ?SetPanelPositions@FilePanels@@QAEX_N0@Z 0051e850 f   filepanels.obj
 0001:0011db90       ?SetScreenPosition@FilePanels@@UAEXXZ 0051eb90 f   filepanels.obj
 0001:0011dc90       ?SetAnhoterPanelFocus@FilePanels@@QAEHXZ 0051ec90 f   filepanels.obj
 0001:0011dcc0       ?SwapPanels@FilePanels@@QAEHXZ 0051ecc0 f   filepanels.obj
 0001:0011de80       ?ChangePanel@FilePanels@@QAEPAVPanel@@PAV2@HHH@Z 0051ee80 f   filepanels.obj
 0001:0011e340       ?DisplayObject@FilePanels@@EAEXXZ 0051f340 f   filepanels.obj
 0001:0011e400       ?ChangePanelToFilled@FilePanels@@QAEPAVPanel@@PAV2@H@Z 0051f400 f   filepanels.obj
 0001:0011e910       ?ChangePanelViewMode@FilePanels@@QAEHPAVPanel@@HH@Z 0051f910 f   filepanels.obj
 0001:0011ea40       ?Init@FilePanels@@QAEXH@Z  0051fa40 f   filepanels.obj
 0001:0011f1b0       ?ProcessKey@FilePanels@@UAEHH@Z 005201b0 f   filepanels.obj
 0001:001205c0       ?GetTypeAndName@FilePanels@@UAEHAAVUnicodeString@@0@Z 005215c0 f   filepanels.obj
 0001:00120720       ?GoToFile@FilePanels@@QAEXABVUnicodeString@@@Z 00521720 f   filepanels.obj
 0001:001209e0       ??0FilePanels@@QAE@XZ      005219e0 f   filepanels.obj
 0001:00120af0       ?GetTypeName@FilePanels@@UAEPB_WXZ 00521af0 f i filepanels.obj
 0001:00120b00       ??1FilePanels@@UAE@XZ      00521b00 f   filepanels.obj
 0001:00120c40       ??_GFilePanels@@UAEPAXI@Z  00521c40 f i filepanels.obj
 0001:00120c40       ??_EFilePanels@@UAEPAXI@Z  00521c40 f i filepanels.obj
 0001:00120c70       ??0nsUniversalDetectorEx@@QAE@XZ 00521c70 f i filestr.obj
 0001:00120cd0       ?Report@nsUniversalDetectorEx@@MAEXPBD@Z 00521cd0 f i filestr.obj
 0001:00121150       ?IsTextUTF8@@YA_NPBDI@Z    00522150 f   filestr.obj
 0001:001211b0       ??_EnsUniversalDetectorEx@@UAEPAXI@Z 005221b0 f i filestr.obj
 0001:001211b0       ??_GnsUniversalDetectorEx@@UAEPAXI@Z 005221b0 f i filestr.obj
 0001:00121210       ?GetAnsiString@GetFileString@@AAEHPAPADAAH@Z 00522210 f   filestr.obj
 0001:00121390       ?GetUnicodeString@GetFileString@@AAEHPAPA_WAAH_N@Z 00522390 f   filestr.obj
 0001:00121540       ?GetString@GetFileString@@QAEHPAPA_WIAAH@Z 00522540 f   filestr.obj
 0001:001216e0       ??1GetFileString@@QAE@XZ   005226e0 f   filestr.obj
 0001:00121770       ?PeekString@GetFileString@@QAEHPAPA_WIAAH@Z 00522770 f   filestr.obj
 0001:001217c0       ??0GetFileString@@QAE@AAVFile@@@Z 005227c0 f   filestr.obj
 0001:00121890       ?GetFileFormat@@YA_NAAVFile@@AAIPA_N_N@Z 00522890 f   filestr.obj
 0001:00121c50       ?Signaled@Event@@QAE_NXZ   00522c50 f i filesystemwatcher.obj
 0001:00121c70       ?Release@FileSystemWatcher@@QAEXXZ 00522c70 f   filesystemwatcher.obj
 0001:00121cb0       ?Signaled@FileSystemWatcher@@QAE_NXZ 00522cb0 f   filesystemwatcher.obj
 0001:00121cf0       ?Set@FileSystemWatcher@@QAEXABVUnicodeString@@_N@Z 00522cf0 f   filesystemwatcher.obj
 0001:00121d40       ??$emplace_back@AAPAUMenuItemEx@@@?$vector@PAUMenuItemEx@@V?$allocator@PAUMenuItemEx@@@std@@@std@@QAEXAAPAUMenuItemEx@@@Z 00522d40 f i vmenu.obj
 0001:00121d40       ??$emplace_back@AAPAVFrame@@@?$vector@PAVFrame@@V?$allocator@PAVFrame@@@std@@@std@@QAEXAAPAVFrame@@@Z 00522d40 f i manager.obj
 0001:00121d40       ??$emplace_back@AAPAX@?$vector@PAXV?$allocator@PAX@std@@@std@@QAEXAAPAX@Z 00522d40 f i filesystemwatcher.obj
 0001:00121e00       ??0FileSystemWatcher@@QAE@XZ 00522e00 f   filesystemwatcher.obj
 0001:00121f20       ??1FileSystemWatcher@@QAE@XZ 00522f20 f   filesystemwatcher.obj
 0001:00122040       ?WatchRegister@FileSystemWatcher@@AAEIPAX@Z 00523040 f   filesystemwatcher.obj
 0001:00122150       ?Watch@FileSystemWatcher@@QAEX_N0@Z 00523150 f   filesystemwatcher.obj
 0001:00122370       ?_Target_type@?$_Impl_no_alloc1@U?$_Callable_obj@V<lambda1>@?A0xd6f449e5@@$0A@@tr1@std@@HH@tr1@std@@UBEABVtype_info@@XZ 00523370 f i filetype.obj
 0001:00122380       ??_G?$_Impl_no_alloc1@U?$_Callable_obj@V<lambda1>@?A0xd6f449e5@@$0A@@tr1@std@@HH@tr1@std@@UAEPAXI@Z 00523380 f i filetype.obj
 0001:00122380       ??_E?$_Impl_no_alloc1@U?$_Callable_obj@V<lambda1>@?A0xd6f449e5@@$0A@@tr1@std@@HH@tr1@std@@UAEPAXI@Z 00523380 f i filetype.obj
 0001:001223e0       ?_Copy@?$_Impl_no_alloc1@U?$_Callable_obj@V<lambda1>@?A0xd6f449e5@@$0A@@tr1@std@@HH@tr1@std@@UAEPAV?$_Impl_base1@HH@23@PAX@Z 005233e0 f i filetype.obj
 0001:001224a0       ?ExtractIfExistCommand@@YA_NAAVUnicodeString@@@Z 005234a0 f   filetype.obj
 0001:00122530       ?ProcessGlobalFileTypes@@YAXABVUnicodeString@@_N1@Z 00523530 f   filetype.obj
 0001:00122640       ?ProcessExternal@@YAXABVUnicodeString@@00_N@Z 00523640 f   filetype.obj
 0001:00122d90       ?DeleteTypeRecord@@YA_N_K@Z 00523d90 f   filetype.obj
 0001:00122fb0       ?GetDescriptionWidth@@YAHXZ 00523fb0 f   filetype.obj
 0001:00123210       ?ProcessLocalFileTypes@@YA_NABVUnicodeString@@0W4FILETYPE_MODE@@_N@Z 00524210 f   filetype.obj
 0001:00124440       ?EditTypeRecordDlgProc@@YAHPAVDialog@@HHPAX@Z 00525440 f   filetype.obj
 0001:00124560       ?EditTypeRecord@@YA_N_K_N@Z 00525560 f   filetype.obj
 0001:001252c0       ?EditFileTypes@@YAXXZ      005262c0 f   filetype.obj
 0001:00125690       ??R<lambda1>@?A0xd6f449e5@@QBEHH@Z 00526690 f i filetype.obj
 0001:001258e0       ?_Do_call@?$_Impl_no_alloc1@U?$_Callable_obj@V<lambda1>@?A0xd6f449e5@@$0A@@tr1@std@@HH@tr1@std@@UAEHH@Z 005268e0 f i filetype.obj
 0001:001258f0       ?InitKeyBar@FileViewer@@UAEXXZ 005268f0 f   fileview.obj
 0001:00125a00       ?DisplayObject@FileViewer@@EAEXXZ 00526a00 f   fileview.obj
 0001:00125a10       ?VMProcess@FileViewer@@UAE_JHPAX_J@Z 00526a10 f   fileview.obj
 0001:00125b40       ?ProcessMouse@FileViewer@@UAEHPBU_MOUSE_EVENT_RECORD@@@Z 00526b40 f   fileview.obj
 0001:00125b90       ?ShowConsoleTitle@FileViewer@@UAEXXZ 00526b90 f   fileview.obj
 0001:00125bb0       ?SetTempViewName@FileViewer@@QAEXABVUnicodeString@@H@Z 00526bb0 f   fileview.obj
 0001:00125be0       ?FastHide@FileViewer@@UAEHXZ 00526be0 f   fileview.obj
 0001:00125c00       ?ViewerControl@FileViewer@@QAEHHHPAX@Z 00526c00 f   fileview.obj
 0001:00125c10       ?GetTitle@FileViewer@@UAEAAVUnicodeString@@AAV2@HH@Z 00526c10 f   fileview.obj
 0001:00125c20       ?OnChangeFocus@FileViewer@@UAEXH@Z 00526c20 f   fileview.obj
 0001:00125c70       ?SetEnableF6@FileEditor@@QAEX_N@Z 00526c70 f i fileview.obj
 0001:00125ca0       ?Init@FileViewer@@QAEXABVUnicodeString@@HH_JPB_WPAVNamesList@@H@Z 00526ca0 f   fileview.obj
 0001:00125e60       ?OnDestroy@FileViewer@@UAEXXZ 00526e60 f   fileview.obj
 0001:00125f70       ?ShowStatus@FileViewer@@QAEXXZ 00526f70 f   fileview.obj
 0001:001261d0       ?Show@FileViewer@@EAEXXZ   005271d0 f   fileview.obj
 0001:001262d0       ?ProcessKey@FileViewer@@UAEHH@Z 005272d0 f   fileview.obj
 0001:00126a60       ?GetTypeAndName@FileViewer@@UAEHAAVUnicodeString@@0@Z 00527a60 f   fileview.obj
 0001:00126ad0       ??0FileViewer@@QAE@ABVUnicodeString@@HHH_JPB_WPAVNamesList@@HI2H@Z 00527ad0 f   fileview.obj
 0001:00126c70       ?GetTypeName@FileViewer@@UAEPB_WXZ 00527c70 f i fileview.obj
 0001:00126c80       ??0FileViewer@@QAE@ABVUnicodeString@@HHPB_WHHHHI@Z 00527c80 f   fileview.obj
 0001:00126e60       ??1FileViewer@@UAE@XZ      00527e60 f   fileview.obj
 0001:00126f60       ??_EFileViewer@@UAEPAXI@Z  00527f60 f i fileview.obj
 0001:00126f60       ??_GFileViewer@@UAEPAXI@Z  00527f60 f i fileview.obj
 0001:00126f90       ?FindStringBMH@FindFiles@@AAE?BHPBEI@Z 00527f90 f   findfile.obj
 0001:00127020       ?GetPercent@InterThreadData@@QAEHXZ 00528020 f i findfile.obj
 0001:00127080       ?GetLastFoundNumber@InterThreadData@@QAEHXZ 00528080 f i findfile.obj
 0001:001270e0       ?SetLastFoundNumber@InterThreadData@@QAEXH@Z 005280e0 f i findfile.obj
 0001:00127140       ?GetFileCount@InterThreadData@@QAEHXZ 00528140 f i findfile.obj
 0001:001271a0       ?GetDirCount@InterThreadData@@QAEHXZ 005281a0 f i findfile.obj
 0001:00127200       ?GetFindMessage@InterThreadData@@QAEXAAVUnicodeString@@@Z 00528200 f i findfile.obj
 0001:00127270       ?SetFindMessage@InterThreadData@@QAEXABVUnicodeString@@@Z 00528270 f i findfile.obj
 0001:001272e0       ??$_Cons_val@V?$allocator@UCodePageInfo@FindFiles@@@std@@UCodePageInfo@FindFiles@@AAI@std@@YAXAAV?$allocator@UCodePageInfo@FindFiles@@@0@PAUCodePageInfo@FindFiles@@AAI@Z 005282e0 f i findfile.obj
 0001:001272e0       ??$_Cons_val@V?$allocator@UCodePageInfo@FindFiles@@@std@@UCodePageInfo@FindFiles@@H@std@@YAXAAV?$allocator@UCodePageInfo@FindFiles@@@0@PAUCodePageInfo@FindFiles@@$$QAH@Z 005282e0 f i findfile.obj
 0001:001272e0       ??$_Cons_val@V?$allocator@UCodePageInfo@FindFiles@@@std@@UCodePageInfo@FindFiles@@I@std@@YAXAAV?$allocator@UCodePageInfo@FindFiles@@@0@PAUCodePageInfo@FindFiles@@$$QAI@Z 005282e0 f i findfile.obj
 0001:00127340       ??$for_each@V?$_Vector_iterator@V?$_Vector_val@UPluginPanelItem@@V?$allocator@UPluginPanelItem@@@std@@@std@@@std@@P6AXAAUPluginPanelItem@@@Z@std@@YAP6AXAAUPluginPanelItem@@@ZV?$_Vector_iterator@V?$_Vector_val@UPluginPanelItem@@V?$allocator@UPluginPanelItem@@@std@@@std@@@0@1P6AX0@Z@Z 00528340 f i findfile.obj
 0001:00127370       ??$_For_each@V?$_List_unchecked_const_iterator@V?$_List_val@UFindListItem@@V?$allocator@UFindListItem@@@std@@@std@@U_Iterator_base0@2@@std@@V<lambda1>@?A0x3fa9367c@@@std@@YA?AV<lambda1>@?A0x3fa9367c@@V?$_List_unchecked_const_iterator@V?$_List_val@UFindListItem@@V?$allocator@UFindListItem@@@std@@@std@@U_Iterator_base0@2@@0@0V12@@Z 00528370 f i findfile.obj
 0001:001273c0       ??$_For_each@V?$_List_unchecked_iterator@V?$_List_val@UCodePageInfo@FindFiles@@V?$allocator@UCodePageInfo@FindFiles@@@std@@@std@@@std@@V<lambda3>@?A0x3fa9367c@@@std@@YA?AV<lambda3>@?A0x3fa9367c@@V?$_List_unchecked_iterator@V?$_List_val@UCodePageInfo@FindFiles@@V?$allocator@UCodePageInfo@FindFiles@@@std@@@std@@@0@0V12@@Z 005283c0 f i findfile.obj
 0001:00127440       ??$_None_of@V?$_List_unchecked_const_iterator@V?$_List_val@VUnicodeString@@V?$allocator@VUnicodeString@@@std@@@std@@U_Iterator_base0@2@@std@@V<lambda5>@?A0x3fa9367c@@@std@@YA_NV?$_List_unchecked_const_iterator@V?$_List_val@VUnicodeString@@V?$allocator@VUnicodeString@@@std@@@std@@U_Iterator_base0@2@@0@0V<lambda5>@?A0x3fa9367c@@@Z 00528440 f i findfile.obj
 0001:001274c0       ??$_Buynode@I@?$_List_val@UCodePageInfo@FindFiles@@V?$allocator@UCodePageInfo@FindFiles@@@std@@@std@@QAEPAU_Node@?$_List_nod@UCodePageInfo@FindFiles@@V?$allocator@UCodePageInfo@FindFiles@@@std@@@1@PAU231@0$$QAI@Z 005284c0 f i findfile.obj
 0001:001274c0       ??$_Buynode@AAI@?$_List_val@UCodePageInfo@FindFiles@@V?$allocator@UCodePageInfo@FindFiles@@@std@@@std@@QAEPAU_Node@?$_List_nod@UCodePageInfo@FindFiles@@V?$allocator@UCodePageInfo@FindFiles@@@std@@@1@PAU231@0AAI@Z 005284c0 f i findfile.obj
 0001:001274c0       ??$_Buynode@H@?$_List_val@UCodePageInfo@FindFiles@@V?$allocator@UCodePageInfo@FindFiles@@@std@@@std@@QAEPAU_Node@?$_List_nod@UCodePageInfo@FindFiles@@V?$allocator@UCodePageInfo@FindFiles@@@std@@@1@PAU231@0$$QAH@Z 005284c0 f i findfile.obj
 0001:00127590       ?FindStringBMH@FindFiles@@AAE?BHPB_WI@Z 00528590 f   findfile.obj
 0001:00127650       ?clear@?$list@UCodePageInfo@FindFiles@@V?$allocator@UCodePageInfo@FindFiles@@@std@@@std@@QAEXXZ 00528650 f i findfile.obj
 0001:00127650       ?_Tidy@?$list@U?$pair@HH@std@@V?$allocator@U?$pair@HH@std@@@2@@std@@QAEXXZ 00528650 f i codepage.obj
 0001:00127690       ??$_For_each@V?$_List_unchecked_const_iterator@V?$_List_val@UFindListItem@@V?$allocator@UFindListItem@@@std@@@std@@U_Iterator_base0@2@@std@@V<lambda4>@?A0x3fa9367c@@@std@@YA?AV<lambda4>@?A0x3fa9367c@@V?$_List_unchecked_const_iterator@V?$_List_val@UFindListItem@@V?$allocator@UFindListItem@@@std@@@std@@U_Iterator_base0@2@@0@0V12@@Z 00528690 f i findfile.obj
 0001:00127700       ??0ArcListItem@@QAE@ABU0@@Z 00528700 f i findfile.obj
 0001:001277b0       ??1ArcListItem@@QAE@XZ     005287b0 f i findfile.obj
 0001:00127870       ?ReleaseInFileSearch@FindFiles@@AAEXXZ 00528870 f   findfile.obj
 0001:001278e0       ??1FindListItem@@QAE@XZ    005288e0 f i findfile.obj
 0001:00127930       ?InitInFileSearch@FindFiles@@AAEXXZ 00528930 f   findfile.obj
 0001:00128040       ?PrepareDriveNameStr@FindFiles@@AAEAAVUnicodeString@@AAV2@@Z 00529040 f   findfile.obj
 0001:00128200       ?IsWordDiv@FindFiles@@AAE_N_W@Z 00529200 f   findfile.obj
 0001:00128260       ?SetPluginDirectory@FindFiles@@AAEXABVUnicodeString@@PAX_NPAUUserDataItem@@@Z 00529260 f   findfile.obj
 0001:00128480       ?AdvancedDlgProc@FindFiles@@AAEHPAVDialog@@HHPAX@Z 00529480 f   findfile.obj
 0001:001285f0       ?GetPluginFile@FindFiles@@AAE_NPAUArcListItem@@ABUFAR_FIND_DATA@@ABVUnicodeString@@AAV4@PAUUserDataItem@@@Z 005295f0 f   findfile.obj
 0001:00128a40       ?LookForString@FindFiles@@AAEHABVUnicodeString@@@Z 00529a40 f   findfile.obj
 0001:00128ee0       ?IsFileIncluded@FindFiles@@AAE_NPAUPluginPanelItem@@ABVUnicodeString@@K1@Z 00529ee0 f   findfile.obj
 0001:001291d0       ?FindDlgProc@FindFiles@@AAEHPAVDialog@@HHPAX@Z 0052a1d0 f   findfile.obj
 0001:0012a580       ??$_Cons_val@V?$allocator@UArcListItem@@@std@@UArcListItem@@AAU3@@std@@YAXAAV?$allocator@UArcListItem@@@0@PAUArcListItem@@AAU2@@Z 0052b580 f i findfile.obj
 0001:0012a5e0       ??$_Buynode@AAUArcListItem@@@?$_List_val@UArcListItem@@V?$allocator@UArcListItem@@@std@@@std@@QAEPAU_Node@?$_List_nod@UArcListItem@@V?$allocator@UArcListItem@@@std@@@1@PAU231@0AAUArcListItem@@@Z 0052b5e0 f i findfile.obj
 0001:0012a6b0       ??$_Cons_val@V?$allocator@UFindListItem@@@std@@UFindListItem@@AAU3@@std@@YAXAAV?$allocator@UFindListItem@@@0@PAUFindListItem@@AAU2@@Z 0052b6b0 f i findfile.obj
 0001:0012a730       ??$_Buynode@AAUFindListItem@@@?$_List_val@UFindListItem@@V?$allocator@UFindListItem@@@std@@@std@@QAEPAU_Node@?$_List_nod@UFindListItem@@V?$allocator@UFindListItem@@@std@@@1@PAU231@0AAUFindListItem@@@Z 0052b730 f i findfile.obj
 0001:0012a800       ??$Wrapper@V?$_Bind_fty@V?$_Mem_fn2@IP8FindFiles@@AEIPAX@ZV1@PAX@tr1@std@@U_Notforced@23@V?$_Bind2@U?$_Callable_obj@V?$_Mem_fn2@IP8FindFiles@@AEIPAX@ZV1@PAX@tr1@std@@$0A@@tr1@std@@PAVFindFiles@@PAX@23@@tr1@std@@@Thread@@CGIPAX@Z 0052b800 f i findfile.obj
 0001:0012a800       ??$Wrapper@V?$_Bind_fty@V?$_Mem_fn2@IP8FileSystemWatcher@@AEIPAX@ZV1@PAX@tr1@std@@U_Notforced@23@V?$_Bind2@U?$_Callable_obj@V?$_Mem_fn2@IP8FileSystemWatcher@@AEIPAX@ZV1@PAX@tr1@std@@$0A@@tr1@std@@PAVFileSystemWatcher@@PAX@23@@tr1@std@@@Thread@@CGIPAX@Z 0052b800 f i filesystemwatcher.obj
 0001:0012a800       ??$Wrapper@V?$_Bind_fty@V?$_Mem_fn2@IP8WindowHandler@@AEIPAX@ZV1@PAX@tr1@std@@U_Notforced@23@V?$_Bind2@U?$_Callable_obj@V?$_Mem_fn2@IP8WindowHandler@@AEIPAX@ZV1@PAX@tr1@std@@$0A@@tr1@std@@PAVWindowHandler@@PAX@23@@tr1@std@@@Thread@@CGIPAX@Z 0052b800 f i window.obj
 0001:0012a830       ?AddArcListItem@InterThreadData@@QAEAAUArcListItem@@ABVUnicodeString@@PAX_K0@Z 0052b830 f i findfile.obj
 0001:0012a940       ?clear@?$list@UArcListItem@@V?$allocator@UArcListItem@@@std@@@std@@QAEXXZ 0052b940 f i findfile.obj
 0001:0012a9c0       ??$_For_each@V?$_List_unchecked_iterator@V?$_List_val@UFindListItem@@V?$allocator@UFindListItem@@@std@@@std@@@std@@V<lambda8>@?A0x3fa9367c@@@std@@YA?AV<lambda8>@?A0x3fa9367c@@V?$_List_unchecked_iterator@V?$_List_val@UFindListItem@@V?$allocator@UFindListItem@@@std@@@std@@@0@0V12@@Z 0052b9c0 f i findfile.obj
 0001:0012aad0       ?AddFindListItem@InterThreadData@@QAEAAUFindListItem@@ABUFAR_FIND_DATA@@PAXP6GX1PBUFarPanelItemFreeInfo@@@Z@Z 0052bad0 f i findfile.obj
 0001:0012abd0       ?AddMenuRecord@FindFiles@@AAEXPAVDialog@@ABVUnicodeString@@ABUFAR_FIND_DATA@@PAXP6GX3PBUFarPanelItemFreeInfo@@@Z@Z 0052bbd0 f   findfile.obj
 0001:0012b700       ?AddMenuRecord@FindFiles@@AAEXPAVDialog@@ABVUnicodeString@@AAUPluginPanelItem@@@Z 0052c700 f   findfile.obj
 0001:0012b7c0       ?ScanPluginTree@FindFiles@@AAEXPAVDialog@@PAX_KAAH@Z 0052c7c0 f   findfile.obj
 0001:0012bfb0       ?DoPreparePluginList@FindFiles@@AAEXPAVDialog@@_N@Z 0052cfb0 f   findfile.obj
 0001:0012c2b0       ?clear@?$list@UFindListItem@@V?$allocator@UFindListItem@@@std@@@std@@QAEXXZ 0052d2b0 f i findfile.obj
 0001:0012c330       ??1?$list@UArcListItem@@V?$allocator@UArcListItem@@@std@@@std@@QAE@XZ 0052d330 f i findfile.obj
 0001:0012c390       ?ArchiveSearch@FindFiles@@AAEXPAVDialog@@ABVUnicodeString@@@Z 0052d390 f   findfile.obj
 0001:0012c7c0       ??1?$list@UFindListItem@@V?$allocator@UFindListItem@@@std@@@std@@QAE@XZ 0052d7c0 f i findfile.obj
 0001:0012c820       ??0InterThreadData@@QAE@XZ 0052d820 f i findfile.obj
 0001:0012c980       ??1InterThreadData@@QAE@XZ 0052d980 f i findfile.obj
 0001:0012ca60       ?DoScanTree@FindFiles@@AAEXPAVDialog@@ABVUnicodeString@@@Z 0052da60 f   findfile.obj
 0001:0012d450       ??$MakeDialogItemsEx@$0L@@@YA?AV?$vector@UDialogItemEx@@V?$allocator@UDialogItemEx@@@std@@@std@@AAY0L@$$CBUFarDialogItem@@@Z 0052e450 f i findfile.obj
 0001:0012d4c0       ??$MakeDialogItemsEx@$0BL@@@YA?AV?$vector@UDialogItemEx@@V?$allocator@UDialogItemEx@@@std@@@std@@AAY0BL@$$CBUFarDialogItem@@@Z 0052e4c0 f i findfile.obj
 0001:0012d530       ?AdvancedDialog@FindFiles@@AAEXXZ 0052e530 f   findfile.obj
 0001:0012de30       ?MainDlgProc@FindFiles@@AAEHPAVDialog@@HHPAX@Z 0052ee30 f   findfile.obj
 0001:0012e8b0       ?DoPrepareFileList@FindFiles@@AAEXPAVDialog@@@Z 0052f8b0 f   findfile.obj
 0001:0012ef20       ?ThreadRoutine@FindFiles@@AAEIPAX@Z 0052ff20 f   findfile.obj
 0001:0012efe0       ?FindFilesProcess@FindFiles@@AAE_NXZ 0052ffe0 f   findfile.obj
 0001:00130510       ??0FindFiles@@QAE@XZ       00531510 f   findfile.obj
 0001:001322d0       ??1FindFiles@@QAE@XZ       005332d0 f   findfile.obj
 0001:001325a0       ?SetREPARSE_DATA_BUFFER@@YA_NABVUnicodeString@@PAU_REPARSE_DATA_BUFFER@@@Z 005335a0 f   flink.obj
 0001:00132700       ?GetREPARSE_DATA_BUFFER@@YA_NABVUnicodeString@@PAU_REPARSE_DATA_BUFFER@@@Z 00533700 f   flink.obj
 0001:001327c0       ?GetNumberOfLinks@@YAHABVUnicodeString@@_N@Z 005337c0 f   flink.obj
 0001:00132870       ?EnumStreams@@YA_NABVUnicodeString@@AA_KAAK@Z 00533870 f   flink.obj
 0001:00132930       ?FillREPARSE_DATA_BUFFER@@YA_NPAU_REPARSE_DATA_BUFFER@@ABVUnicodeString@@1@Z 00533930 f   flink.obj
 0001:00132a60       ?CreateVolumeMountPoint@@YA_NABVUnicodeString@@0@Z 00533a60 f   flink.obj
 0001:00132b30       ?DeleteReparsePoint@@YA_NABVUnicodeString@@@Z 00533b30 f   flink.obj
 0001:00132c40       ?GetReparsePointInfo@@YA_NABVUnicodeString@@AAV1@PAK@Z 00533c40 f   flink.obj
 0001:00132d60       ?DuplicateReparsePoint@@YA_NABVUnicodeString@@0@Z 00533d60 f   flink.obj
 0001:00132df0       ?NormalizeSymlinkName@@YAXAAVUnicodeString@@@Z 00533df0 f   flink.obj
 0001:00132e50       ?CreateReparsePoint@@YA_NABVUnicodeString@@0W4ReparsePointTypes@@@Z 00533e50 f   flink.obj
 0001:001331c0       ?MkHardLink@@YAHABVUnicodeString@@0_N@Z 005341c0 f   flink.obj
 0001:001332d0       ?GetSubstName@@YA_NHABVUnicodeString@@AAV1@@Z 005342d0 f   flink.obj
 0001:00133440       ?GetVHDName@@YA_NABVUnicodeString@@AAV1@@Z 00534440 f   flink.obj
 0001:00133580       ?GetPathRoot@@YAXABVUnicodeString@@AAV1@@Z 00534580 f   flink.obj
 0001:00133690       ?ModifyReparsePoint@@YA_NABVUnicodeString@@0@Z 00534690 f   flink.obj
 0001:00133890       ?MkSymLink@@YAHABVUnicodeString@@0W4ReparsePointTypes@@_N@Z 00534890 f   flink.obj
 0001:001342e0       ?DelSubstDrive@@YA_NABVUnicodeString@@@Z 005352e0 f   flink.obj
 0001:001343c0       ?PluginGetColumnTypesAndWidths@FileList@@QAEXAAVUnicodeString@@0@Z 005353c0 f   flplugin.obj
 0001:001343e0       ?PluginBeginSelection@FileList@@QAEXXZ 005353e0 f   flplugin.obj
 0001:001343f0       ?PluginEndSelection@FileList@@QAEXXZ 005353f0 f   flplugin.obj
 0001:00134410       ?GetPluginHandle@FileList@@UAEPAXXZ 00535410 f   flplugin.obj
 0001:00134420       ?ProcessPluginEvent@FileList@@UAEHHPAX@Z 00535420 f   flplugin.obj
 0001:00134460       ?GetOpenPanelInfo@FileList@@UAEXPAUOpenPanelInfo@@@Z 00535460 f   flplugin.obj
 0001:001344a0       ?PluginGetPanelInfo@FileList@@QAEXAAUPanelInfo@@@Z 005354a0 f   flplugin.obj
 0001:00134520       ?PluginSetSelection@FileList@@QAEXH_N@Z 00535520 f   flplugin.obj
 0001:00134540       ?PluginClearSelection@FileList@@QAEXH@Z 00535540 f   flplugin.obj
 0001:00134600       ??$_For_each@PBV?$unique_ptr@UFileListItem@@U?$default_delete@UFileListItem@@@std@@@std@@V<lambda3>@?A0xf0655db7@@@std@@YA?AV<lambda3>@?A0xf0655db7@@PBV?$unique_ptr@UFileListItem@@U?$default_delete@UFileListItem@@@std@@@0@0V12@@Z 00535600 f i flplugin.obj
 0001:001346a0       ??$_Buynode@AAPAVMacroRecord@@@?$_List_val@PAVMacroRecord@@V?$allocator@PAVMacroRecord@@@std@@@std@@QAEPAU_Node@?$_List_nod@PAVMacroRecord@@V?$allocator@PAVMacroRecord@@@std@@@1@PAU231@0AAPAVMacroRecord@@@Z 005356a0 f i macro.obj
 0001:001346a0       ??$_Buynode@AAPAUScanTreeData@@@?$_List_val@V?$unique_ptr@UScanTreeData@@U?$default_delete@UScanTreeData@@@std@@@std@@V?$allocator@V?$unique_ptr@UScanTreeData@@U?$default_delete@UScanTreeData@@@std@@@std@@@2@@std@@QAEPAU_Node@?$_List_nod@V?$unique_ptr@UScanTreeData@@U?$default_delete@UScanTreeData@@@std@@@std@@V?$allocator@V?$unique_ptr@UScanTreeData@@U?$default_delete@UScanTreeData@@@std@@@std@@@2@@1@PAU231@0AAPAUScanTreeData@@@Z 005356a0 f i scantree.obj
 0001:001346a0       ??$_Buynode@PAUScanTreeData@@@?$_List_val@V?$unique_ptr@UScanTreeData@@U?$default_delete@UScanTreeData@@@std@@@std@@V?$allocator@V?$unique_ptr@UScanTreeData@@U?$default_delete@UScanTreeData@@@std@@@std@@@2@@std@@QAEPAU_Node@?$_List_nod@V?$unique_ptr@UScanTreeData@@U?$default_delete@UScanTreeData@@@std@@@std@@V?$allocator@V?$unique_ptr@UScanTreeData@@U?$default_delete@UScanTreeData@@@std@@@std@@@2@@1@PAU231@0$$QAPAUScanTreeData@@@Z 005356a0 f i scantree.obj
 0001:001346a0       ??$_Buynode@AAPAVPlugin@@@?$_List_val@PAVPlugin@@V?$allocator@PAVPlugin@@@std@@@std@@QAEPAU_Node@?$_List_nod@PAVPlugin@@V?$allocator@PAVPlugin@@@std@@@1@PAU231@0AAPAVPlugin@@@Z 005356a0 f i flplugin.obj
 0001:00134770       ?FileListToPluginItem@FileList@@SAXPBUFileListItem@@PAUPluginPanelItem@@@Z 00535770 f   flplugin.obj
 0001:00134890       ?FileListToPluginItem2@FileList@@SAIPAUFileListItem@@PAUFarGetPluginPanelItem@@@Z 00535890 f   flplugin.obj
 0001:00134be0       ?OpenPluginForFile@FileList@@AAEPAXPBVUnicodeString@@KW4OPENFILEPLUGINTYPE@@@Z 00535be0 f   flplugin.obj
 0001:00134c50       ?ProcessOneHostFile@FileList@@AAEHV?$_Vector_const_iterator@V?$_Vector_val@V?$unique_ptr@UFileListItem@@U?$default_delete@UFileListItem@@@std@@@std@@V?$allocator@V?$unique_ptr@UFileListItem@@U?$default_delete@UFileListItem@@@std@@@std@@@2@@std@@@std@@@Z 00535c50 f   flplugin.obj
 0001:00134d50       ?PluginGetPanelItem@FileList@@QAEIHPAUFarGetPluginPanelItem@@@Z 00535d50 f   flplugin.obj
 0001:00134d90       ?PluginGetSelectedPanelItem@FileList@@QAEIHPAUFarGetPluginPanelItem@@@Z 00535d90 f   flplugin.obj
 0001:00134ea0       ?ProcessPluginCommand@FileList@@AAEXXZ 00535ea0 f   flplugin.obj
 0001:00134f00       ?PluginClearSelection@FileList@@AAEXABV?$vector@UPluginPanelItem@@V?$allocator@UPluginPanelItem@@@std@@@std@@@Z 00535f00 f   flplugin.obj
 0001:00135020       ??$for_each@V?$_Vector_const_iterator@V?$_Vector_val@V?$unique_ptr@UFileListItem@@U?$default_delete@UFileListItem@@@std@@@std@@V?$allocator@V?$unique_ptr@UFileListItem@@U?$default_delete@UFileListItem@@@std@@@std@@@2@@std@@@std@@V<lambda3>@?A0xf0655db7@@@std@@YA?AV<lambda3>@?A0xf0655db7@@V?$_Vector_const_iterator@V?$_Vector_val@V?$unique_ptr@UFileListItem@@U?$default_delete@UFileListItem@@@std@@@std@@V?$allocator@V?$unique_ptr@UFileListItem@@U?$default_delete@UFileListItem@@@std@@@std@@@2@@std@@@0@0V12@@Z 00536020 f i flplugin.obj
 0001:00135060       ?_Splice_same@?$list@PAVPlugin@@V?$allocator@PAVPlugin@@@std@@@std@@QAEXV?$_List_const_iterator@V?$_List_val@PAVPlugin@@V?$allocator@PAVPlugin@@@std@@@std@@@2@AAV12@00I@Z 00536060 f i flplugin.obj
 0001:001350e0       ??$_Uninit_fill_n@PAV?$_List_iterator@V?$_List_val@U?$pair@$$CBU_GUID@@V?$unique_ptr@VPlugin@@U?$default_delete@VPlugin@@@std@@@std@@@std@@V?$allocator@U?$pair@$$CBU_GUID@@V?$unique_ptr@VPlugin@@U?$default_delete@VPlugin@@@std@@@std@@@std@@@2@@std@@@std@@IV12@V?$allocator@V?$_List_iterator@V?$_List_val@U?$pair@$$CBU_GUID@@V?$unique_ptr@VPlugin@@U?$default_delete@VPlugin@@@std@@@std@@@std@@V?$allocator@U?$pair@$$CBU_GUID@@V?$unique_ptr@VPlugin@@U?$default_delete@VPlugin@@@std@@@std@@@std@@@2@@std@@@std@@@2@V12@@std@@YAXPAV?$_List_iterator@V?$_List_val@U?$pair@$$CBU_GUID@@V?$unique_ptr@VPlugin@@U?$default_delete@VPlugin@@@std@@@std@@@std@@V?$allocator@U?$pair@$$CBU_GUID@@V?$unique_ptr@VPlugin@@U?$default_delete@VPlugin@@@std@@@std@@@std@@@2@@std@@@0@IPBV10@AAV?$allocator@V?$_List_iterator@V?$_List_val@U?$pair@$$CBU_GUID@@V?$unique_ptr@VPlugin@@U?$default_delete@VPlugin@@@std@@@std@@@std@@V?$allocator@U?$pair@$$CBU_GUID@@V?$unique_ptr@VPlugin@@U?$default_delete@VPlugin@@@std@@@std@@@std@@@2@@std@@@std@@@0@0U_Nonscalar_ptr_iterator_tag@0@@Z 005360e0 f i plugins.obj
 0001:001350e0       ??$_Uninit_fill_n@PAV?$_List_const_iterator@V?$_List_val@PAVPlugin@@V?$allocator@PAVPlugin@@@std@@@std@@@std@@IV12@V?$allocator@V?$_List_const_iterator@V?$_List_val@PAVPlugin@@V?$allocator@PAVPlugin@@@std@@@std@@@std@@@2@V12@@std@@YAXPAV?$_List_const_iterator@V?$_List_val@PAVPlugin@@V?$allocator@PAVPlugin@@@std@@@std@@@0@IPBV10@AAV?$allocator@V?$_List_const_iterator@V?$_List_val@PAVPlugin@@V?$allocator@PAVPlugin@@@std@@@std@@@std@@@0@0U_Nonscalar_ptr_iterator_tag@0@@Z 005360e0 f i flplugin.obj
 0001:001350e0       ??$_Uninit_fill_n@PAV?$_List_const_iterator@V?$_List_val@_KV?$allocator@_K@std@@@std@@@std@@IV12@V?$allocator@V?$_List_const_iterator@V?$_List_val@_KV?$allocator@_K@std@@@std@@@std@@@2@V12@@std@@YAXPAV?$_List_const_iterator@V?$_List_val@_KV?$allocator@_K@std@@@std@@@0@IPBV10@AAV?$allocator@V?$_List_const_iterator@V?$_List_val@_KV?$allocator@_K@std@@@std@@@std@@@0@0U_Nonscalar_ptr_iterator_tag@0@@Z 005360e0 f i dirinfo.obj
 0001:001350e0       ??$_Uninit_fill_n@PAV?$_List_const_iterator@V?$_List_val@UFarColor@@V?$allocator@UFarColor@@@std@@@std@@@std@@IV12@V?$allocator@V?$_List_const_iterator@V?$_List_val@UFarColor@@V?$allocator@UFarColor@@@std@@@std@@@std@@@2@V12@@std@@YAXPAV?$_List_const_iterator@V?$_List_val@UFarColor@@V?$allocator@UFarColor@@@std@@@std@@@0@IPBV10@AAV?$allocator@V?$_List_const_iterator@V?$_List_val@UFarColor@@V?$allocator@UFarColor@@@std@@@std@@@std@@@0@0U_Nonscalar_ptr_iterator_tag@0@@Z 005360e0 f i edit.obj
 0001:001350e0       ??$_Uninit_fill_n@PAV?$_List_const_iterator@V?$_List_val@U_GUID@@V?$allocator@U_GUID@@@std@@@std@@@std@@IV12@V?$allocator@V?$_List_const_iterator@V?$_List_val@U_GUID@@V?$allocator@U_GUID@@@std@@@std@@@std@@@2@V12@@std@@YAXPAV?$_List_const_iterator@V?$_List_val@U_GUID@@V?$allocator@U_GUID@@@std@@@std@@@0@IPBV10@AAV?$allocator@V?$_List_const_iterator@V?$_List_val@U_GUID@@V?$allocator@U_GUID@@@std@@@std@@@std@@@0@0U_Nonscalar_ptr_iterator_tag@0@@Z 005360e0 f i edit.obj
 0001:00135170       ?SetPluginModified@FileList@@UAEXXZ 00536170 f   flplugin.obj
 0001:00135190       ?lower_bound@?$_Hash@V?$_Uset_traits@PAVPlugin@@V?$_Hash_compare@PAVPlugin@@V?$hash@PAVPlugin@@@std@@U?$equal_to@PAVPlugin@@@3@@std@@V?$allocator@PAVPlugin@@@3@$0A@@tr1@std@@@std@@QAE?AV?$_List_const_iterator@V?$_List_val@PAVPlugin@@V?$allocator@PAVPlugin@@@std@@@std@@@2@ABQAVPlugin@@@Z 00536190 f i flplugin.obj
 0001:00135250       ?FileNameToPluginItem@FileList@@SAHABVUnicodeString@@PAUPluginPanelItem@@@Z 00536250 f   flplugin.obj
 0001:001353e0       ?PluginToFileListItem@FileList@@SAXPAUPluginPanelItem@@PAUFileListItem@@@Z 005363e0 f   flplugin.obj
 0001:00135690       ?_Ufill@?$vector@V?$_List_const_iterator@V?$_List_val@_KV?$allocator@_K@std@@@std@@@std@@V?$allocator@V?$_List_const_iterator@V?$_List_val@_KV?$allocator@_K@std@@@std@@@std@@@2@@std@@IAEPAV?$_List_const_iterator@V?$_List_val@_KV?$allocator@_K@std@@@std@@@2@PAV32@IPBV32@@Z 00536690 f i dirinfo.obj
 0001:00135690       ?_Ufill@?$vector@V?$_List_iterator@V?$_List_val@U?$pair@$$CBU_GUID@@V?$unique_ptr@VPlugin@@U?$default_delete@VPlugin@@@std@@@std@@@std@@V?$allocator@U?$pair@$$CBU_GUID@@V?$unique_ptr@VPlugin@@U?$default_delete@VPlugin@@@std@@@std@@@std@@@2@@std@@@std@@V?$allocator@V?$_List_iterator@V?$_List_val@U?$pair@$$CBU_GUID@@V?$unique_ptr@VPlugin@@U?$default_delete@VPlugin@@@std@@@std@@@std@@V?$allocator@U?$pair@$$CBU_GUID@@V?$unique_ptr@VPlugin@@U?$default_delete@VPlugin@@@std@@@std@@@std@@@2@@std@@@std@@@2@@std@@IAEPAV?$_List_iterator@V?$_List_val@U?$pair@$$CBU_GUID@@V?$unique_ptr@VPlugin@@U?$default_delete@VPlugin@@@std@@@std@@@std@@V?$allocator@U?$pair@$$CBU_GUID@@V?$unique_ptr@VPlugin@@U?$default_delete@VPlugin@@@std@@@std@@@std@@@2@@std@@@2@PAV32@IPBV32@@Z 00536690 f i plugins.obj
 0001:00135690       ?_Ufill@?$vector@V?$_List_const_iterator@V?$_List_val@PAVPlugin@@V?$allocator@PAVPlugin@@@std@@@std@@@std@@V?$allocator@V?$_List_const_iterator@V?$_List_val@PAVPlugin@@V?$allocator@PAVPlugin@@@std@@@std@@@std@@@2@@std@@IAEPAV?$_List_const_iterator@V?$_List_val@PAVPlugin@@V?$allocator@PAVPlugin@@@std@@@std@@@2@PAV32@IPBV32@@Z 00536690 f i flplugin.obj
 0001:00135690       ?_Ufill@?$vector@V?$_List_const_iterator@V?$_List_val@U_GUID@@V?$allocator@U_GUID@@@std@@@std@@@std@@V?$allocator@V?$_List_const_iterator@V?$_List_val@U_GUID@@V?$allocator@U_GUID@@@std@@@std@@@std@@@2@@std@@IAEPAV?$_List_const_iterator@V?$_List_val@U_GUID@@V?$allocator@U_GUID@@@std@@@std@@@2@PAV32@IPBV32@@Z 00536690 f i edit.obj
 0001:00135690       ?_Ufill@?$vector@V?$_List_const_iterator@V?$_List_val@UFarColor@@V?$allocator@UFarColor@@@std@@@std@@@std@@V?$allocator@V?$_List_const_iterator@V?$_List_val@UFarColor@@V?$allocator@UFarColor@@@std@@@std@@@std@@@2@@std@@IAEPAV?$_List_const_iterator@V?$_List_val@UFarColor@@V?$allocator@UFarColor@@@std@@@std@@@2@PAV32@IPBV32@@Z 00536690 f i edit.obj
 0001:001356c0       ??$_For_each@PAUPluginPanelItem@@V<lambda1>@?A0xf0655db7@@@std@@YA?AV<lambda1>@?A0xf0655db7@@PAUPluginPanelItem@@0V12@@Z 005366c0 f i flplugin.obj
 0001:00135b40       ??$_For_each@PAUPluginPanelItem@@V<lambda2>@?A0xf0655db7@@@std@@YA?AV<lambda2>@?A0xf0655db7@@PAUPluginPanelItem@@0V12@@Z 00536b40 f i flplugin.obj
 0001:00135ee0       ?_Insert_n@?$vector@V?$_List_const_iterator@V?$_List_val@U_GUID@@V?$allocator@U_GUID@@@std@@@std@@@std@@V?$allocator@V?$_List_const_iterator@V?$_List_val@U_GUID@@V?$allocator@U_GUID@@@std@@@std@@@std@@@2@@std@@IAEXV?$_Vector_const_iterator@V?$_Vector_val@V?$_List_const_iterator@V?$_List_val@U_GUID@@V?$allocator@U_GUID@@@std@@@std@@@std@@V?$allocator@V?$_List_const_iterator@V?$_List_val@U_GUID@@V?$allocator@U_GUID@@@std@@@std@@@std@@@2@@std@@@2@IABV?$_List_const_iterator@V?$_List_val@U_GUID@@V?$allocator@U_GUID@@@std@@@std@@@2@@Z 00536ee0 f i edit.obj
 0001:00135ee0       ?_Insert_n@?$vector@V?$_List_const_iterator@V?$_List_val@_KV?$allocator@_K@std@@@std@@@std@@V?$allocator@V?$_List_const_iterator@V?$_List_val@_KV?$allocator@_K@std@@@std@@@std@@@2@@std@@IAEXV?$_Vector_const_iterator@V?$_Vector_val@V?$_List_const_iterator@V?$_List_val@_KV?$allocator@_K@std@@@std@@@std@@V?$allocator@V?$_List_const_iterator@V?$_List_val@_KV?$allocator@_K@std@@@std@@@std@@@2@@std@@@2@IABV?$_List_const_iterator@V?$_List_val@_KV?$allocator@_K@std@@@std@@@2@@Z 00536ee0 f i dirinfo.obj
 0001:00135ee0       ?_Insert_n@?$vector@V?$_List_const_iterator@V?$_List_val@PAVPlugin@@V?$allocator@PAVPlugin@@@std@@@std@@@std@@V?$allocator@V?$_List_const_iterator@V?$_List_val@PAVPlugin@@V?$allocator@PAVPlugin@@@std@@@std@@@std@@@2@@std@@IAEXV?$_Vector_const_iterator@V?$_Vector_val@V?$_List_const_iterator@V?$_List_val@PAVPlugin@@V?$allocator@PAVPlugin@@@std@@@std@@@std@@V?$allocator@V?$_List_const_iterator@V?$_List_val@PAVPlugin@@V?$allocator@PAVPlugin@@@std@@@std@@@std@@@2@@std@@@2@IABV?$_List_const_iterator@V?$_List_val@PAVPlugin@@V?$allocator@PAVPlugin@@@std@@@std@@@2@@Z 00536ee0 f i flplugin.obj
 0001:00135ee0       ?_Insert_n@?$vector@V?$_List_const_iterator@V?$_List_val@UFarColor@@V?$allocator@UFarColor@@@std@@@std@@@std@@V?$allocator@V?$_List_const_iterator@V?$_List_val@UFarColor@@V?$allocator@UFarColor@@@std@@@std@@@std@@@2@@std@@IAEXV?$_Vector_const_iterator@V?$_Vector_val@V?$_List_const_iterator@V?$_List_val@UFarColor@@V?$allocator@UFarColor@@@std@@@std@@@std@@V?$allocator@V?$_List_const_iterator@V?$_List_val@UFarColor@@V?$allocator@UFarColor@@@std@@@std@@@std@@@2@@std@@@2@IABV?$_List_const_iterator@V?$_List_val@UFarColor@@V?$allocator@UFarColor@@@std@@@std@@@2@@Z 00536ee0 f i edit.obj
 0001:00135ee0       ?_Insert_n@?$vector@V?$_List_iterator@V?$_List_val@U?$pair@$$CBU_GUID@@V?$unique_ptr@VPlugin@@U?$default_delete@VPlugin@@@std@@@std@@@std@@V?$allocator@U?$pair@$$CBU_GUID@@V?$unique_ptr@VPlugin@@U?$default_delete@VPlugin@@@std@@@std@@@std@@@2@@std@@@std@@V?$allocator@V?$_List_iterator@V?$_List_val@U?$pair@$$CBU_GUID@@V?$unique_ptr@VPlugin@@U?$default_delete@VPlugin@@@std@@@std@@@std@@V?$allocator@U?$pair@$$CBU_GUID@@V?$unique_ptr@VPlugin@@U?$default_delete@VPlugin@@@std@@@std@@@std@@@2@@std@@@std@@@2@@std@@IAEXV?$_Vector_const_iterator@V?$_Vector_val@V?$_List_iterator@V?$_List_val@U?$pair@$$CBU_GUID@@V?$unique_ptr@VPlugin@@U?$default_delete@VPlugin@@@std@@@std@@@std@@V?$allocator@U?$pair@$$CBU_GUID@@V?$unique_ptr@VPlugin@@U?$default_delete@VPlugin@@@std@@@std@@@std@@@2@@std@@@std@@V?$allocator@V?$_List_iterator@V?$_List_val@U?$pair@$$CBU_GUID@@V?$unique_ptr@VPlugin@@U?$default_delete@VPlugin@@@std@@@std@@@std@@V?$allocator@U?$pair@$$CBU_GUID@@V?$unique_ptr@VPlugin@@U?$default_delete@VPlugin@@@std@@@std@@@std@@@2@@std@@@std@@@2@@std@@@2@IABV?$_List_iterator@V?$_List_val@U?$pair@$$CBU_GUID@@V?$unique_ptr@VPlugin@@U?$default_delete@VPlugin@@@std@@@std@@@std@@V?$allocator@U?$pair@$$CBU_GUID@@V?$unique_ptr@VPlugin@@U?$default_delete@VPlugin@@@std@@@std@@@std@@@2@@std@@@2@@Z 00536ee0 f i plugins.obj
 0001:00136130       ?PutDizToPlugin@FileList@@AAEXPAV1@AAV?$vector@UPluginPanelItem@@V?$allocator@UPluginPanelItem@@@std@@@std@@HHPAVDizList@@2@Z 00537130 f   flplugin.obj
 0001:00136640       ??0PluginsListItem@@QAE@XZ 00537640 f i flplugin.obj
 0001:00136700       ?DeletePluginItemList@FileList@@AAEXAAV?$vector@UPluginPanelItem@@V?$allocator@UPluginPanelItem@@@std@@@std@@@Z 00537700 f   flplugin.obj
 0001:00136760       ??0PluginsListItem@@QAE@ABU0@@Z 00537760 f i flplugin.obj
 0001:00136840       ?CreatePluginItemList@FileList@@AAE?AV?$vector@UPluginPanelItem@@V?$allocator@UPluginPanelItem@@@std@@@std@@_N@Z 00537840 f   flplugin.obj
 0001:00136b20       ?PluginDelete@FileList@@AAEXXZ 00537b20 f   flplugin.obj
 0001:00136c50       ?PluginGetFiles@FileList@@AAEXPAPB_WH@Z 00537c50 f   flplugin.obj
 0001:00136eb0       ?PluginToPluginFiles@FileList@@AAEXH@Z 00537eb0 f   flplugin.obj
 0001:00137220       ?PluginPutFilesToAnother@FileList@@AAEHHPAVPanel@@@Z 00538220 f   flplugin.obj
 0001:001373d0       ?ProcessHostFile@FileList@@QAEXXZ 005383d0 f   flplugin.obj
 0001:001375f0       ?_Check_size@?$_Hash@V?$_Uset_traits@PAVPlugin@@V?$_Hash_compare@PAVPlugin@@V?$hash@PAVPlugin@@@std@@U?$equal_to@PAVPlugin@@@3@@std@@V?$allocator@PAVPlugin@@@3@$0A@@tr1@std@@@std@@IAEXXZ 005385f0 f i flplugin.obj
 0001:001376a0       ??$_Cons_val@V?$allocator@UPluginsListItem@@@std@@UPluginsListItem@@U3@@std@@YAXAAV?$allocator@UPluginsListItem@@@0@PAUPluginsListItem@@$$QAU2@@Z 005386a0 f i flplugin.obj
 0001:00137700       ?PluginPutFilesToNew@FileList@@AAEXXZ 00538700 f   flplugin.obj
 0001:001378a0       ??0?$_Hash@V?$_Uset_traits@PAVPlugin@@V?$_Hash_compare@PAVPlugin@@V?$hash@PAVPlugin@@@std@@U?$equal_to@PAVPlugin@@@3@@std@@V?$allocator@PAVPlugin@@@3@$0A@@tr1@std@@@std@@QAE@ABV?$_Hash_compare@PAVPlugin@@V?$hash@PAVPlugin@@@std@@U?$equal_to@PAVPlugin@@@3@@1@ABV?$allocator@PAVPlugin@@@1@@Z 005388a0 f i flplugin.obj
 0001:001379b0       ?_Insert@?$_Hash@V?$_Uset_traits@PAVPlugin@@V?$_Hash_compare@PAVPlugin@@V?$hash@PAVPlugin@@@std@@U?$equal_to@PAVPlugin@@@3@@std@@V?$allocator@PAVPlugin@@@3@$0A@@tr1@std@@@std@@IAE?AU?$pair@V?$_List_const_iterator@V?$_List_val@PAVPlugin@@V?$allocator@PAVPlugin@@@std@@@std@@@std@@_N@2@ABQAVPlugin@@V?$_List_const_iterator@V?$_List_val@PAVPlugin@@V?$allocator@PAVPlugin@@@std@@@std@@@2@@Z 005389b0 f i flplugin.obj
 0001:00137ae0       ?_Reinsert@?$_Hash@V?$_Uset_traits@PAVPlugin@@V?$_Hash_compare@PAVPlugin@@V?$hash@PAVPlugin@@@std@@U?$equal_to@PAVPlugin@@@3@@std@@V?$allocator@PAVPlugin@@@3@$0A@@tr1@std@@@std@@IAEXV?$_List_const_iterator@V?$_List_val@PAVPlugin@@V?$allocator@PAVPlugin@@@std@@@std@@@2@@Z 00538ae0 f i flplugin.obj
 0001:00137b30       ??$_Buynode@UPluginsListItem@@@?$_List_val@UPluginsListItem@@V?$allocator@UPluginsListItem@@@std@@@std@@QAEPAU_Node@?$_List_nod@UPluginsListItem@@V?$allocator@UPluginsListItem@@@std@@@1@PAU231@0$$QAUPluginsListItem@@@Z 00538b30 f i flplugin.obj
 0001:00137c00       ??$emplace@AAPAVPlugin@@@?$_Hash@V?$_Uset_traits@PAVPlugin@@V?$_Hash_compare@PAVPlugin@@V?$hash@PAVPlugin@@@std@@U?$equal_to@PAVPlugin@@@3@@std@@V?$allocator@PAVPlugin@@@3@$0A@@tr1@std@@@std@@QAE?AU?$pair@V?$_List_const_iterator@V?$_List_val@PAVPlugin@@V?$allocator@PAVPlugin@@@std@@@std@@@std@@_N@1@AAPAVPlugin@@@Z 00538c00 f i flplugin.obj
 0001:00137c70       ?PluginHostGetFiles@FileList@@AAEXXZ 00538c70 f   flplugin.obj
 0001:00138110       ?PushPlugin@FileList@@AAEXPAXABVUnicodeString@@@Z 00539110 f   flplugin.obj
 0001:00138260       ?SetPluginMode@FileList@@UAEXPAXABVUnicodeString@@_N@Z 00539260 f   flplugin.obj
 0001:00138370       ?PopPlugin@FileList@@AAEHH@Z 00539370 f   flplugin.obj
 0001:00138680       ?PopPrevData@FileList@@AAEXABVUnicodeString@@_N111@Z 00539680 f   flplugin.obj
 0001:001388a0       ?IsDizDisplayed@FileList@@UAE_NXZ 005398a0 f   flshow.obj
 0001:001388b0       ??$_For_each@PAUcolumn@@V<lambda1>@?A0x3b1acf43@@@std@@YA?AV<lambda1>@?A0x3b1acf43@@PAUcolumn@@0V12@@Z 005398b0 f i flshow.obj
 0001:00138930       ?ConvertName@FileList@@AAEHPB_WAAVUnicodeString@@H_KHK@Z 00539930 f   flshow.obj
 0001:00138b40       ?IsModeFullScreen@FileList@@SA_NH@Z 00539b40 f   flshow.obj
 0001:00138b90       ?GetShowColor@FileList@@AAE?BUFarColor@@HH@Z 00539b90 f   flshow.obj
 0001:00138cf0       ?HighlightBorder@FileList@@AAEXHH@Z 00539cf0 f   flshow.obj
 0001:00138dc0       ?IsColumnDisplayed@FileList@@UAE_NH@Z 00539dc0 f   flshow.obj
 0001:00138f30       ?ShowSelectedSize@FileList@@AAEXXZ 00539f30 f   flshow.obj
 0001:001391b0       ?PrepareColumnWidths@FileList@@AAEHAAV?$vector@Ucolumn@@V?$allocator@Ucolumn@@@std@@@std@@_N1@Z 0053a1b0 f   flshow.obj
 0001:001394a0       ?ShowTotalSize@FileList@@AAEXABUOpenPanelInfo@@@Z 0053a4a0 f   flshow.obj
 0001:00139bd0       ?PreparePanelView@FileList@@AAEHPAUPanelViewSettings@@@Z 0053abd0 f   flshow.obj
 0001:00139c30       ?ShowList@FileList@@AAEXHH@Z 0053ac30 f   flshow.obj
 0001:0013af00       ?PrepareViewSettings@FileList@@AAEXHPBUOpenPanelInfo@@@Z 0053bf00 f   flshow.obj
 0001:0013b280       ?ShowFileList@FileList@@AAEXH@Z 0053c280 f   flshow.obj
 0001:0013c010       ?DisplayObject@FileList@@EAEXXZ 0053d010 f   flshow.obj
 0001:0013c0a0       ?UpdateIfRequired@FileList@@UAEXXZ 0053d0a0 f   flupdate.obj
 0001:0013c0e0       ?StartFSWatcher@FileList@@UAEX_N0@Z 0053d0e0 f   flupdate.obj
 0001:0013c0f0       ?StopFSWatcher@FileList@@UAEXXZ 0053d0f0 f   flupdate.obj
 0001:0013c100       ?UpdateIfChanged@FileList@@UAEHW4panel_update_mode@@@Z 0053d100 f   flupdate.obj
 0001:0013c200       ??$_For_each@PAV?$unique_ptr@UFileListItem@@U?$default_delete@UFileListItem@@@std@@@std@@V<lambda4>@?A0xadbac2eb@@@std@@YA?AV<lambda4>@?A0xadbac2eb@@PAV?$unique_ptr@UFileListItem@@U?$default_delete@UFileListItem@@@std@@@0@0V12@@Z 0053d200 f i flupdate.obj
 0001:0013c260       ??$for_each@V?$_Vector_iterator@V?$_Vector_val@V?$unique_ptr@UFileListItem@@U?$default_delete@UFileListItem@@@std@@@std@@V?$allocator@V?$unique_ptr@UFileListItem@@U?$default_delete@UFileListItem@@@std@@@std@@@2@@std@@@std@@V<lambda2>@?A0xadbac2eb@@@std@@YA?AV<lambda2>@?A0xadbac2eb@@V?$_Vector_iterator@V?$_Vector_val@V?$unique_ptr@UFileListItem@@U?$default_delete@UFileListItem@@@std@@@std@@V?$allocator@V?$unique_ptr@UFileListItem@@U?$default_delete@UFileListItem@@@std@@@std@@@2@@std@@@0@0V12@@Z 0053d260 f i flupdate.obj
 0001:0013c260       ??$for_each@V?$_Vector_iterator@V?$_Vector_val@V?$unique_ptr@UFileListItem@@U?$default_delete@UFileListItem@@@std@@@std@@V?$allocator@V?$unique_ptr@UFileListItem@@U?$default_delete@UFileListItem@@@std@@@std@@@2@@std@@@std@@V<lambda1>@?A0xadbac2eb@@@std@@YA?AV<lambda1>@?A0xadbac2eb@@V?$_Vector_iterator@V?$_Vector_val@V?$unique_ptr@UFileListItem@@U?$default_delete@UFileListItem@@@std@@@std@@V?$allocator@V?$unique_ptr@UFileListItem@@U?$default_delete@UFileListItem@@@std@@@std@@@2@@std@@@0@0V12@@Z 0053d260 f i flupdate.obj
 0001:0013c2b0       ??$_For_each@PBV?$unique_ptr@UFileListItem@@U?$default_delete@UFileListItem@@@std@@@std@@V<lambda5>@?A0xadbac2eb@@@std@@YA?AV<lambda5>@?A0xadbac2eb@@PBV?$unique_ptr@UFileListItem@@U?$default_delete@UFileListItem@@@std@@@0@0V12@@Z 0053d2b0 f i flupdate.obj
 0001:0013c320       ??$_For_each@PBV?$unique_ptr@UFileListItem@@U?$default_delete@UFileListItem@@@std@@@std@@V<lambda6>@?A0xadbac2eb@@@std@@YA?AV<lambda6>@?A0xadbac2eb@@PBV?$unique_ptr@UFileListItem@@U?$default_delete@UFileListItem@@@std@@@0@0V12@@Z 0053d320 f i flupdate.obj
 0001:0013c360       ??0FileListItem@@AAE@XZ    0053d360 f i flupdate.obj
 0001:0013c4e0       ?ReadSortGroups@FileList@@AAEX_N@Z 0053d4e0 f   flupdate.obj
 0001:0013c540       ??$_Lower_bound@PBV?$unique_ptr@UFileListItem@@U?$default_delete@UFileListItem@@@std@@@std@@V12@HUsearch_list_less@@@std@@YAPBV?$unique_ptr@UFileListItem@@U?$default_delete@UFileListItem@@@std@@@0@PBV10@0ABV10@Usearch_list_less@@PAH@Z 0053d540 f i flupdate.obj
 0001:0013c5a0       ??$_Insertion_sort1@PAV?$unique_ptr@UFileListItem@@U?$default_delete@UFileListItem@@@std@@@std@@Usearch_list_less@@V12@@std@@YAXPAV?$unique_ptr@UFileListItem@@U?$default_delete@UFileListItem@@@std@@@0@0Usearch_list_less@@0@Z 0053d5a0 f i flupdate.obj
 0001:0013c730       ??$_Push_heap@PAV?$unique_ptr@UFileListItem@@U?$default_delete@UFileListItem@@@std@@@std@@HV12@Usearch_list_less@@@std@@YAXPAV?$unique_ptr@UFileListItem@@U?$default_delete@UFileListItem@@@std@@@0@HH$$QAV10@Usearch_list_less@@@Z 0053d730 f i flupdate.obj
 0001:0013c7f0       ?InitFSWatcher@FileList@@AAEX_N@Z 0053d7f0 f   flupdate.obj
 0001:0013c970       ?ReadDiz@FileList@@UAEXPAUPluginPanelItem@@HK@Z 0053d970 f   flupdate.obj
 0001:0013cd20       ?AddParentPoint@FileList@@AAEXPAUFileListItem@@IPBU_FILETIME@@ABVUnicodeString@@@Z 0053dd20 f   flupdate.obj
 0001:0013cdc0       ??$_Med3@PAV?$unique_ptr@UFileListItem@@U?$default_delete@UFileListItem@@@std@@@std@@Usearch_list_less@@@std@@YAXPAV?$unique_ptr@UFileListItem@@U?$default_delete@UFileListItem@@@std@@@0@00Usearch_list_less@@@Z 0053ddc0 f i flupdate.obj
 0001:0013ce50       ??$_Adjust_heap@PAV?$unique_ptr@UFileListItem@@U?$default_delete@UFileListItem@@@std@@@std@@HV12@Usearch_list_less@@@std@@YAXPAV?$unique_ptr@UFileListItem@@U?$default_delete@UFileListItem@@@std@@@0@HH$$QAV10@Usearch_list_less@@@Z 0053de50 f i flupdate.obj
 0001:0013cf20       ??$_For_each@PBV?$unique_ptr@UFileListItem@@U?$default_delete@UFileListItem@@@std@@@std@@V<lambda3>@?A0xadbac2eb@@@std@@YA?AV<lambda3>@?A0xadbac2eb@@PBV?$unique_ptr@UFileListItem@@U?$default_delete@UFileListItem@@@std@@@0@0V12@@Z 0053df20 f i flupdate.obj
 0001:0013cff0       ??$_Median@PAV?$unique_ptr@UFileListItem@@U?$default_delete@UFileListItem@@@std@@@std@@Usearch_list_less@@@std@@YAXPAV?$unique_ptr@UFileListItem@@U?$default_delete@UFileListItem@@@std@@@0@00Usearch_list_less@@@Z 0053dff0 f i flupdate.obj
 0001:0013d0a0       ??$_Make_heap@PAV?$unique_ptr@UFileListItem@@U?$default_delete@UFileListItem@@@std@@@std@@HV12@Usearch_list_less@@@std@@YAXPAV?$unique_ptr@UFileListItem@@U?$default_delete@UFileListItem@@@std@@@0@0Usearch_list_less@@PAH0@Z 0053e0a0 f i flupdate.obj
 0001:0013d140       ?ReadFileNamesMsg@@YAXABVUnicodeString@@@Z 0053e140 f   flupdate.obj
 0001:0013d380       ??$_Unguarded_partition@PAV?$unique_ptr@UFileListItem@@U?$default_delete@UFileListItem@@@std@@@std@@Usearch_list_less@@@std@@YA?AU?$pair@PAV?$unique_ptr@UFileListItem@@U?$default_delete@UFileListItem@@@std@@@std@@PAV12@@0@PAV?$unique_ptr@UFileListItem@@U?$default_delete@UFileListItem@@@std@@@0@0Usearch_list_less@@@Z 0053e380 f i flupdate.obj
 0001:0013d5a0       ??$emplace_back@PAUTreeItem@TreeList@@@?$vector@V?$unique_ptr@UTreeItem@TreeList@@U?$default_delete@UTreeItem@TreeList@@@std@@@std@@V?$allocator@V?$unique_ptr@UTreeItem@TreeList@@U?$default_delete@UTreeItem@TreeList@@@std@@@std@@@2@@std@@QAEX$$QAPAUTreeItem@TreeList@@@Z 0053e5a0 f i treelist.obj
 0001:0013d5a0       ??$emplace_back@AAPAUFileListItem@@@?$vector@V?$unique_ptr@UFileListItem@@U?$default_delete@UFileListItem@@@std@@@std@@V?$allocator@V?$unique_ptr@UFileListItem@@U?$default_delete@UFileListItem@@@std@@@std@@@2@@std@@QAEXAAPAUFileListItem@@@Z 0053e5a0 f i flupdate.obj
 0001:0013d660       ??$_Sort_heap@PAV?$unique_ptr@UFileListItem@@U?$default_delete@UFileListItem@@@std@@@std@@Usearch_list_less@@@std@@YAXPAV?$unique_ptr@UFileListItem@@U?$default_delete@UFileListItem@@@std@@@0@0Usearch_list_less@@@Z 0053e660 f i flupdate.obj
 0001:0013d730       ??$_Sort@PAV?$unique_ptr@UFileListItem@@U?$default_delete@UFileListItem@@@std@@@std@@HUsearch_list_less@@@std@@YAXPAV?$unique_ptr@UFileListItem@@U?$default_delete@UFileListItem@@@std@@@0@0HUsearch_list_less@@@Z 0053e730 f i flupdate.obj
 0001:0013d820       ?MoveSelection@FileList@@AAEXAAV?$vector@V?$unique_ptr@UFileListItem@@U?$default_delete@UFileListItem@@@std@@@std@@V?$allocator@V?$unique_ptr@UFileListItem@@U?$default_delete@UFileListItem@@@std@@@std@@@2@@std@@0@Z 0053e820 f   flupdate.obj
 0001:0013d890       ?UpdatePlugin@FileList@@AAEXHH@Z 0053e890 f   flupdate.obj
 0001:0013e4c0       ?ReadFileNames@FileList@@AAEXHHH@Z 0053f4c0 f   flupdate.obj
 0001:0013fe20       ?Update@FileList@@UAEXH@Z  00540e20 f   flupdate.obj
 0001:00140130       ??0TSubstData@@QAE@XZ      00541130 f i fnparce.obj
 0001:00140220       ??1TSubstData@@QAE@XZ      00541220 f i fnparce.obj
 0001:00140410       ??$_Replace@Vus_iterator@UnicodeString@@_W@std@@YAXVus_iterator@UnicodeString@@0AB_W1@Z 00541410 f i fnparce.obj
 0001:00140470       ?MakeListFile@Panel@@QAE_NAAVUnicodeString@@_NPB_W@Z 00541470 f   fnparce.obj
 0001:00142050       ?SubstFileName@@YAHPB_WAAVUnicodeString@@ABV1@2PAV1@333H0@Z 00543050 f   fnparce.obj
 0001:00142460       ??6BaseFormat@@IAEAAV0@ABV?$SimpleAlign@$0A@@fmt@@@Z 00543460 f   format.obj
 0001:00142470       ??6BaseFormat@@IAEAAV0@ABV?$SimpleAlign@$00@fmt@@@Z 00543470 f   format.obj
 0001:00142480       ??6BaseFormat@@IAEAAV0@ABVFlush@fmt@@@Z 00543480 f   format.obj
 0001:00142490       ?Commit@FormatScreen@@EAEXABVUnicodeString@@@Z 00543490 f   format.obj
 0001:001424b0       ??6BaseFormat@@IAEAAV0@ABV?$ManipulatorTemplate@I$0A@@fmt@@@Z 005434b0 f   format.obj
 0001:001424d0       ??6BaseFormat@@IAEAAV0@ABV?$ManipulatorTemplate@I$00@fmt@@@Z 005434d0 f   format.obj
 0001:001424f0       ??6BaseFormat@@IAEAAV0@ABV?$ManipulatorTemplate@I$0PPPPPPPP@@fmt@@@Z 005434f0 f   format.obj
 0001:00142510       ??6BaseFormat@@IAEAAV0@ABV?$ManipulatorTemplate@_W$0CA@@fmt@@@Z 00543510 f   format.obj
 0001:00142530       ??6BaseFormat@@IAEAAV0@ABV?$ManipulatorTemplate@H$09@fmt@@@Z 00543530 f   format.obj
 0001:00142550       ??0BaseFormat@@IAE@XZ      00543550 f   format.obj
 0001:00142580       ?Put@BaseFormat@@IAEAAV1@PB_WI@Z 00543580 f   format.obj
 0001:001426d0       ??6BaseFormat@@IAEAAV0@_W@Z 005436d0 f   format.obj
 0001:001426f0       ??6BaseFormat@@IAEAAV0@PB_W@Z 005436f0 f   format.obj
 0001:00142730       ??6BaseFormat@@IAEAAV0@ABVUnicodeString@@@Z 00543730 f   format.obj
 0001:00142750       ?Commit@FormatString@@EAEXABVUnicodeString@@@Z 00543750 f   format.obj
 0001:00142780       ??0LangString@@QAE@W4LNGID@@@Z 00543780 f   format.obj
 0001:00142860       ??$ToString@_J@BaseFormat@@AAEAAV0@_J@Z 00543860 f i format.obj
 0001:001428e0       ??$ToString@_K@BaseFormat@@AAEAAV0@_K@Z 005438e0 f i format.obj
 0001:00142960       ??6BaseFormat@@IAEAAV0@_J@Z 00543960 f   format.obj
 0001:00142980       ??6BaseFormat@@IAEAAV0@_K@Z 00543980 f   format.obj
 0001:001429a0       ??6BaseFormat@@IAEAAV0@G@Z 005439a0 f   format.obj
 0001:001429c0       ??6BaseFormat@@IAEAAV0@J@Z 005439c0 f   format.obj
 0001:001429c0       ??6BaseFormat@@IAEAAV0@H@Z 005439c0 f   format.obj
 0001:001429e0       ??6BaseFormat@@IAEAAV0@K@Z 005439e0 f   format.obj
 0001:001429e0       ??6BaseFormat@@IAEAAV0@I@Z 005439e0 f   format.obj
 0001:00142a00       ?Commit@LangString@@EAEXABVUnicodeString@@@Z 00543a00 f   format.obj
 0001:00142b20       ?SetCoords@FolderTree@@AAEXXZ 00543b20 f   foldtree.obj
 0001:00142ba0       ?OnChangeFocus@FolderTree@@UAEXH@Z 00543ba0 f   foldtree.obj
 0001:00142bc0       ?ResizeConsole@FolderTree@@UAEXXZ 00543bc0 f   foldtree.obj
 0001:00142c10       ?SetScreenPosition@FolderTree@@UAEXXZ 00543c10 f   foldtree.obj
 0001:00142c40       ?InitKeyBar@FolderTree@@UAEXXZ 00543c40 f   foldtree.obj
 0001:00142c70       ?DrawEdit@FolderTree@@AAEXXZ 00543c70 f   foldtree.obj
 0001:00142da0       ?ProcessMouse@FolderTree@@UAEHPBU_MOUSE_EVENT_RECORD@@@Z 00543da0 f   foldtree.obj
 0001:00142ed0       ?DisplayObject@FolderTree@@EAEXXZ 00543ed0 f   foldtree.obj
 0001:00143020       ?GetTypeAndName@FolderTree@@UAEHAAVUnicodeString@@0@Z 00544020 f   foldtree.obj
 0001:00143080       ?ProcessKey@FolderTree@@UAEHH@Z 00544080 f   foldtree.obj
 0001:001434e0       ??0FolderTree@@QAE@AAVUnicodeString@@HH_N@Z 005444e0 f   foldtree.obj
 0001:00143740       ?GetTypeName@FolderTree@@UAEPB_WXZ 00544740 f i foldtree.obj
 0001:00143750       ?GetType@FolderTree@@UAEHXZ 00544750 f i foldtree.obj
 0001:00143760       ??1FolderTree@@UAE@XZ      00544760 f   foldtree.obj
 0001:00143890       ??_GFolderTree@@UAEPAXI@Z  00544890 f i foldtree.obj
 0001:00143890       ??_EFolderTree@@UAEPAXI@Z  00544890 f i foldtree.obj
 0001:001438c0       ??_EScreenObjectWithShadow@@UAEPAXI@Z 005448c0 f i frame.obj
 0001:001438c0       ??_GScreenObjectWithShadow@@UAEPAXI@Z 005448c0 f i frame.obj
 0001:001438f0       ??0Frame@@QAE@XZ           005448f0 f   frame.obj
 0001:00143970       ?GetTypeName@Frame@@UAEPB_WXZ 00544970 f i frame.obj
 0001:00143980       ??1Frame@@UAE@XZ           00544980 f   frame.obj
 0001:001439d0       ?SetKeyBar@Frame@@QAEXPAVKeyBar@@@Z 005449d0 f   frame.obj
 0001:001439e0       ?UpdateKeyBar@Frame@@QAEXXZ 005449e0 f   frame.obj
 0001:00143a00       ?IsTopFrame@Frame@@QAEHXZ  00544a00 f   frame.obj
 0001:00143a10       ?Push@Frame@@AAEXPAV1@@Z   00544a10 f   frame.obj
 0001:00143a40       ?RemoveModal@Frame@@QAE_NPBV1@@Z 00544a40 f   frame.obj
 0001:00143a90       ?ResizeConsole@Frame@@UAEXXZ 00544a90 f   frame.obj
 0001:00143aa0       ?HasSaveScreen@Frame@@QAE_NXZ 00544aa0 f   frame.obj
 0001:00143ac0       ??_EFrame@@UAEPAXI@Z       00544ac0 f i frame.obj
 0001:00143ac0       ??_GFrame@@UAEPAXI@Z       00544ac0 f i frame.obj
 0001:00143b20       ?OnChangeFocus@Frame@@UAEXH@Z 00544b20 f   frame.obj
 0001:00143b80       ?IsUserAdmin@global@@QBE_NXZ 00544b80 f   global.obj
 0001:00143c10       ?WinVer@global@@QBEABU_OSVERSIONINFOW@@XZ 00544c10 f   global.obj
 0001:00143c40       ?IsPtr@global@@QBE_NPBX@Z  00544c40 f   global.obj
 0001:00143c80       ?CatchError@global@@QAEXXZ 00544c80 f   global.obj
 0001:00143cc0       ?Version@global@@QBEPB_WXZ 00544cc0 f   global.obj
 0001:00143cd0       ?Copyright@global@@QBEPB_WXZ 00544cd0 f   global.obj
 0001:00143ce0       ??1FormatScreen@@UAE@XZ    00544ce0 f i global.obj
 0001:00143d30       ??_GFormatScreen@@UAEPAXI@Z 00544d30 f i global.obj
 0001:00143d30       ??_EFormatScreen@@UAEPAXI@Z 00544d30 f i global.obj
 0001:00143d90       ??1?$_Hash@V?$_Uset_traits@PAVPlugin@@V?$_Hash_compare@PAVPlugin@@V?$hash@PAVPlugin@@@std@@U?$equal_to@PAVPlugin@@@3@@std@@V?$allocator@PAVPlugin@@@3@$0A@@tr1@std@@@std@@QAE@XZ 00544d90 f i flplugin.obj
 0001:00143d90       ??1?$_Hash@V?$_Uset_traits@UFarColor@@V?$_Hash_compare@UFarColor@@Ucolor_hash@@Ucolor_equal@@@std@@V?$allocator@UFarColor@@@3@$0A@@tr1@std@@@std@@QAE@XZ 00544d90 f i global.obj
 0001:00143d90       ??1?$_Hash@V?$_Uset_traits@_KV?$_Hash_compare@_KV?$hash@_K@std@@U?$equal_to@_K@2@@std@@V?$allocator@_K@2@$0A@@tr1@std@@@std@@QAE@XZ 00544d90 f i dirinfo.obj
 0001:00143d90       ??1?$_Hash@V?$_Uset_traits@U_GUID@@V?$_Hash_compare@U_GUID@@Uuuid_hash@@Uuuid_equal@@@std@@V?$allocator@U_GUID@@@3@$0A@@tr1@std@@@std@@QAE@XZ 00544d90 f i global.obj
 0001:00143e40       ??1?$unordered_set@_KV?$hash@_K@std@@U?$equal_to@_K@2@V?$allocator@_K@2@@tr1@std@@QAE@XZ 00544e40 f i dirinfo.obj
 0001:00143e40       ??1?$unordered_set@U_GUID@@Uuuid_hash@@Uuuid_equal@@V?$allocator@U_GUID@@@std@@@tr1@std@@QAE@XZ 00544e40 f i global.obj
 0001:00143e40       ??1?$unordered_set@UFarColor@@Ucolor_hash@@Ucolor_equal@@V?$allocator@UFarColor@@@std@@@tr1@std@@QAE@XZ 00544e40 f i global.obj
 0001:00143e40       ??1?$unordered_set@PAVPlugin@@V?$hash@PAVPlugin@@@std@@U?$equal_to@PAVPlugin@@@3@V?$allocator@PAVPlugin@@@3@@tr1@std@@QAE@XZ 00544e40 f i flplugin.obj
 0001:00143e90       ??1TreeListCache@@QAE@XZ   00544e90 f i global.obj
 0001:00143e90       ??1?$_Pair_base@$$CBVUnicodeString@@V?$list@VUnicodeString@@V?$allocator@VUnicodeString@@@std@@@std@@@std@@QAE@XZ 00544e90 f i dizlist.obj
 0001:00143f30       ??0?$_Hash@V?$_Uset_traits@UFarColor@@V?$_Hash_compare@UFarColor@@Ucolor_hash@@Ucolor_equal@@@std@@V?$allocator@UFarColor@@@3@$0A@@tr1@std@@@std@@QAE@ABV?$_Hash_compare@UFarColor@@Ucolor_hash@@Ucolor_equal@@@1@ABV?$allocator@UFarColor@@@1@@Z 00544f30 f i global.obj
 0001:00144040       ??0?$_Hash@V?$_Uset_traits@U_GUID@@V?$_Hash_compare@U_GUID@@Uuuid_hash@@Uuuid_equal@@@std@@V?$allocator@U_GUID@@@3@$0A@@tr1@std@@@std@@QAE@ABV?$_Hash_compare@U_GUID@@Uuuid_hash@@Uuuid_equal@@@1@ABV?$allocator@U_GUID@@@1@@Z 00545040 f i global.obj
 0001:00144150       ??0global@@QAE@XZ          00545150 f   global.obj
 0001:00144760       ??1Options@@QAE@XZ         00545760 f i global.obj
 0001:00145590       ??1global@@QAE@XZ          00546590 f   global.obj
 0001:00145a80       ?Reset@Grabber@@AAEXXZ     00546a80 f   grabber.obj
 0001:00145ab0       ?CopyGrabbedArea@Grabber@@AAEX_N0@Z 00546ab0 f   grabber.obj
 0001:00145f50       ?ProcessKey@Grabber@@EAEHH@Z 00546f50 f   grabber.obj
 0001:00146ea0       ?ProcessMouse@Grabber@@EAEHPBU_MOUSE_EVENT_RECORD@@@Z 00547ea0 f   grabber.obj
 0001:00146fe0       ??1Modal@@UAE@XZ           00547fe0 f i grabber.obj
 0001:00147070       ??_GModal@@UAEPAXI@Z       00548070 f i grabber.obj
 0001:00147070       ??_EModal@@UAEPAXI@Z       00548070 f i grabber.obj
 0001:00147120       ??1Grabber@@UAE@XZ         00548120 f   grabber.obj
 0001:001471e0       ?GetType@Grabber@@UAEHXZ   005481e0 f i grabber.obj
 0001:001471f0       ?GetTypeAndName@Grabber@@UAEHAAVUnicodeString@@0@Z 005481f0 f i grabber.obj
 0001:00147200       ??_EGrabber@@UAEPAXI@Z     00548200 f i grabber.obj
 0001:00147200       ??_GGrabber@@UAEPAXI@Z     00548200 f i grabber.obj
 0001:00147230       ?DisplayObject@Grabber@@EAEXXZ 00548230 f   grabber.obj
 0001:00147510       ??0Grabber@@QAE@XZ         00548510 f   grabber.obj
 0001:00147690       ?RunGraber@@YA_NXZ         00548690 f   grabber.obj
 0001:00147730       ?Hide@Help@@UAEXXZ         00548730 f   help.obj
 0001:001477d0       ?CorrectPosition@Help@@AAEXXZ 005487d0 f   help.obj
 0001:00147860       ?SetScreenPosition@Help@@UAEXXZ 00548860 f   help.obj
 0001:001478e0       ?InitKeyBar@Help@@UAEXXZ   005488e0 f   help.obj
 0001:00147910       ?OnChangeFocus@Help@@UAEXH@Z 00548910 f   help.obj
 0001:00147930       ?FastHide@Help@@UAEHXZ     00548930 f   help.obj
 0001:00147950       ?VMProcess@Help@@UAE_JHPAX_J@Z 00548950 f   help.obj
 0001:001479c0       ??4StackHelpData@Help@@QAEAAU01@ABU01@@Z 005489c0 f i help.obj
 0001:00147a20       ?GetHelpItem@Help@@AAEPBVHelpRecord@@H@Z 00548a20 f   help.obj
 0001:00147c20       ?_Growmap@?$deque@UStackHelpData@Help@@V?$allocator@UStackHelpData@Help@@@std@@@std@@IAEXI@Z 00548c20 f i help.obj
 0001:00147d60       ??0StackHelpData@Help@@QAE@ABU01@@Z 00548d60 f i help.obj
 0001:00147e80       ??$swap@VHelpRecord@@@std@@YAXAAVHelpRecord@@0@Z 00548e80 f i help.obj
 0001:00147f40       ??0StackHelpData@Help@@QAE@XZ 00548f40 f i help.obj
 0001:00147ff0       ??1StackHelpData@Help@@QAE@XZ 00548ff0 f i help.obj
 0001:00148130       ?HighlightsCorrection@Help@@AAEXAAVUnicodeString@@@Z 00549130 f   help.obj
 0001:00148190       ?StringLen@Help@@AAEHABVUnicodeString@@@Z 00549190 f   help.obj
 0001:001482c0       ??$_Insertion_sort1@PAVHelpRecord@@V1@@std@@YAXPAVHelpRecord@@00@Z 005492c0 f i help.obj
 0001:00148430       ??$_Med3@PAVHelpRecord@@@std@@YAXPAVHelpRecord@@00@Z 00549430 f i help.obj
 0001:001484b0       ??$_Cons_val@V?$allocator@VHelpRecord@@@std@@VHelpRecord@@V3@@std@@YAXAAV?$allocator@VHelpRecord@@@0@PAVHelpRecord@@$$QAV2@@Z 005494b0 f i help.obj
 0001:00148530       ??$_Push_heap@PAVHelpRecord@@HV1@@std@@YAXPAVHelpRecord@@HH$$QAV1@@Z 00549530 f i help.obj
 0001:001485b0       ?MakeLink@Help@@SA?AVUnicodeString@@ABV2@0@Z 005495b0 f   help.obj
 0001:00148700       ?DrawWindowFrame@Help@@AAEXXZ 00549700 f   help.obj
 0001:00148950       ?GetTopic@Help@@AAE_NHHAAVUnicodeString@@@Z 00549950 f   help.obj
 0001:00148ad0       ?OutString@Help@@AAEXPB_W@Z 00549ad0 f   help.obj
 0001:00148f30       ?MkTopic@Help@@SA_NPBVPlugin@@ABVUnicodeString@@AAV3@@Z 00549f30 f   help.obj
 0001:00149140       ?GetTypeAndName@Help@@UAEHAAVUnicodeString@@0@Z 0054a140 f   help.obj
 0001:001491b0       ??$emplace_back@AAUStackHelpData@Help@@@?$deque@UStackHelpData@Help@@V?$allocator@UStackHelpData@Help@@@std@@@std@@QAEXAAUStackHelpData@Help@@@Z 0054a1b0 f i help.obj
 0001:001491b0       ?push_back@?$deque@UStackHelpData@Help@@V?$allocator@UStackHelpData@Help@@@std@@@std@@QAEXABUStackHelpData@Help@@@Z 0054a1b0 f i help.obj
 0001:00149290       ??$_Median@PAVHelpRecord@@@std@@YAXPAVHelpRecord@@00@Z 0054a290 f i help.obj
 0001:00149320       ??$_Adjust_heap@PAVHelpRecord@@HV1@@std@@YAXPAVHelpRecord@@HH$$QAV1@@Z 0054a320 f i help.obj
 0001:001493b0       ?FastShow@Help@@AAEXXZ     0054a3b0 f   help.obj
 0001:00149640       ?ProcessMouse@Help@@UAEHPBU_MOUSE_EVENT_RECORD@@@Z 0054a640 f   help.obj
 0001:00149ae0       ?MoveToReference@Help@@AAEXHH@Z 0054aae0 f   help.obj
 0001:0014a160       ??$_Unguarded_partition@PAVHelpRecord@@@std@@YA?AU?$pair@PAVHelpRecord@@PAV1@@0@PAVHelpRecord@@0@Z 0054b160 f i help.obj
 0001:0014a360       ??$_Dest_val@V?$allocator@UDialogBuilderListItem2@@@std@@UDialogBuilderListItem2@@@std@@YAXAAV?$allocator@UDialogBuilderListItem2@@@0@PAUDialogBuilderListItem2@@@Z 0054b360 f i codepage.obj
 0001:0014a360       ??$_Dest_val@V?$allocator@VHelpRecord@@@std@@VHelpRecord@@@std@@YAXAAV?$allocator@VHelpRecord@@@0@PAVHelpRecord@@@Z 0054b360 f i help.obj
 0001:0014a3d0       ??$_Make_heap@PAVHelpRecord@@HV1@@std@@YAXPAVHelpRecord@@0PAH0@Z 0054b3d0 f i help.obj
 0001:0014a4b0       ??$_Uninit_move@PAVHelpRecord@@PAV1@V?$allocator@VHelpRecord@@@std@@V1@@std@@YAPAVHelpRecord@@PAV1@00AAV?$allocator@VHelpRecord@@@0@0U_Nonscalar_ptr_iterator_tag@0@@Z 0054b4b0 f i help.obj
 0001:0014a560       ??$_Pop_heap_0@PAVHelpRecord@@V1@@std@@YAXPAVHelpRecord@@00@Z 0054b560 f i help.obj
 0001:0014a630       ?DisplayObject@Help@@EAEXXZ 0054b630 f   help.obj
 0001:0014a820       ??$_Destroy_range@V?$allocator@VHelpRecord@@@std@@@std@@YAXPAVHelpRecord@@0AAV?$allocator@VHelpRecord@@@0@U_Nonscalar_ptr_iterator_tag@0@@Z 0054b820 f i help.obj
 0001:0014a8b0       ?_Tidy@?$deque@UStackHelpData@Help@@V?$allocator@UStackHelpData@Help@@@std@@@std@@IAEXXZ 0054b8b0 f i help.obj
 0001:0014a930       ??$_Umove@PAVHelpRecord@@@?$vector@VHelpRecord@@V?$allocator@VHelpRecord@@@std@@@std@@IAEPAVHelpRecord@@PAV2@00@Z 0054b930 f i help.obj
 0001:0014a960       ?pop@?$stack@UStackHelpData@Help@@V?$deque@UStackHelpData@Help@@V?$allocator@UStackHelpData@Help@@@std@@@std@@@std@@QAEXXZ 0054b960 f i help.obj
 0001:0014a9a0       ??1?$deque@UStackHelpData@Help@@V?$allocator@UStackHelpData@Help@@@std@@@std@@QAE@XZ 0054b9a0 f i help.obj
 0001:0014aa00       ?reserve@?$vector@VHelpRecord@@V?$allocator@VHelpRecord@@@std@@@std@@QAEXI@Z 0054ba00 f i help.obj
 0001:0014aae0       ??$sort_heap@PAVHelpRecord@@@std@@YAXPAVHelpRecord@@0@Z 0054bae0 f i help.obj
 0001:0014ab30       ??1?$stack@UStackHelpData@Help@@V?$deque@UStackHelpData@Help@@V?$allocator@UStackHelpData@Help@@@std@@@std@@@std@@QAE@XZ 0054bb30 f i help.obj
 0001:0014ab90       ?erase@?$vector@VHelpRecord@@V?$allocator@VHelpRecord@@@std@@@std@@QAE?AV?$_Vector_iterator@V?$_Vector_val@VHelpRecord@@V?$allocator@VHelpRecord@@@std@@@std@@@2@V?$_Vector_const_iterator@V?$_Vector_val@VHelpRecord@@V?$allocator@VHelpRecord@@@std@@@std@@@2@0@Z 0054bb90 f i help.obj
 0001:0014abf0       ??$_Sort@PAVHelpRecord@@H@std@@YAXPAVHelpRecord@@0H@Z 0054bbf0 f i help.obj
 0001:0014acc0       ??1?$vector@VHelpRecord@@V?$allocator@VHelpRecord@@@std@@@std@@QAE@XZ 0054bcc0 f i help.obj
 0001:0014ad10       ??$emplace_back@AAVUnicodeString@@@?$vector@VHelpRecord@@V?$allocator@VHelpRecord@@@std@@@std@@QAEXAAVUnicodeString@@@Z 0054bd10 f i help.obj
 0001:0014adf0       ?AddLine@Help@@AAEXABVUnicodeString@@@Z 0054bdf0 f   help.obj
 0001:0014af10       ?AddTitle@Help@@AAEXABVUnicodeString@@@Z 0054bf10 f   help.obj
 0001:0014aff0       ?Search@Help@@AAEXAAVFile@@I@Z 0054bff0 f   help.obj
 0001:0014b9d0       ??R<lambda1>@?A0x6de0a528@@QBEXABQAVPlugin@@@Z 0054c9d0 f i help.obj
 0001:0014be00       ??$_For_each@V?$_List_unchecked_const_iterator@V?$_List_val@PAVPlugin@@V?$allocator@PAVPlugin@@@std@@@std@@U_Iterator_base0@2@@std@@V<lambda1>@?A0x6de0a528@@@std@@YA?AV<lambda1>@?A0x6de0a528@@V?$_List_unchecked_const_iterator@V?$_List_val@PAVPlugin@@V?$allocator@PAVPlugin@@@std@@@std@@U_Iterator_base0@2@@0@0V12@@Z 0054ce00 f i help.obj
 0001:0014be50       ?ReadDocumentsHelp@Help@@AAEXH@Z 0054ce50 f   help.obj
 0001:0014c110       ?ReadHelp@Help@@AAEHABVUnicodeString@@@Z 0054d110 f   help.obj
 0001:0014da20       ?JumpTopic@Help@@AAEHXZ    0054ea20 f   help.obj
 0001:0014e2d0       ?ResizeConsole@Help@@UAEXXZ 0054f2d0 f   help.obj
 0001:0014e3f0       ?ProcessKey@Help@@UAEHH@Z  0054f3f0 f   help.obj
 0001:0014ed70       ??0Help@@QAE@ABVUnicodeString@@PB_W_K@Z 0054fd70 f   help.obj
 0001:0014f230       ?GetTypeName@Help@@UAEPB_WXZ 00550230 f i help.obj
 0001:0014f240       ??1Help@@UAE@XZ            00550240 f   help.obj
 0001:0014f4b0       ??_GHelp@@UAEPAXI@Z        005504b0 f i help.obj
 0001:0014f4b0       ??_EHelp@@UAEPAXI@Z        005504b0 f i help.obj
 0001:0014f4e0       ?UpdateCurrentTime@HighlightFiles@@QAEXXZ 005504e0 f   hilight.obj
 0001:0014f530       ?MenuPosToRealPos@HighlightFiles@@AAEHHPAPAH_N@Z 00550530 f   hilight.obj
 0001:0014f8e0       ?GetGroup@HighlightFiles@@QAEHPBUFileListItem@@@Z 005508e0 f   hilight.obj
 0001:0014f980       ?ProcessGroups@HighlightFiles@@AAEXXZ 00550980 f   hilight.obj
 0001:0014fa50       ?UpdateHighlighting@HighlightFiles@@QAEX_N@Z 00550a50 f   hilight.obj
 0001:0014fb40       ?_Target_type@?$_Impl_no_alloc1@U?$_Callable_obj@V<lambda2>@?A0xfadc7b34@@$0A@@tr1@std@@HH@tr1@std@@UBEABVtype_info@@XZ 00550b40 f i hilight.obj
 0001:0014fb50       ??_G?$_Impl_no_alloc1@U?$_Callable_obj@V<lambda2>@?A0xfadc7b34@@$0A@@tr1@std@@HH@tr1@std@@UAEPAXI@Z 00550b50 f i hilight.obj
 0001:0014fb50       ??_E?$_Impl_no_alloc1@U?$_Callable_obj@V<lambda2>@?A0xfadc7b34@@$0A@@tr1@std@@HH@tr1@std@@UAEPAXI@Z 00550b50 f i hilight.obj
 0001:0014fbb0       ?_Copy@?$_Impl_no_alloc1@U?$_Callable_obj@V<lambda2>@?A0xfadc7b34@@$0A@@tr1@std@@HH@tr1@std@@UAEPAV?$_Impl_base1@HH@23@PAX@Z 00550bb0 f i hilight.obj
 0001:0014fc70       ?GetHiColor@HighlightFiles@@QAEXPAUFileListItem@@_N@Z 00550c70 f   hilight.obj
 0001:0014fd70       ??$_Reset@V<lambda2>@?A0xfadc7b34@@@?$_Function_impl1@HH@tr1@std@@IAEXV<lambda2>@?A0xfadc7b34@@@Z 00550d70 f i hilight.obj
 0001:00153360       ?SaveHiData@HighlightFiles@@QAEXXZ 00554360 f   hilight.obj
 0001:00153770       ?FillMenu@HighlightFiles@@AAEXPAVVMenu2@@H@Z 00554770 f   hilight.obj
 0001:00153a00       ?HiEdit@HighlightFiles@@QAEXH@Z 00554a00 f   hilight.obj
 0001:00153d40       ?push_back@?$vector@V?$unique_ptr@VFileFilterParams@@U?$default_delete@VFileFilterParams@@@std@@@std@@V?$allocator@V?$unique_ptr@VFileFilterParams@@U?$default_delete@VFileFilterParams@@@std@@@std@@@2@@std@@QAEX$$QAV?$unique_ptr@VFileFilterParams@@U?$default_delete@VFileFilterParams@@@std@@@2@@Z 00554d40 f i hilight.obj
 0001:00153e00       ?ClearData@HighlightFiles@@AAEXXZ 00554e00 f   hilight.obj
 0001:00153e50       ??$emplace@V?$unique_ptr@VFileFilterParams@@U?$default_delete@VFileFilterParams@@@std@@@std@@@?$vector@V?$unique_ptr@VFileFilterParams@@U?$default_delete@VFileFilterParams@@@std@@@std@@V?$allocator@V?$unique_ptr@VFileFilterParams@@U?$default_delete@VFileFilterParams@@@std@@@std@@@2@@std@@QAE?AV?$_Vector_iterator@V?$_Vector_val@V?$unique_ptr@VFileFilterParams@@U?$default_delete@VFileFilterParams@@@std@@@std@@V?$allocator@V?$unique_ptr@VFileFilterParams@@U?$default_delete@VFileFilterParams@@@std@@@std@@@2@@std@@@1@V?$_Vector_const_iterator@V?$_Vector_val@V?$unique_ptr@VFileFilterParams@@U?$default_delete@VFileFilterParams@@@std@@@std@@V?$allocator@V?$unique_ptr@VFileFilterParams@@U?$default_delete@VFileFilterParams@@@std@@@std@@@2@@std@@@1@$$QAV?$unique_ptr@VFileFilterParams@@U?$default_delete@VFileFilterParams@@@std@@@1@@Z 00554e50 f i hilight.obj
 0001:00153ea0       ??$_For_each@PBUgroup_item@?1??InitHighlightFiles@HighlightFiles@@AAEXPAVHierarchicalConfig@@@Z@V<lambda1>@?A0xfadc7b34@@@std@@YA?AV<lambda1>@?A0xfadc7b34@@PBUgroup_item@?1??InitHighlightFiles@HighlightFiles@@AAEXPAVHierarchicalConfig@@@Z@1V12@@Z 00554ea0 f i hilight.obj
 0001:00154250       ??1HighlightFiles@@QAE@XZ  00555250 f   hilight.obj
 0001:00154300       ?InitHighlightFiles@HighlightFiles@@AAEXPAVHierarchicalConfig@@@Z 00555300 f   hilight.obj
 0001:001543f0       ??R<lambda2>@?A0xfadc7b34@@QBEHH@Z 005553f0 f i hilight.obj
 0001:00154a80       ??0HighlightFiles@@QAE@XZ  00555a80 f   hilight.obj
 0001:00154b50       ?_Do_call@?$_Impl_no_alloc1@U?$_Callable_obj@V<lambda2>@?A0xfadc7b34@@$0A@@tr1@std@@HH@tr1@std@@UAEHH@Z 00555b50 f i hilight.obj
 0001:00154b60       ?SetAddMode@History@@QAEX_NH0@Z 00555b60 f   history.obj
 0001:00154b80       ?HistoryCfgRef@History@@AAEPAVHistoryConfig@@XZ 00555b80 f   history.obj
 0001:00154bb0       ?ReadLastItem@History@@QAE_NABVUnicodeString@@AAV2@@Z 00555bb0 f   history.obj
 0001:00154c10       ?GetPrev@History@@QAEXAAVUnicodeString@@@Z 00555c10 f   history.obj
 0001:00154c70       ?GetNext@History@@QAEXAAVUnicodeString@@@Z 00555c70 f   history.obj
 0001:00154cd0       ?DeleteIfUnlocked@History@@QAE_N_K@Z 00555cd0 f   history.obj
 0001:00154d70       ?_Target_type@?$_Impl_no_alloc1@U?$_Callable_obj@V<lambda1>@?A0xdd23cf9c@@$0A@@tr1@std@@HH@tr1@std@@UBEABVtype_info@@XZ 00555d70 f i history.obj
 0001:00154d80       ??_G?$_Impl_no_alloc1@U?$_Callable_obj@V<lambda1>@?A0xdd23cf9c@@$0A@@tr1@std@@HH@tr1@std@@UAEPAXI@Z 00555d80 f i history.obj
 0001:00154d80       ??_E?$_Impl_no_alloc1@U?$_Callable_obj@V<lambda1>@?A0xdd23cf9c@@$0A@@tr1@std@@HH@tr1@std@@UAEPAXI@Z 00555d80 f i history.obj
 0001:00154de0       ?_Copy@?$_Impl_no_alloc1@U?$_Callable_obj@V<lambda1>@?A0xdd23cf9c@@$0A@@tr1@std@@HH@tr1@std@@UAEPAV?$_Impl_base1@HH@23@PAX@Z 00555de0 f i history.obj
 0001:00154e90       ?StrCmp@@YAHABVUnicodeString@@0@Z 00555e90 f i history.obj
 0001:00154ec0       ??0History@@QAE@W4enumHISTORYTYPE@@ABVUnicodeString@@ABVBoolOption@@_N@Z 00555ec0 f   history.obj
 0001:00154f50       ?CompactHistory@History@@SAXXZ 00555f50 f   history.obj
 0001:00155260       ?AddToHistory@History@@QAEXABVUnicodeString@@HPBU_GUID@@PB_W2_N@Z 00556260 f   history.obj
 0001:00155620       ??R<lambda1>@?A0xdd23cf9c@@QBEHH@Z 00556620 f i history.obj
 0001:00155dd0       ?GetSimilar@History@@QAE_NAAVUnicodeString@@H_N@Z 00556dd0 f   history.obj
 0001:00156020       ?GetAllSimilar@History@@QAE_NAAVVMenu2@@ABVUnicodeString@@@Z 00557020 f   history.obj
 0001:00156460       ?ProcessMenu@History@@AAEHAAVUnicodeString@@PAU_GUID@@PAV2@2PB_WAAVVMenu2@@HAAHPAVDialog@@@Z 00557460 f   history.obj
 0001:001577b0       ?_Do_call@?$_Impl_no_alloc1@U?$_Callable_obj@V<lambda1>@?A0xdd23cf9c@@$0A@@tr1@std@@HH@tr1@std@@UAEHH@Z 005587b0 f i history.obj
 0001:001577c0       ?Select@History@@QAEHPB_W0AAVUnicodeString@@AAHPAU_GUID@@PAV2@4@Z 005587c0 f   history.obj
 0001:00157a60       ?Select@History@@QAEHAAVVMenu2@@HPAVDialog@@AAVUnicodeString@@@Z 00558a60 f   history.obj
 0001:00157aa0       ?TestMouse@HMenu@@AAE_NPBU_MOUSE_EVENT_RECORD@@@Z 00558aa0 f   hmenu.obj
 0001:00157ae0       ?GetExitCode@HMenu@@QAEXAAH0@Z 00558ae0 f   hmenu.obj
 0001:00157b00       ?ResizeConsole@HMenu@@UAEXXZ 00558b00 f   hmenu.obj
 0001:00157b60       ?GetHighlights@HMenu@@AAE_WPBUHMenuData@@@Z 00558b60 f   hmenu.obj
 0001:00157bf0       ?CheckHighlights@HMenu@@AAEHGH@Z 00558bf0 f   hmenu.obj
 0001:00157d70       ??R<lambda1>@?A0x630bf263@@QBEHHPAX@Z 00558d70 f i hmenu.obj
 0001:00157eb0       ?_Target_type@?$_Impl_no_alloc2@U?$_Callable_obj@V<lambda1>@?A0x630bf263@@$0A@@tr1@std@@HHPAX@tr1@std@@UBEABVtype_info@@XZ 00558eb0 f i hmenu.obj
 0001:00157ec0       ??_G?$_Impl_no_alloc2@U?$_Callable_obj@V<lambda1>@?A0x630bf263@@$0A@@tr1@std@@HHPAX@tr1@std@@UAEPAXI@Z 00558ec0 f i hmenu.obj
 0001:00157ec0       ??_E?$_Impl_no_alloc2@U?$_Callable_obj@V<lambda1>@?A0x630bf263@@$0A@@tr1@std@@HHPAX@tr1@std@@UAEPAXI@Z 00558ec0 f i hmenu.obj
 0001:00157f20       ?_Copy@?$_Impl_no_alloc2@U?$_Callable_obj@V<lambda1>@?A0x630bf263@@$0A@@tr1@std@@HHPAX@tr1@std@@UAEPAV?$_Impl_base2@HHPAX@23@PAX@Z 00558f20 f i hmenu.obj
 0001:00157fe0       ?_Do_call@?$_Impl_no_alloc2@U?$_Callable_obj@V<lambda1>@?A0x630bf263@@$0A@@tr1@std@@HHPAX@tr1@std@@UAEHHPAX@Z 00558fe0 f i hmenu.obj
 0001:00157ff0       ??0HMenu@@QAE@PAUHMenuData@@H@Z 00558ff0 f   hmenu.obj
 0001:00158090       ?GetType@HMenu@@UAEHXZ     00559090 f i hmenu.obj
 0001:001580a0       ?GetTypeAndName@HMenu@@UAEHAAVUnicodeString@@0@Z 005590a0 f i hmenu.obj
 0001:001580b0       ??1HMenu@@UAE@XZ           005590b0 f   hmenu.obj
 0001:00158180       ??$_Reset@V<lambda1>@?A0x630bf263@@@?$_Function_impl2@HHPAX@tr1@std@@IAEXV<lambda1>@?A0x630bf263@@@Z 00559180 f i hmenu.obj
 0001:00158250       ??_GHMenu@@UAEPAXI@Z       00559250 f i hmenu.obj
 0001:00158250       ??_EHMenu@@UAEPAXI@Z       00559250 f i hmenu.obj
 0001:00158280       ?ShowMenu@HMenu@@AAEXXZ    00559280 f   hmenu.obj
 0001:00158440       ?VMProcess@HMenu@@UAE_JHPAX_J@Z 00559440 f   hmenu.obj
 0001:00158890       ?ProcessMouse@HMenu@@UAEHPBU_MOUSE_EVENT_RECORD@@@Z 00559890 f   hmenu.obj
 0001:001589a0       ?DisplayObject@HMenu@@EAEXXZ 005599a0 f   hmenu.obj
 0001:00158a20       ?ProcessSubMenu@HMenu@@AAEXPBUMenuDataEx@@HPB_WHHAAH@Z 00559a20 f   hmenu.obj
 0001:00158c80       ?ProcessKey@HMenu@@UAEHH@Z 00559c80 f   hmenu.obj
 0001:001592e0       ?CheckChild@@YA_NK@Z       0055a2e0 f   hotplug.obj
 0001:00159400       ?IsHotPlugDevice@@YA_NK@Z  0055a400 f   hotplug.obj
 0001:001597b0       ?_Target_type@?$_Impl_no_alloc1@U?$_Callable_obj@V<lambda1>@?A0xf852152c@@$0A@@tr1@std@@HH@tr1@std@@UBEABVtype_info@@XZ 0055a7b0 f i hotplug.obj
 0001:001597c0       ??_E?$_Impl_no_alloc1@U?$_Callable_obj@V<lambda1>@?A0xf852152c@@$0A@@tr1@std@@HH@tr1@std@@UAEPAXI@Z 0055a7c0 f i hotplug.obj
 0001:001597c0       ??_G?$_Impl_no_alloc1@U?$_Callable_obj@V<lambda1>@?A0xf852152c@@$0A@@tr1@std@@HH@tr1@std@@UAEPAXI@Z 0055a7c0 f i hotplug.obj
 0001:00159820       ?_Copy@?$_Impl_no_alloc1@U?$_Callable_obj@V<lambda1>@?A0xf852152c@@$0A@@tr1@std@@HH@tr1@std@@UAEPAV?$_Impl_base1@HH@23@PAX@Z 0055a820 f i hotplug.obj
 0001:001598d0       ?DriveMaskFromVolumeName@@YAKABVUnicodeString@@@Z 0055a8d0 f   hotplug.obj
 0001:00159aa0       ?GetDriveMaskFromMountPoints@@YAKK@Z 0055aaa0 f   hotplug.obj
 0001:00159d30       ?GetRelationDrivesMask@@YAKK@Z 0055ad30 f   hotplug.obj
 0001:00159e80       ?GetDriveMaskForDeviceInternal@@YAKK@Z 0055ae80 f   hotplug.obj
 0001:00159f00       ?GetHotplugDriveDeviceInfoInternal@@YAHKPAPAUDeviceInfo@@H@Z 0055af00 f   hotplug.obj
 0001:0015a9a0       ?ShowHotplugDevice@@YAXXZ  0055b9a0 f   hotplug.obj
 0001:0015ac90       ??R<lambda1>@?A0xf852152c@@QBEHH@Z 0055bc90 f i hotplug.obj
 0001:0015aef0       ?ProcessRemoveHotplugDevice@@YAH_WK@Z 0055bef0 f   hotplug.obj
 0001:0015afb0       ?_Do_call@?$_Impl_no_alloc1@U?$_Callable_obj@V<lambda1>@?A0xf852152c@@$0A@@tr1@std@@HH@tr1@std@@UAEHH@Z 0055bfb0 f i hotplug.obj
 0001:0015afc0       ??1ImportedFunctions@@QAE@XZ 0055bfc0 f   imports.obj
 0001:0015aff0       ??0ImportedFunctions@@QAE@XZ 0055bff0 f   imports.obj
 0001:0015b330       ?GetConsoleKeyboardLayoutNameW@ImportedFunctions@@QBEHPA_W@Z 0055c330 f   imports.obj
 0001:0015b350       ?CreateSymbolicLinkW@ImportedFunctions@@QBEEPB_W0K@Z 0055c350 f   imports.obj
 0001:0015b370       ?FindFirstFileNameW@ImportedFunctions@@QBEPAXPB_WKPAKPA_W@Z 0055c370 f   imports.obj
 0001:0015b390       ?FindNextFileNameW@ImportedFunctions@@QBEHPAXPAKPA_W@Z 0055c390 f   imports.obj
 0001:0015b3b0       ?FindFirstStreamW@ImportedFunctions@@QBEPAXPB_WW4_STREAM_INFO_LEVELS@@PAXK@Z 0055c3b0 f   imports.obj
 0001:0015b3d0       ?FindNextStreamW@ImportedFunctions@@QBEHPAX0@Z 0055c3d0 f   imports.obj
 0001:0015b3f0       ?GetFinalPathNameByHandleW@ImportedFunctions@@QBEKPAXPA_WKK@Z 0055c3f0 f   imports.obj
 0001:0015b4a0       ?GetVolumePathNamesForVolumeNameW@ImportedFunctions@@QBEHPB_WPA_WKPAK@Z 0055c4a0 f   imports.obj
 0001:0015b4c0       ?GetPhysicallyInstalledSystemMemory@ImportedFunctions@@QBEHPA_K@Z 0055c4c0 f   imports.obj
 0001:0015b4e0       ?HeapSetInformation@ImportedFunctions@@QBEHPAXW4_HEAP_INFORMATION_CLASS@@0K@Z 0055c4e0 f   imports.obj
 0001:0015b500       ?IsWow64Process@ImportedFunctions@@QBEHPAXPAH@Z 0055c500 f   imports.obj
 0001:0015b520       ?GetNamedPipeServerProcessId@ImportedFunctions@@QBEHPAXPAK@Z 0055c520 f   imports.obj
 0001:0015b540       ?CancelSynchronousIo@ImportedFunctions@@QBEHPAX@Z 0055c540 f   imports.obj
 0001:0015b560       ?SetConsoleKeyShortcuts@ImportedFunctions@@QBEHHEPAXK@Z 0055c560 f   imports.obj
 0001:0015b580       ?GetConsoleScreenBufferInfoEx@ImportedFunctions@@QBEHPAXPAU_CONSOLE_SCREEN_BUFFER_INFOEX@@@Z 0055c580 f   imports.obj
 0001:0015b5a0       ?TzSpecificLocalTimeToSystemTime@ImportedFunctions@@QBEHPBU_TIME_ZONE_INFORMATION@@PBU_SYSTEMTIME@@PAU3@@Z 0055c5a0 f   imports.obj
 0001:0015b5c0       ?NtQueryDirectoryFile@ImportedFunctions@@QBEJPAX000PAU_IO_STATUS_BLOCK@@0KW4_FILE_INFORMATION_CLASS@@EPAU_UNICODE_STRING@@E@Z 0055c5c0 f   imports.obj
 0001:0015b5e0       ?NtQueryInformationFile@ImportedFunctions@@QBEJPAXPAU_IO_STATUS_BLOCK@@0KW4_FILE_INFORMATION_CLASS@@@Z 0055c5e0 f   imports.obj
 0001:0015b600       ?NtSetInformationFile@ImportedFunctions@@QBEJPAXPAU_IO_STATUS_BLOCK@@0KW4_FILE_INFORMATION_CLASS@@@Z 0055c600 f   imports.obj
 0001:0015b620       ?NtQueryObject@ImportedFunctions@@QBEJPAXW4_OBJECT_INFORMATION_CLASS@@0KPAK@Z 0055c620 f   imports.obj
 0001:0015b640       ?NtOpenSymbolicLinkObject@ImportedFunctions@@QBEJPAPAXKPAU_OBJECT_ATTRIBUTES@@@Z 0055c640 f   imports.obj
 0001:0015b660       ?NtQuerySymbolicLinkObject@ImportedFunctions@@QBEJPAXPAU_UNICODE_STRING@@PAK@Z 0055c660 f   imports.obj
 0001:0015b680       ?NtClose@ImportedFunctions@@QBEJPAX@Z 0055c680 f   imports.obj
 0001:0015b6a0       ?RtlGetLastNtStatus@ImportedFunctions@@QBEJXZ 0055c6a0 f   imports.obj
 0001:0015b6b0       ?RtlNtStatusToDosError@ImportedFunctions@@QBEJJ@Z 0055c6b0 f   imports.obj
 0001:0015b6d0       ?SHCreateAssociationRegistration@ImportedFunctions@@QBEJABU_GUID@@PAPAX@Z 0055c6d0 f   imports.obj
 0001:0015b6f0       ?GetStorageDependencyInformation@ImportedFunctions@@QBEKPAXW4_GET_STORAGE_DEPENDENCY_FLAG@@KPAU_STORAGE_DEPENDENCY_INFO@@PAK@Z 0055c6f0 f   imports.obj
 0001:0015b710       ?OpenVirtualDisk@ImportedFunctions@@QBEKPAU_VIRTUAL_STORAGE_TYPE@@PB_WW4_VIRTUAL_DISK_ACCESS_MASK@@W4_OPEN_VIRTUAL_DISK_FLAG@@PAU_OPEN_VIRTUAL_DISK_PARAMETERS@@PAPAX@Z 0055c710 f   imports.obj
 0001:0015b730       ?DetachVirtualDisk@ImportedFunctions@@QBEKPAXW4_DETACH_VIRTUAL_DISK_FLAG@@K@Z 0055c730 f   imports.obj
 0001:0015b750       ?UnregisterPowerSettingNotification@ImportedFunctions@@QBEHPAX@Z 0055c750 f   imports.obj
 0001:0015b770       ?RegisterPowerSettingNotification@ImportedFunctions@@QBEPAXPAXPBU_GUID@@K@Z 0055c770 f   imports.obj
 0001:0015b790       ?QueryFullProcessImageNameW@ImportedFunctions@@QBEHPAXKPA_WPAK@Z 0055c790 f   imports.obj
 0001:0015b7b0       ?RmStartSession@ImportedFunctions@@QBEKPAKKQA_W@Z 0055c7b0 f   imports.obj
 0001:0015b7d0       ?RmEndSession@ImportedFunctions@@QBEKK@Z 0055c7d0 f   imports.obj
 0001:0015b7f0       ?RmRegisterResources@ImportedFunctions@@QBEKKIQAPB_WIQAU_RM_UNIQUE_PROCESS@@I0@Z 0055c7f0 f   imports.obj
 0001:0015b810       ?RmGetList@ImportedFunctions@@QBEKKPAI0QAU_RM_PROCESS_INFO@@PAK@Z 0055c810 f   imports.obj
 0001:0015b830       ?NetDfsGetInfo@ImportedFunctions@@QBEKPA_W00KPAPAE@Z 0055c830 f   imports.obj
 0001:0015b850       ?ProcessKey@DizViewer@@UAEHH@Z 0055c850 f i infolist.obj
 0001:0015b870       ?ProcessMouse@DizViewer@@UAEHPBU_MOUSE_EVENT_RECORD@@@Z 0055c870 f i infolist.obj
 0001:0015b890       ??_GDizViewer@@UAEPAXI@Z   0055c890 f i infolist.obj
 0001:0015b890       ??_EDizViewer@@UAEPAXI@Z   0055c890 f i infolist.obj
 0001:0015b8f0       ?Update@InfoList@@UAEXH@Z  0055c8f0 f   infolist.obj
 0001:0015b930       ?VMProcess@InfoList@@UAE_JHPAX_J@Z 0055c930 f   infolist.obj
 0001:0015b980       ?ProcessMouse@InfoList@@UAEHPBU_MOUSE_EVENT_RECORD@@@Z 0055c980 f   infolist.obj
 0001:0015bb70       ?CloseFile@InfoList@@UAEXXZ 0055cb70 f   infolist.obj
 0001:0015bc00       ?DynamicUpdateKeyBar@InfoList@@AAEXXZ 0055cc00 f   infolist.obj
 0001:0015bde0       ??$for_each_cnt@PBUInfoListSectionState@InfoList@@V<lambda3>@?A0xe250a7f3@@@@YA?AV<lambda3>@?A0xe250a7f3@@PBUInfoListSectionState@InfoList@@0V01@@Z 0055cde0 f i infolist.obj
 0001:0015be50       ?SetFocus@InfoList@@UAEXXZ 0055ce50 f   infolist.obj
 0001:0015bea0       ?KillFocus@InfoList@@UAEXXZ 0055cea0 f   infolist.obj
 0001:0015bef0       ?GetCurName@InfoList@@UAEHAAVUnicodeString@@0@Z 0055cef0 f   infolist.obj
 0001:0015bf20       ?UpdateKeyBar@InfoList@@UAEXXZ 0055cf20 f   infolist.obj
 0001:0015bf50       ?UpdateIfChanged@InfoList@@UAEHW4panel_update_mode@@@Z 0055cf50 f   infolist.obj
 0001:0015bfb0       ??R<lambda4>@?A0xe250a7f3@@QBEHH@Z 0055cfb0 f i infolist.obj
 0001:0015c030       ?_Target_type@?$_Impl_no_alloc1@U?$_Callable_obj@V<lambda4>@?A0xe250a7f3@@$0A@@tr1@std@@HH@tr1@std@@UBEABVtype_info@@XZ 0055d030 f i infolist.obj
 0001:0015c040       ??_E?$_Impl_no_alloc1@U?$_Callable_obj@V<lambda4>@?A0xe250a7f3@@$0A@@tr1@std@@HH@tr1@std@@UAEPAXI@Z 0055d040 f i infolist.obj
 0001:0015c040       ??_G?$_Impl_no_alloc1@U?$_Callable_obj@V<lambda4>@?A0xe250a7f3@@$0A@@tr1@std@@HH@tr1@std@@UAEPAXI@Z 0055d040 f i infolist.obj
 0001:0015c0a0       ?_Copy@?$_Impl_no_alloc1@U?$_Callable_obj@V<lambda4>@?A0xe250a7f3@@$0A@@tr1@std@@HH@tr1@std@@UAEPAV?$_Impl_base1@HH@23@PAX@Z 0055d0a0 f i infolist.obj
 0001:0015c150       ?_Do_call@?$_Impl_no_alloc1@U?$_Callable_obj@V<lambda4>@?A0xe250a7f3@@$0A@@tr1@std@@HH@tr1@std@@UAEHH@Z 0055d150 f i infolist.obj
 0001:0015c160       ??$for_each_cnt@PAUInfoListSectionState@InfoList@@V<lambda2>@?A0xe250a7f3@@@@YA?AV<lambda2>@?A0xe250a7f3@@PAUInfoListSectionState@InfoList@@0V01@@Z 0055d160 f i infolist.obj
 0001:0015c1b0       ??YStringOption@@QAEAAV0@ABVUnicodeString@@@Z 0055d1b0 f i infolist.obj
 0001:0015c270       ??0InfoList@@QAE@XZ        0055d270 f   infolist.obj
 0001:0015c3a0       ?FileInFilter@Panel@@UAE_NI@Z 0055d3a0 f i infolist.obj
 0001:0015c3a0       ?Import@XmlConfig@@UAE_NABVTiXmlHandle@tinyxml@@@Z 0055d3a0 f i configdb.obj
 0001:0015c3b0       ?FilterIsEnabled@Panel@@UAE_NXZ 0055d3b0 f i infolist.obj
 0001:0015c3b0       ?IsDizDisplayed@Panel@@UAE_NXZ 0055d3b0 f i infolist.obj
 0001:0015c3b0       ?GetSelectedFirstMode@Panel@@UAE_NXZ 0055d3b0 f i infolist.obj
 0001:0015c3b0       ?IsOemPlugin@Plugin@@UBE_NXZ 0055d3b0 f i plclass.obj
 0001:0015c3c0       ?SetPluginMode@Panel@@UAEXPAXABVUnicodeString@@_N@Z 0055d3c0 f i infolist.obj
 0001:0015c3c0       ?ReadDiz@Panel@@UAEXPAUPluginPanelItem@@HK@Z 0055d3c0 f i infolist.obj
 0001:0015c3d0       ?Changed@Edit@@UAEX_N@Z    0055d3d0 f i edit.obj
 0001:0015c3d0       ?SortFileList@Panel@@UAEXH@Z 0055d3d0 f i infolist.obj
 0001:0015c3d0       ?SetInputMask@Edit@@EAEXABVUnicodeString@@@Z 0055d3d0 f i edit.obj
 0001:0015c3d0       ?IfGoHome@Panel@@UAEX_W@Z  0055d3d0 f i infolist.obj
 0001:0015c3d0       ?SetPrevCurPos@Edit@@EAEXH@Z 0055d3d0 f i edit.obj
 0001:0015c3d0       ?GetDizName@Panel@@UAEXAAVUnicodeString@@@Z 0055d3d0 f i infolist.obj
 0001:0015c3d0       ?FreeCustomData@PluginA@wrapper@@UAEXPA_W@Z 0055d3d0 f i PluginA.obj
 0001:0015c3d0       ?SetReturnCurrentFile@Panel@@UAEXH@Z 0055d3d0 f i infolist.obj
 0001:0015c3d0       ?GetOpenPanelInfo@Panel@@UAEXPAUOpenPanelInfo@@@Z 0055d3d0 f i infolist.obj
 0001:0015c3d0       ?SetCursorSize@Edit@@EAEXH@Z 0055d3d0 f i edit.obj
 0001:0015c3d0       ?CloseAnalyse@PluginA@wrapper@@UAEXPAX@Z 0055d3d0 f i PluginA.obj
 0001:0015c3d0       ?RefreshStrByMask@Edit@@MAEXH@Z 0055d3d0 f i edit.obj
 0001:0015c3d0       ?MoveToMouse@Panel@@UAEXPBU_MOUSE_EVENT_RECORD@@@Z 0055d3d0 f i infolist.obj
 0001:0015c3d0       ?SetSelectedFirstMode@Panel@@UAEX_N@Z 0055d3d0 f i infolist.obj
 0001:0015c3d0       ?Update@dummy_panel@@EAEXH@Z 0055d3d0 f i main.obj
 0001:0015c3e0       ?CopyDiz@Panel@@UAEXABVUnicodeString@@000PAVDizList@@@Z 0055d3e0 f i infolist.obj
 0001:0015c3f0       ?IsColumnDisplayed@Panel@@UAE_NH@Z 0055d3f0 f i infolist.obj
 0001:0015c400       ?OpenFilePlugin@Plugin@@UAEPAXPB_WPBEIH@Z 0055d400 f i plclass.obj
 0001:0015c400       ?FindPartName@Panel@@UAEHABVUnicodeString@@HHH@Z 0055d400 f i infolist.obj
 0001:0015c400       ?GetSelName@Panel@@UAEHPAVUnicodeString@@AAK0PAUFAR_FIND_DATA@@@Z 0055d400 f i infolist.obj
 0001:0015c410       ?GetLastSelectedSize@Panel@@UAE_KXZ 0055d410 f i infolist.obj
 0001:0015c420       ?GetFileName@Panel@@UAEHAAVUnicodeString@@HAAK@Z 0055d420 f i infolist.obj
 0001:0015c430       ?GetPlainString@Panel@@UAE_NAAVUnicodeString@@H@Z 0055d430 f i infolist.obj
 0001:0015c440       ?GoToFile@Panel@@UAEHJ@Z   0055d440 f i infolist.obj
 0001:0015c450       ?GoToFile@Panel@@UAEHABVUnicodeString@@H@Z 0055d450 f i infolist.obj
 0001:0015c460       ?TextWidth@?$DialogBuilderBase@UDialogItemEx@@@@MAEHABUDialogItemEx@@@Z 0055d460 f i FarDlgBuilder.obj
 0001:0015c460       ?FindFirst@Panel@@UAEJABVUnicodeString@@@Z 0055d460 f i infolist.obj
 0001:0015c470       ?FindNext@Panel@@UAEJHABVUnicodeString@@@Z 0055d470 f i infolist.obj
 0001:0015c470       ?FindFile@Panel@@UAEJABVUnicodeString@@H@Z 0055d470 f i infolist.obj
 0001:0015c480       ?GetPrevViewMode@Panel@@UAEHXZ 0055d480 f i infolist.obj
 0001:0015c490       ?GetPrevSortMode@Panel@@UAEHXZ 0055d490 f i infolist.obj
 0001:0015c4a0       ?GetPrevSortOrder@Panel@@UAEHXZ 0055d4a0 f i infolist.obj
 0001:0015c4b0       ?GetPrevNumericSort@Panel@@UAE_NXZ 0055d4b0 f i infolist.obj
 0001:0015c4c0       ?GetPrevCaseSensitiveSort@Panel@@UAE_NXZ 0055d4c0 f i infolist.obj
 0001:0015c4d0       ?GetPrevDirectoriesFirst@Panel@@UAE_NXZ 0055d4d0 f i infolist.obj
 0001:0015c4e0       ?SetSortMode@Panel@@UAEXH@Z 0055d4e0 f i infolist.obj
 0001:0015c4f0       ??_EInfoList@@GBM@AEPAXI@Z 0055d4f0 f i infolist.obj
 0001:0015c500       ??1InfoList@@EAE@XZ        0055d500 f   infolist.obj
 0001:0015c5e0       ?GetTitle@InfoList@@UAEAAVUnicodeString@@AAV2@HH@Z 0055d5e0 f   infolist.obj
 0001:0015c690       ?PrintInfo@InfoList@@AAEXABVUnicodeString@@@Z 0055d690 f   infolist.obj
 0001:0015c7f0       ?clear@StringOption@@QAEXXZ 0055d7f0 f i infolist.obj
 0001:0015c8d0       ??_EInfoList@@EAEPAXI@Z    0055d8d0 f i infolist.obj
 0001:0015c8d0       ??_GInfoList@@EAEPAXI@Z    0055d8d0 f i infolist.obj
 0001:0015c900       ?DrawTitle@InfoList@@AAEXAAVUnicodeString@@HAAH@Z 0055d900 f   infolist.obj
 0001:0015cad0       ?PrintText@InfoList@@AAEXW4LNGID@@@Z 0055dad0 f   infolist.obj
 0001:0015cbf0       ?PrintInfo@InfoList@@AAEXW4LNGID@@@Z 0055dbf0 f   infolist.obj
 0001:0015cce0       ?ShowPluginDescription@InfoList@@AAE_NH@Z 0055dce0 f   infolist.obj
 0001:0015d270       ?OpenDizFile@InfoList@@AAEHABVUnicodeString@@H@Z 0055e270 f   infolist.obj
 0001:0015d510       ??$_For_each@PAUInfoListSectionState@InfoList@@V<lambda5>@?A0xe250a7f3@@@std@@YA?AV<lambda5>@?A0xe250a7f3@@PAUInfoListSectionState@InfoList@@0V12@@Z 0055e510 f i infolist.obj
 0001:0015d620       ?ShowDirDescription@InfoList@@AAE_NH@Z 0055e620 f   infolist.obj
 0001:0015d980       ?DisplayObject@InfoList@@EAEXXZ 0055e980 f   infolist.obj
 0001:0015f320       ?SelectShowMode@InfoList@@AAEXXZ 00560320 f   infolist.obj
 0001:0015f720       ?ProcessKey@InfoList@@UAEHH@Z 00560720 f   infolist.obj
 0001:0015fbb0       ??0consoleicons@@QAE@XZ    00560bb0 f   interf.obj
 0001:0015fbd0       ?setFarIcons@consoleicons@@QAEXXZ 00560bd0 f   interf.obj
 0001:0015fcc0       ?restorePreviousIcons@consoleicons@@QAEXXZ 00560cc0 f   interf.obj
 0001:0015fd30       ?ChangeConsoleMode@@YAXHH@Z 00560d30 f   interf.obj
 0001:0015fdb0       ?SaveConsoleWindowRect@@YAXXZ 00560db0 f   interf.obj
 0001:0015fdd0       ?RestoreConsoleWindowRect@@YAXXZ 00560dd0 f   interf.obj
 0001:0015fe50       ?FlushInputBuffer@@YAXXZ   00560e50 f   interf.obj
 0001:0015fe80       ?GenerateWINDOW_BUFFER_SIZE_EVENT@@YAXHH@Z 00560e80 f   interf.obj
 0001:0015ff20       ?GetVideoMode@@YAXAAU_COORD@@@Z 00560f20 f   interf.obj
 0001:0015ffb0       ?GotoXY@@YAXHH@Z           00560fb0 f   interf.obj
 0001:0015ffd0       ?WhereX@@YAHXZ             00560fd0 f   interf.obj
 0001:0015ffe0       ?WhereY@@YAHXZ             00560fe0 f   interf.obj
 0001:0015fff0       ?MoveCursor@@YAXHH@Z       00560ff0 f   interf.obj
 0001:00160010       ?GetCursorPos@@YAXAAF0@Z   00561010 f   interf.obj
 0001:00160030       ?SetInitialCursorType@@YAXXZ 00561030 f   interf.obj
 0001:00160060       ?GetCursorType@@YAXAA_NAAK@Z 00561060 f   interf.obj
 0001:00160080       ?MoveRealCursor@@YAXHH@Z   00561080 f   interf.obj
 0001:001600b0       ?SetScreen@@YAXHHHH_WABUFarColor@@@Z 005610b0 f   interf.obj
 0001:00160110       ?MakeShadow@@YAXHHHH@Z     00561110 f   interf.obj
 0001:00160160       ?ChangeBlockColor@@YAXHHHHABUFarColor@@@Z 00561160 f   interf.obj
 0001:001601c0       ?SetColor@@YAXW4PaletteColors@@@Z 005611c0 f   interf.obj
 0001:001601c0       ?SetColor@@YAXH@Z          005611c0 f   interf.obj
 0001:00160210       ?SetColor@@YAXABUFarColor@@@Z 00561210 f   interf.obj
 0001:00160250       ?SetRealColor@@YAXABUFarColor@@@Z 00561250 f   interf.obj
 0001:00160270       ?ClearScreen@@YAXABUFarColor@@@Z 00561270 f   interf.obj
 0001:00160310       ?GetColor@@YAABUFarColor@@XZ 00561310 f   interf.obj
 0001:00160320       ?ScrollScreen@@YAXH@Z      00561320 f   interf.obj
 0001:001603a0       ?GetText@@YAXHHHHPAUFAR_CHAR_INFO@@I@Z 005613a0 f   interf.obj
 0001:001603d0       ?PutText@@YAXHHHHPBUFAR_CHAR_INFO@@@Z 005613d0 f   interf.obj
 0001:00160420       ?ScrollBarRequired@@YA_NI_K@Z 00561420 f   interf.obj
 0001:00160460       ?MakeSeparator@@YAPA_WHPA_WHPB_W@Z 00561460 f   interf.obj
 0001:00160680       ?IsConsoleFullscreen@@YA_NXZ 00561680 f   interf.obj
 0001:00160720       ?SetFarConsoleMode@@YAXH@Z 00561720 f   interf.obj
 0001:00160860       ?ChangeVideoMode@@YAXHH@Z  00561860 f   interf.obj
 0001:00160990       ?SetCursorType@@YAX_NK@Z   00561990 f   interf.obj
 0001:001609f0       ?CancelSynchronousIoWrapper@@YAIPAX@Z 005619f0 f   interf.obj
 0001:00160a20       ?ChangeVideoMode@@YAXH@Z   00561a20 f   interf.obj
 0001:00160ae0       ?_Target_type@?$_Impl_no_alloc1@U?$_Callable_fun@Q6AIPAX@Z$0A@@tr1@std@@IPAX@tr1@std@@UBEABVtype_info@@XZ 00561ae0 f i interf.obj
 0001:00160af0       ??_E?$_Impl_no_alloc1@U?$_Callable_fun@Q6AIPAX@Z$0A@@tr1@std@@IPAX@tr1@std@@UAEPAXI@Z 00561af0 f i interf.obj
 0001:00160af0       ??_G?$_Impl_no_alloc1@U?$_Callable_fun@Q6AIPAX@Z$0A@@tr1@std@@IPAX@tr1@std@@UAEPAXI@Z 00561af0 f i interf.obj
 0001:00160b50       ?_Do_call@?$_Impl_no_alloc1@U?$_Callable_fun@Q6AIPAX@Z$0A@@tr1@std@@IPAX@tr1@std@@UAEIPAX@Z 00561b50 f i interf.obj
 0001:00160b70       ?_Copy@?$_Impl_no_alloc1@U?$_Callable_fun@Q6AIPAX@Z$0A@@tr1@std@@IPAX@tr1@std@@UAEPAV?$_Impl_base1@IPAX@23@PAX@Z 00561b70 f i interf.obj
 0001:00160c20       ??1?$_Callable_base@V?$function@$$A6AIPAX@Z@tr1@std@@$0A@@tr1@std@@QAE@XZ 00561c20 f i interf.obj
 0001:00160c80       ?SetVideoMode@@YAXXZ       00561c80 f   interf.obj
 0001:00160d00       ?InitRecodeOutTable@@YAXXZ 00561d00 f   interf.obj
 0001:00160f90       ?HiStrlen@@YAHABVUnicodeString@@@Z 00561f90 f   interf.obj
 0001:00161000       ?HiFindRealPos@@YAHABVUnicodeString@@HH@Z 00562000 f   interf.obj
 0001:00161060       ?HiFindNextVisualPos@@YAHABVUnicodeString@@HH@Z 00562060 f   interf.obj
 0001:00161100       ??1?$_Callable_obj@V?$function@$$A6AIPAX@Z@tr1@std@@$0A@@tr1@std@@QAE@XZ 00562100 f i interf.obj
 0001:00161160       ??1?$_Bind0@U?$_Callable_obj@V?$function@$$A6AIPAX@Z@tr1@std@@$0A@@tr1@std@@@tr1@std@@QAE@XZ 00562160 f i interf.obj
 0001:001611c0       ?HiText2Str@@YAAAVUnicodeString@@AAV1@ABV1@@Z 005621c0 f   interf.obj
 0001:00161420       ??$?0P6AIPAX@Z@?$function@$$A6AIPAX@Z@tr1@std@@QAE@P6AIPAX@Z@Z 00562420 f i interf.obj
 0001:001614a0       ??0?$_Bind1@U?$_Callable_obj@V?$function@$$A6AIPAX@Z@tr1@std@@$0A@@tr1@std@@PAX@tr1@std@@QAE@V?$function@$$A6AIPAX@Z@12@PAX@Z 005624a0 f i interf.obj
 0001:00161540       ??1?$_Bind1@U?$_Callable_obj@V?$function@$$A6AIPAX@Z@tr1@std@@$0A@@tr1@std@@PAX@tr1@std@@QAE@XZ 00562540 f i interf.obj
 0001:001615a0       ??0?$stack@UFarDialogEvent@@V?$deque@UFarDialogEvent@@V?$allocator@UFarDialogEvent@@@std@@@std@@@std@@QAE@XZ 005625a0 f i PluginA.obj
 0001:001615a0       ??0?$queue@KV?$deque@KV?$allocator@K@std@@@std@@@std@@QAE@XZ 005625a0 f i interf.obj
 0001:00161660       ??0?$_Bind_base@U_Notforced@tr1@std@@V?$_Bind1@U?$_Callable_obj@V?$function@$$A6AIPAX@Z@tr1@std@@$0A@@tr1@std@@PAX@23@@tr1@std@@QAE@V?$_Bind1@U?$_Callable_obj@V?$function@$$A6AIPAX@Z@tr1@std@@$0A@@tr1@std@@PAX@12@@Z 00562660 f i interf.obj
 0001:00161700       ??1?$_Bind_base@U_Notforced@tr1@std@@V?$_Bind1@U?$_Callable_obj@V?$function@$$A6AIPAX@Z@tr1@std@@$0A@@tr1@std@@PAX@23@@tr1@std@@QAE@XZ 00562700 f i interf.obj
 0001:00161760       ??0?$_Bind_fty@V?$function@$$A6AIPAX@Z@tr1@std@@U_Notforced@23@V?$_Bind1@U?$_Callable_obj@V?$function@$$A6AIPAX@Z@tr1@std@@$0A@@tr1@std@@PAX@23@@tr1@std@@QAE@V?$_Bind1@U?$_Callable_obj@V?$function@$$A6AIPAX@Z@tr1@std@@$0A@@tr1@std@@PAX@12@@Z 00562760 f i interf.obj
 0001:00161810       ??1?$_Bind_fty@V?$function@$$A6AIPAX@Z@tr1@std@@U_Notforced@23@V?$_Bind1@U?$_Callable_obj@V?$function@$$A6AIPAX@Z@tr1@std@@$0A@@tr1@std@@PAX@23@@tr1@std@@QAE@XZ 00562810 f i interf.obj
 0001:00161870       ??$bind@V?$function@$$A6AIPAX@Z@tr1@std@@PAX@tr1@std@@YA?AV?$_Bind_fty@V?$function@$$A6AIPAX@Z@tr1@std@@U_Notforced@23@V?$_Bind1@U?$_Callable_obj@V?$function@$$A6AIPAX@Z@tr1@std@@$0A@@tr1@std@@PAX@23@@01@V?$function@$$A6AIPAX@Z@01@PAX@Z 00562870 f i interf.obj
 0001:00161a00       ??$Wrapper@V?$_Bind_fty@V?$function@$$A6AIPAX@Z@tr1@std@@U_Notforced@23@V?$_Bind1@U?$_Callable_obj@V?$function@$$A6AIPAX@Z@tr1@std@@$0A@@tr1@std@@PAX@23@@tr1@std@@@Thread@@CGIPAX@Z 00562a00 f i interf.obj
 0001:00161b10       ?Text@@YAXABVUnicodeString@@@Z 00562b10 f   interf.obj
 0001:00161c50       ?Text@@YAXW4LNGID@@@Z      00562c50 f   interf.obj
 0001:00161d40       ?VText@@YAXABVUnicodeString@@@Z 00562d40 f   interf.obj
 0001:00161e50       ?HiText@@YAXABVUnicodeString@@ABUFarColor@@H@Z 00562e50 f   interf.obj
 0001:00162210       ?BoxText@@YAXABVUnicodeString@@H@Z 00563210 f   interf.obj
 0001:00162240       ?Box@@YAXHHHHABUFarColor@@H@Z 00563240 f   interf.obj
 0001:00162650       ?ScrollBarEx3@@YA_NIII_K00@Z 00563650 f   interf.obj
 0001:00162950       ?DrawLine@@YAXHHPB_W@Z     00563950 f   interf.obj
 0001:00162b40       ??$Starter@V?$_Bind_fty@V?$function@$$A6AIPAX@Z@tr1@std@@U_Notforced@23@V?$_Bind1@U?$_Callable_obj@V?$function@$$A6AIPAX@Z@tr1@std@@$0A@@tr1@std@@PAX@23@@tr1@std@@@Thread@@AAE_N$$QAV?$_Bind_fty@V?$function@$$A6AIPAX@Z@tr1@std@@U_Notforced@23@V?$_Bind1@U?$_Callable_obj@V?$function@$$A6AIPAX@Z@tr1@std@@$0A@@tr1@std@@PAX@23@@tr1@std@@@Z 00563b40 f i interf.obj
 0001:00162c40       ?Start@Thread@@QAE_NV?$function@$$A6AIPAX@Z@tr1@std@@PAX@Z 00563c40 f i interf.obj
 0001:00162d30       ?CtrlHandler@@YGHK@Z       00563d30 f   interf.obj
 0001:00162f50       ?InitConsole@@YAXH@Z       00563f50 f   interf.obj
 0001:001632e0       ?CloseConsole@@YAXXZ       005642e0 f   interf.obj
 0001:00163520       ?ShowTime@@YAXH@Z          00564520 f   interf.obj
 0001:001636e0       ?Text@@YAXHHABUFarColor@@ABVUnicodeString@@@Z 005646e0 f   interf.obj
 0001:00163740       ?BoxText@@YAX_W@Z          00564740 f   interf.obj
 0001:00163810       ?ScrollBarEx@@YA_NIII_K0@Z 00564810 f   interf.obj
 0001:00163870       ?RedrawIfChanged@KeyBar@@QAEXXZ 00564870 f   keybar.obj
 0001:001638a0       ?ProcessKey@KeyBar@@UAEHH@Z 005648a0 f   keybar.obj
 0001:001638f0       ?ProcessMouse@KeyBar@@UAEHPBU_MOUSE_EVENT_RECORD@@@Z 005648f0 f   keybar.obj
 0001:00163ac0       ??$_Move@PAUtitles@KeyBar@@PAU12@@std@@YAPAUtitles@KeyBar@@PAU12@00U_Nonscalar_ptr_iterator_tag@0@@Z 00564ac0 f i keybar.obj
 0001:00163b00       ??$_For_each@PAV?$vector@Utitles@KeyBar@@V?$allocator@Utitles@KeyBar@@@std@@@std@@V<lambda3>@?A0x0887d536@@@std@@YA?AV<lambda3>@?A0x0887d536@@PAV?$vector@Utitles@KeyBar@@V?$allocator@Utitles@KeyBar@@@std@@@0@0V12@@Z 00564b00 f i keybar.obj
 0001:00163b60       ??0titles@KeyBar@@QAE@XZ   00564b60 f i keybar.obj
 0001:00163be0       ??0titles@KeyBar@@QAE@ABU01@@Z 00564be0 f i keybar.obj
 0001:00163c80       ?Change@KeyBar@@QAEXHPB_WH@Z 00564c80 f   keybar.obj
 0001:00163cd0       ?Change@KeyBar@@QAEIPBUKeyBarTitles@@@Z 00564cd0 f   keybar.obj
 0001:00163dd0       ??$_For_each@V?$_List_unchecked_const_iterator@V?$_List_val@VUnicodeString@@V?$allocator@VUnicodeString@@@std@@@std@@U_Iterator_base0@2@@std@@V<lambda2>@?A0x0887d536@@@std@@YA?AV<lambda2>@?A0x0887d536@@V?$_List_unchecked_const_iterator@V?$_List_val@VUnicodeString@@V?$allocator@VUnicodeString@@@std@@@std@@U_Iterator_base0@2@@0@0V12@@Z 00564dd0 f i keybar.obj
 0001:00163e60       ??$_For_each@PAUtitles@KeyBar@@V<lambda6>@?A0x0887d536@@@std@@YA?AV<lambda6>@?A0x0887d536@@PAUtitles@KeyBar@@0V12@@Z 00564e60 f i keybar.obj
 0001:00163ee0       ??$_For_each@PAV?$vector@Utitles@KeyBar@@V?$allocator@Utitles@KeyBar@@@std@@@std@@V<lambda8>@?A0x0887d536@@@std@@YA?AV<lambda8>@?A0x0887d536@@PAV?$vector@Utitles@KeyBar@@V?$allocator@Utitles@KeyBar@@@std@@@0@0V12@@Z 00564ee0 f i keybar.obj
 0001:00163f30       ??$_Cons_val@V?$allocator@Utitles@KeyBar@@@std@@Utitles@KeyBar@@U34@@std@@YAXAAV?$allocator@Utitles@KeyBar@@@0@PAUtitles@KeyBar@@$$QAU23@@Z 00564f30 f i keybar.obj
 0001:00163f90       ?SetCustomLabels@KeyBar@@QAEXW4KEYBARAREA@@@Z 00564f90 f   keybar.obj
 0001:001642b0       ??$_For_each@PAV?$vector@Utitles@KeyBar@@V?$allocator@Utitles@KeyBar@@@std@@@std@@V<lambda5>@?A0x0887d536@@@std@@YA?AV<lambda5>@?A0x0887d536@@PAV?$vector@Utitles@KeyBar@@V?$allocator@Utitles@KeyBar@@@std@@@0@0V12@@Z 005652b0 f i keybar.obj
 0001:00164300       ??$_Uninit_move@PAUtitles@KeyBar@@PAU12@V?$allocator@Utitles@KeyBar@@@std@@U12@@std@@YAPAUtitles@KeyBar@@PAU12@00AAV?$allocator@Utitles@KeyBar@@@0@0U_Nonscalar_ptr_iterator_tag@0@@Z 00565300 f i keybar.obj
 0001:001643a0       ??$_Uninit_def_fill_n@PAUtitles@KeyBar@@IU12@V?$allocator@Utitles@KeyBar@@@std@@U12@@std@@YAXPAUtitles@KeyBar@@IPBU12@AAV?$allocator@Utitles@KeyBar@@@0@0U_Nonscalar_ptr_iterator_tag@0@@Z 005653a0 f i keybar.obj
 0001:00164450       ?SetLabels@KeyBar@@QAEXW4LNGID@@@Z 00565450 f   keybar.obj
 0001:00164480       ??$_Umove@PAUtitles@KeyBar@@@?$vector@Utitles@KeyBar@@V?$allocator@Utitles@KeyBar@@@std@@@std@@IAEPAUtitles@KeyBar@@PAU23@00@Z 00565480 f i keybar.obj
 0001:001644b0       ?reserve@?$vector@Utitles@KeyBar@@V?$allocator@Utitles@KeyBar@@@std@@@std@@QAEXI@Z 005654b0 f i keybar.obj
 0001:001645a0       ?DisplayObject@KeyBar@@EAEXXZ 005655a0 f   keybar.obj
 0001:00164a10       ?_Reserve@?$vector@Utitles@KeyBar@@V?$allocator@Utitles@KeyBar@@@std@@@std@@IAEXI@Z 00565a10 f i keybar.obj
 0001:00164a70       ?resize@?$vector@Utitles@KeyBar@@V?$allocator@Utitles@KeyBar@@@std@@@std@@QAEXI@Z 00565a70 f i keybar.obj
 0001:00164b20       ??$_Move@PAV?$vector@Utitles@KeyBar@@V?$allocator@Utitles@KeyBar@@@std@@@std@@PAV12@@std@@YAPAV?$vector@Utitles@KeyBar@@V?$allocator@Utitles@KeyBar@@@std@@@0@PAV10@00U_Nonscalar_ptr_iterator_tag@0@@Z 00565b20 f i keybar.obj
 0001:00164ba0       ??$_Cons_val@V?$allocator@V?$vector@Utitles@KeyBar@@V?$allocator@Utitles@KeyBar@@@std@@@std@@@std@@V?$vector@Utitles@KeyBar@@V?$allocator@Utitles@KeyBar@@@std@@@2@V32@@std@@YAXAAV?$allocator@V?$vector@Utitles@KeyBar@@V?$allocator@Utitles@KeyBar@@@std@@@std@@@0@PAV?$vector@Utitles@KeyBar@@V?$allocator@Utitles@KeyBar@@@std@@@0@$$QAV20@@Z 00565ba0 f i keybar.obj
 0001:00164c20       ??$_Uninit_move@PAV?$vector@Utitles@KeyBar@@V?$allocator@Utitles@KeyBar@@@std@@@std@@PAV12@V?$allocator@V?$vector@Utitles@KeyBar@@V?$allocator@Utitles@KeyBar@@@std@@@std@@@2@V12@@std@@YAPAV?$vector@Utitles@KeyBar@@V?$allocator@Utitles@KeyBar@@@std@@@0@PAV10@00AAV?$allocator@V?$vector@Utitles@KeyBar@@V?$allocator@Utitles@KeyBar@@@std@@@std@@@0@0U_Nonscalar_ptr_iterator_tag@0@@Z 00565c20 f i keybar.obj
 0001:00164cd0       ??$_Uninit_def_fill_n@PAV?$vector@Utitles@KeyBar@@V?$allocator@Utitles@KeyBar@@@std@@@std@@IV12@V?$allocator@V?$vector@Utitles@KeyBar@@V?$allocator@Utitles@KeyBar@@@std@@@std@@@2@V12@@std@@YAXPAV?$vector@Utitles@KeyBar@@V?$allocator@Utitles@KeyBar@@@std@@@0@IPBV10@AAV?$allocator@V?$vector@Utitles@KeyBar@@V?$allocator@Utitles@KeyBar@@@std@@@std@@@0@0U_Nonscalar_ptr_iterator_tag@0@@Z 00565cd0 f i keybar.obj
 0001:00164d90       ??$_Umove@PAV?$vector@Utitles@KeyBar@@V?$allocator@Utitles@KeyBar@@@std@@@std@@@?$vector@V?$vector@Utitles@KeyBar@@V?$allocator@Utitles@KeyBar@@@std@@@std@@V?$allocator@V?$vector@Utitles@KeyBar@@V?$allocator@Utitles@KeyBar@@@std@@@std@@@2@@std@@IAEPAV?$vector@Utitles@KeyBar@@V?$allocator@Utitles@KeyBar@@@std@@@1@PAV21@00@Z 00565d90 f i keybar.obj
 0001:00164dc0       ?reserve@?$vector@V?$vector@Utitles@KeyBar@@V?$allocator@Utitles@KeyBar@@@std@@@std@@V?$allocator@V?$vector@Utitles@KeyBar@@V?$allocator@Utitles@KeyBar@@@std@@@std@@@2@@std@@QAEXI@Z 00565dc0 f i keybar.obj
 0001:00164ea0       ?_Reserve@?$vector@V?$vector@Utitles@KeyBar@@V?$allocator@Utitles@KeyBar@@@std@@@std@@V?$allocator@V?$vector@Utitles@KeyBar@@V?$allocator@Utitles@KeyBar@@@std@@@std@@@2@@std@@IAEXI@Z 00565ea0 f i keybar.obj
 0001:00164f00       ?resize@?$vector@V?$vector@Utitles@KeyBar@@V?$allocator@Utitles@KeyBar@@@std@@@std@@V?$allocator@V?$vector@Utitles@KeyBar@@V?$allocator@Utitles@KeyBar@@@std@@@std@@@2@@std@@QAEXI@Z 00565f00 f i keybar.obj
 0001:00164fa0       ??0KeyBar@@QAE@XZ          00565fa0 f   keybar.obj
 0001:00165050       ?KeyToKeyLayoutCompare@@YA_NHH@Z 00566050 f   keyboard.obj
 0001:00165090       ?KeyToKeyLayout@@YAHH@Z    00566090 f   keyboard.obj
 0001:001650c0       ?SetFLockState@@YAHIH@Z    005660c0 f   keyboard.obj
 0001:00165150       ?ProcessKeyToInputRecord@@YAXHIPAU_INPUT_RECORD@@@Z 00566150 f   keyboard.obj
 0001:001651d0       ?FarKeyToInputRecord@@YAXABUFarKey@@PAU_INPUT_RECORD@@@Z 005661d0 f   keyboard.obj
 0001:00165280       ?IsRepeatedKey@@YA_NXZ     00566280 f   keyboard.obj
 0001:00165290       ?ConfirmAbortOp@@YA_NXZ    00566290 f   keyboard.obj
 0001:001652c0       ??$_Any_of@PBQAUHKL__@@V<lambda2>@?A0x74a72354@@@std@@YA_NPBQAUHKL__@@0V<lambda2>@?A0x74a72354@@@Z 005662c0 f i keyboard.obj
 0001:00165310       ?InitKeysArray@@YAXXZ      00566310 f   keyboard.obj
 0001:001655e0       ?CalcKeyCode@@YAKPAU_INPUT_RECORD@@HPAH_N@Z 005665e0 f   keyboard.obj
 0001:00167ba0       ??$any_of@PBQAUHKL__@@V<lambda2>@?A0x74a72354@@@std@@YA_NPBQAUHKL__@@0V<lambda2>@?A0x74a72354@@@Z 00568ba0 f i keyboard.obj
 0001:00167bc0       ??$find@PBKK@std@@YAPBKPBK0ABK@Z 00568bc0 f i keyboard.obj
 0001:00167be0       ?TranslateKeyToVK@@YAHHAAH0PAU_INPUT_RECORD@@@Z 00568be0 f   keyboard.obj
 0001:001680d0       ?IsNavKey@@YAHK@Z          005690d0 f   keyboard.obj
 0001:00168110       ?IsShiftKey@@YAHK@Z        00569110 f   keyboard.obj
 0001:00168140       ?ShieldCalcKeyCode@@YAKPAU_INPUT_RECORD@@HPAH_N@Z 00569140 f   keyboard.obj
 0001:001681a0       ?InputRecordToKey@@YAHPBU_INPUT_RECORD@@@Z 005691a0 f   keyboard.obj
 0001:00168220       ?KeyToInputRecord@@YAHHPAU_INPUT_RECORD@@@Z 00569220 f   keyboard.obj
 0001:00168250       ?ReloadEnvironment@@YAXXZ  00569250 f   keyboard.obj
 0001:001687c0       ?KeyNameToKey@@YAHABVUnicodeString@@@Z 005697c0 f   keyboard.obj
 0001:00168ba0       ?KeyToText@@YAHHAAVUnicodeString@@@Z 00569ba0 f   keyboard.obj
 0001:00168f20       ?PeekInputRecord@@YAKPAU_INPUT_RECORD@@_N@Z 00569f20 f   keyboard.obj
 0001:00169000       ?WriteInput@@YAHHK@Z       0056a000 f   keyboard.obj
 0001:001690f0       ?InputRecordToText@@YA_NPBU_INPUT_RECORD@@AAVUnicodeString@@@Z 0056a0f0 f   keyboard.obj
 0001:0016a460       ?GetInputRecord@@YAKPAU_INPUT_RECORD@@_N11@Z 0056b460 f   keyboard.obj
 0001:0016a570       ?GetInputRecordNoMacroArea@@YAKPAU_INPUT_RECORD@@_N@Z 0056b570 f   keyboard.obj
 0001:0016a5b0       ?WaitKey@@YAKKK_N@Z        0056b5b0 f   keyboard.obj
 0001:0016a700       ?CheckForEscSilent@@YA_NXZ 0056b700 f   keyboard.obj
 0001:0016a860       ?CheckForEsc@@YA_NXZ       0056b860 f   keyboard.obj
 0001:0016a8a0       ?IsMouseButtonPressed@@YAKXZ 0056b8a0 f   keyboard.obj
 0001:0016a8f0       ?ConvertString@@YAXPB_WAAVUnicodeString@@@Z 0056b8f0 f   language.obj
 0001:0016aa80       ?Free@Language@@AAEXXZ     0056ba80 f   language.obj
 0001:0016aae0       ?Close@Language@@QAEXXZ    0056bae0 f   language.obj
 0001:0016aba0       ??0Language@@QAE@XZ        0056bba0 f   language.obj
 0001:0016ac20       ??1Language@@QAE@XZ        0056bc20 f   language.obj
 0001:0016aca0       ?GetLangParam@@YAHAAVFile@@ABVUnicodeString@@PAV2@2I@Z 0056bca0 f   language.obj
 0001:0016aef0       ?GetOptionsParam@@YAHAAVFile@@PB_WAAVUnicodeString@@I@Z 0056bef0 f   language.obj
 0001:0016b190       ?CheckMsgId@Language@@ABE_NW4LNGID@@@Z 0056c190 f   language.obj
 0001:0016b340       ?GetMsg@Language@@QBEPB_WW4LNGID@@@Z 0056c340 f   language.obj
 0001:0016b3b0       ?GetMsgA@Language@@QBEPBDW4LNGID@@@Z 0056c3b0 f   language.obj
 0001:0016be30       ?SelectInterfaceLanguage@@YA_NXZ 0056ce30 f   language.obj
 0001:0016be40       ?SelectHelpLanguage@@YA_NXZ 0056ce40 f   language.obj
 0001:0016be50       ?OpenLangFile@@YA_NAAVFile@@ABVUnicodeString@@11AAV2@AAI_NPAV2@@Z 0056ce50 f   language.obj
 0001:0016c1d0       ?Init@Language@@QAE_NABVUnicodeString@@H@Z 0056d1d0 f   language.obj
 0001:0016c720       ?InitA@Language@@QAE_NABVUnicodeString@@H@Z 0056d720 f   language.obj
 0001:0016c730       ?StrStr@@YAPB_WPB_W0@Z     0056d730 f   local.obj
 0001:0016c7a0       ?StrStrI@@YAPB_WPB_W0@Z    0056d7a0 f   local.obj
 0001:0016c850       ?RevStrStrI@@YAPB_WPB_W0@Z 0056d850 f   local.obj
 0001:0016c930       ?RevStrStr@@YAPB_WPB_W0@Z  0056d930 f   local.obj
 0001:0016c9d0       ?NumStrCmp@@YAHPB_WI0I_N@Z 0056d9d0 f   local.obj
 0001:0016cc50       ?StrCmpNNC@@YAHPB_WI0I@Z   0056dc50 f   local.obj
 0001:0016ce90       ?NumStrCmpC@@YAHPB_WI0I@Z  0056de90 f   local.obj
 0001:0016d0c0       ??0LockScreen@@QAE@XZ      0056e0c0 f   lockscrn.obj
 0001:0016d0e0       ??1LockScreen@@QAE@XZ      0056e0e0 f   lockscrn.obj
 0001:0016d110       ?IsMenuArea@@YA_NH@Z       0056e110 f i macro.obj
 0001:0016d190       ?SetMacroConst@KeyMacro@@SAXH_J@Z 0056e190 f   macro.obj
 0001:0016d1b0       ?CheckWaitKeyFunc@KeyMacro@@QAE_NXZ 0056e1b0 f   macro.obj
 0001:0016d4a0       ??0LockOutput@@QAE@_N@Z    0056e4a0 f i macro.obj
 0001:0016d4d0       ??1LockOutput@@QAE@XZ      0056e4d0 f i macro.obj
 0001:0016d4f0       ??_FTVar@@QAEXXZ           0056e4f0 f i macro.obj
 0001:0016f070       ??$_Allocate@V?$_List_const_iterator@V?$_List_val@_KV?$allocator@_K@std@@@std@@@std@@@std@@YAPAV?$_List_const_iterator@V?$_List_val@_KV?$allocator@_K@std@@@std@@@0@IPAV10@@Z 00570070 f i dirinfo.obj
 0001:0016f070       ??$_Allocate@V?$unique_ptr@VFarSettingsNameItems@@U?$default_delete@VFarSettingsNameItems@@@std@@@std@@@std@@YAPAV?$unique_ptr@VFarSettingsNameItems@@U?$default_delete@VFarSettingsNameItems@@@std@@@0@IPAV10@@Z 00570070 f i plugsettings.obj
 0001:0016f070       ??$_Allocate@I@std@@YAPAIIPAI@Z 00570070 f i preservestyle.obj
 0001:0016f070       ??$_Allocate@PAUPushPopRecord@@@std@@YAPAPAUPushPopRecord@@IPAPAU1@@Z 00570070 f i cmdline.obj
 0001:0016f070       ??$_Allocate@PAX@std@@YAPAPAXIPAPAX@Z 00570070 f i configdb.obj
 0001:0016f070       ??$_Allocate@V?$unique_ptr@UTreeItem@TreeList@@U?$default_delete@UTreeItem@TreeList@@@std@@@std@@@std@@YAPAV?$unique_ptr@UTreeItem@TreeList@@U?$default_delete@UTreeItem@TreeList@@@std@@@0@IPAV10@@Z 00570070 f i treelist.obj
 0001:0016f070       ??$_Allocate@V?$_List_const_iterator@V?$_List_val@PAVPlugin@@V?$allocator@PAVPlugin@@@std@@@std@@@std@@@std@@YAPAV?$_List_const_iterator@V?$_List_val@PAVPlugin@@V?$allocator@PAVPlugin@@@std@@@std@@@0@IPAV10@@Z 00570070 f i flplugin.obj
 0001:0016f070       ??$_Allocate@V?$_List_const_iterator@V?$_List_val@UFarColor@@V?$allocator@UFarColor@@@std@@@std@@@std@@@std@@YAPAV?$_List_const_iterator@V?$_List_val@UFarColor@@V?$allocator@UFarColor@@@std@@@std@@@0@IPAV10@@Z 00570070 f i edit.obj
 0001:0016f070       ??$_Allocate@PAUStackHelpData@Help@@@std@@YAPAPAUStackHelpData@Help@@IPAPAU12@@Z 00570070 f i help.obj
 0001:0016f070       ??$_Allocate@V?$_List_iterator@V?$_List_val@U?$pair@$$CBU_GUID@@V?$unique_ptr@VPlugin@@U?$default_delete@VPlugin@@@std@@@std@@@std@@V?$allocator@U?$pair@$$CBU_GUID@@V?$unique_ptr@VPlugin@@U?$default_delete@VPlugin@@@std@@@std@@@std@@@2@@std@@@std@@@std@@YAPAV?$_List_iterator@V?$_List_val@U?$pair@$$CBU_GUID@@V?$unique_ptr@VPlugin@@U?$default_delete@VPlugin@@@std@@@std@@@std@@V?$allocator@U?$pair@$$CBU_GUID@@V?$unique_ptr@VPlugin@@U?$default_delete@VPlugin@@@std@@@std@@@std@@@2@@std@@@0@IPAV10@@Z 00570070 f i plugins.obj
 0001:0016f070       ??$_Allocate@PB_W@std@@YAPAPB_WIPAPB_W@Z 00570070 f i message.obj
 0001:0016f070       ??$_Allocate@PAVFrame@@@std@@YAPAPAVFrame@@IPAPAV1@@Z 00570070 f i manager.obj
 0001:0016f070       ??$_Allocate@PAPAUAsyncWorkItem@HistoryConfigCustom@@@std@@YAPAPAPAUAsyncWorkItem@HistoryConfigCustom@@IPAPAPAU12@@Z 00570070 f i configdb.obj
 0001:0016f070       ??$_Allocate@V?$unique_ptr@VUnicodeString@@U?$default_delete@VUnicodeString@@@std@@@std@@@std@@YAPAV?$unique_ptr@VUnicodeString@@U?$default_delete@VUnicodeString@@@std@@@0@IPAV10@@Z 00570070 f i plugsettings.obj
 0001:0016f070       ??$_Allocate@H@std@@YAPAHIPAH@Z 00570070 f i treelist.obj
 0001:0016f070       ??$_Allocate@V?$unique_ptr@VFarSettingsHistoryItems@@U?$default_delete@VFarSettingsHistoryItems@@@std@@@std@@@std@@YAPAV?$unique_ptr@VFarSettingsHistoryItems@@U?$default_delete@VFarSettingsHistoryItems@@@std@@@0@IPAV10@@Z 00570070 f i plugsettings.obj
 0001:0016f070       ??$_Allocate@PAUMenuItemEx@@@std@@YAPAPAUMenuItemEx@@IPAPAU1@@Z 00570070 f i vmenu.obj
 0001:0016f070       ??$_Allocate@V?$_List_const_iterator@V?$_List_val@U_GUID@@V?$allocator@U_GUID@@@std@@@std@@@std@@@std@@YAPAV?$_List_const_iterator@V?$_List_val@U_GUID@@V?$allocator@U_GUID@@@std@@@std@@@0@IPAV10@@Z 00570070 f i edit.obj
 0001:0016f070       ??$_Allocate@PAUPreRedrawItem@@@std@@YAPAPAUPreRedrawItem@@IPAPAU1@@Z 00570070 f i copy.obj
 0001:0016f070       ??$_Allocate@PAK@std@@YAPAPAKIPAPAK@Z 00570070 f i keyboard.obj
 0001:0016f070       ??$_Allocate@PAPAVMacroState@@@std@@YAPAPAPAVMacroState@@IPAPAPAV1@@Z 00570070 f i macro.obj
 0001:0016f070       ??$_Allocate@V?$unique_ptr@VFileFilterParams@@U?$default_delete@VFileFilterParams@@@std@@@std@@@std@@YAPAV?$unique_ptr@VFileFilterParams@@U?$default_delete@VFileFilterParams@@@std@@@0@IPAV10@@Z 00570070 f i filefilter.obj
 0001:0016f070       ??$_Allocate@U_CHAR_INFO@@@std@@YAPAU_CHAR_INFO@@IPAU1@@Z 00570070 f i console.obj
 0001:0016f070       ??$_Allocate@V?$unique_ptr@UFileListItem@@U?$default_delete@UFileListItem@@@std@@@std@@@std@@YAPAV?$unique_ptr@UFileListItem@@U?$default_delete@UFileListItem@@@std@@@0@IPAV10@@Z 00570070 f i filelist.obj
 0001:0016f070       ??$_Allocate@PAUFarDialogEvent@@@std@@YAPAPAUFarDialogEvent@@IPAPAU1@@Z 00570070 f i PluginA.obj
 0001:0016f100       ?GetModalFrame@Manager@@QBEPAVFrame@@I@Z 00570100 f i macro.obj
 0001:0016f110       ?IsHistoryDisable@KeyMacro@@QAE_NH@Z 00570110 f   macro.obj
 0001:0016f140       ?RestoreMacroChar@KeyMacro@@AAEXXZ 00570140 f   macro.obj
 0001:001708f0       ?GetMacroParseError@KeyMacro@@QAEXPAKPAU_COORD@@PAVUnicodeString@@@Z 005718f0 f   macro.obj
 0001:00170940       ?_Target_type@?$_Impl_no_alloc1@U?$_Callable_obj@V<lambda2>@?A0xa74a14f3@@$0A@@tr1@std@@HH@tr1@std@@UBEABVtype_info@@XZ 00571940 f i macro.obj
 0001:00170950       ??_G?$_Impl_no_alloc1@U?$_Callable_obj@V<lambda2>@?A0xa74a14f3@@$0A@@tr1@std@@HH@tr1@std@@UAEPAXI@Z 00571950 f i macro.obj
 0001:00170950       ??_E?$_Impl_no_alloc1@U?$_Callable_obj@V<lambda2>@?A0xa74a14f3@@$0A@@tr1@std@@HH@tr1@std@@UAEPAXI@Z 00571950 f i macro.obj
 0001:001709b0       ?_Copy@?$_Impl_no_alloc1@U?$_Callable_obj@V<lambda2>@?A0xa74a14f3@@$0A@@tr1@std@@HH@tr1@std@@UAEPAV?$_Impl_base1@HH@23@PAX@Z 005719b0 f i macro.obj
 0001:00170a60       ?PassString@@YAHABVUnicodeString@@PAUFarMacroCall@@@Z 00571a60 f i macro.obj
 0001:00171170       ??Rmenu_less@@QBE_NPBUMenuItemEx@@0ABUSortItemParam@@@Z 00572170 f i macro.obj
 0001:001715a0       ?_Tidy@?$deque@PAVMacroState@@V?$allocator@PAVMacroState@@@std@@@std@@IAEXXZ 005725a0 f i macro.obj
 0001:001715a0       ?_Tidy@?$deque@PAUAsyncWorkItem@HistoryConfigCustom@@V?$allocator@PAUAsyncWorkItem@HistoryConfigCustom@@@std@@@std@@IAEXXZ 005725a0 f i configdb.obj
 0001:001715a0       ?_Tidy@?$deque@UPreRedrawItem@@V?$allocator@UPreRedrawItem@@@std@@@std@@IAEXXZ 005725a0 f i global.obj
 0001:001715a0       ?_Tidy@?$deque@UFarDialogEvent@@V?$allocator@UFarDialogEvent@@@std@@@std@@IAEXXZ 005725a0 f i PluginA.obj
 0001:001715a0       ?_Tidy@?$deque@KV?$allocator@K@std@@@std@@IAEXXZ 005725a0 f i execute.obj
 0001:00171610       ??$_For_each@PBKV<lambda3>@?A0xa74a14f3@@@std@@YA?AV<lambda3>@?A0xa74a14f3@@PBK0V12@@Z 00572610 f i macro.obj
 0001:00171660       ??$_For_each@PBKV<lambda5>@?A0xa74a14f3@@@std@@YA?AV<lambda5>@?A0xa74a14f3@@PBK0V12@@Z 00572660 f i macro.obj
 0001:001716c0       ?_Buynode@?$_List_val@PAVMacroRecord@@V?$allocator@PAVMacroRecord@@@std@@@std@@QAEPAU_Node@?$_List_nod@PAVMacroRecord@@V?$allocator@PAVMacroRecord@@@std@@@2@PAU342@0ABQAVMacroRecord@@@Z 005726c0 f i macro.obj
 0001:00171790       ??$_Insertion_sort1@PAPAUMenuItemEx@@V<lambda6>@?A0xa74a14f3@@PAU1@@std@@YAXPAPAUMenuItemEx@@0V<lambda6>@?A0xa74a14f3@@0@Z 00572790 f i macro.obj
 0001:00171840       ??$_Med3@PAPAUMenuItemEx@@V<lambda6>@?A0xa74a14f3@@@std@@YAXPAPAUMenuItemEx@@00V<lambda6>@?A0xa74a14f3@@@Z 00572840 f i macro.obj
 0001:001718b0       ??$_Push_heap@PAPAUMenuItemEx@@HPAU1@V<lambda6>@?A0xa74a14f3@@@std@@YAXPAPAUMenuItemEx@@HH$$QAPAU1@V<lambda6>@?A0xa74a14f3@@@Z 005728b0 f i macro.obj
 0001:00171930       ??1SetAttrDlgParam@@QAE@XZ 00572930 f i setattr.obj
 0001:00171930       ??1MacroRecord@@QAE@XZ     00572930 f i macro.obj
 0001:00172410       ??R<lambda2>@?A0xa74a14f3@@QBEHH@Z 00573410 f i macro.obj
 0001:00174ee0       ??1?$deque@PAVMacroState@@V?$allocator@PAVMacroState@@@std@@@std@@QAE@XZ 00575ee0 f i macro.obj
 0001:00174ee0       ??1?$deque@UPreRedrawItem@@V?$allocator@UPreRedrawItem@@@std@@@std@@QAE@XZ 00575ee0 f i global.obj
 0001:00174ee0       ??1?$deque@UFarDialogEvent@@V?$allocator@UFarDialogEvent@@@std@@@std@@QAE@XZ 00575ee0 f i PluginA.obj
 0001:00174ee0       ??1?$deque@PAUAsyncWorkItem@HistoryConfigCustom@@V?$allocator@PAUAsyncWorkItem@HistoryConfigCustom@@@std@@@std@@QAE@XZ 00575ee0 f i configdb.obj
 0001:00174ee0       ??1?$deque@KV?$allocator@K@std@@@std@@QAE@XZ 00575ee0 f i execute.obj
 0001:00174f40       ??G?$_Deque_iterator@PAVMacroState@@V?$allocator@PAVMacroState@@@std@@@std@@QBE?AV01@H@Z 00575f40 f i macro.obj
 0001:00174f40       ??G?$_Deque_iterator@UPreRedrawItem@@V?$allocator@UPreRedrawItem@@@std@@@std@@QBE?AV01@H@Z 00575f40 f i copy.obj
 0001:00174f40       ??G?$_Deque_iterator@UStackHelpData@Help@@V?$allocator@UStackHelpData@Help@@@std@@@std@@QBE?AV01@H@Z 00575f40 f i help.obj
 0001:00174f40       ??G?$_Deque_iterator@UFarDialogEvent@@V?$allocator@UFarDialogEvent@@@std@@@std@@QBE?AV01@H@Z 00575f40 f i PluginA.obj
 0001:00174f40       ??G?$_Deque_iterator@UPushPopRecord@@V?$allocator@UPushPopRecord@@@std@@@std@@QBE?AV01@H@Z 00575f40 f i cmdline.obj
 0001:00174f80       ??$_Median@PAPAUMenuItemEx@@V<lambda6>@?A0xa74a14f3@@@std@@YAXPAPAUMenuItemEx@@00V<lambda6>@?A0xa74a14f3@@@Z 00575f80 f i macro.obj
 0001:00175040       ??$_Adjust_heap@PAPAUMenuItemEx@@HPAU1@V<lambda6>@?A0xa74a14f3@@@std@@YAXPAPAUMenuItemEx@@HH$$QAPAU1@V<lambda6>@?A0xa74a14f3@@@Z 00576040 f i macro.obj
 0001:001750c0       ?GetCurMacro@KeyMacro@@AAEPAVMacroRecord@@XZ 005760c0 f i macro.obj
 0001:001750e0       ??0MacroRecord@@QAE@_KHHPB_W1@Z 005760e0 f   macro.obj
 0001:00175220       ??0MacroState@@QAE@XZ      00576220 f   macro.obj
 0001:001752e0       ??1MacroState@@QAE@XZ      005762e0 f i macro.obj
 0001:00175370       ??1?$queue@PAUAsyncWorkItem@HistoryConfigCustom@@V?$deque@PAUAsyncWorkItem@HistoryConfigCustom@@V?$allocator@PAUAsyncWorkItem@HistoryConfigCustom@@@std@@@std@@@std@@QAE@XZ 00576370 f i configdb.obj
 0001:00175370       ??1?$stack@UPreRedrawItem@@V?$deque@UPreRedrawItem@@V?$allocator@UPreRedrawItem@@@std@@@std@@@std@@QAE@XZ 00576370 f i global.obj
 0001:00175370       ??1?$stack@PAVMacroState@@V?$deque@PAVMacroState@@V?$allocator@PAVMacroState@@@std@@@std@@@std@@QAE@XZ 00576370 f i macro.obj
 0001:001753d0       ?IsExecuting@KeyMacro@@QAEHXZ 005763d0 f   macro.obj
 0001:00175410       ?IsDisableOutput@KeyMacro@@QAEHXZ 00576410 f   macro.obj
 0001:00175440       ?GetCurRecord@KeyMacro@@QAEHXZ 00576440 f   macro.obj
 0001:00175490       ?PeekKey@KeyMacro@@QAEHXZ  00576490 f   macro.obj
 0001:001754d0       ??$_For_each@PBKV<lambda4>@?A0xa74a14f3@@@std@@YA?AV<lambda4>@?A0xa74a14f3@@PBK0V12@@Z 005764d0 f i macro.obj
 0001:00175540       ?_Do_call@?$_Impl_no_alloc1@U?$_Callable_obj@V<lambda2>@?A0xa74a14f3@@$0A@@tr1@std@@HH@tr1@std@@UAEHH@Z 00576540 f i macro.obj
 0001:00175550       ??$_Unguarded_partition@PAPAUMenuItemEx@@V<lambda6>@?A0xa74a14f3@@@std@@YA?AU?$pair@PAPAUMenuItemEx@@PAPAU1@@0@PAPAUMenuItemEx@@0V<lambda6>@?A0xa74a14f3@@@Z 00576550 f i macro.obj
 0001:00175730       ??$_Make_heap@PAPAUMenuItemEx@@HPAU1@V<lambda6>@?A0xa74a14f3@@@std@@YAXPAPAUMenuItemEx@@0V<lambda6>@?A0xa74a14f3@@PAH0@Z 00576730 f i macro.obj
 0001:00175800       ?RemoveCurMacro@KeyMacro@@AAEXXZ 00576800 f i macro.obj
 0001:00175850       ?PushState@KeyMacro@@AAEX_N@Z 00576850 f   macro.obj
 0001:001758e0       ??0KeyMacro@@QAE@XZ        005768e0 f   macro.obj
 0001:00176390       ?top@?$stack@PAVMacroState@@V?$deque@PAVMacroState@@V?$allocator@PAVMacroState@@@std@@@std@@@std@@QAEAAPAVMacroState@@XZ 00577390 f i macro.obj
 0001:001763e0       ??$_For_each@V?$_List_unchecked_const_iterator@V?$_List_val@PAVMacroRecord@@V?$allocator@PAVMacroRecord@@@std@@@std@@U_Iterator_base0@2@@std@@V<lambda1>@?A0xa74a14f3@@@std@@YA?AV<lambda1>@?A0xa74a14f3@@V?$_List_unchecked_const_iterator@V?$_List_val@PAVMacroRecord@@V?$allocator@PAVMacroRecord@@@std@@@std@@U_Iterator_base0@2@@0@0V12@@Z 005773e0 f i macro.obj
 0001:00176450       ??$_For_each@V?$_List_unchecked_const_iterator@V?$_List_val@PAVMacroRecord@@V?$allocator@PAVMacroRecord@@@std@@@std@@U_Iterator_base0@2@@std@@U?$default_delete@VMacroRecord@@@2@@std@@YA?AU?$default_delete@VMacroRecord@@@0@V?$_List_unchecked_const_iterator@V?$_List_val@PAVMacroRecord@@V?$allocator@PAVMacroRecord@@@std@@@std@@U_Iterator_base0@2@@0@0U10@@Z 00577450 f i macro.obj
 0001:00176490       ?GetTopMacro@KeyMacro@@AAEPAVMacroRecord@@XZ 00577490 f i macro.obj
 0001:00176500       ??$_Sort_heap@PAPAUMenuItemEx@@V<lambda6>@?A0xa74a14f3@@@std@@YAXPAPAUMenuItemEx@@0V<lambda6>@?A0xa74a14f3@@@Z 00577500 f i macro.obj
 0001:00176560       ?PopState@KeyMacro@@AAEX_N@Z 00577560 f   macro.obj
 0001:00176640       ??1KeyMacro@@QAE@XZ        00577640 f   macro.obj
 0001:001767b0       ?CallMacroPlugin@KeyMacro@@AAEPAXPAUOpenMacroPluginInfo@@@Z 005777b0 f   macro.obj
 0001:001768e0       ?InitMacroExecution@KeyMacro@@AAE_NXZ 005778e0 f   macro.obj
 0001:001769a0       ?LM_GetMacro@KeyMacro@@AAE_NPAUGetMacroData@@W4FARMACROAREA@@ABVUnicodeString@@_N3@Z 005779a0 f   macro.obj
 0001:00176b60       ?MacroExists@KeyMacro@@QAE_NHW4FARMACROAREA@@_N@Z 00577b60 f   macro.obj
 0001:00176c30       ?LM_ProcessMacro@KeyMacro@@AAEXW4FARMACROAREA@@ABVUnicodeString@@1_K1PBU_GUID@@P6GHPAX2@Z4@Z 00577c30 f   macro.obj
 0001:00176da0       ?GetMacroKeyInfo@KeyMacro@@QAE_NABVUnicodeString@@HAAV2@1@Z 00577da0 f   macro.obj
 0001:00176eb0       ?RunStartMacro@KeyMacro@@QAEXXZ 00577eb0 f   macro.obj
 0001:00176fb0       ?DelMacro@KeyMacro@@QAEHABU_GUID@@PAX@Z 00577fb0 f   macro.obj
 0001:00177050       ?ParseMacroString@KeyMacro@@QAE_NPB_W_N1@Z 00578050 f   macro.obj
 0001:001771b0       ?ExecuteString@KeyMacro@@QAE_NPAUMacroExecuteString@@@Z 005781b0 f   macro.obj
 0001:00177290       ?InitInternalVars@KeyMacro@@AAEX_N@Z 00578290 f   macro.obj
 0001:00177320       ?LoadMacros@KeyMacro@@QAE_N_N0@Z 00578320 f   macro.obj
 0001:001773e0       ?SaveMacros@KeyMacro@@QAEXXZ 005783e0 f   macro.obj
 0001:00177510       ?GetKey@KeyMacro@@QAEHXZ   00578510 f   macro.obj
 0001:00177c50       ?AddMacro@KeyMacro@@QAEHPB_W0W4FARMACROAREA@@_KABU_INPUT_RECORD@@ABU_GUID@@PAXP6GH52@Z@Z 00578c50 f   macro.obj
 0001:00177db0       ?PostNewMacro@KeyMacro@@AAE_NHPB_W_KK@Z 00578db0 f   macro.obj
 0001:00177ea0       ?ParamMacroDlgProc@KeyMacro@@AAEHPAVDialog@@HHPAX@Z 00578ea0 f   macro.obj
 0001:00177f60       ??$_Sort@PAPAUMenuItemEx@@HV<lambda6>@?A0xa74a14f3@@@std@@YAXPAPAUMenuItemEx@@0HV<lambda6>@?A0xa74a14f3@@@Z 00578f60 f i macro.obj
 0001:00179880       ??$MakeDialogItemsEx@$0BH@@@YA?AV?$vector@UDialogItemEx@@V?$allocator@UDialogItemEx@@@std@@@std@@AAY0BH@$$CBUFarDialogItem@@@Z 0057a880 f i macro.obj
 0001:001798f0       ??$MakeDialogItemsEx@$02@@YA?AV?$vector@UDialogItemEx@@V?$allocator@UDialogItemEx@@@std@@@std@@AAY02$$CBUFarDialogItem@@@Z 0057a8f0 f i macro.obj
 0001:00179960       ?GetMacroSettings@KeyMacro@@AAEHHAA_KPB_W1@Z 0057a960 f   macro.obj
 0001:0017abc0       ?CallFar@KeyMacro@@QAEHHPAUFarMacroCall@@@Z 0057bbc0 f   macro.obj
 0001:0017d290       ?AssignMacroDlgProc@KeyMacro@@AAEHPAVDialog@@HHPAX@Z 0057e290 f   macro.obj
 0001:0017d8b0       ?AssignMacroKey@KeyMacro@@AAEHAAKAA_K@Z 0057e8b0 f   macro.obj
 0001:0017dc40       ?ProcessEvent@KeyMacro@@QAEHPBUFAR_INPUT_RECORD@@@Z 0057ec40 f   macro.obj
 0001:0017e230       ??1SException@@UAE@XZ      0057f230 f i configdb.obj
 0001:0017e230       ??1runtime_error@std@@UAE@XZ 0057f230 f i main.obj
 0001:0017e280       ??Bid@locale@std@@QAEIXZ   0057f280 f i main.obj
 0001:0017e2f0       ?_Incref@facet@locale@std@@QAEXXZ 0057f2f0 f i main.obj
 0001:0017e360       ?_Decref@facet@locale@std@@QAEPAV123@XZ 0057f360 f i main.obj
 0001:0017e3e0       ??1facet@locale@std@@UAE@XZ 0057f3e0 f i main.obj
 0001:0017e3f0       ??1locale@std@@QAE@XZ      0057f3f0 f i main.obj
 0001:0017e480       ?_Getfacet@locale@std@@QBEPBVfacet@12@I@Z 0057f480 f i main.obj
 0001:0017e4c0       ??_Efacet@locale@std@@UAEPAXI@Z 0057f4c0 f i main.obj
 0001:0017e4c0       ??_Gfacet@locale@std@@UAEPAXI@Z 0057f4c0 f i main.obj
 0001:0017e4f0       ??1ctype_base@std@@UAE@XZ  0057f4f0 f i main.obj
 0001:0017e540       ??_Ectype_base@std@@UAEPAXI@Z 0057f540 f i main.obj
 0001:0017e540       ??_Gctype_base@std@@UAEPAXI@Z 0057f540 f i main.obj
 0001:0017e5a0       ??1system_error@std@@UAE@XZ 0057f5a0 f i main.obj
 0001:0017e660       ?getloc@ios_base@std@@QBE?AVlocale@2@XZ 0057f660 f i main.obj
 0001:0017e6f0       ?sputn@?$basic_streambuf@_WU?$char_traits@_W@std@@@std@@QAE_JPB_W_J@Z 0057f6f0 f i main.obj
 0001:0017e710       ??_Edummy_panel@@WBM@AEPAXI@Z 0057f710 f i main.obj
 0001:0017e720       ??1_Sentry_base@?$basic_ostream@_WU?$char_traits@_W@std@@@std@@QAE@XZ 0057f720 f i main.obj
 0001:0017e740       ??_Gruntime_error@std@@UAEPAXI@Z 0057f740 f i main.obj
 0001:0017e740       ??_Eruntime_error@std@@UAEPAXI@Z 0057f740 f i main.obj
 0001:0017e740       ??_ESException@@UAEPAXI@Z  0057f740 f i configdb.obj
 0001:0017e740       ??_GSException@@UAEPAXI@Z  0057f740 f i configdb.obj
 0001:0017e7a0       ??0?$ctype@_W@std@@QAE@ABV_Locinfo@1@I@Z 0057f7a0 f i main.obj
 0001:0017e840       ?do_is@?$ctype@_W@std@@MBE_NF_W@Z 0057f840 f i main.obj
 0001:0017e870       ?do_is@?$ctype@_W@std@@MBEPB_WPB_W0PAF@Z 0057f870 f i main.obj
 0001:0017e890       ?do_scan_is@?$ctype@_W@std@@MBEPB_WFPB_W0@Z 0057f890 f i main.obj
 0001:0017e8d0       ?do_scan_not@?$ctype@_W@std@@MBEPB_WFPB_W0@Z 0057f8d0 f i main.obj
 0001:0017e910       ?do_tolower@?$ctype@_W@std@@MBE_W_W@Z 0057f910 f i main.obj
 0001:0017e930       ?do_tolower@?$ctype@_W@std@@MBEPB_WPA_WPB_W@Z 0057f930 f i main.obj
 0001:0017e970       ?do_toupper@?$ctype@_W@std@@MBE_W_W@Z 0057f970 f i main.obj
 0001:0017e990       ?do_toupper@?$ctype@_W@std@@MBEPB_WPA_WPB_W@Z 0057f990 f i main.obj
 0001:0017e9d0       ?do_widen@?$ctype@_W@std@@MBE_WD@Z 0057f9d0 f i main.obj
 0001:0017ea10       ?do_widen@?$ctype@_W@std@@MBEPBDPBD0PA_W@Z 0057fa10 f i main.obj
 0001:0017ea80       ?do_narrow@?$ctype@_W@std@@MBED_WD@Z 0057fa80 f i main.obj
 0001:0017ead0       ?do_narrow@?$ctype@_W@std@@MBEPB_WPB_W0DPAD@Z 0057fad0 f i main.obj
 0001:0017eb40       ??_G?$ctype@_W@std@@MAEPAXI@Z 0057fb40 f i main.obj
 0001:0017eb40       ??_E?$ctype@_W@std@@MAEPAXI@Z 0057fb40 f i main.obj
 0001:0017ebc0       ??_Gsystem_error@std@@UAEPAXI@Z 0057fbc0 f i main.obj
 0001:0017ebc0       ??_Esystem_error@std@@UAEPAXI@Z 0057fbc0 f i main.obj
 0001:0017ec20       ??0failure@ios_base@std@@QAE@PBDABVerror_code@2@@Z 0057fc20 f i main.obj
 0001:0017ecb0       ??1failure@ios_base@std@@UAE@XZ 0057fcb0 f i main.obj
 0001:0017ed00       ?clear@ios_base@std@@QAEXH_N@Z 0057fd00 f i main.obj
 0001:0017edc0       ??0runtime_error@std@@QAE@ABV01@@Z 0057fdc0 f i main.obj
 0001:0017ee20       ??0system_error@std@@QAE@ABV01@@Z 0057fe20 f i main.obj
 0001:0017eea0       ??_Gdummy_panel@@UAEPAXI@Z 0057fea0 f i main.obj
 0001:0017eea0       ??_Edummy_panel@@UAEPAXI@Z 0057fea0 f i main.obj
 0001:0017ef00       ??_Efailure@ios_base@std@@UAEPAXI@Z 0057ff00 f i main.obj
 0001:0017ef00       ??_Gfailure@ios_base@std@@UAEPAXI@Z 0057ff00 f i main.obj
 0001:0017ef60       ??0failure@ios_base@std@@QAE@ABV012@@Z 0057ff60 f i main.obj
 0001:0017eff0       ??1?$_Yarn@D@std@@QAE@XZ   0057fff0 f i main.obj
 0001:0017f010       ?sputc@?$basic_streambuf@_WU?$char_traits@_W@std@@@std@@QAEG_W@Z 00580010 f i main.obj
 0001:0017f050       ??0_Locinfo@std@@QAE@PBD@Z 00580050 f i main.obj
 0001:0017f110       ??1_Locinfo@std@@QAE@XZ    00580110 f i main.obj
 0001:0017f1d0       ?_Getcat@?$ctype@_W@std@@SAIPAPBVfacet@locale@2@PBV42@@Z 005801d0 f i main.obj
 0001:0017f290       ??$use_facet@V?$ctype@_W@std@@@std@@YAABV?$ctype@_W@0@ABVlocale@0@@Z 00580290 f i main.obj
 0001:0017f3c0       ?flush@?$basic_ostream@_WU?$char_traits@_W@std@@@std@@QAEAAV12@XZ 005803c0 f i main.obj
 0001:0017f410       ?_Osfx@?$basic_ostream@_WU?$char_traits@_W@std@@@std@@QAEXXZ 00580410 f i main.obj
 0001:0017f480       ??1sentry@?$basic_ostream@_WU?$char_traits@_W@std@@@std@@QAE@XZ 00580480 f i main.obj
 0001:0017ff30       ??$?6_WU?$char_traits@_W@std@@@std@@YAAAV?$basic_ostream@_WU?$char_traits@_W@std@@@0@AAV10@PB_W@Z 00580f30 f i main.obj
 0001:00180260       ??$?6_WU?$char_traits@_W@std@@@std@@YAAAV?$basic_ostream@_WU?$char_traits@_W@std@@@0@AAV10@PBD@Z 00581260 f i main.obj
 0001:00180650       ??$_For_each@PAPAVUnicodeString@@V<lambda1>@?A0xc8d9a2d1@@@std@@YA?AV<lambda1>@?A0xc8d9a2d1@@PAPAVUnicodeString@@0V12@@Z 00581650 f i main.obj
 0001:001806a0       ?put@?$basic_ostream@_WU?$char_traits@_W@std@@@std@@QAEAAV12@_W@Z 005816a0 f i main.obj
 0001:00180810       ?endl@std@@YAAAV?$basic_ostream@_WU?$char_traits@_W@std@@@1@AAV21@@Z 00581810 f i main.obj
 0001:00182700       _wmain                     00583700 f   main.obj
 0001:00182810       ?InsertFrame@Manager@@QAEXPAVFrame@@@Z 00583810 f   manager.obj
 0001:00182820       ?ShowBackground@Manager@@QAEHXZ 00583820 f   manager.obj
 0001:00182840       ?ExecuteFrame@Manager@@QAEXPAVFrame@@@Z 00583840 f   manager.obj
 0001:00182850       ?SetLastInputRecord@Manager@@QAEXPBU_INPUT_RECORD@@@Z 00583850 f   manager.obj
 0001:00182880       ?IsPanelsActive@Manager@@QAE_N_N@Z 00583880 f   manager.obj
 0001:001828d0       ?ModalizeCommit@Manager@@AAEXXZ 005838d0 f   manager.obj
 0001:001828f0       ?ResizeAllModal@Manager@@QAEXPAVFrame@@@Z 005838f0 f   manager.obj
 0001:00182920       ?GetTopModal@Manager@@QAEPAVFrame@@XZ 00583920 f   manager.obj
 0001:00182940       ??$_For_each@PBQAVFrame@@V<lambda2>@?A0xd01f1d99@@@std@@YA?AV<lambda2>@?A0xd01f1d99@@PBQAVFrame@@0V12@@Z 00583940 f i manager.obj
 0001:001829b0       ??$_For_each@PBQAVFrame@@V<lambda4>@?A0xd01f1d99@@@std@@YA?AV<lambda4>@?A0xd01f1d99@@PBQAVFrame@@0V12@@Z 005839b0 f i manager.obj
 0001:00182a10       ??$_For_each@PBQAVFrame@@V<lambda9>@?A0xd01f1d99@@@std@@YA?AV<lambda9>@?A0xd01f1d99@@PBQAVFrame@@0V12@@Z 00583a10 f i manager.obj
 0001:00182a70       ??$_For_each@PBQAVFrame@@V<lambda12>@?A0xd01f1d99@@@std@@YA?AV<lambda12>@?A0xd01f1d99@@PBQAVFrame@@0V12@@Z 00583a70 f i manager.obj
 0001:00182ad0       ??_9Frame@@$BCI@AE         00583ad0 f i manager.obj
 0001:00182ae0       ??_9Frame@@$BFI@AE         00583ae0 f i manager.obj
 0001:00182af0       ?ModalizeFrame@Manager@@QAEXPAVFrame@@H@Z 00583af0 f   manager.obj
 0001:00182b20       ?HaveAnyFrame@Manager@@AAEHXZ 00583b20 f   manager.obj
 0001:00182b70       ?GetFrame@Manager@@QBEPAVFrame@@I@Z 00583b70 f   manager.obj
 0001:00182ba0       ?DeleteFrame@Manager@@QAEXPAVFrame@@@Z 00583ba0 f   manager.obj
 0001:00182bf0       ?DeleteFrame@Manager@@QAEXH@Z 00583bf0 f   manager.obj
 0001:00182c30       ?GetFrameCountByType@Manager@@QAEHH@Z 00583c30 f   manager.obj
 0001:00182c80       ?IndexOfStack@Manager@@QAEHPAVFrame@@@Z 00583c80 f   manager.obj
 0001:00182cb0       ?IndexOf@Manager@@QAEHPAVFrame@@@Z 00583cb0 f   manager.obj
 0001:00182ce0       ?RefreshCommit@Manager@@AAEXXZ 00583ce0 f   manager.obj
 0001:00182df0       ?UnmodalizeCommit@Manager@@AAEXXZ 00583df0 f   manager.obj
 0001:00182e50       ??0Manager@@QAE@XZ         00583e50 f   manager.obj
 0001:00182f00       ??1Manager@@QAE@XZ         00583f00 f   manager.obj
 0001:00182f80       ?UnmodalizeFrame@Manager@@QAEXPAVFrame@@@Z 00583f80 f   manager.obj
 0001:00182fa0       ?CountFramesWithName@Manager@@QAEHABVUnicodeString@@H@Z 00583fa0 f   manager.obj
 0001:001830e0       ?ActivateFrame@Manager@@QAEXPAVFrame@@@Z 005840e0 f   manager.obj
 0001:00183140       ?ActivateFrame@Manager@@QAEXH@Z 00584140 f   manager.obj
 0001:00183180       ?DeactivateFrame@Manager@@QAEXPAVFrame@@H@Z 00584180 f   manager.obj
 0001:00183210       ?RefreshFrame@Manager@@QAEXPAVFrame@@@Z 00584210 f   manager.obj
 0001:00183280       ?SwitchToPanels@Manager@@QAEXXZ 00584280 f   manager.obj
 0001:001832b0       ?PluginsMenu@Manager@@QAEXXZ 005842b0 f   manager.obj
 0001:00183470       ?DeactivateCommit@Manager@@AAEXXZ 00584470 f   manager.obj
 0001:001834f0       ?DeleteCommit@Manager@@AAEXXZ 005844f0 f   manager.obj
 0001:001836c0       ??$_Any_of@PBQAVFrame@@V<lambda5>@?A0xd01f1d99@@@std@@YA_NPBQAVFrame@@0V<lambda5>@?A0xd01f1d99@@@Z 005846c0 f i manager.obj
 0001:00183880       ?CloseAll@Manager@@QAEXXZ  00584880 f   manager.obj
 0001:00183970       ??R<lambda3>@?A0xd01f1d99@@QBEXABQAVFrame@@@Z 00584970 f i manager.obj
 0001:00183d40       ?InsertCommit@Manager@@AAEXXZ 00584d40 f   manager.obj
 0001:00183d70       ?FindFrameByFile@Manager@@QAEHHABVUnicodeString@@PB_W@Z 00584d70 f   manager.obj
 0001:00183f70       ?ActivateCommit@Manager@@AAEXXZ 00584f70 f   manager.obj
 0001:00183ff0       ?UpdateCommit@Manager@@AAEXXZ 00584ff0 f   manager.obj
 0001:00184070       ?InitKeyBar@Manager@@QAEXXZ 00585070 f   manager.obj
 0001:001840a0       ??$for_each@V?$_Vector_const_iterator@V?$_Vector_val@PAVFrame@@V?$allocator@PAVFrame@@@std@@@std@@@std@@V<lambda3>@?A0xd01f1d99@@@std@@YA?AV<lambda3>@?A0xd01f1d99@@V?$_Vector_const_iterator@V?$_Vector_val@PAVFrame@@V?$allocator@PAVFrame@@@std@@@std@@@0@0V12@@Z 005850a0 f i manager.obj
 0001:00184100       ?Commit@Manager@@AAEHXZ    00585100 f   manager.obj
 0001:00184210       ?PluginCommit@Manager@@QAEHXZ 00585210 f   manager.obj
 0001:00184220       ?ImmediateHide@Manager@@QAEXXZ 00585220 f   manager.obj
 0001:001843c0       ?ResizeAllFrame@Manager@@QAEXXZ 005853c0 f   manager.obj
 0001:00184480       ?ExitAll@Manager@@QAEHXZ   00585480 f   manager.obj
 0001:001845e0       ?ExitMainLoop@Manager@@QAEXH@Z 005855e0 f   manager.obj
 0001:001847a0       ?ProcessKey@Manager@@QAEHK@Z 005857a0 f   manager.obj
 0001:001852e0       ?ProcessMainLoop@Manager@@QAEXXZ 005862e0 f   manager.obj
 0001:00185430       ?ExecuteNonModal@Manager@@QAEXXZ 00586430 f   manager.obj
 0001:00185500       ?ExecuteModal@Manager@@QAEXPAVFrame@@@Z 00586500 f   manager.obj
 0001:00185570       ?EnterMainLoop@Manager@@QAEXXZ 00586570 f   manager.obj
 0001:001855b0       ?DisplayObject@MenuBar@@EAEXXZ 005865b0 f   menubar.obj
 0001:001859b0       ?GetMessagePosition@Message@@QBEXAAH000@Z 005869b0 f   message.obj
 0001:00185ae0       ?GetErrorString@@YA_NAAVUnicodeString@@@Z 00586ae0 f   message.obj
 0001:00185b10       ?MsgDlgProc@Message@@AAEHPAVDialog@@HHPAX@Z 00586b10 f   message.obj
 0001:00185f40       ?Init@Message@@AAEXKIABVUnicodeString@@PBQB_WIPB_WPAVPlugin@@PBU_GUID@@@Z 00586f40 f   message.obj
 0001:00187560       ??0Message@@QAE@KIABVUnicodeString@@PB_W11111111111@Z 00588560 f   message.obj
 0001:00187630       ??0Message@@QAE@KIABVUnicodeString@@PBQB_WIPB_WPAVPlugin@@PBU_GUID@@@Z 00588630 f   message.obj
 0001:00187670       ??0Message@@QAE@KIABVUnicodeString@@ABV?$vector@VUnicodeString@@V?$allocator@VUnicodeString@@@std@@@std@@PB_WPAVPlugin@@PBU_GUID@@@Z 00588670 f   message.obj
 0001:00187750       ?AbortMessage@@YA_NXZ      00588750 f   message.obj
 0001:001878e0       ?ToPercent64@@YAH_K0@Z     005888e0 f   mix.obj
 0001:00187950       ?FreePluginPanelItem@@YAXAAUPluginPanelItem@@@Z 00588950 f   mix.obj
 0001:00187970       ?FreePluginPanelItemsUserData@@YAXPAXPAUPluginPanelItem@@I@Z 00588970 f   mix.obj
 0001:001879c0       ?CRC32@@YAKKPBXI@Z         005889c0 f   mix.obj
 0001:00187ac0       ??0SetAutocomplete@@QAE@PAVEditControl@@_N@Z 00588ac0 f   mix.obj
 0001:00187b00       ??0SetAutocomplete@@QAE@PAVDlgEdit@@_N@Z 00588b00 f   mix.obj
 0001:00187b40       ??0SetAutocomplete@@QAE@PAVCommandLine@@_N@Z 00588b40 f   mix.obj
 0001:00187b80       ??1SetAutocomplete@@QAE@XZ 00588b80 f   mix.obj
 0001:00187ba0       ?ModalType2WType@@YA?AW4WINDOWINFO_TYPE@@H@Z 00588ba0 f   mix.obj
 0001:00187be0       ?FindDataExToPluginPanelItem@@YAXPBUFAR_FIND_DATA@@PAUPluginPanelItem@@@Z 00588be0 f   mix.obj
 0001:00187c60       ?FarMkTempEx@@YA_NAAVUnicodeString@@PB_WH1@Z 00588c60 f   mix.obj
 0001:00187f70       ?PluginPanelItemToFindDataEx@@YAXPBUPluginPanelItem@@PAUFAR_FIND_DATA@@@Z 00588f70 f   mix.obj
 0001:00188040       ?MkDirDlgProc@@YAHPAVDialog@@HHPAX@Z 00589040 f   mkdir.obj
 0001:001882d0       ?ShellMakeDir@@YAXPAVPanel@@@Z 005892d0 f   mkdir.obj
 0001:001894e0       ?ProcessInput@Modal@@QAEXXZ 0058a4e0 f   modal.obj
 0001:00189520       ?Done@Modal@@QAEHXZ        0058a520 f   modal.obj
 0001:00189530       ?ClearDone@Modal@@QAEXXZ   0058a530 f   modal.obj
 0001:00189540       ?GetExitCode@Modal@@QAEHXZ 0058a540 f   modal.obj
 0001:00189550       ?SetExitCode@Modal@@UAEXH@Z 0058a550 f   modal.obj
 0001:00189570       ?Process@Modal@@QAEXXZ     0058a570 f   modal.obj
 0001:001895d0       ?ReadInput@Modal@@UAEHPAU_INPUT_RECORD@@@Z 0058a5d0 f   modal.obj
 0001:001896c0       ?ShowHelp@Modal@@QAEXXZ    0058a6c0 f   modal.obj
 0001:00189700       ??0Modal@@QAE@XZ           0058a700 f   modal.obj
 0001:00189790       ?SetHelp@Modal@@QAEXPB_W@Z 0058a790 f   modal.obj
 0001:001897e0       ?GetCurDir@NamesList@@QAEXAAVUnicodeString@@@Z 0058a7e0 f   namelist.obj
 0001:00189800       ?SetCurDir@NamesList@@QAEXABVUnicodeString@@@Z 0058a800 f   namelist.obj
 0001:00189860       ??1titles@KeyBar@@QAE@XZ   0058a860 f i fileedit.obj
 0001:00189860       ??1FileName2@NamesList@@QAE@XZ 0058a860 f i namelist.obj
 0001:00189920       ??1OneName@NamesList@@QAE@XZ 0058a920 f i namelist.obj
 0001:00189970       ??$_Find_if@V?$_List_unchecked_const_iterator@V?$_List_val@UOneName@NamesList@@V?$allocator@UOneName@NamesList@@@std@@@std@@U_Iterator_base0@2@@std@@V<lambda0>@?A0xd9b42957@@@std@@YA?AV?$_List_unchecked_const_iterator@V?$_List_val@UOneName@NamesList@@V?$allocator@UOneName@NamesList@@@std@@@std@@U_Iterator_base0@2@@0@V10@0V<lambda0>@?A0xd9b42957@@@Z 0058a970 f i namelist.obj
 0001:001899c0       ??0OneName@NamesList@@QAE@ABVUnicodeString@@0@Z 0058a9c0 f i namelist.obj
 0001:00189a70       ?GetNextName@NamesList@@QAE_NAAVUnicodeString@@0@Z 0058aa70 f   namelist.obj
 0001:00189ac0       ?GetPrevName@NamesList@@QAE_NAAVUnicodeString@@0@Z 0058aac0 f   namelist.obj
 0001:00189b00       ??0OneName@NamesList@@QAE@ABU01@@Z 0058ab00 f i namelist.obj
 0001:00189ba0       ?SetCurName@NamesList@@QAEXABVUnicodeString@@@Z 0058aba0 f   namelist.obj
 0001:00189bd0       ??$_Cons_val@V?$allocator@UOneName@NamesList@@@std@@UOneName@NamesList@@U34@@std@@YAXAAV?$allocator@UOneName@NamesList@@@0@PAUOneName@NamesList@@$$QAU23@@Z 0058abd0 f i namelist.obj
 0001:00189c30       ??$_Buynode@UOneName@NamesList@@@?$_List_val@UOneName@NamesList@@V?$allocator@UOneName@NamesList@@@std@@@std@@QAEPAU_Node@?$_List_nod@UOneName@NamesList@@V?$allocator@UOneName@NamesList@@@std@@@1@PAU231@0$$QAUOneName@NamesList@@@Z 0058ac30 f i namelist.obj
 0001:00189d00       ?clear@?$list@UOneName@NamesList@@V?$allocator@UOneName@NamesList@@@std@@@std@@QAEXXZ 0058ad00 f i namelist.obj
 0001:00189d80       ??1?$list@UOneName@NamesList@@V?$allocator@UOneName@NamesList@@@std@@@std@@QAE@XZ 0058ad80 f i namelist.obj
 0001:00189de0       ??0NamesList@@QAE@XZ       0058ade0 f   namelist.obj
 0001:00189eb0       ??1NamesList@@QAE@XZ       0058aeb0 f   namelist.obj
 0001:00189f50       ?AddName@NamesList@@QAEXABVUnicodeString@@0@Z 0058af50 f   namelist.obj
 0001:0018a000       ?MoveData@NamesList@@QAEXAAV1@@Z 0058b000 f   namelist.obj
 0001:0018a050       ?AddSavedNetworkDisks@@YAXAAK0@Z 0058b050 f   network.obj
 0001:0018a1a0       ?GetStoredUserName@@YAX_WAAVUnicodeString@@@Z 0058b1a0 f   network.obj
 0001:0018a2b0       ?CurPath2ComputerName@@YAAAVUnicodeString@@ABV1@AAV1@@Z 0058b2b0 f   network.obj
 0001:0018a440       ?DriveLocalToRemoteName@@YA_NH_WAAVUnicodeString@@@Z 0058b440 f   network.obj
 0001:0018a690       ?ConnectToNetworkDrive@@YAXABVUnicodeString@@@Z 0058b690 f   network.obj
 0001:0018a940       ?GetConfidence@CharDistributionAnalysis@ucd@@QAEMXZ 0058b940 f   nsUniversalDetectorEx.obj
 0001:0018a9b0       ?HandleOneChar@JapaneseContextAnalysis@ucd@@QAEXPBDI@Z 0058b9b0 f i nsUniversalDetectorEx.obj
 0001:0018aa20       ?GetOrder@SJISContextAnalysis@ucd@@MAEHPBDPAI@Z 0058ba20 f   nsUniversalDetectorEx.obj
 0001:0018aa70       ?GetOrder@EUCJPContextAnalysis@ucd@@MAEHPBDPAI@Z 0058ba70 f   nsUniversalDetectorEx.obj
 0001:0018aad0       ??1nsCharSetProber@ucd@@UAE@XZ 0058bad0 f i nsUniversalDetectorEx.obj
 0001:0018aae0       ??_EnsCharSetProber@ucd@@UAEPAXI@Z 0058bae0 f i nsUniversalDetectorEx.obj
 0001:0018aae0       ??_GnsCharSetProber@ucd@@UAEPAXI@Z 0058bae0 f i nsUniversalDetectorEx.obj
 0001:0018ab10       ?FilterWithoutEnglishLetters@nsCharSetProber@ucd@@SAHPBDIPAPADAAI@Z 0058bb10 f   nsUniversalDetectorEx.obj
 0001:0018abc0       ?FilterWithEnglishLetters@nsCharSetProber@ucd@@SAHPBDIPAPADAAI@Z 0058bbc0 f   nsUniversalDetectorEx.obj
 0001:0018ac70       ??0nsEscCharSetProber@ucd@@QAE@I@Z 0058bc70 f   nsUniversalDetectorEx.obj
 0001:0018ada0       ?GetState@nsEscCharSetProber@ucd@@UAE?AW4nsProbingState@2@XZ 0058bda0 f i nsUniversalDetectorEx.obj
 0001:0018adb0       ?GetConfidence@nsEscCharSetProber@ucd@@UAEMXZ 0058bdb0 f i nsUniversalDetectorEx.obj
 0001:0018adc0       ?Reset@nsEscCharSetProber@ucd@@UAEXXZ 0058bdc0 f   nsUniversalDetectorEx.obj
 0001:0018ae00       ?HandleData@nsEscCharSetProber@ucd@@UAE?AW4nsProbingState@2@PBDI@Z 0058be00 f   nsUniversalDetectorEx.obj
 0001:0018af20       ?HandleData@nsEUCJPProber@ucd@@UAE?AW4nsProbingState@2@PBDI@Z 0058bf20 f   nsUniversalDetectorEx.obj
 0001:0018b0a0       ?GetConfidence@nsSJISProber@ucd@@UAEMXZ 0058c0a0 f   nsUniversalDetectorEx.obj
 0001:0018b0a0       ?GetConfidence@nsEUCJPProber@ucd@@UAEMXZ 0058c0a0 f   nsUniversalDetectorEx.obj
 0001:0018b120       ?Reset@nsGB18030Prober@ucd@@UAEXXZ 0058c120 f   nsUniversalDetectorEx.obj
 0001:0018b120       ?Reset@nsEUCKRProber@ucd@@UAEXXZ 0058c120 f   nsUniversalDetectorEx.obj
 0001:0018b120       ?Reset@nsEUCTWProber@ucd@@UAEXXZ 0058c120 f   nsUniversalDetectorEx.obj
 0001:0018b120       ?Reset@nsBig5Prober@ucd@@UAEXXZ 0058c120 f   nsUniversalDetectorEx.obj
 0001:0018b140       ?HandleData@nsEUCTWProber@ucd@@UAE?AW4nsProbingState@2@PBDI@Z 0058c140 f   nsUniversalDetectorEx.obj
 0001:0018b140       ?HandleData@nsBig5Prober@ucd@@UAE?AW4nsProbingState@2@PBDI@Z 0058c140 f   nsUniversalDetectorEx.obj
 0001:0018b140       ?HandleData@nsGB18030Prober@ucd@@UAE?AW4nsProbingState@2@PBDI@Z 0058c140 f   nsUniversalDetectorEx.obj
 0001:0018b140       ?HandleData@nsEUCKRProber@ucd@@UAE?AW4nsProbingState@2@PBDI@Z 0058c140 f   nsUniversalDetectorEx.obj
 0001:0018b2a0       ?GetConfidence@nsEUCTWProber@ucd@@UAEMXZ 0058c2a0 f   nsUniversalDetectorEx.obj
 0001:0018b2a0       ?GetConfidence@nsGB18030Prober@ucd@@UAEMXZ 0058c2a0 f   nsUniversalDetectorEx.obj
 0001:0018b2a0       ?GetConfidence@nsBig5Prober@ucd@@UAEMXZ 0058c2a0 f   nsUniversalDetectorEx.obj
 0001:0018b2a0       ?GetConfidence@nsEUCKRProber@ucd@@UAEMXZ 0058c2a0 f   nsUniversalDetectorEx.obj
 0001:0018b2b0       ?HandleData@nsHebrewProber@ucd@@UAE?AW4nsProbingState@2@PBDI@Z 0058c2b0 f   nsUniversalDetectorEx.obj
 0001:0018b350       ?GetCharSetName@nsHebrewProber@ucd@@UAEPBDXZ 0058c350 f   nsUniversalDetectorEx.obj
 0001:0018b3d0       ?Reset@nsHebrewProber@ucd@@UAEXXZ 0058c3d0 f   nsUniversalDetectorEx.obj
 0001:0018b3e0       ?GetState@nsHebrewProber@ucd@@UAE?AW4nsProbingState@2@XZ 0058c3e0 f   nsUniversalDetectorEx.obj
 0001:0018b410       ?Reset@nsLatin1Prober@ucd@@UAEXXZ 0058c410 f   nsUniversalDetectorEx.obj
 0001:0018b430       ?HandleData@nsLatin1Prober@ucd@@UAE?AW4nsProbingState@2@PBDI@Z 0058c430 f   nsUniversalDetectorEx.obj
 0001:0018b4d0       ?GetConfidence@nsLatin1Prober@ucd@@UAEMXZ 0058c4d0 f   nsUniversalDetectorEx.obj
 0001:0018b590       ??1nsMBCSGroupProber@ucd@@UAE@XZ 0058c590 f   nsUniversalDetectorEx.obj
 0001:0018b610       ?GetCharSetName@nsMBCSGroupProber@ucd@@UAEPBDXZ 0058c610 f   nsUniversalDetectorEx.obj
 0001:0018b640       ?Reset@nsMBCSGroupProber@ucd@@UAEXXZ 0058c640 f   nsUniversalDetectorEx.obj
 0001:0018b6a0       ?HandleData@nsMBCSGroupProber@ucd@@UAE?AW4nsProbingState@2@PBDI@Z 0058c6a0 f   nsUniversalDetectorEx.obj
 0001:0018b7b0       ?GetConfidence@nsMBCSGroupProber@ucd@@UAEMXZ 0058c7b0 f   nsUniversalDetectorEx.obj
 0001:0018b830       ?HandleData@nsSingleByteCharSetProber@ucd@@UAE?AW4nsProbingState@2@PBDI@Z 0058c830 f   nsUniversalDetectorEx.obj
 0001:0018b900       ?Reset@nsSingleByteCharSetProber@ucd@@UAEXXZ 0058c900 f   nsUniversalDetectorEx.obj
 0001:0018b920       ?GetConfidence@nsSingleByteCharSetProber@ucd@@UAEMXZ 0058c920 f   nsUniversalDetectorEx.obj
 0001:0018b9b0       ?GetCharSetName@nsSingleByteCharSetProber@ucd@@UAEPBDXZ 0058c9b0 f   nsUniversalDetectorEx.obj
 0001:0018b9d0       ??1nsSBCSGroupProber@ucd@@UAE@XZ 0058c9d0 f   nsUniversalDetectorEx.obj
 0001:0018ba50       ?GetState@nsMBCSGroupProber@ucd@@UAE?AW4nsProbingState@2@XZ 0058ca50 f i nsUniversalDetectorEx.obj
 0001:0018ba50       ?GetState@nsLatin1Prober@ucd@@UAE?AW4nsProbingState@2@XZ 0058ca50 f i nsUniversalDetectorEx.obj
 0001:0018ba50       ?GetState@nsSingleByteCharSetProber@ucd@@UAE?AW4nsProbingState@2@XZ 0058ca50 f i nsUniversalDetectorEx.obj
 0001:0018ba50       ?GetColor@ColorItem@@QBEABUFarColor@@XZ 0058ca50 f i edit.obj
 0001:0018ba50       ?GetState@nsSBCSGroupProber@ucd@@UAE?AW4nsProbingState@2@XZ 0058ca50 f i nsUniversalDetectorEx.obj
 0001:0018ba50       ?GetProgressState@TaskBarCore@@QAE?AW4TBPFLAG@@XZ 0058ca50 f i TaskBar.obj
 0001:0018ba60       ?GetCharSetName@nsSBCSGroupProber@ucd@@UAEPBDXZ 0058ca60 f   nsUniversalDetectorEx.obj
 0001:0018ba90       ?Reset@nsSBCSGroupProber@ucd@@UAEXXZ 0058ca90 f   nsUniversalDetectorEx.obj
 0001:0018baf0       ?HandleData@nsSBCSGroupProber@ucd@@UAE?AW4nsProbingState@2@PBDI@Z 0058caf0 f   nsUniversalDetectorEx.obj
 0001:0018bb90       ?GetConfidence@nsSBCSGroupProber@ucd@@UAEMXZ 0058cb90 f   nsUniversalDetectorEx.obj
 0001:0018bc10       ?Reset@nsEUCJPProber@ucd@@UAEXXZ 0058cc10 f   nsUniversalDetectorEx.obj
 0001:0018bc10       ?Reset@nsSJISProber@ucd@@UAEXXZ 0058cc10 f   nsUniversalDetectorEx.obj
 0001:0018bc50       ?HandleData@nsSJISProber@ucd@@UAE?AW4nsProbingState@2@PBDI@Z 0058cc50 f   nsUniversalDetectorEx.obj
 0001:0018bdd0       ??0nsUniversalDetector@ucd@@QAE@I@Z 0058cdd0 f   nsUniversalDetectorEx.obj
 0001:0018be20       ??1nsUniversalDetector@ucd@@UAE@XZ 0058ce20 f   nsUniversalDetectorEx.obj
 0001:0018be60       ?Reset@nsUniversalDetector@ucd@@MAEXXZ 0058ce60 f   nsUniversalDetectorEx.obj
 0001:0018bec0       ?DataEnd@nsUniversalDetector@ucd@@UAEXXZ 0058cec0 f   nsUniversalDetectorEx.obj
 0001:0018bf70       ?Reset@nsUTF8Prober@ucd@@UAEXXZ 0058cf70 f   nsUniversalDetectorEx.obj
 0001:0018bf80       ?HandleData@nsUTF8Prober@ucd@@UAE?AW4nsProbingState@2@PBDI@Z 0058cf80 f   nsUniversalDetectorEx.obj
 0001:0018c080       ?GetConfidence@nsUTF8Prober@ucd@@UAEMXZ 0058d080 f   nsUniversalDetectorEx.obj
 0001:0018c120       ?GetOrder@EUCTWDistributionAnalysis@ucd@@MAEHPBD@Z 0058d120 f i nsUniversalDetectorEx.obj
 0001:0018c150       ?GetOrder@EUCKRDistributionAnalysis@ucd@@MAEHPBD@Z 0058d150 f i nsUniversalDetectorEx.obj
 0001:0018c180       ?GetOrder@GB2312DistributionAnalysis@ucd@@MAEHPBD@Z 0058d180 f i nsUniversalDetectorEx.obj
 0001:0018c1b0       ?GetOrder@Big5DistributionAnalysis@ucd@@MAEHPBD@Z 0058d1b0 f i nsUniversalDetectorEx.obj
 0001:0018c1f0       ?GetOrder@SJISDistributionAnalysis@ucd@@MAEHPBD@Z 0058d1f0 f i nsUniversalDetectorEx.obj
 0001:0018c240       ?GetOrder@EUCJPDistributionAnalysis@ucd@@MAEHPBD@Z 0058d240 f i nsUniversalDetectorEx.obj
 0001:0018c270       ??_GnsSingleByteCharSetProber@ucd@@UAEPAXI@Z 0058d270 f i nsUniversalDetectorEx.obj
 0001:0018c270       ??_EnsSingleByteCharSetProber@ucd@@UAEPAXI@Z 0058d270 f i nsUniversalDetectorEx.obj
 0001:0018c2d0       ??0nsBig5Prober@ucd@@QAE@XZ 0058d2d0 f i nsUniversalDetectorEx.obj
 0001:0018c390       ?GetCharSetName@nsBig5Prober@ucd@@UAEPBDXZ 0058d390 f i nsUniversalDetectorEx.obj
 0001:0018c3a0       ??_GnsBig5Prober@ucd@@UAEPAXI@Z 0058d3a0 f i nsUniversalDetectorEx.obj
 0001:0018c3a0       ??_EnsBig5Prober@ucd@@UAEPAXI@Z 0058d3a0 f i nsUniversalDetectorEx.obj
 0001:0018c420       ??_EnsEscCharSetProber@ucd@@UAEPAXI@Z 0058d420 f i nsUniversalDetectorEx.obj
 0001:0018c420       ??_GnsEscCharSetProber@ucd@@UAEPAXI@Z 0058d420 f i nsUniversalDetectorEx.obj
 0001:0018c4b0       ?GetOrder@EUCJPContextAnalysis@ucd@@MAEHPBD@Z 0058d4b0 f i nsUniversalDetectorEx.obj
 0001:0018c4e0       ??0nsEUCKRProber@ucd@@QAE@XZ 0058d4e0 f i nsUniversalDetectorEx.obj
 0001:0018c5a0       ?GetCharSetName@nsEUCKRProber@ucd@@UAEPBDXZ 0058d5a0 f i nsUniversalDetectorEx.obj
 0001:0018c5b0       ??_GnsEUCKRProber@ucd@@UAEPAXI@Z 0058d5b0 f i nsUniversalDetectorEx.obj
 0001:0018c5b0       ??_EnsEUCKRProber@ucd@@UAEPAXI@Z 0058d5b0 f i nsUniversalDetectorEx.obj
 0001:0018c630       ??0nsEUCTWProber@ucd@@QAE@XZ 0058d630 f i nsUniversalDetectorEx.obj
 0001:0018c6f0       ?GetCharSetName@nsEUCTWProber@ucd@@UAEPBDXZ 0058d6f0 f i nsUniversalDetectorEx.obj
 0001:0018c700       ??_GnsEUCTWProber@ucd@@UAEPAXI@Z 0058d700 f i nsUniversalDetectorEx.obj
 0001:0018c700       ??_EnsEUCTWProber@ucd@@UAEPAXI@Z 0058d700 f i nsUniversalDetectorEx.obj
 0001:0018c780       ??0nsGB18030Prober@ucd@@QAE@XZ 0058d780 f i nsUniversalDetectorEx.obj
 0001:0018c840       ?GetCharSetName@nsGB18030Prober@ucd@@UAEPBDXZ 0058d840 f i nsUniversalDetectorEx.obj
 0001:0018c850       ??_GnsGB18030Prober@ucd@@UAEPAXI@Z 0058d850 f i nsUniversalDetectorEx.obj
 0001:0018c850       ??_EnsGB18030Prober@ucd@@UAEPAXI@Z 0058d850 f i nsUniversalDetectorEx.obj
 0001:0018c8d0       ?GetConfidence@nsHebrewProber@ucd@@UAEMXZ 0058d8d0 f i nsUniversalDetectorEx.obj
 0001:0018c8e0       ??_GnsHebrewProber@ucd@@UAEPAXI@Z 0058d8e0 f i nsUniversalDetectorEx.obj
 0001:0018c8e0       ??_EnsHebrewProber@ucd@@UAEPAXI@Z 0058d8e0 f i nsUniversalDetectorEx.obj
 0001:0018c940       ??0nsLatin1Prober@ucd@@QAE@XZ 0058d940 f i nsUniversalDetectorEx.obj
 0001:0018c9b0       ?GetCharSetName@nsLatin1Prober@ucd@@UAEPBDXZ 0058d9b0 f i nsUniversalDetectorEx.obj
 0001:0018c9c0       ??_EnsLatin1Prober@ucd@@UAEPAXI@Z 0058d9c0 f i nsUniversalDetectorEx.obj
 0001:0018c9c0       ??_GnsLatin1Prober@ucd@@UAEPAXI@Z 0058d9c0 f i nsUniversalDetectorEx.obj
 0001:0018ca20       ?GetOrder@SJISContextAnalysis@ucd@@MAEHPBD@Z 0058da20 f i nsUniversalDetectorEx.obj
 0001:0018ca50       ?GetCharSetName@nsUTF8Prober@ucd@@UAEPBDXZ 0058da50 f i nsUniversalDetectorEx.obj
 0001:0018ca60       ??_EnsUTF8Prober@ucd@@UAEPAXI@Z 0058da60 f i nsUniversalDetectorEx.obj
 0001:0018ca60       ??_GnsUTF8Prober@ucd@@UAEPAXI@Z 0058da60 f i nsUniversalDetectorEx.obj
 0001:0018cae0       ??_EnsMBCSGroupProber@ucd@@UAEPAXI@Z 0058dae0 f i nsUniversalDetectorEx.obj
 0001:0018cae0       ??_GnsMBCSGroupProber@ucd@@UAEPAXI@Z 0058dae0 f i nsUniversalDetectorEx.obj
 0001:0018cb10       ??0nsSBCSGroupProber@ucd@@QAE@XZ 0058db10 f   nsUniversalDetectorEx.obj
 0001:0018d050       ??_GnsSBCSGroupProber@ucd@@UAEPAXI@Z 0058e050 f i nsUniversalDetectorEx.obj
 0001:0018d050       ??_EnsSBCSGroupProber@ucd@@UAEPAXI@Z 0058e050 f i nsUniversalDetectorEx.obj
 0001:0018d080       ??_GnsUniversalDetector@ucd@@UAEPAXI@Z 0058e080 f i nsUniversalDetectorEx.obj
 0001:0018d080       ??_EnsUniversalDetector@ucd@@UAEPAXI@Z 0058e080 f i nsUniversalDetectorEx.obj
 0001:0018d0e0       ??0nsEUCJPProber@ucd@@QAE@XZ 0058e0e0 f i nsUniversalDetectorEx.obj
 0001:0018d1e0       ?GetCharSetName@nsEUCJPProber@ucd@@UAEPBDXZ 0058e1e0 f i nsUniversalDetectorEx.obj
 0001:0018d1f0       ?GetState@nsEUCJPProber@ucd@@UAE?AW4nsProbingState@2@XZ 0058e1f0 f i nsUniversalDetectorEx.obj
 0001:0018d1f0       ?GetState@nsBig5Prober@ucd@@UAE?AW4nsProbingState@2@XZ 0058e1f0 f i nsUniversalDetectorEx.obj
 0001:0018d1f0       ?GetState@nsGB18030Prober@ucd@@UAE?AW4nsProbingState@2@XZ 0058e1f0 f i nsUniversalDetectorEx.obj
 0001:0018d1f0       ?GetOriginalInputHandle@basicconsole@@UBEPAXXZ 0058e1f0 f i console.obj
 0001:0018d1f0       ?GetState@nsSJISProber@ucd@@UAE?AW4nsProbingState@2@XZ 0058e1f0 f i nsUniversalDetectorEx.obj
 0001:0018d1f0       ?GetState@nsEUCTWProber@ucd@@UAE?AW4nsProbingState@2@XZ 0058e1f0 f i nsUniversalDetectorEx.obj
 0001:0018d1f0       ?GetState@nsEUCKRProber@ucd@@UAE?AW4nsProbingState@2@XZ 0058e1f0 f i nsUniversalDetectorEx.obj
 0001:0018d1f0       ?GetState@nsUTF8Prober@ucd@@UAE?AW4nsProbingState@2@XZ 0058e1f0 f i nsUniversalDetectorEx.obj
 0001:0018d200       ??_GnsEUCJPProber@ucd@@UAEPAXI@Z 0058e200 f i nsUniversalDetectorEx.obj
 0001:0018d200       ??_EnsEUCJPProber@ucd@@UAEPAXI@Z 0058e200 f i nsUniversalDetectorEx.obj
 0001:0018d280       ??0nsSJISProber@ucd@@QAE@XZ 0058e280 f i nsUniversalDetectorEx.obj
 0001:0018d380       ?GetCharSetName@nsSJISProber@ucd@@UAEPBDXZ 0058e380 f i nsUniversalDetectorEx.obj
 0001:0018d390       ??_GnsSJISProber@ucd@@UAEPAXI@Z 0058e390 f i nsUniversalDetectorEx.obj
 0001:0018d390       ??_EnsSJISProber@ucd@@UAEPAXI@Z 0058e390 f i nsUniversalDetectorEx.obj
 0001:0018d410       ??0nsMBCSGroupProber@ucd@@QAE@I@Z 0058e410 f   nsUniversalDetectorEx.obj
 0001:0018d5f0       ?HandleData@nsUniversalDetector@ucd@@UAEIPBDI@Z 0058e5f0 f   nsUniversalDetectorEx.obj
 0001:0018d930       ??$_Move@PAUColorItem@@PAU1@@std@@YAPAUColorItem@@PAU1@00U_Nonscalar_ptr_iterator_tag@0@@Z 0058e930 f i edit.obj
 0001:0018d930       ??$_Move@PAUFarListItem@@PAU1@@std@@YAPAUFarListItem@@PAU1@00U_Nonscalar_ptr_iterator_tag@0@@Z 0058e930 f i config.obj
 0001:0018d930       ??$_Move@PAUFarColor@@PAU1@@std@@YAPAUFarColor@@PAU1@00U_Nonscalar_ptr_iterator_tag@0@@Z 0058e930 f i palette.obj
 0001:0018d930       ??$_Copy_impl@PAUFarColor@@PAU1@@std@@YAPAUFarColor@@PAU1@00U_Nonscalar_ptr_iterator_tag@0@@Z 0058e930 f i palette.obj
 0001:0018d970       ?CopyTo@palette@@QBEXPAUFarColor@@@Z 0058e970 f   palette.obj
 0001:0018d9b0       ??$_Transform@PBUColorsInit@@V?$_Vector_iterator@V?$_Vector_val@UFarColor@@V?$allocator@UFarColor@@@std@@@std@@@std@@V<lambda1>@?A0x36ffe32b@@@std@@YA?AV?$_Vector_iterator@V?$_Vector_val@UFarColor@@V?$allocator@UFarColor@@@std@@@std@@@0@PBUColorsInit@@0V10@V<lambda1>@?A0x36ffe32b@@@Z 0058e9b0 f i palette.obj
 0001:0018da50       ??$_Cons_val@V?$allocator@UFarColor@@@std@@UFarColor@@U3@@std@@YAXAAV?$allocator@UFarColor@@@0@PAUFarColor@@$$QAU2@@Z 0058ea50 f i palette.obj
 0001:0018da50       ??$_Cons_val@V?$allocator@USynchroData@PluginSynchro@@@std@@USynchroData@PluginSynchro@@AAU34@@std@@YAXAAV?$allocator@USynchroData@PluginSynchro@@@0@PAUSynchroData@PluginSynchro@@AAU23@@Z 0058ea50 f i PluginSynchro.obj
 0001:0018da50       ??$_Cons_val@V?$allocator@UFarListItem@@@std@@UFarListItem@@U3@@std@@YAXAAV?$allocator@UFarListItem@@@0@PAUFarListItem@@$$QAU2@@Z 0058ea50 f i config.obj
 0001:0018dac0       ??$_Uninit_move@PAUFarColor@@PAU1@V?$allocator@UFarColor@@@std@@U1@@std@@YAPAUFarColor@@PAU1@00AAV?$allocator@UFarColor@@@0@0U_Nonscalar_ptr_iterator_tag@0@@Z 0058eac0 f i palette.obj
 0001:0018dac0       ??$_Uninit_move@PAUFarListItem@@PAU1@V?$allocator@UFarListItem@@@std@@U1@@std@@YAPAUFarListItem@@PAU1@00AAV?$allocator@UFarListItem@@@0@0U_Nonscalar_ptr_iterator_tag@0@@Z 0058eac0 f i config.obj
 0001:0018db50       ?ResetToDefault@palette@@QAEXXZ 0058eb50 f   palette.obj
 0001:0018dba0       ?ResetToBlack@palette@@QAEXXZ 0058eba0 f   palette.obj
 0001:0018dbf0       ?Set@palette@@QAEXIPAUFarColor@@I@Z 0058ebf0 f   palette.obj
 0001:0018dc30       ??$_Uninit_def_fill_n@PAUFarColor@@IU1@V?$allocator@UFarColor@@@std@@U1@@std@@YAXPAUFarColor@@IPBU1@AAV?$allocator@UFarColor@@@0@0U_Nonscalar_ptr_iterator_tag@0@@Z 0058ec30 f i palette.obj
 0001:0018dc30       ??$_Uninit_def_fill_n@PAUFarListItem@@IU1@V?$allocator@UFarListItem@@@std@@U1@@std@@YAXPAUFarListItem@@IPBU1@AAV?$allocator@UFarListItem@@@0@0U_Nonscalar_ptr_iterator_tag@0@@Z 0058ec30 f i config.obj
 0001:0018dcd0       ??$_Umove@PAUFarColor@@@?$vector@UFarColor@@V?$allocator@UFarColor@@@std@@@std@@IAEPAUFarColor@@PAU2@00@Z 0058ecd0 f i palette.obj
 0001:0018dcd0       ??$_Umove@PAUFarListItem@@@?$vector@UFarListItem@@V?$allocator@UFarListItem@@@std@@@std@@IAEPAUFarListItem@@PAU2@00@Z 0058ecd0 f i config.obj
 0001:0018dd00       ??$for_each_cnt@V?$_Vector_iterator@V?$_Vector_val@UFarColor@@V?$allocator@UFarColor@@@std@@@std@@@std@@V<lambda2>@?A0x36ffe32b@@@@YA?AV<lambda2>@?A0x36ffe32b@@V?$_Vector_iterator@V?$_Vector_val@UFarColor@@V?$allocator@UFarColor@@@std@@@std@@@std@@0V01@@Z 0058ed00 f i palette.obj
 0001:0018de10       ??$for_each_cnt@V?$_Vector_const_iterator@V?$_Vector_val@UFarColor@@V?$allocator@UFarColor@@@std@@@std@@@std@@V<lambda3>@?A0x36ffe32b@@@@YA?AV<lambda3>@?A0x36ffe32b@@V?$_Vector_const_iterator@V?$_Vector_val@UFarColor@@V?$allocator@UFarColor@@@std@@@std@@@std@@0V01@@Z 0058ee10 f i palette.obj
 0001:0018df20       ?Load@palette@@QAEXXZ      0058ef20 f   palette.obj
 0001:0018df50       ?Save@palette@@QAEXXZ      0058ef50 f   palette.obj
 0001:0018dfb0       ??0palette@@QAE@XZ         0058efb0 f   palette.obj
 0001:0018e040       ??1DelayedDestroy@@MAE@XZ  0058f040 f i panel.obj
 0001:0018e050       ??_GDelayedDestroy@@MAEPAXI@Z 0058f050 f i panel.obj
 0001:0018e050       ??_EDelayedDestroy@@MAEPAXI@Z 0058f050 f i panel.obj
 0001:0018e080       ??1DelayDestroy@@QAE@XZ    0058f080 f i panel.obj
 0001:0018e0a0       ?SetViewMode@Panel@@UAEXH@Z 0058f0a0 f   panel.obj
 0001:0018e0c0       ?ChDiskDlgProc@@YAHPAVDialog@@HHPAX@Z 0058f0c0 f   panel.obj
 0001:0018e160       ?VMProcess@ScreenObject@@UAE_JHPAX_J@Z 0058f160 f   fileedit.obj
 0001:0018e160       ?VMProcess@Panel@@UAE_JHPAX_J@Z 0058f160 f   panel.obj
 0001:0018e1a0       ?SetFocus@Panel@@UAEXXZ    0058f1a0 f   panel.obj
 0001:0018e240       ?KillFocus@Panel@@UAEXXZ   0058f240 f   panel.obj
 0001:0018e260       ?IsDragging@Panel@@IAEHXZ  0058f260 f   panel.obj
 0001:0018e270       ?EndDrag@Panel@@SAXXZ      0058f270 f   panel.obj
 0001:0018e2b0       ?GetNormalColor@EditControl@@EBEABUFarColor@@XZ 0058f2b0 f   editcontrol.obj
 0001:0018e2b0       ?GetCurDir@Panel@@UAEABVUnicodeString@@XZ 0058f2b0 f   panel.obj
 0001:0018e2c0       ?DrawSeparator@Panel@@IAEXH@Z 0058f2c0 f   panel.obj
 0001:0018e310       ?GetCurName@Panel@@UAEHAAVUnicodeString@@0@Z 0058f310 f   panel.obj
 0001:0018e310       ?GetCurBaseName@Panel@@UAEHAAVUnicodeString@@0@Z 0058f310 f   panel.obj
 0001:0018e330       ??$CheckStructSize@UPanelInfo@@@@YA_NPBUPanelInfo@@@Z 0058f330 f i panel.obj
 0001:0018e350       ?Hide@Panel@@UAEXXZ        0058f350 f   panel.obj
 0001:0018e3b0       ?ShowScreensCount@Panel@@IAEXXZ 0058f3b0 f   panel.obj
 0001:0018e4d0       ??1?$_List_val@UShortcutItem@@V?$allocator@UShortcutItem@@@std@@@std@@QAE@XZ 0058f4d0 f i shortcuts.obj
 0001:0018e4d0       ??1?$_List_val@U?$pair@VUnicodeString@@H@std@@V?$allocator@U?$pair@VUnicodeString@@H@std@@@2@@std@@QAE@XZ 0058f4d0 f i filefilter.obj
 0001:0018e4d0       ??1?$_List_val@UPreserveStyleToken@@V?$allocator@UPreserveStyleToken@@@std@@@std@@QAE@XZ 0058f4d0 f i preservestyle.obj
 0001:0018e4d0       ??1?$_List_val@UPluginsListItem@@V?$allocator@UPluginsListItem@@@std@@@std@@QAE@XZ 0058f4d0 f i filelist.obj
 0001:0018e4d0       ??1?$_List_val@U?$pair@HH@std@@V?$allocator@U?$pair@HH@std@@@2@@std@@QAE@XZ 0058f4d0 f i codepage.obj
 0001:0018e4d0       ??1?$_List_val@UFarColor@@V?$allocator@UFarColor@@@std@@@std@@QAE@XZ 0058f4d0 f i global.obj
 0001:0018e4d0       ??1?$_List_val@UPluginData@@V?$allocator@UPluginData@@@std@@@std@@QAE@XZ 0058f4d0 f i plugins.obj
 0001:0018e4d0       ??1?$_List_val@V?$unique_ptr@UScanTreeData@@U?$default_delete@UScanTreeData@@@std@@@std@@V?$allocator@V?$unique_ptr@UScanTreeData@@U?$default_delete@UScanTreeData@@@std@@@std@@@2@@std@@QAE@XZ 0058f4d0 f i copy.obj
 0001:0018e4d0       ??1?$_List_val@V?$array_ptr@D@@V?$allocator@V?$array_ptr@D@@@std@@@std@@QAE@XZ 0058f4d0 f i plugapi.obj
 0001:0018e4d0       ??1?$_List_val@UChunk@FileWalker@@V?$allocator@UChunk@FileWalker@@@std@@@std@@QAE@XZ 0058f4d0 f i copy.obj
 0001:0018e4d0       ??1?$_List_val@UPluginHandle@@V?$allocator@UPluginHandle@@@std@@@std@@QAE@XZ 0058f4d0 f i plugins.obj
 0001:0018e4d0       ??1?$_List_val@USIDCacheItem@@V?$allocator@USIDCacheItem@@@std@@@std@@QAE@XZ 0058f4d0 f i fileowner.obj
 0001:0018e4d0       ??1?$_List_val@UPluginInfo@?1??OpenFilePlugin@PluginManager@@QAEPAXPBVUnicodeString@@HW4OPENFILEPLUGINTYPE@@@Z@V?$allocator@UPluginInfo@?1??OpenFilePlugin@PluginManager@@QAEPAXPBVUnicodeString@@HW4OPENFILEPLUGINTYPE@@@Z@@std@@@std@@QAE@XZ 0058f4d0 f i plugins.obj
 0001:0018e4d0       ??1?$unique_ptr@$$BY0A@_WU?$default_delete@$$BY0A@_W@std@@@std@@QAE@XZ 0058f4d0 f i edit.obj
 0001:0018e4d0       ??1?$_List_val@Vmasks@filemasks@@V?$allocator@Vmasks@filemasks@@@std@@@std@@QAE@XZ 0058f4d0 f i config.obj
 0001:0018e4d0       ??1?$_List_val@PAVPlugin@@V?$allocator@PAVPlugin@@@std@@@std@@QAE@XZ 0058f4d0 f i flplugin.obj
 0001:0018e4d0       ??1?$_List_val@UDialogData@wrapper@@V?$allocator@UDialogData@wrapper@@@std@@@std@@QAE@XZ 0058f4d0 f i PluginA.obj
 0001:0018e4d0       ??1?$_List_val@_KV?$allocator@_K@std@@@std@@QAE@XZ 0058f4d0 f i dirinfo.obj
 0001:0018e4d0       ??1?$_List_val@UCodePageInfo@FindFiles@@V?$allocator@UCodePageInfo@FindFiles@@@std@@@std@@QAE@XZ 0058f4d0 f i findfile.obj
 0001:0018e4d0       ??1?$_List_val@UEditorUndoData@@V?$allocator@UEditorUndoData@@@std@@@std@@QAE@XZ 0058f4d0 f i editor.obj
 0001:0018e4d0       ??1?$_List_val@UViewerString@@V?$allocator@UViewerString@@@std@@@std@@QAE@XZ 0058f4d0 f i viewer.obj
 0001:0018e4d0       ??1?$_List_val@VChDiskPluginItem@@V?$allocator@VChDiskPluginItem@@@std@@@std@@QAE@XZ 0058f4d0 f i panel.obj
 0001:0018e4d0       ??1?$_List_val@UDiskMenuItem@?4??ChangeDiskMenu@Panel@@AAEHHH@Z@V?$allocator@UDiskMenuItem@?4??ChangeDiskMenu@Panel@@AAEHHH@Z@@std@@@std@@QAE@XZ 0058f4d0 f i panel.obj
 0001:0018e4d0       ??1?$_List_val@U_GUID@@V?$allocator@U_GUID@@@std@@@std@@QAE@XZ 0058f4d0 f i editor.obj
 0001:0018e4d0       ??1?$_List_val@VUnicodeString@@V?$allocator@VUnicodeString@@@std@@@std@@QAE@XZ 0058f4d0 f i cmdline.obj
 0001:0018e4d0       ??1?$_List_val@U_SMALL_RECT@@V?$allocator@U_SMALL_RECT@@@std@@@std@@QAE@XZ 0058f4d0 f i scrbuf.obj
 0001:0018e4d0       ??1?$_List_val@UViewerUndoData@@V?$allocator@UViewerUndoData@@@std@@@std@@QAE@XZ 0058f4d0 f i viewer.obj
 0001:0018e4d0       ??1?$_List_val@PAVMacroRecord@@V?$allocator@PAVMacroRecord@@@std@@@std@@QAE@XZ 0058f4d0 f i macro.obj
 0001:0018e4d0       ??1?$_List_val@UFindListItem@@V?$allocator@UFindListItem@@@std@@@std@@QAE@XZ 0058f4d0 f i findfile.obj
 0001:0018e4d0       ??1?$_List_val@USynchroData@PluginSynchro@@V?$allocator@USynchroData@PluginSynchro@@@std@@@std@@QAE@XZ 0058f4d0 f i PluginSynchro.obj
 0001:0018e4d0       ??1?$_List_val@UArcListItem@@V?$allocator@UArcListItem@@@std@@@std@@QAE@XZ 0058f4d0 f i findfile.obj
 0001:0018e4d0       ??1?$_List_val@UPrevDataItem@FileList@@V?$allocator@UPrevDataItem@FileList@@@std@@@std@@QAE@XZ 0058f4d0 f i filelist.obj
 0001:0018e4d0       ??1?$_List_val@UListItem@?1??StringToList@@YA?AV?$list@VUnicodeString@@V?$allocator@VUnicodeString@@@std@@@std@@ABVUnicodeString@@KPB_W@Z@V?$allocator@UListItem@?1??StringToList@@YA?AV?$list@VUnicodeString@@V?$allocator@VUnicodeString@@@std@@@std@@ABVUnicodeString@@KPB_W@Z@@4@@std@@QAE@XZ 0058f4d0 f i strmix.obj
 0001:0018e4d0       ??1?$_List_val@UOneName@NamesList@@V?$allocator@UOneName@NamesList@@@std@@@std@@QAE@XZ 0058f4d0 f i namelist.obj
 0001:0018e4d0       ??1?$unique_ptr@$$BY0A@DU?$default_delete@$$BY0A@D@std@@@std@@QAE@XZ 0058f4d0 f i configdb.obj
 0001:0018e4d0       ??1?$_List_val@UUserMenuItem@UserMenu@@V?$allocator@UUserMenuItem@UserMenu@@@std@@@std@@QAE@XZ 0058f4d0 f i cmdline.obj
 0001:0018e4d0       ??1?$_List_val@U?$pair@VUnicodeString@@UFarColor@@@std@@V?$allocator@U?$pair@VUnicodeString@@UFarColor@@@std@@@2@@std@@QAE@XZ 0058f4d0 f i cmdline.obj
 0001:0018e4d0       ??1?$_List_val@U?$pair@$$CBU_GUID@@V?$unique_ptr@VPlugin@@U?$default_delete@VPlugin@@@std@@@std@@@std@@V?$allocator@U?$pair@$$CBU_GUID@@V?$unique_ptr@VPlugin@@U?$default_delete@VPlugin@@@std@@@std@@@std@@@2@@std@@QAE@XZ 0058f4d0 f i plugins.obj
 0001:0018e4e0       ?Show@Panel@@UAEXXZ        0058f4e0 f   panel.obj
 0001:0018e650       ?NeedUpdatePanel@Panel@@QAEHPBV1@@Z 0058f650 f   panel.obj
 0001:0018e6d0       ?_Target_type@?$_Impl_no_alloc1@U?$_Callable_obj@V<lambda4>@?A0xcaf2db94@@$0A@@tr1@std@@HH@tr1@std@@UBEABVtype_info@@XZ 0058f6d0 f i panel.obj
 0001:0018e6e0       ??_E?$_Impl_no_alloc1@U?$_Callable_obj@V<lambda4>@?A0xcaf2db94@@$0A@@tr1@std@@HH@tr1@std@@UAEPAXI@Z 0058f6e0 f i panel.obj
 0001:0018e6e0       ??_G?$_Impl_no_alloc1@U?$_Callable_obj@V<lambda4>@?A0xcaf2db94@@$0A@@tr1@std@@HH@tr1@std@@UAEPAXI@Z 0058f6e0 f i panel.obj
 0001:0018e740       ?_Copy@?$_Impl_no_alloc1@U?$_Callable_obj@V<lambda4>@?A0xcaf2db94@@$0A@@tr1@std@@HH@tr1@std@@UAEPAV?$_Impl_base1@HH@23@PAX@Z 0058f740 f i panel.obj
 0001:0018e800       ?InitCurDir@Panel@@QAEXABVUnicodeString@@@Z 0058f800 f   panel.obj
 0001:0018e880       ??0ShortcutInfo@Panel@@QAE@XZ 0058f880 f i panel.obj
 0001:0018e910       ??1ShortcutInfo@Panel@@QAE@XZ 0058f910 f i panel.obj
 0001:0018ea10       ??0?$list@VChDiskPluginItem@@V?$allocator@VChDiskPluginItem@@@std@@@std@@QAE@XZ 0058fa10 f i panel.obj
 0001:0018eab0       ??1?$unique_ptr@VDisableElevation@@U?$default_delete@VDisableElevation@@@std@@@std@@QAE@XZ 0058fab0 f i panel.obj
 0001:0018ead0       ?_Splice_same@?$list@VChDiskPluginItem@@V?$allocator@VChDiskPluginItem@@@std@@@std@@QAEXV?$_List_const_iterator@V?$_List_val@VChDiskPluginItem@@V?$allocator@VChDiskPluginItem@@@std@@@std@@@2@AAV12@00I@Z 0058fad0 f i panel.obj
 0001:0018eb50       ??0DiskMenuItem@?4??ChangeDiskMenu@Panel@@AAEHHH@Z@QAE@ABU0?4??12@AAEHHH@Z@@Z 0058fb50 f i panel.obj
 0001:0018ecd0       ?ChangeDirToCurrent@Panel@@UAEXXZ 0058fcd0 f   panel.obj
 0001:0018ed90       ??0DiskMenuItem@?4??ChangeDiskMenu@Panel@@AAEHHH@Z@QAE@XZ 0058fd90 f i panel.obj
 0001:0018ee80       ??1DiskMenuItem@?4??ChangeDiskMenu@Panel@@AAEHHH@Z@QAE@XZ 0058fe80 f i panel.obj
 0001:0018f070       ?SetCurDir@Panel@@UAE_NABVUnicodeString@@_N1@Z 00590070 f   panel.obj
 0001:0018f090       ?GetShortcutInfo@Panel@@AAE_NAAUShortcutInfo@1@@Z 00590090 f   panel.obj
 0001:0018f200       ?SaveShortcutFolder@Panel@@QAE_NH_N@Z 00590200 f   panel.obj
 0001:0018f340       ?ExecShortcutFolder@Panel@@QAE_NAAVUnicodeString@@ABU_GUID@@ABV2@2_N@Z 00590340 f   panel.obj
 0001:0018f680       ?Get@separator@@QAE?BVUnicodeString@@XZ 00590680 f i panel.obj
 0001:0018f760       ??R<lambda3>@?A0xcaf2db94@@QBEXABUDiskMenuItem@?4??ChangeDiskMenu@Panel@@AAEHHH@Z@@Z 00590760 f i panel.obj
 0001:0018fc60       ?RemoveHotplugDevice@Panel@@AAEXPBUPanelMenuItem@@AAVVMenu2@@@Z 00590c60 f   panel.obj
 0001:0018ffb0       ?FastFindProcessName@Panel@@AAEXPAVEdit@@ABVUnicodeString@@AAV3@2@Z 00590fb0 f   panel.obj
 0001:00190210       ?FastFindShow@Panel@@AAEXHH@Z 00591210 f   panel.obj
 0001:001903d0       ?DragMessage@Panel@@AAEXHHH@Z 005913d0 f   panel.obj
 0001:00190710       ?SetTitle@Panel@@UAEXXZ    00591710 f   panel.obj
 0001:00190860       ?GetTitle@Panel@@UAEAAVUnicodeString@@AAV2@HH@Z 00591860 f   panel.obj
 0001:00190a50       ?ExecShortcutFolder@Panel@@QAE_NH_N@Z 00591a50 f   panel.obj
 0001:00190cd0       ??$for_each_cnt@V?$_List_iterator@V?$_List_val@VChDiskPluginItem@@V?$allocator@VChDiskPluginItem@@@std@@@std@@@std@@V<lambda1>@?A0xcaf2db94@@@@YA?AV<lambda1>@?A0xcaf2db94@@V?$_List_iterator@V?$_List_val@VChDiskPluginItem@@V?$allocator@VChDiskPluginItem@@@std@@@std@@@std@@0V01@@Z 00591cd0 f i panel.obj
 0001:00190ef0       ??$_Cons_val@V?$allocator@UDiskMenuItem@?4??ChangeDiskMenu@Panel@@AAEHHH@Z@@std@@UDiskMenuItem@?4??ChangeDiskMenu@Panel@@AAEHHH@Z@AAU3?4??45@AAEHHH@Z@@std@@YAXAAV?$allocator@UDiskMenuItem@?4??ChangeDiskMenu@Panel@@AAEHHH@Z@@0@PAUDiskMenuItem@?4??ChangeDiskMenu@Panel@@AAEHHH@Z@AAU2?4??34@AAEHHH@Z@@Z 00591ef0 f i panel.obj
 0001:00190f50       ??1ChDiskPluginItem@@QAE@XZ 00591f50 f i panel.obj
 0001:00190fa0       ?FastFind@Panel@@IAEXH@Z   00591fa0 f   panel.obj
 0001:001917d0       ?PanelProcessMouse@Panel@@QAEHPBU_MOUSE_EVENT_RECORD@@AAH@Z 005927d0 f   panel.obj
 0001:00191b20       ??$_Buynode@AAUDiskMenuItem@?4??ChangeDiskMenu@Panel@@AAEHHH@Z@@?$_List_val@UDiskMenuItem@?4??ChangeDiskMenu@Panel@@AAEHHH@Z@V?$allocator@UDiskMenuItem@?4??ChangeDiskMenu@Panel@@AAEHHH@Z@@std@@@std@@QAEPAU_Node@?$_List_nod@UDiskMenuItem@?4??ChangeDiskMenu@Panel@@AAEHHH@Z@V?$allocator@UDiskMenuItem@?4??ChangeDiskMenu@Panel@@AAEHHH@Z@@std@@@1@PAU231@0AAUDiskMenuItem@?4??ChangeDiskMenu@Panel@@AAEHHH@Z@@Z 00592b20 f i panel.obj
 0001:00191bf0       ??1Panel@@MAE@XZ           00592bf0 f   panel.obj
 0001:00191d60       ??_EPanel@@OBM@AEPAXI@Z    00592d60 f i panel.obj
 0001:00191d70       ??0Panel@@QAE@XZ           00592d70 f   panel.obj
 0001:00191ee0       ??_GPanel@@MAEPAXI@Z       00592ee0 f i panel.obj
 0001:00191ee0       ??_EPanel@@MAEPAXI@Z       00592ee0 f i panel.obj
 0001:00191f10       ?clear@?$list@UDiskMenuItem@?4??ChangeDiskMenu@Panel@@AAEHHH@Z@V?$allocator@UDiskMenuItem@?4??ChangeDiskMenu@Panel@@AAEHHH@Z@@std@@@std@@QAEXXZ 00592f10 f i panel.obj
 0001:00191f90       ??$assign@V?$_List_const_iterator@V?$_List_val@U?$pair@HH@std@@V?$allocator@U?$pair@HH@std@@@2@@std@@@std@@@?$list@U?$pair@HH@std@@V?$allocator@U?$pair@HH@std@@@2@@std@@QAEXV?$_List_const_iterator@V?$_List_val@U?$pair@HH@std@@V?$allocator@U?$pair@HH@std@@@2@@std@@@1@0@Z 00592f90 f i panel.obj
 0001:00191fe0       ?unique@?$list@VChDiskPluginItem@@V?$allocator@VChDiskPluginItem@@@std@@@std@@QAEXXZ 00592fe0 f i panel.obj
 0001:001920b0       ??1?$list@UDiskMenuItem@?4??ChangeDiskMenu@Panel@@AAEHHH@Z@V?$allocator@UDiskMenuItem@?4??ChangeDiskMenu@Panel@@AAEHHH@Z@@std@@@std@@QAE@XZ 005930b0 f i panel.obj
 0001:00192110       ?clear@?$list@VChDiskPluginItem@@V?$allocator@VChDiskPluginItem@@@std@@@std@@QAEXXZ 00593110 f i panel.obj
 0001:00192460       ??$_Cons_val@V?$allocator@VChDiskPluginItem@@@std@@VChDiskPluginItem@@AAV3@@std@@YAXAAV?$allocator@VChDiskPluginItem@@@0@PAVChDiskPluginItem@@AAV2@@Z 00593460 f i panel.obj
 0001:001924d0       ??1?$list@VChDiskPluginItem@@V?$allocator@VChDiskPluginItem@@@std@@@std@@QAE@XZ 005934d0 f i panel.obj
 0001:00192530       ??$_Buynode@AAVChDiskPluginItem@@@?$_List_val@VChDiskPluginItem@@V?$allocator@VChDiskPluginItem@@@std@@@std@@QAEPAU_Node@?$_List_nod@VChDiskPluginItem@@V?$allocator@VChDiskPluginItem@@@std@@@1@PAU231@0AAVChDiskPluginItem@@@Z 00593530 f i panel.obj
 0001:00192600       ?merge@?$list@VChDiskPluginItem@@V?$allocator@VChDiskPluginItem@@@std@@@std@@QAEXAAV12@@Z 00593600 f i panel.obj
 0001:001926e0       ??$MakeDialogItemsEx@$07@@YA?AV?$vector@UDialogItemEx@@V?$allocator@UDialogItemEx@@@std@@@std@@AAY07$$CBUFarDialogItem@@@Z 005936e0 f i panel.obj
 0001:00193170       ?sort@?$list@VChDiskPluginItem@@V?$allocator@VChDiskPluginItem@@@std@@@std@@QAEXXZ 00594170 f i panel.obj
 0001:00193a70       ?ChangeDiskMenu@Panel@@AAEHHH@Z 00594a70 f   panel.obj
 0001:00195990       ?ProcessDelDisk@Panel@@AAEH_WHPAVVMenu2@@@Z 00596990 f   panel.obj
 0001:00196190       ?ChangeDisk@Panel@@QAEXXZ  00597190 f   panel.obj
 0001:00196200       ?DisconnectDrive@Panel@@AAEHPBUPanelMenuItem@@AAVVMenu2@@@Z 00597200 f   panel.obj
 0001:00196580       ?SetCurPath@Panel@@QAEHXZ  00597580 f   panel.obj
 0001:00196880       ?SetPluginCommand@Panel@@QAEHHHPAX@Z 00597880 f   panel.obj
 0001:00197250       ??R<lambda4>@?A0xcaf2db94@@QBEHH@Z 00598250 f i panel.obj
 0001:00197b00       ?_Do_call@?$_Impl_no_alloc1@U?$_Callable_obj@V<lambda4>@?A0xcaf2db94@@$0A@@tr1@std@@HH@tr1@std@@UAEHH@Z 00598b00 f i panel.obj
 0001:00197b10       ?ShellUpdatePanels@@YAXPAVPanel@@H@Z 00598b10 f   panelmix.obj
 0001:00197c10       ?CheckUpdateAnotherPanel@@YAHPAVPanel@@ABVUnicodeString@@@Z 00598c10 f   panelmix.obj
 0001:00197e20       ?FormatStr_Attribute@@YA?BVUnicodeString@@KH@Z 00598e20 f   panelmix.obj
 0001:001980b0       ?FormatStr_DateTime@@YA?BVUnicodeString@@PBU_FILETIME@@H_KH@Z 005990b0 f   panelmix.obj
 0001:00198480       ?_MakePath1@@YAHKAAVUnicodeString@@PB_WH@Z 00599480 f   panelmix.obj
 0001:00198990       ??R<lambda1>@?A0x3e91e83d@@QBEXABUcolumn@@@Z 00599990 f i panelmix.obj
 0001:00198d90       ?FormatStr_Size@@YA?BVUnicodeString@@_J00ABV1@KKKH_KHPB_W@Z 00599d90 f   panelmix.obj
 0001:00199360       ?ViewSettingsToText@@YAXABV?$vector@Ucolumn@@V?$allocator@Ucolumn@@@std@@@std@@AAVUnicodeString@@1@Z 0059a360 f   panelmix.obj
 0001:001993d0       ?push_back@?$vector@Ucolumn@@V?$allocator@Ucolumn@@@std@@@std@@QAEX$$QAUcolumn@@@Z 0059a3d0 f i panelmix.obj
 0001:00199490       ?TextToViewSettings@@YAXABVUnicodeString@@0AAV?$vector@Ucolumn@@V?$allocator@Ucolumn@@@std@@@std@@@Z 0059a490 f   panelmix.obj
 0001:00199c00       ??1<unnamed-type-PathTypes>@?1??ParsePath@@YA?AW4PATH_TYPE@@ABVUnicodeString@@PAIPA_N@Z@QAE@XZ 0059ac00 f i pathmix.obj
 0001:00199c50       ?PointToName@@YAPB_WPB_W0@Z 0059ac50 f   pathmix.obj
 0001:00199cc0       ?PointToFolderNameIfFolder@@YAPB_WPB_W@Z 0059acc0 f   pathmix.obj
 0001:00199d20       ?PointToExt@@YAPB_WPB_W0@Z 0059ad20 f   pathmix.obj
 0001:00199d90       ?CutToNameUNC@@YAAAVUnicodeString@@AAV1@@Z 0059ad90 f   pathmix.obj
 0001:00199e40       ?CutToFolderNameIfFolder@@YAAAVUnicodeString@@AAV1@@Z 0059ae40 f   pathmix.obj
 0001:00199ec0       ?FirstSlash@@YAPB_WPB_W@Z  0059aec0 f   pathmix.obj
 0001:00199ef0       ?LastSlash@@YAPB_WPB_W@Z   0059aef0 f   pathmix.obj
 0001:00199f50       ?PointToName@@YAPB_WPB_W@Z 0059af50 f   pathmix.obj
 0001:00199f70       ?PointToExt@@YAPB_WPB_W@Z  0059af70 f   pathmix.obj
 0001:00199fa0       ?AddEndSlash@@YAHPA_W_W@Z  0059afa0 f   pathmix.obj
 0001:0019a070       ?AddEndSlash@@YAHPA_W@Z    0059b070 f   pathmix.obj
 0001:0019a090       ?DeleteEndSlash@@YAXPA_W@Z 0059b090 f   pathmix.obj
 0001:0019a0d0       ?HasPathPrefix@@YA_NABVUnicodeString@@@Z 0059b0d0 f   pathmix.obj
 0001:0019a110       ?IsPluginPrefixPath@@YA_NABVUnicodeString@@@Z 0059b110 f   pathmix.obj
 0001:0019a170       ?TestParentFolderName@@YA_NABVUnicodeString@@@Z 0059b170 f   pathmix.obj
 0001:0019a1b0       ?AddEndSlash@@YAHAAVUnicodeString@@_W@Z 0059b1b0 f   pathmix.obj
 0001:0019a1f0       ?FindSlash@@YA_NAAIABVUnicodeString@@I@Z 0059b1f0 f   pathmix.obj
 0001:0019a230       ?FindLastSlash@@YA_NAAIABVUnicodeString@@@Z 0059b230 f   pathmix.obj
 0001:0019a270       ??$_Any_of@PAU<unnamed-type-PathTypes>@?1??ParsePath@@YA?AW4PATH_TYPE@@ABVUnicodeString@@PAIPA_N@Z@V<lambda1>@?A0x297c032b@@@std@@YA_NPAU<unnamed-type-PathTypes>@?1??ParsePath@@YA?AW4PATH_TYPE@@ABVUnicodeString@@PAIPA_N@Z@3V<lambda1>@?A0x297c032b@@@Z 0059b270 f i pathmix.obj
 0001:0019a330       ?TestCurrentDirectory@@YA_NABVUnicodeString@@@Z 0059b330 f   pathmix.obj
 0001:0019a440       ?AddEndSlash@@YAHAAVUnicodeString@@@Z 0059b440 f   pathmix.obj
 0001:0019a480       ?DeleteEndSlash@@YAXAAVUnicodeString@@@Z 0059b480 f   pathmix.obj
 0001:0019a4c0       ?CutToSlash@@YA_NAAVUnicodeString@@_N@Z 0059b4c0 f   pathmix.obj
 0001:0019a540       ?PathStartsWith@@YA_NABVUnicodeString@@0@Z 0059b540 f   pathmix.obj
 0001:0019a630       ?MatchNtPathRoot@@YAHABVUnicodeString@@0@Z 0059b630 f   pathmix.obj
 0001:0019a870       ?ParsePath@@YA?AW4PATH_TYPE@@ABVUnicodeString@@PAIPA_N@Z 0059b870 f   pathmix.obj
