 arclite

 Timestamp is 51e6ed0d (Wed Jul 17 23:14:21 2013)

 Preferred load address is 64000000

 Start         Length     Name                   Class
 0001:00000000 0007bbdaH .text                   CODE
 0001:0007bbe0 00009ffcH .text$x                 CODE
 0001:00085be0 00000336H .text$yc                CODE
 0001:00085f20 000003f2H .text$yd                CODE
 0002:00000000 00000240H .idata$5                DATA
 0002:00000240 00000004H .CRT$XCA                DATA
 0002:00000244 0000000cH .CRT$XCC                DATA
 0002:00000250 00000008H .CRT$XCL                DATA
 0002:00000258 00000048H .CRT$XCU                DATA
 0002:000002a0 00000004H .CRT$XCZ                DATA
 0002:000002a4 00000004H .CRT$XIA                DATA
 0002:000002a8 00000010H .CRT$XIC                DATA
 0002:000002b8 00000004H .CRT$XID                DATA
 0002:000002bc 00000004H .CRT$XIZ                DATA
 0002:000002c0 00000004H .CRT$XPA                DATA
 0002:000002c4 00000004H .CRT$XPX                DATA
 0002:000002c8 00000004H .CRT$XPXA               DATA
 0002:000002cc 00000004H .CRT$XPZ                DATA
 0002:000002d0 00000004H .CRT$XTA                DATA
 0002:000002d4 00000004H .CRT$XTZ                DATA
 0002:000002e0 00005b78H .rdata                  DATA
 0002:00005e58 000021a8H .rdata$r                DATA
 0002:00008000 000007b8H .rdata$sxdata           DATA
 0002:000087b8 00000004H .rtc$IAA                DATA
 0002:000087bc 00000004H .rtc$IZZ                DATA
 0002:000087c0 00000004H .rtc$TAA                DATA
 0002:000087c4 00000004H .rtc$TZZ                DATA
 0002:000087c8 0000c34cH .xdata$x                DATA
 0002:00014b14 00000078H .idata$2                DATA
 0002:00014b8c 00000014H .idata$3                DATA
 0002:00014ba0 00000240H .idata$4                DATA
 0002:00014de0 00000a2eH .idata$6                DATA
 0002:00015810 000001ecH .edata                  DATA
 0003:00000000 000024e8H .data                   DATA
 0003:00002500 000025dcH .bss                    DATA
 0004:00000000 00000058H .rsrc$01                DATA
 0004:00000060 00000290H .rsrc$02                DATA

  Address         Publics by Value              Rva+Base       Lib:Object

 0000:00000000       __except_list              00000000     <absolute>
 0000:000001ee       ___safe_se_handler_count   000001ee     <absolute>
 0000:00000000       ___ImageBase               64000000     <linker-defined>
 0001:00000000       ??0Error@@QAE@JPBDH@Z      64001000 f i archive.obj
 0001:00000070       ??0Error@@QAE@ABV?$basic_string@_WU?$char_traits@_W@std@@V?$allocator@_W@2@@std@@PBDH@Z 64001070 f i archive.obj
 0001:00000130       ?clear@PropVariant@@AAEXXZ 64001130 f i archive.obj
 0001:000001c0       ??1PropVariant@@QAE@XZ     640011c0 f i archive.obj
 0001:000001d0       ?is_uint@PropVariant@@QBE_NXZ 640011d0 f i archive.obj
 0001:00000200       ?get_uint@PropVariant@@QBE_KXZ 64001200 f i archive.obj
 0001:000002d0       ?get_str@PropVariant@@QBE?AV?$basic_string@_WU?$char_traits@_W@std@@V?$allocator@_W@2@@std@@XZ 640012d0 f i archive.obj
 0001:000003d0       ??1Error@@QAE@XZ           640013d0 f i archive.obj
 0001:000003f0       ??0Error@@QAE@ABU0@@Z      640013f0 f i archive.obj
 0001:00000420       ??0ArcAPI@@AAE@XZ          64001420 f i archive.obj
 0001:000004d0       ?formats@ArcAPI@@SAABVArcFormats@@XZ 640014d0 f i archive.obj
 0001:00000550       ?arc_dir@Archive@@QBE?AV?$basic_string@_WU?$char_traits@_W@std@@V?$allocator@_W@2@@std@@XZ 64001550 f i archive.obj
 0001:00000570       ?arc_name@Archive@@QBE?AV?$basic_string@_WU?$char_traits@_W@std@@V?$allocator@_W@2@@std@@XZ 64001570 f i archive.obj
 0001:00000630       ?get_bool_prop@ArcLib@@QBEJIKAA_N@Z 64001630 f   archive.obj
 0001:00000730       ?get_string_prop@ArcLib@@QBEJIKAAV?$basic_string@_WU?$char_traits@_W@std@@V?$allocator@_W@2@@std@@@Z 64001730 f   archive.obj
 0001:00000870       ?get_bytes_prop@ArcLib@@QBEJIKAAV?$vector@EV?$allocator@E@std@@@std@@@Z 64001870 f   archive.obj
 0001:000009c0       ?default_extension@ArcFormat@@QBE?AV?$basic_string@_WU?$char_traits@_W@std@@V?$allocator@_W@2@@std@@XZ 640019c0 f   archive.obj
 0001:00000a10       ?get_arc_types@ArcFormats@@QBE?AV?$list@V?$vector@EV?$allocator@E@std@@@std@@V?$allocator@V?$vector@EV?$allocator@E@std@@@std@@@2@@std@@XZ 64001a10 f   archive.obj
 0001:00000b40       ?find_by_name@ArcFormats@@QBE?AV?$list@V?$vector@EV?$allocator@E@std@@@std@@V?$allocator@V?$vector@EV?$allocator@E@std@@@std@@@2@@std@@ABV?$basic_string@_WU?$char_traits@_W@std@@V?$allocator@_W@2@@3@@Z 64001b40 f   archive.obj
 0001:00000d70       ?find_by_ext@ArcFormats@@QBE?AV?$list@V?$vector@EV?$allocator@E@std@@@std@@V?$allocator@V?$vector@EV?$allocator@E@std@@@std@@@2@@std@@ABV?$basic_string@_WU?$char_traits@_W@std@@V?$allocator@_W@2@@3@@Z 64001d70 f   archive.obj
 0001:00001170       ?find_by_name@SfxModules@@QBEIABV?$basic_string@_WU?$char_traits@_W@std@@V?$allocator@_W@2@@std@@@Z 64002170 f   archive.obj
 0001:00001320       ?to_string@ArcChain@@QBE?AV?$basic_string@_WU?$char_traits@_W@std@@V?$allocator@_W@2@@std@@XZ 64002320 f   archive.obj
 0001:000013a0       ??1ArcAPI@@AAE@XZ          640023a0 f   archive.obj
 0001:00001480       ?load_libs@ArcAPI@@AAEXABV?$basic_string@_WU?$char_traits@_W@std@@V?$allocator@_W@2@@std@@@Z 64002480 f   archive.obj
 0001:000017f0       ??1ArcLib@@QAE@XZ          640027f0 f i archive.obj
 0001:000017f0       ??$_Dest_val@V?$allocator@UArcLib@@@std@@UArcLib@@@std@@YAXAAV?$allocator@UArcLib@@@0@PAUArcLib@@@Z 640027f0 f i archive.obj
 0001:00001820       ?find@@YAPBUSfxModuleInfo@@ABV?$basic_string@_WU?$char_traits@_W@std@@V?$allocator@_W@2@@std@@@Z 64002820 f   archive.obj
 0001:00001ad0       ?description@SfxModule@@QBE?AV?$basic_string@_WU?$char_traits@_W@std@@V?$allocator@_W@2@@std@@XZ 64002ad0 f   archive.obj
 0001:00001d50       ?find_sfx_modules@ArcAPI@@AAEXABV?$basic_string@_WU?$char_traits@_W@std@@V?$allocator@_W@2@@std@@@Z 64002d50 f   archive.obj
 0001:00002240       ?load@ArcAPI@@AAEXXZ       64003240 f   archive.obj
 0001:00002fb0       ??0ArcFormat@@QAE@XZ       64003fb0 f i archive.obj
 0001:000030c0       ??1ArcFormat@@QAE@XZ       640040c0 f i archive.obj
 0001:00003190       ??1?$set@IU?$less@I@std@@V?$allocator@I@2@@std@@QAE@XZ 64004190 f i archive.obj
 0001:00003200       ??1?$map@V?$basic_string@_WU?$char_traits@_W@std@@V?$allocator@_W@2@@std@@V12@U?$less@V?$basic_string@_WU?$char_traits@_W@std@@V?$allocator@_W@2@@std@@@2@V?$allocator@U?$pair@$$CBV?$basic_string@_WU?$char_traits@_W@std@@V?$allocator@_W@2@@std@@V12@@std@@@2@@std@@QAE@XZ 64004200 f i archive.obj
 0001:00003260       ?create_in_archive@ArcAPI@@SAXABV?$vector@EV?$allocator@E@std@@@std@@PAPAUIInArchive@@@Z 64004260 f   archive.obj
 0001:000033f0       ?create_out_archive@ArcAPI@@SAXABV?$vector@EV?$allocator@E@std@@@std@@PAPAUIOutArchive@@@Z 640043f0 f   archive.obj
 0001:00003580       ?get_default_name@Archive@@ABE?AV?$basic_string@_WU?$char_traits@_W@std@@V?$allocator@_W@2@@std@@XZ 64004580 f   archive.obj
 0001:000039a0       ?get_temp_file_name@Archive@@ABE?AV?$basic_string@_WU?$char_traits@_W@std@@V?$allocator@_W@2@@std@@XZ 640049a0 f   archive.obj
 0001:00003c40       ?make_index@Archive@@QAEXXZ 64004c40 f   archive.obj
 0001:00004670       ??R<lambda3>@?A0xe7bd9b10@@QBEXABUDirInfo@?4??make_index@Archive@@QAEXXZ@@Z 64005670 f i archive.obj
 0001:00004700       ??1?$set@UDirInfo@?4??make_index@Archive@@QAEXXZ@U?$less@UDirInfo@?4??make_index@Archive@@QAEXXZ@@std@@V?$allocator@UDirInfo@?4??make_index@Archive@@QAEXXZ@@5@@std@@QAE@XZ 64005700 f i archive.obj
 0001:00004760       ??1DirInfo@?4??make_index@Archive@@QAEXXZ@QAE@XZ 64005760 f i archive.obj
 0001:00004790       ?find_dir@Archive@@QAEIABV?$basic_string@_WU?$char_traits@_W@std@@V?$allocator@_W@2@@std@@@Z 64005790 f   archive.obj
 0001:00004960       ?get_dir_list@Archive@@QAE?AU?$pair@V?$_Vector_const_iterator@V?$_Vector_val@IV?$allocator@I@std@@@std@@@std@@V12@@std@@I@Z 64005960 f   archive.obj
 0001:00004a00       ?get_file_info@Archive@@QAE?AUFindData@@I@Z 64005a00 f   archive.obj
 0001:00004ad0       ?get_main_file@Archive@@QBE_NAAI@Z 64005ad0 f   archive.obj
 0001:00004b90       ?get_attr@Archive@@QBEKI@Z 64005b90 f   archive.obj
 0001:00004d60       ?get_size@Archive@@QBE_KI@Z 64005d60 f   archive.obj
 0001:00004e60       ?get_psize@Archive@@QBE_KI@Z 64005e60 f   archive.obj
 0001:00004f60       ?get_ctime@Archive@@QBE?AU_FILETIME@@I@Z 64005f60 f   archive.obj
 0001:00005020       ?get_mtime@Archive@@QBE?AU_FILETIME@@I@Z 64006020 f   archive.obj
 0001:000050f0       ?get_atime@Archive@@QBE?AU_FILETIME@@I@Z 640060f0 f   archive.obj
 0001:000051b0       ?get_crc@Archive@@QBEII@Z  640061b0 f   archive.obj
 0001:00005360       ??0?$basic_string@_WU?$char_traits@_W@std@@V?$allocator@_W@2@@std@@QAE@$$QAV01@@Z 64006360 f i archive.obj
 0001:00005380       ?assign@?$basic_string@_WU?$char_traits@_W@std@@V?$allocator@_W@2@@std@@QAEAAV12@$$QAV12@@Z 64006380 f i archive.obj
 0001:000053f0       ?insert@?$basic_string@_WU?$char_traits@_W@std@@V?$allocator@_W@2@@std@@QAEAAV12@II_W@Z 640063f0 f i archive.obj
 0001:000054d0       ??0?$list@V?$basic_string@_WU?$char_traits@_W@std@@V?$allocator@_W@2@@std@@V?$allocator@V?$basic_string@_WU?$char_traits@_W@std@@V?$allocator@_W@2@@std@@@2@@std@@QAE@ABV01@@Z 640064d0 f i archive.obj
 0001:00005590       ??0?$vector@EV?$allocator@E@std@@@std@@QAE@ABV01@@Z 64006590 f i archive.obj
 0001:00005640       ??4?$vector@EV?$allocator@E@std@@@std@@QAEAAV01@ABV01@@Z 64006640 f i archive.obj
 0001:00005720       ??A?$map@V?$basic_string@_WU?$char_traits@_W@std@@V?$allocator@_W@2@@std@@V12@U?$less@V?$basic_string@_WU?$char_traits@_W@std@@V?$allocator@_W@2@@std@@@2@V?$allocator@U?$pair@$$CBV?$basic_string@_WU?$char_traits@_W@std@@V?$allocator@_W@2@@std@@V12@@std@@@2@@std@@QAEAAV?$basic_string@_WU?$char_traits@_W@std@@V?$allocator@_W@2@@1@$$QAV21@@Z 64006720 f i archive.obj
 0001:000058a0       ??A?$map@V?$vector@EV?$allocator@E@std@@@std@@UArcFormat@@U?$less@V?$vector@EV?$allocator@E@std@@@std@@@2@V?$allocator@U?$pair@$$CBV?$vector@EV?$allocator@E@std@@@std@@UArcFormat@@@std@@@2@@std@@QAEAAUArcFormat@@ABV?$vector@EV?$allocator@E@std@@@1@@Z 640068a0 f i archive.obj
 0001:000059e0       ?at@?$map@V?$vector@EV?$allocator@E@std@@@std@@UArcFormat@@U?$less@V?$vector@EV?$allocator@E@std@@@std@@@2@V?$allocator@U?$pair@$$CBV?$vector@EV?$allocator@E@std@@@std@@UArcFormat@@@std@@@2@@std@@QBEABUArcFormat@@ABV?$vector@EV?$allocator@E@std@@@2@@Z 640069e0 f i archive.obj
 0001:00005a20       ?push_back@?$vector@USfxModule@@V?$allocator@USfxModule@@@std@@@std@@QAEXABUSfxModule@@@Z 64006a20 f i archive.obj
 0001:00005b00       ??1?$vector@UArcLib@@V?$allocator@UArcLib@@@std@@@std@@QAE@XZ 64006b00 f i archive.obj
 0001:00005b40       ?push_back@?$vector@UArcLib@@V?$allocator@UArcLib@@@std@@@std@@QAEXABUArcLib@@@Z 64006b40 f i archive.obj
 0001:00005bf0       ?reserve@?$vector@PB_WV?$allocator@PB_W@std@@@std@@QAEXI@Z 64006bf0 f i update.obj
 0001:00005bf0       ?reserve@?$vector@IV?$allocator@I@std@@@std@@QAEXI@Z 64006bf0 f i archive.obj
 0001:00005c70       ?reserve@?$vector@UArcFileInfo@@V?$allocator@UArcFileInfo@@@std@@@std@@QAEXI@Z 64006c70 f i archive.obj
 0001:00005d70       ?push_back@?$vector@UArcFileInfo@@V?$allocator@UArcFileInfo@@@std@@@std@@QAEXABUArcFileInfo@@@Z 64006d70 f i archive.obj
 0001:00005e70       ??A?$map@IIU?$less@I@std@@V?$allocator@U?$pair@$$CBII@std@@@2@@std@@QAEAAIABI@Z 64006e70 f i archive.obj
 0001:00005ef0       ??1?$pair@V?$vector@EV?$allocator@E@std@@@std@@UArcFormat@@@std@@QAE@XZ 64006ef0 f i archive.obj
 0001:00005ef0       ??1?$pair@$$CBV?$vector@EV?$allocator@E@std@@@std@@UArcFormat@@@std@@QAE@XZ 64006ef0 f i archive.obj
 0001:00005f60       ?insert@?$basic_string@_WU?$char_traits@_W@std@@V?$allocator@_W@2@@std@@QAEAAV12@IABV12@II@Z 64006f60 f i archive.obj
 0001:000060d0       ?replace@?$basic_string@_WU?$char_traits@_W@std@@V?$allocator@_W@2@@std@@QAEAAV12@IIABV12@II@Z 640070d0 f i archive.obj
 0001:00006410       ?_Chassign@?$basic_string@_WU?$char_traits@_W@std@@V?$allocator@_W@2@@std@@QAEXII_W@Z 64007410 f i archive.obj
 0001:00006450       ?_Construct_n@?$list@V?$basic_string@_WU?$char_traits@_W@std@@V?$allocator@_W@2@@std@@V?$allocator@V?$basic_string@_WU?$char_traits@_W@std@@V?$allocator@_W@2@@std@@@2@@std@@QAEXIABV?$basic_string@_WU?$char_traits@_W@std@@V?$allocator@_W@2@@2@@Z 64007450 f i archive.obj
 0001:000064c0       ?_Buy@?$vector@EV?$allocator@E@std@@@std@@IAE_NI@Z 640074c0 f i archive.obj
 0001:00006500       ??R?$less@V?$basic_string@_WU?$char_traits@_W@std@@V?$allocator@_W@2@@std@@@std@@QBE_NABV?$basic_string@_WU?$char_traits@_W@std@@V?$allocator@_W@2@@1@0@Z 64007500 f i archive.obj
 0001:00006520       ??1?$_Tree_val@V?$_Tset_traits@V?$basic_string@_WU?$char_traits@_W@std@@V?$allocator@_W@2@@std@@U?$less@V?$basic_string@_WU?$char_traits@_W@std@@V?$allocator@_W@2@@std@@@2@V?$allocator@V?$basic_string@_WU?$char_traits@_W@std@@V?$allocator@_W@2@@std@@@2@$0A@@std@@@std@@QAE@XZ 64007520 f i plugin.obj
 0001:00006520       ??1?$_Tree_val@V?$_Tmap_traits@IIU?$less@I@std@@V?$allocator@U?$pair@$$CBII@std@@@2@$0A@@std@@@std@@QAE@XZ 64007520 f i archive.obj
 0001:00006520       ??1?$_Tree_val@V?$_Tmap_traits@HIU?$less@H@std@@V?$allocator@U?$pair@$$CBHI@std@@@2@$0A@@std@@@std@@QAE@XZ 64007520 f i ui.obj
 0001:00006520       ??1?$_Tree_val@V?$_Tmap_traits@V?$basic_string@_WU?$char_traits@_W@std@@V?$allocator@_W@2@@std@@V12@U?$less@V?$basic_string@_WU?$char_traits@_W@std@@V?$allocator@_W@2@@std@@@2@V?$allocator@U?$pair@$$CBV?$basic_string@_WU?$char_traits@_W@std@@V?$allocator@_W@2@@std@@V12@@std@@@2@$0A@@std@@@std@@QAE@XZ 64007520 f i archive.obj
 0001:00006520       ??1?$_Tree_val@V?$_Tset_traits@IU?$less@I@std@@V?$allocator@I@2@$0A@@std@@@std@@QAE@XZ 64007520 f i archive.obj
 0001:00006520       ??1?$_Tree_val@V?$_Tset_traits@V?$vector@EV?$allocator@E@std@@@std@@U?$less@V?$vector@EV?$allocator@E@std@@@std@@@2@V?$allocator@V?$vector@EV?$allocator@E@std@@@std@@@2@$0A@@std@@@std@@QAE@XZ 64007520 f i open.obj
 0001:00006520       ??1?$_Tree_val@V?$_Tmap_traits@IUFileIndexInfo@@U?$less@I@std@@V?$allocator@U?$pair@$$CBIUFileIndexInfo@@@std@@@3@$0A@@std@@@std@@QAE@XZ 64007520 f i update.obj
 0001:00006520       ??1?$_Tree_val@V?$_Tset_traits@UDirInfo@?4??make_index@Archive@@QAEXXZ@U?$less@UDirInfo@?4??make_index@Archive@@QAEXXZ@@std@@V?$allocator@UDirInfo@?4??make_index@Archive@@QAEXXZ@@5@$0A@@std@@@std@@QAE@XZ 64007520 f i archive.obj
 0001:00006520       ??1?$_Tree_val@V?$_Tset_traits@V?$basic_string@_WU?$char_traits@_W@std@@V?$allocator@_W@2@@std@@UItemCompare@?1??show@MultiSelectDialog@@QAE_NXZ@V?$allocator@V?$basic_string@_WU?$char_traits@_W@std@@V?$allocator@_W@2@@std@@@2@$0A@@std@@@std@@QAE@XZ 64007520 f i ui.obj
 0001:00006520       ??1?$_Tree_val@V?$_Tmap_traits@V?$vector@EV?$allocator@E@std@@@std@@UArcFormat@@U?$less@V?$vector@EV?$allocator@E@std@@@std@@@2@V?$allocator@U?$pair@$$CBV?$vector@EV?$allocator@E@std@@@std@@UArcFormat@@@std@@@2@$0A@@std@@@std@@QAE@XZ 64007520 f i archive.obj
 0001:00006530       ?_Reserve@?$vector@USfxModule@@V?$allocator@USfxModule@@@std@@@std@@IAEXI@Z 64007530 f i archive.obj
 0001:000065b0       ?_Reserve@?$vector@UArcLib@@V?$allocator@UArcLib@@@std@@@std@@IAEXI@Z 640075b0 f i archive.obj
 0001:00006620       ?_Reserve@?$vector@IV?$allocator@I@std@@@std@@IAEXI@Z 64007620 f i archive.obj
 0001:00006670       ?allocate@?$allocator@I@std@@QAEPAII@Z 64007670 f i archive.obj
 0001:00006670       ?allocate@?$allocator@PB_W@std@@QAEPAPB_WI@Z 64007670 f i update.obj
 0001:000066d0       ?_Reserve@?$vector@UArcFileInfo@@V?$allocator@UArcFileInfo@@@std@@@std@@IAEXI@Z 640076d0 f i archive.obj
 0001:00006740       ?allocate@?$allocator@UArcFileInfo@@@std@@QAEPAUArcFileInfo@@I@Z 64007740 f i archive.obj
 0001:000067a0       ?insert@?$_Tree@V?$_Tset_traits@IU?$less@I@std@@V?$allocator@I@2@$0A@@std@@@std@@QAE?AU?$pair@V?$_Tree_const_iterator@V?$_Tree_val@V?$_Tset_traits@IU?$less@I@std@@V?$allocator@I@2@$0A@@std@@@std@@@std@@_N@2@ABI_N@Z 640077a0 f i archive.obj
 0001:00006870       ?append@?$basic_string@_WU?$char_traits@_W@std@@V?$allocator@_W@2@@std@@QAEAAV12@ABV12@II@Z 64007870 f i archive.obj
 0001:00006960       ?append@?$basic_string@_WU?$char_traits@_W@std@@V?$allocator@_W@2@@std@@QAEAAV12@PB_WI@Z 64007960 f i archive.obj
 0001:00006a90       ?_Insert_n@?$list@V?$basic_string@_WU?$char_traits@_W@std@@V?$allocator@_W@2@@std@@V?$allocator@V?$basic_string@_WU?$char_traits@_W@std@@V?$allocator@_W@2@@std@@@2@@std@@QAEXV?$_List_const_iterator@V?$_List_val@V?$basic_string@_WU?$char_traits@_W@std@@V?$allocator@_W@2@@std@@V?$allocator@V?$basic_string@_WU?$char_traits@_W@std@@V?$allocator@_W@2@@std@@@2@@std@@@2@IABV?$basic_string@_WU?$char_traits@_W@std@@V?$allocator@_W@2@@2@@Z 64007a90 f i archive.obj
 0001:00006b50       ?_Buynode@?$_List_val@V?$basic_string@_WU?$char_traits@_W@std@@V?$allocator@_W@2@@std@@V?$allocator@V?$basic_string@_WU?$char_traits@_W@std@@V?$allocator@_W@2@@std@@@2@@std@@QAEPAU_Node@?$_List_nod@V?$basic_string@_WU?$char_traits@_W@std@@V?$allocator@_W@2@@std@@V?$allocator@V?$basic_string@_WU?$char_traits@_W@std@@V?$allocator@_W@2@@std@@@2@@2@PAU342@0ABV?$basic_string@_WU?$char_traits@_W@std@@V?$allocator@_W@2@@2@@Z 64007b50 f i archive.obj
 0001:00006c20       ?_Buynode@?$_List_val@V?$vector@EV?$allocator@E@std@@@std@@V?$allocator@V?$vector@EV?$allocator@E@std@@@std@@@2@@std@@QAEPAU_Node@?$_List_nod@V?$vector@EV?$allocator@E@std@@@std@@V?$allocator@V?$vector@EV?$allocator@E@std@@@std@@@2@@2@PAU342@0ABV?$vector@EV?$allocator@E@std@@@2@@Z 64007c20 f i archive.obj
 0001:00006ce0       ?allocate@?$allocator@E@std@@QAEPAEI@Z 64007ce0 f i archive.obj
 0001:00006d30       ?erase@?$_Tree@V?$_Tmap_traits@V?$basic_string@_WU?$char_traits@_W@std@@V?$allocator@_W@2@@std@@V12@U?$less@V?$basic_string@_WU?$char_traits@_W@std@@V?$allocator@_W@2@@std@@@2@V?$allocator@U?$pair@$$CBV?$basic_string@_WU?$char_traits@_W@std@@V?$allocator@_W@2@@std@@V12@@std@@@2@$0A@@std@@@std@@QAE?AV?$_Tree_iterator@V?$_Tree_val@V?$_Tmap_traits@V?$basic_string@_WU?$char_traits@_W@std@@V?$allocator@_W@2@@std@@V12@U?$less@V?$basic_string@_WU?$char_traits@_W@std@@V?$allocator@_W@2@@std@@@2@V?$allocator@U?$pair@$$CBV?$basic_string@_WU?$char_traits@_W@std@@V?$allocator@_W@2@@std@@V12@@std@@@2@$0A@@std@@@std@@@2@V?$_Tree_const_iterator@V?$_Tree_val@V?$_Tmap_traits@V?$basic_string@_WU?$char_traits@_W@std@@V?$allocator@_W@2@@std@@V12@U?$less@V?$basic_string@_WU?$char_traits@_W@std@@V?$allocator@_W@2@@std@@@2@V?$allocator@U?$pair@$$CBV?$basic_string@_WU?$char_traits@_W@std@@V?$allocator@_W@2@@std@@V12@@std@@@2@$0A@@std@@@std@@@2@0@Z 64007d30 f i archive.obj
 0001:00006df0       ?_Copy@?$_Tree@V?$_Tmap_traits@V?$basic_string@_WU?$char_traits@_W@std@@V?$allocator@_W@2@@std@@V12@U?$less@V?$basic_string@_WU?$char_traits@_W@std@@V?$allocator@_W@2@@std@@@2@V?$allocator@U?$pair@$$CBV?$basic_string@_WU?$char_traits@_W@std@@V?$allocator@_W@2@@std@@V12@@std@@@2@$0A@@std@@@std@@IAEXABV12@@Z 64007df0 f i archive.obj
 0001:00006e60       ?_Lbound@?$_Tree@V?$_Tmap_traits@V?$basic_string@_WU?$char_traits@_W@std@@V?$allocator@_W@2@@std@@V12@U?$less@V?$basic_string@_WU?$char_traits@_W@std@@V?$allocator@_W@2@@std@@@2@V?$allocator@U?$pair@$$CBV?$basic_string@_WU?$char_traits@_W@std@@V?$allocator@_W@2@@std@@V12@@std@@@2@$0A@@std@@@std@@IAEPAU_Node@?$_Tree_nod@V?$_Tmap_traits@V?$basic_string@_WU?$char_traits@_W@std@@V?$allocator@_W@2@@std@@V12@U?$less@V?$basic_string@_WU?$char_traits@_W@std@@V?$allocator@_W@2@@std@@@2@V?$allocator@U?$pair@$$CBV?$basic_string@_WU?$char_traits@_W@std@@V?$allocator@_W@2@@std@@V12@@std@@@2@$0A@@std@@@2@ABV?$basic_string@_WU?$char_traits@_W@std@@V?$allocator@_W@2@@2@@Z 64007e60 f i archive.obj
 0001:00006e60       ?_Lbound@?$_Tree@V?$_Tmap_traits@V?$basic_string@_WU?$char_traits@_W@std@@V?$allocator@_W@2@@std@@V12@U?$less@V?$basic_string@_WU?$char_traits@_W@std@@V?$allocator@_W@2@@std@@@2@V?$allocator@U?$pair@$$CBV?$basic_string@_WU?$char_traits@_W@std@@V?$allocator@_W@2@@std@@V12@@std@@@2@$0A@@std@@@std@@IBEPAU_Node@?$_Tree_nod@V?$_Tmap_traits@V?$basic_string@_WU?$char_traits@_W@std@@V?$allocator@_W@2@@std@@V12@U?$less@V?$basic_string@_WU?$char_traits@_W@std@@V?$allocator@_W@2@@std@@@2@V?$allocator@U?$pair@$$CBV?$basic_string@_WU?$char_traits@_W@std@@V?$allocator@_W@2@@std@@V12@@std@@@2@$0A@@std@@@2@ABV?$basic_string@_WU?$char_traits@_W@std@@V?$allocator@_W@2@@2@@Z 64007e60 f i archive.obj
 0001:00006f10       ?erase@?$_Tree@V?$_Tmap_traits@V?$vector@EV?$allocator@E@std@@@std@@UArcFormat@@U?$less@V?$vector@EV?$allocator@E@std@@@std@@@2@V?$allocator@U?$pair@$$CBV?$vector@EV?$allocator@E@std@@@std@@UArcFormat@@@std@@@2@$0A@@std@@@std@@QAE?AV?$_Tree_iterator@V?$_Tree_val@V?$_Tmap_traits@V?$vector@EV?$allocator@E@std@@@std@@UArcFormat@@U?$less@V?$vector@EV?$allocator@E@std@@@std@@@2@V?$allocator@U?$pair@$$CBV?$vector@EV?$allocator@E@std@@@std@@UArcFormat@@@std@@@2@$0A@@std@@@std@@@2@V?$_Tree_const_iterator@V?$_Tree_val@V?$_Tmap_traits@V?$vector@EV?$allocator@E@std@@@std@@UArcFormat@@U?$less@V?$vector@EV?$allocator@E@std@@@std@@@2@V?$allocator@U?$pair@$$CBV?$vector@EV?$allocator@E@std@@@std@@UArcFormat@@@std@@@2@$0A@@std@@@std@@@2@0@Z 64007f10 f i archive.obj
 0001:00006fd0       ?_Lbound@?$_Tree@V?$_Tmap_traits@V?$vector@EV?$allocator@E@std@@@std@@UArcFormat@@U?$less@V?$vector@EV?$allocator@E@std@@@std@@@2@V?$allocator@U?$pair@$$CBV?$vector@EV?$allocator@E@std@@@std@@UArcFormat@@@std@@@2@$0A@@std@@@std@@IBEPAU_Node@?$_Tree_nod@V?$_Tmap_traits@V?$vector@EV?$allocator@E@std@@@std@@UArcFormat@@U?$less@V?$vector@EV?$allocator@E@std@@@std@@@2@V?$allocator@U?$pair@$$CBV?$vector@EV?$allocator@E@std@@@std@@UArcFormat@@@std@@@2@$0A@@std@@@2@ABV?$vector@EV?$allocator@E@std@@@2@@Z 64007fd0 f i archive.obj
 0001:00006fd0       ?_Lbound@?$_Tree@V?$_Tmap_traits@V?$vector@EV?$allocator@E@std@@@std@@UArcFormat@@U?$less@V?$vector@EV?$allocator@E@std@@@std@@@2@V?$allocator@U?$pair@$$CBV?$vector@EV?$allocator@E@std@@@std@@UArcFormat@@@std@@@2@$0A@@std@@@std@@IAEPAU_Node@?$_Tree_nod@V?$_Tmap_traits@V?$vector@EV?$allocator@E@std@@@std@@UArcFormat@@U?$less@V?$vector@EV?$allocator@E@std@@@std@@@2@V?$allocator@U?$pair@$$CBV?$vector@EV?$allocator@E@std@@@std@@UArcFormat@@@std@@@2@$0A@@std@@@2@ABV?$vector@EV?$allocator@E@std@@@2@@Z 64007fd0 f i archive.obj
 0001:00007020       ?reserve@?$vector@USfxModule@@V?$allocator@USfxModule@@@std@@@std@@QAEXI@Z 64008020 f i archive.obj
 0001:00007130       ?_Destroy@?$vector@USfxModule@@V?$allocator@USfxModule@@@std@@@std@@IAEXPAUSfxModule@@0@Z 64008130 f i archive.obj
 0001:00007130       ??$_Destroy_range@V?$allocator@V?$basic_string@_WU?$char_traits@_W@std@@V?$allocator@_W@2@@std@@@std@@@std@@YAXPAV?$basic_string@_WU?$char_traits@_W@std@@V?$allocator@_W@2@@0@0AAV?$allocator@V?$basic_string@_WU?$char_traits@_W@std@@V?$allocator@_W@2@@std@@@0@U_Nonscalar_ptr_iterator_tag@0@@Z 64008130 f i plugin.obj
 0001:00007130       ?_Destroy@?$vector@V?$basic_string@_WU?$char_traits@_W@std@@V?$allocator@_W@2@@std@@V?$allocator@V?$basic_string@_WU?$char_traits@_W@std@@V?$allocator@_W@2@@std@@@2@@std@@IAEXPAV?$basic_string@_WU?$char_traits@_W@std@@V?$allocator@_W@2@@2@0@Z 64008130 f i plugin.obj
 0001:00007170       ?reserve@?$vector@UArcLib@@V?$allocator@UArcLib@@@std@@@std@@QAEXI@Z 64008170 f i archive.obj
 0001:00007270       ??E?$_Tree_unchecked_const_iterator@V?$_Tree_val@V?$_Tmap_traits@V?$vector@EV?$allocator@E@std@@@std@@UArcFormat@@U?$less@V?$vector@EV?$allocator@E@std@@@std@@@2@V?$allocator@U?$pair@$$CBV?$vector@EV?$allocator@E@std@@@std@@UArcFormat@@@std@@@2@$0A@@std@@@std@@U_Iterator_base0@2@@std@@QAEAAV01@XZ 64008270 f i archive.obj
 0001:000072c0       ?erase@?$_Tree@V?$_Tset_traits@IU?$less@I@std@@V?$allocator@I@2@$0A@@std@@@std@@QAE?AV?$_Tree_const_iterator@V?$_Tree_val@V?$_Tset_traits@IU?$less@I@std@@V?$allocator@I@2@$0A@@std@@@std@@@2@V32@0@Z 640082c0 f i archive.obj
 0001:00007370       ?_Eqrange@?$_Tree@V?$_Tset_traits@IU?$less@I@std@@V?$allocator@I@2@$0A@@std@@@std@@IBE?AU?$pair@V?$_Tree_const_iterator@V?$_Tree_val@V?$_Tset_traits@IU?$less@I@std@@V?$allocator@I@2@$0A@@std@@@std@@@std@@V12@@2@ABI@Z 64008370 f i archive.obj
 0001:000073f0       ?erase@?$_Tree@V?$_Tmap_traits@IIU?$less@I@std@@V?$allocator@U?$pair@$$CBII@std@@@2@$0A@@std@@@std@@QAE?AV?$_Tree_iterator@V?$_Tree_val@V?$_Tmap_traits@IIU?$less@I@std@@V?$allocator@U?$pair@$$CBII@std@@@2@$0A@@std@@@std@@@2@V?$_Tree_const_iterator@V?$_Tree_val@V?$_Tmap_traits@IIU?$less@I@std@@V?$allocator@U?$pair@$$CBII@std@@@2@$0A@@std@@@std@@@2@0@Z 640083f0 f i archive.obj
 0001:000073f0       ?erase@?$_Tree@V?$_Tmap_traits@HIU?$less@H@std@@V?$allocator@U?$pair@$$CBHI@std@@@2@$0A@@std@@@std@@QAE?AV?$_Tree_iterator@V?$_Tree_val@V?$_Tmap_traits@HIU?$less@H@std@@V?$allocator@U?$pair@$$CBHI@std@@@2@$0A@@std@@@std@@@2@V?$_Tree_const_iterator@V?$_Tree_val@V?$_Tmap_traits@HIU?$less@H@std@@V?$allocator@U?$pair@$$CBHI@std@@@2@$0A@@std@@@std@@@2@0@Z 640083f0 f i ui.obj
 0001:000074a0       ?_Eqrange@?$_Tree@V?$_Tmap_traits@IIU?$less@I@std@@V?$allocator@U?$pair@$$CBII@std@@@2@$0A@@std@@@std@@IBE?AU?$pair@V?$_Tree_const_iterator@V?$_Tree_val@V?$_Tmap_traits@IIU?$less@I@std@@V?$allocator@U?$pair@$$CBII@std@@@2@$0A@@std@@@std@@@std@@V12@@2@ABI@Z 640084a0 f i archive.obj
 0001:00007520       ?erase@?$_Tree@V?$_Tset_traits@UDirInfo@?4??make_index@Archive@@QAEXXZ@U?$less@UDirInfo@?4??make_index@Archive@@QAEXXZ@@std@@V?$allocator@UDirInfo@?4??make_index@Archive@@QAEXXZ@@5@$0A@@std@@@std@@QAE?AV?$_Tree_const_iterator@V?$_Tree_val@V?$_Tset_traits@UDirInfo@?4??make_index@Archive@@QAEXXZ@U?$less@UDirInfo@?4??make_index@Archive@@QAEXXZ@@std@@V?$allocator@UDirInfo@?4??make_index@Archive@@QAEXXZ@@5@$0A@@std@@@std@@@2@V32@0@Z 64008520 f i archive.obj
 0001:000075e0       ??0ArcFormat@@QAE@ABU0@@Z  640085e0 f i archive.obj
 0001:00007690       ?_Splice_same@?$list@V?$basic_string@_WU?$char_traits@_W@std@@V?$allocator@_W@2@@std@@V?$allocator@V?$basic_string@_WU?$char_traits@_W@std@@V?$allocator@_W@2@@std@@@2@@std@@QAEXV?$_List_const_iterator@V?$_List_val@V?$basic_string@_WU?$char_traits@_W@std@@V?$allocator@_W@2@@std@@V?$allocator@V?$basic_string@_WU?$char_traits@_W@std@@V?$allocator@_W@2@@std@@@2@@std@@@2@AAV12@00I@Z 64008690 f i archive.obj
 0001:00007710       ?_Splice_same@?$list@V?$vector@EV?$allocator@E@std@@@std@@V?$allocator@V?$vector@EV?$allocator@E@std@@@std@@@2@@std@@QAEXV?$_List_const_iterator@V?$_List_val@V?$vector@EV?$allocator@E@std@@@std@@V?$allocator@V?$vector@EV?$allocator@E@std@@@std@@@2@@std@@@2@AAV12@00I@Z 64008710 f i archive.obj
 0001:00007790       ?erase@?$_Tree@V?$_Tmap_traits@V?$basic_string@_WU?$char_traits@_W@std@@V?$allocator@_W@2@@std@@V12@U?$less@V?$basic_string@_WU?$char_traits@_W@std@@V?$allocator@_W@2@@std@@@2@V?$allocator@U?$pair@$$CBV?$basic_string@_WU?$char_traits@_W@std@@V?$allocator@_W@2@@std@@V12@@std@@@2@$0A@@std@@@std@@QAE?AV?$_Tree_iterator@V?$_Tree_val@V?$_Tmap_traits@V?$basic_string@_WU?$char_traits@_W@std@@V?$allocator@_W@2@@std@@V12@U?$less@V?$basic_string@_WU?$char_traits@_W@std@@V?$allocator@_W@2@@std@@@2@V?$allocator@U?$pair@$$CBV?$basic_string@_WU?$char_traits@_W@std@@V?$allocator@_W@2@@std@@V12@@std@@@2@$0A@@std@@@std@@@2@V?$_Tree_const_iterator@V?$_Tree_val@V?$_Tmap_traits@V?$basic_string@_WU?$char_traits@_W@std@@V?$allocator@_W@2@@std@@V12@U?$less@V?$basic_string@_WU?$char_traits@_W@std@@V?$allocator@_W@2@@std@@@2@V?$allocator@U?$pair@$$CBV?$basic_string@_WU?$char_traits@_W@std@@V?$allocator@_W@2@@std@@V12@@std@@@2@$0A@@std@@@std@@@2@@Z 64008790 f i archive.obj
 0001:00007a40       ?_Copy@?$_Tree@V?$_Tmap_traits@V?$basic_string@_WU?$char_traits@_W@std@@V?$allocator@_W@2@@std@@V12@U?$less@V?$basic_string@_WU?$char_traits@_W@std@@V?$allocator@_W@2@@std@@@2@V?$allocator@U?$pair@$$CBV?$basic_string@_WU?$char_traits@_W@std@@V?$allocator@_W@2@@std@@V12@@std@@@2@$0A@@std@@@std@@IAEPAU_Node@?$_Tree_nod@V?$_Tmap_traits@V?$basic_string@_WU?$char_traits@_W@std@@V?$allocator@_W@2@@std@@V12@U?$less@V?$basic_string@_WU?$char_traits@_W@std@@V?$allocator@_W@2@@std@@@2@V?$allocator@U?$pair@$$CBV?$basic_string@_WU?$char_traits@_W@std@@V?$allocator@_W@2@@std@@V12@@std@@@2@$0A@@std@@@2@PAU342@0@Z 64008a40 f i archive.obj
 0001:00007b00       ?_Max@?$_Tree_val@V?$_Tmap_traits@V?$basic_string@_WU?$char_traits@_W@std@@V?$allocator@_W@2@@std@@V12@U?$less@V?$basic_string@_WU?$char_traits@_W@std@@V?$allocator@_W@2@@std@@@2@V?$allocator@U?$pair@$$CBV?$basic_string@_WU?$char_traits@_W@std@@V?$allocator@_W@2@@std@@V12@@std@@@2@$0A@@std@@@std@@SAPAU_Node@?$_Tree_nod@V?$_Tmap_traits@V?$basic_string@_WU?$char_traits@_W@std@@V?$allocator@_W@2@@std@@V12@U?$less@V?$basic_string@_WU?$char_traits@_W@std@@V?$allocator@_W@2@@std@@@2@V?$allocator@U?$pair@$$CBV?$basic_string@_WU?$char_traits@_W@std@@V?$allocator@_W@2@@std@@V12@@std@@@2@$0A@@std@@@2@PAU342@@Z 64008b00 f i archive.obj
 0001:00007b20       ?erase@?$_Tree@V?$_Tmap_traits@V?$vector@EV?$allocator@E@std@@@std@@UArcFormat@@U?$less@V?$vector@EV?$allocator@E@std@@@std@@@2@V?$allocator@U?$pair@$$CBV?$vector@EV?$allocator@E@std@@@std@@UArcFormat@@@std@@@2@$0A@@std@@@std@@QAE?AV?$_Tree_iterator@V?$_Tree_val@V?$_Tmap_traits@V?$vector@EV?$allocator@E@std@@@std@@UArcFormat@@U?$less@V?$vector@EV?$allocator@E@std@@@std@@@2@V?$allocator@U?$pair@$$CBV?$vector@EV?$allocator@E@std@@@std@@UArcFormat@@@std@@@2@$0A@@std@@@std@@@2@V?$_Tree_const_iterator@V?$_Tree_val@V?$_Tmap_traits@V?$vector@EV?$allocator@E@std@@@std@@UArcFormat@@U?$less@V?$vector@EV?$allocator@E@std@@@std@@@2@V?$allocator@U?$pair@$$CBV?$vector@EV?$allocator@E@std@@@std@@UArcFormat@@@std@@@2@$0A@@std@@@std@@@2@@Z 64008b20 f i archive.obj
 0001:00007df0       ?allocate@?$allocator@UArcLib@@@std@@QAEPAUArcLib@@I@Z 64008df0 f i archive.obj
 0001:00007e50       ?erase@?$_Tree@V?$_Tset_traits@IU?$less@I@std@@V?$allocator@I@2@$0A@@std@@@std@@QAE?AV?$_Tree_const_iterator@V?$_Tree_val@V?$_Tset_traits@IU?$less@I@std@@V?$allocator@I@2@$0A@@std@@@std@@@2@V32@@Z 64008e50 f i archive.obj
 0001:000080d0       ?clear@?$_Tree@V?$_Tset_traits@IU?$less@I@std@@V?$allocator@I@2@$0A@@std@@@std@@QAEXXZ 640090d0 f i archive.obj
 0001:00008120       ?_Insert@?$_Tree@V?$_Tset_traits@IU?$less@I@std@@V?$allocator@I@2@$0A@@std@@@std@@IAE?AV?$_Tree_const_iterator@V?$_Tree_val@V?$_Tset_traits@IU?$less@I@std@@V?$allocator@I@2@$0A@@std@@@std@@@2@_NPAU_Node@?$_Tree_nod@V?$_Tset_traits@IU?$less@I@std@@V?$allocator@I@2@$0A@@std@@@2@1@Z 64009120 f i archive.obj
 0001:00008340       ??F?$_Tree_unchecked_const_iterator@V?$_Tree_val@V?$_Tset_traits@IU?$less@I@std@@V?$allocator@I@2@$0A@@std@@@std@@U_Iterator_base0@2@@std@@QAEAAV01@XZ 64009340 f i archive.obj
 0001:000083a0       ?erase@?$_Tree@V?$_Tmap_traits@HIU?$less@H@std@@V?$allocator@U?$pair@$$CBHI@std@@@2@$0A@@std@@@std@@QAE?AV?$_Tree_iterator@V?$_Tree_val@V?$_Tmap_traits@HIU?$less@H@std@@V?$allocator@U?$pair@$$CBHI@std@@@2@$0A@@std@@@std@@@2@V?$_Tree_const_iterator@V?$_Tree_val@V?$_Tmap_traits@HIU?$less@H@std@@V?$allocator@U?$pair@$$CBHI@std@@@2@$0A@@std@@@std@@@2@@Z 640093a0 f i ui.obj
 0001:000083a0       ?erase@?$_Tree@V?$_Tmap_traits@IIU?$less@I@std@@V?$allocator@U?$pair@$$CBII@std@@@2@$0A@@std@@@std@@QAE?AV?$_Tree_iterator@V?$_Tree_val@V?$_Tmap_traits@IIU?$less@I@std@@V?$allocator@U?$pair@$$CBII@std@@@2@$0A@@std@@@std@@@2@V?$_Tree_const_iterator@V?$_Tree_val@V?$_Tmap_traits@IIU?$less@I@std@@V?$allocator@U?$pair@$$CBII@std@@@2@$0A@@std@@@std@@@2@@Z 640093a0 f i archive.obj
 0001:00008620       ?erase@?$_Tree@V?$_Tset_traits@UDirInfo@?4??make_index@Archive@@QAEXXZ@U?$less@UDirInfo@?4??make_index@Archive@@QAEXXZ@@std@@V?$allocator@UDirInfo@?4??make_index@Archive@@QAEXXZ@@5@$0A@@std@@@std@@QAE?AV?$_Tree_const_iterator@V?$_Tree_val@V?$_Tset_traits@UDirInfo@?4??make_index@Archive@@QAEXXZ@U?$less@UDirInfo@?4??make_index@Archive@@QAEXXZ@@std@@V?$allocator@UDirInfo@?4??make_index@Archive@@QAEXXZ@@5@$0A@@std@@@std@@@2@V32@@Z 64009620 f i archive.obj
 0001:000088c0       ??0?$_Tree@V?$_Tmap_traits@V?$basic_string@_WU?$char_traits@_W@std@@V?$allocator@_W@2@@std@@V12@U?$less@V?$basic_string@_WU?$char_traits@_W@std@@V?$allocator@_W@2@@std@@@2@V?$allocator@U?$pair@$$CBV?$basic_string@_WU?$char_traits@_W@std@@V?$allocator@_W@2@@std@@V12@@std@@@2@$0A@@std@@@std@@QAE@ABV01@@Z 640098c0 f i archive.obj
 0001:00008990       ?_Erase@?$_Tree@V?$_Tmap_traits@V?$basic_string@_WU?$char_traits@_W@std@@V?$allocator@_W@2@@std@@V12@U?$less@V?$basic_string@_WU?$char_traits@_W@std@@V?$allocator@_W@2@@std@@@2@V?$allocator@U?$pair@$$CBV?$basic_string@_WU?$char_traits@_W@std@@V?$allocator@_W@2@@std@@V12@@std@@@2@$0A@@std@@@std@@IAEXPAU_Node@?$_Tree_nod@V?$_Tmap_traits@V?$basic_string@_WU?$char_traits@_W@std@@V?$allocator@_W@2@@std@@V12@U?$less@V?$basic_string@_WU?$char_traits@_W@std@@V?$allocator@_W@2@@std@@@2@V?$allocator@U?$pair@$$CBV?$basic_string@_WU?$char_traits@_W@std@@V?$allocator@_W@2@@std@@V12@@std@@@2@$0A@@std@@@2@@Z 64009990 f i archive.obj
 0001:00008a20       ?_Lrotate@?$_Tree@V?$_Tmap_traits@V?$basic_string@_WU?$char_traits@_W@std@@V?$allocator@_W@2@@std@@V12@U?$less@V?$basic_string@_WU?$char_traits@_W@std@@V?$allocator@_W@2@@std@@@2@V?$allocator@U?$pair@$$CBV?$basic_string@_WU?$char_traits@_W@std@@V?$allocator@_W@2@@std@@V12@@std@@@2@$0A@@std@@@std@@IAEXPAU_Node@?$_Tree_nod@V?$_Tmap_traits@V?$basic_string@_WU?$char_traits@_W@std@@V?$allocator@_W@2@@std@@V12@U?$less@V?$basic_string@_WU?$char_traits@_W@std@@V?$allocator@_W@2@@std@@@2@V?$allocator@U?$pair@$$CBV?$basic_string@_WU?$char_traits@_W@std@@V?$allocator@_W@2@@std@@V12@@std@@@2@$0A@@std@@@2@@Z 64009a20 f i archive.obj
 0001:00008a70       ?_Rrotate@?$_Tree@V?$_Tmap_traits@V?$basic_string@_WU?$char_traits@_W@std@@V?$allocator@_W@2@@std@@V12@U?$less@V?$basic_string@_WU?$char_traits@_W@std@@V?$allocator@_W@2@@std@@@2@V?$allocator@U?$pair@$$CBV?$basic_string@_WU?$char_traits@_W@std@@V?$allocator@_W@2@@std@@V12@@std@@@2@$0A@@std@@@std@@IAEXPAU_Node@?$_Tree_nod@V?$_Tmap_traits@V?$basic_string@_WU?$char_traits@_W@std@@V?$allocator@_W@2@@std@@V12@U?$less@V?$basic_string@_WU?$char_traits@_W@std@@V?$allocator@_W@2@@std@@@2@V?$allocator@U?$pair@$$CBV?$basic_string@_WU?$char_traits@_W@std@@V?$allocator@_W@2@@std@@V12@@std@@@2@$0A@@std@@@2@@Z 64009a70 f i archive.obj
 0001:00008ac0       ?_Erase@?$_Tree@V?$_Tmap_traits@V?$vector@EV?$allocator@E@std@@@std@@UArcFormat@@U?$less@V?$vector@EV?$allocator@E@std@@@std@@@2@V?$allocator@U?$pair@$$CBV?$vector@EV?$allocator@E@std@@@std@@UArcFormat@@@std@@@2@$0A@@std@@@std@@IAEXPAU_Node@?$_Tree_nod@V?$_Tmap_traits@V?$vector@EV?$allocator@E@std@@@std@@UArcFormat@@U?$less@V?$vector@EV?$allocator@E@std@@@std@@@2@V?$allocator@U?$pair@$$CBV?$vector@EV?$allocator@E@std@@@std@@UArcFormat@@@std@@@2@$0A@@std@@@2@@Z 64009ac0 f i archive.obj
 0001:00008b60       ?_Lrotate@?$_Tree@V?$_Tmap_traits@V?$vector@EV?$allocator@E@std@@@std@@UArcFormat@@U?$less@V?$vector@EV?$allocator@E@std@@@std@@@2@V?$allocator@U?$pair@$$CBV?$vector@EV?$allocator@E@std@@@std@@UArcFormat@@@std@@@2@$0A@@std@@@std@@IAEXPAU_Node@?$_Tree_nod@V?$_Tmap_traits@V?$vector@EV?$allocator@E@std@@@std@@UArcFormat@@U?$less@V?$vector@EV?$allocator@E@std@@@std@@@2@V?$allocator@U?$pair@$$CBV?$vector@EV?$allocator@E@std@@@std@@UArcFormat@@@std@@@2@$0A@@std@@@2@@Z 64009b60 f i archive.obj
 0001:00008bb0       ?_Rrotate@?$_Tree@V?$_Tmap_traits@V?$vector@EV?$allocator@E@std@@@std@@UArcFormat@@U?$less@V?$vector@EV?$allocator@E@std@@@std@@@2@V?$allocator@U?$pair@$$CBV?$vector@EV?$allocator@E@std@@@std@@UArcFormat@@@std@@@2@$0A@@std@@@std@@IAEXPAU_Node@?$_Tree_nod@V?$_Tmap_traits@V?$vector@EV?$allocator@E@std@@@std@@UArcFormat@@U?$less@V?$vector@EV?$allocator@E@std@@@std@@@2@V?$allocator@U?$pair@$$CBV?$vector@EV?$allocator@E@std@@@std@@UArcFormat@@@std@@@2@$0A@@std@@@2@@Z 64009bb0 f i archive.obj
 0001:00008c00       ?_Max@?$_Tree_val@V?$_Tmap_traits@V?$vector@EV?$allocator@E@std@@@std@@UArcFormat@@U?$less@V?$vector@EV?$allocator@E@std@@@std@@@2@V?$allocator@U?$pair@$$CBV?$vector@EV?$allocator@E@std@@@std@@UArcFormat@@@std@@@2@$0A@@std@@@std@@SAPAU_Node@?$_Tree_nod@V?$_Tmap_traits@V?$vector@EV?$allocator@E@std@@@std@@UArcFormat@@U?$less@V?$vector@EV?$allocator@E@std@@@std@@@2@V?$allocator@U?$pair@$$CBV?$vector@EV?$allocator@E@std@@@std@@UArcFormat@@@std@@@2@$0A@@std@@@2@PAU342@@Z 64009c00 f i archive.obj
 0001:00008c20       ?_Erase@?$_Tree@V?$_Tset_traits@IU?$less@I@std@@V?$allocator@I@2@$0A@@std@@@std@@IAEXPAU_Node@?$_Tree_nod@V?$_Tset_traits@IU?$less@I@std@@V?$allocator@I@2@$0A@@std@@@2@@Z 64009c20 f i archive.obj
 0001:00008c60       ?_Lrotate@?$_Tree@V?$_Tset_traits@IU?$less@I@std@@V?$allocator@I@2@$0A@@std@@@std@@IAEXPAU_Node@?$_Tree_nod@V?$_Tset_traits@IU?$less@I@std@@V?$allocator@I@2@$0A@@std@@@2@@Z 64009c60 f i archive.obj
 0001:00008cb0       ?_Rrotate@?$_Tree@V?$_Tset_traits@IU?$less@I@std@@V?$allocator@I@2@$0A@@std@@@std@@IAEXPAU_Node@?$_Tree_nod@V?$_Tset_traits@IU?$less@I@std@@V?$allocator@I@2@$0A@@std@@@2@@Z 64009cb0 f i archive.obj
 0001:00008d00       ?_Max@?$_Tree_val@V?$_Tset_traits@IU?$less@I@std@@V?$allocator@I@2@$0A@@std@@@std@@SAPAU_Node@?$_Tree_nod@V?$_Tset_traits@IU?$less@I@std@@V?$allocator@I@2@$0A@@std@@@2@PAU342@@Z 64009d00 f i archive.obj
 0001:00008d20       ?_Lrotate@?$_Tree@V?$_Tmap_traits@IIU?$less@I@std@@V?$allocator@U?$pair@$$CBII@std@@@2@$0A@@std@@@std@@IAEXPAU_Node@?$_Tree_nod@V?$_Tmap_traits@IIU?$less@I@std@@V?$allocator@U?$pair@$$CBII@std@@@2@$0A@@std@@@2@@Z 64009d20 f i archive.obj
 0001:00008d20       ?_Lrotate@?$_Tree@V?$_Tmap_traits@HIU?$less@H@std@@V?$allocator@U?$pair@$$CBHI@std@@@2@$0A@@std@@@std@@IAEXPAU_Node@?$_Tree_nod@V?$_Tmap_traits@HIU?$less@H@std@@V?$allocator@U?$pair@$$CBHI@std@@@2@$0A@@std@@@2@@Z 64009d20 f i ui.obj
 0001:00008d70       ?_Rrotate@?$_Tree@V?$_Tmap_traits@IIU?$less@I@std@@V?$allocator@U?$pair@$$CBII@std@@@2@$0A@@std@@@std@@IAEXPAU_Node@?$_Tree_nod@V?$_Tmap_traits@IIU?$less@I@std@@V?$allocator@U?$pair@$$CBII@std@@@2@$0A@@std@@@2@@Z 64009d70 f i archive.obj
 0001:00008d70       ?_Rrotate@?$_Tree@V?$_Tmap_traits@HIU?$less@H@std@@V?$allocator@U?$pair@$$CBHI@std@@@2@$0A@@std@@@std@@IAEXPAU_Node@?$_Tree_nod@V?$_Tmap_traits@HIU?$less@H@std@@V?$allocator@U?$pair@$$CBHI@std@@@2@$0A@@std@@@2@@Z 64009d70 f i ui.obj
 0001:00008dc0       ?_Max@?$_Tree_val@V?$_Tmap_traits@IIU?$less@I@std@@V?$allocator@U?$pair@$$CBII@std@@@2@$0A@@std@@@std@@SAPAU_Node@?$_Tree_nod@V?$_Tmap_traits@IIU?$less@I@std@@V?$allocator@U?$pair@$$CBII@std@@@2@$0A@@std@@@2@PAU342@@Z 64009dc0 f i archive.obj
 0001:00008dc0       ?_Max@?$_Tree_val@V?$_Tmap_traits@HIU?$less@H@std@@V?$allocator@U?$pair@$$CBHI@std@@@2@$0A@@std@@@std@@SAPAU_Node@?$_Tree_nod@V?$_Tmap_traits@HIU?$less@H@std@@V?$allocator@U?$pair@$$CBHI@std@@@2@$0A@@std@@@2@PAU342@@Z 64009dc0 f i ui.obj
 0001:00008de0       ?_Erase@?$_Tree@V?$_Tset_traits@UDirInfo@?4??make_index@Archive@@QAEXXZ@U?$less@UDirInfo@?4??make_index@Archive@@QAEXXZ@@std@@V?$allocator@UDirInfo@?4??make_index@Archive@@QAEXXZ@@5@$0A@@std@@@std@@IAEXPAU_Node@?$_Tree_nod@V?$_Tset_traits@UDirInfo@?4??make_index@Archive@@QAEXXZ@U?$less@UDirInfo@?4??make_index@Archive@@QAEXXZ@@std@@V?$allocator@UDirInfo@?4??make_index@Archive@@QAEXXZ@@5@$0A@@std@@@2@@Z 64009de0 f i archive.obj
 0001:00008e40       ?_Lrotate@?$_Tree@V?$_Tset_traits@UDirInfo@?4??make_index@Archive@@QAEXXZ@U?$less@UDirInfo@?4??make_index@Archive@@QAEXXZ@@std@@V?$allocator@UDirInfo@?4??make_index@Archive@@QAEXXZ@@5@$0A@@std@@@std@@IAEXPAU_Node@?$_Tree_nod@V?$_Tset_traits@UDirInfo@?4??make_index@Archive@@QAEXXZ@U?$less@UDirInfo@?4??make_index@Archive@@QAEXXZ@@std@@V?$allocator@UDirInfo@?4??make_index@Archive@@QAEXXZ@@5@$0A@@std@@@2@@Z 64009e40 f i archive.obj
 0001:00008e90       ?_Rrotate@?$_Tree@V?$_Tset_traits@UDirInfo@?4??make_index@Archive@@QAEXXZ@U?$less@UDirInfo@?4??make_index@Archive@@QAEXXZ@@std@@V?$allocator@UDirInfo@?4??make_index@Archive@@QAEXXZ@@5@$0A@@std@@@std@@IAEXPAU_Node@?$_Tree_nod@V?$_Tset_traits@UDirInfo@?4??make_index@Archive@@QAEXXZ@U?$less@UDirInfo@?4??make_index@Archive@@QAEXXZ@@std@@V?$allocator@UDirInfo@?4??make_index@Archive@@QAEXXZ@@5@$0A@@std@@@2@@Z 64009e90 f i archive.obj
 0001:00008ee0       ?_Max@?$_Tree_val@V?$_Tset_traits@UDirInfo@?4??make_index@Archive@@QAEXXZ@U?$less@UDirInfo@?4??make_index@Archive@@QAEXXZ@@std@@V?$allocator@UDirInfo@?4??make_index@Archive@@QAEXXZ@@5@$0A@@std@@@std@@SAPAU_Node@?$_Tree_nod@V?$_Tset_traits@UDirInfo@?4??make_index@Archive@@QAEXXZ@U?$less@UDirInfo@?4??make_index@Archive@@QAEXXZ@@std@@V?$allocator@UDirInfo@?4??make_index@Archive@@QAEXXZ@@5@$0A@@std@@@2@PAU342@@Z 64009ee0 f i archive.obj
 0001:00008f00       ??E?$_Tree_unchecked_const_iterator@V?$_Tree_val@V?$_Tset_traits@IU?$less@I@std@@V?$allocator@I@2@$0A@@std@@@std@@U_Iterator_base0@2@@std@@QAEAAV01@XZ 64009f00 f i archive.obj
 0001:00008f50       ??E?$_Tree_unchecked_const_iterator@V?$_Tree_val@V?$_Tmap_traits@V?$basic_string@_WU?$char_traits@_W@std@@V?$allocator@_W@2@@std@@V12@U?$less@V?$basic_string@_WU?$char_traits@_W@std@@V?$allocator@_W@2@@std@@@2@V?$allocator@U?$pair@$$CBV?$basic_string@_WU?$char_traits@_W@std@@V?$allocator@_W@2@@std@@V12@@std@@@2@$0A@@std@@@std@@U_Iterator_base0@2@@std@@QAEAAV01@XZ 64009f50 f i archive.obj
 0001:00008fa0       ??E?$_Tree_unchecked_const_iterator@V?$_Tree_val@V?$_Tset_traits@UDirInfo@?4??make_index@Archive@@QAEXXZ@U?$less@UDirInfo@?4??make_index@Archive@@QAEXXZ@@std@@V?$allocator@UDirInfo@?4??make_index@Archive@@QAEXXZ@@5@$0A@@std@@@std@@U_Iterator_base0@2@@std@@QAEAAV01@XZ 64009fa0 f i archive.obj
 0001:00008ff0       ??E?$_Tree_unchecked_const_iterator@V?$_Tree_val@V?$_Tmap_traits@HIU?$less@H@std@@V?$allocator@U?$pair@$$CBHI@std@@@2@$0A@@std@@@std@@U_Iterator_base0@2@@std@@QAEAAV01@XZ 64009ff0 f i ui.obj
 0001:00008ff0       ??E?$_Tree_unchecked_const_iterator@V?$_Tree_val@V?$_Tmap_traits@IIU?$less@I@std@@V?$allocator@U?$pair@$$CBII@std@@@2@$0A@@std@@@std@@U_Iterator_base0@2@@std@@QAEAAV01@XZ 64009ff0 f i archive.obj
 0001:00009040       ??$assign@PAE@?$vector@EV?$allocator@E@std@@@std@@QAEXPAE0@Z 6400a040 f i archive.obj
 0001:00009080       ??$?H_WU?$char_traits@_W@std@@V?$allocator@_W@1@@std@@YA?AV?$basic_string@_WU?$char_traits@_W@std@@V?$allocator@_W@2@@0@$$QAV10@PB_W@Z 6400a080 f i archive.obj
 0001:000090d0       ??$?9_WU?$char_traits@_W@std@@V?$allocator@_W@1@@std@@YA_NABV?$basic_string@_WU?$char_traits@_W@std@@V?$allocator@_W@2@@0@0@Z 6400a0d0 f i archive.obj
 0001:000090f0       ??$?H_WU?$char_traits@_W@std@@V?$allocator@_W@1@@std@@YA?AV?$basic_string@_WU?$char_traits@_W@std@@V?$allocator@_W@2@@0@$$QAV10@0@Z 6400a0f0 f i archive.obj
 0001:00009170       ??$_Buynode@AAU?$pair@$$CBV?$basic_string@_WU?$char_traits@_W@std@@V?$allocator@_W@2@@std@@V12@@std@@@?$_Tree_val@V?$_Tmap_traits@V?$basic_string@_WU?$char_traits@_W@std@@V?$allocator@_W@2@@std@@V12@U?$less@V?$basic_string@_WU?$char_traits@_W@std@@V?$allocator@_W@2@@std@@@2@V?$allocator@U?$pair@$$CBV?$basic_string@_WU?$char_traits@_W@std@@V?$allocator@_W@2@@std@@V12@@std@@@2@$0A@@std@@@std@@QAEPAU_Node@?$_Tree_nod@V?$_Tmap_traits@V?$basic_string@_WU?$char_traits@_W@std@@V?$allocator@_W@2@@std@@V12@U?$less@V?$basic_string@_WU?$char_traits@_W@std@@V?$allocator@_W@2@@std@@@2@V?$allocator@U?$pair@$$CBV?$basic_string@_WU?$char_traits@_W@std@@V?$allocator@_W@2@@std@@V12@@std@@@2@$0A@@std@@@1@AAU?$pair@$$CBV?$basic_string@_WU?$char_traits@_W@std@@V?$allocator@_W@2@@std@@V12@@1@@Z 6400a170 f i archive.obj
 0001:00009280       ?_Insert@?$_Tree@V?$_Tmap_traits@V?$basic_string@_WU?$char_traits@_W@std@@V?$allocator@_W@2@@std@@V12@U?$less@V?$basic_string@_WU?$char_traits@_W@std@@V?$allocator@_W@2@@std@@@2@V?$allocator@U?$pair@$$CBV?$basic_string@_WU?$char_traits@_W@std@@V?$allocator@_W@2@@std@@V12@@std@@@2@$0A@@std@@@std@@QAE?AV?$_Tree_iterator@V?$_Tree_val@V?$_Tmap_traits@V?$basic_string@_WU?$char_traits@_W@std@@V?$allocator@_W@2@@std@@V12@U?$less@V?$basic_string@_WU?$char_traits@_W@std@@V?$allocator@_W@2@@std@@@2@V?$allocator@U?$pair@$$CBV?$basic_string@_WU?$char_traits@_W@std@@V?$allocator@_W@2@@std@@V12@@std@@@2@$0A@@std@@@std@@@2@V?$_Tree_const_iterator@V?$_Tree_val@V?$_Tmap_traits@V?$basic_string@_WU?$char_traits@_W@std@@V?$allocator@_W@2@@std@@V12@U?$less@V?$basic_string@_WU?$char_traits@_W@std@@V?$allocator@_W@2@@std@@@2@V?$allocator@U?$pair@$$CBV?$basic_string@_WU?$char_traits@_W@std@@V?$allocator@_W@2@@std@@V12@@std@@@2@$0A@@std@@@std@@@2@PAU_Node@?$_Tree_nod@V?$_Tmap_traits@V?$basic_string@_WU?$char_traits@_W@std@@V?$allocator@_W@2@@std@@V12@U?$less@V?$basic_string@_WU?$char_traits@_W@std@@V?$allocator@_W@2@@std@@@2@V?$allocator@U?$pair@$$CBV?$basic_string@_WU?$char_traits@_W@std@@V?$allocator@_W@2@@std@@V12@@std@@@2@$0A@@std@@@2@@Z 6400a280 f i archive.obj
 0001:00009470       ?_Insert@?$_Tree@V?$_Tmap_traits@V?$vector@EV?$allocator@E@std@@@std@@UArcFormat@@U?$less@V?$vector@EV?$allocator@E@std@@@std@@@2@V?$allocator@U?$pair@$$CBV?$vector@EV?$allocator@E@std@@@std@@UArcFormat@@@std@@@2@$0A@@std@@@std@@QAE?AV?$_Tree_iterator@V?$_Tree_val@V?$_Tmap_traits@V?$vector@EV?$allocator@E@std@@@std@@UArcFormat@@U?$less@V?$vector@EV?$allocator@E@std@@@std@@@2@V?$allocator@U?$pair@$$CBV?$vector@EV?$allocator@E@std@@@std@@UArcFormat@@@std@@@2@$0A@@std@@@std@@@2@V?$_Tree_const_iterator@V?$_Tree_val@V?$_Tmap_traits@V?$vector@EV?$allocator@E@std@@@std@@UArcFormat@@U?$less@V?$vector@EV?$allocator@E@std@@@std@@@2@V?$allocator@U?$pair@$$CBV?$vector@EV?$allocator@E@std@@@std@@UArcFormat@@@std@@@2@$0A@@std@@@std@@@2@PAU_Node@?$_Tree_nod@V?$_Tmap_traits@V?$vector@EV?$allocator@E@std@@@std@@UArcFormat@@U?$less@V?$vector@EV?$allocator@E@std@@@std@@@2@V?$allocator@U?$pair@$$CBV?$vector@EV?$allocator@E@std@@@std@@UArcFormat@@@std@@@2@$0A@@std@@@2@@Z 6400a470 f i archive.obj
 0001:00009640       ?_Insert@?$_Tree@V?$_Tmap_traits@IIU?$less@I@std@@V?$allocator@U?$pair@$$CBII@std@@@2@$0A@@std@@@std@@QAE?AV?$_Tree_iterator@V?$_Tree_val@V?$_Tmap_traits@IIU?$less@I@std@@V?$allocator@U?$pair@$$CBII@std@@@2@$0A@@std@@@std@@@2@V?$_Tree_const_iterator@V?$_Tree_val@V?$_Tmap_traits@IIU?$less@I@std@@V?$allocator@U?$pair@$$CBII@std@@@2@$0A@@std@@@std@@@2@PAU_Node@?$_Tree_nod@V?$_Tmap_traits@IIU?$less@I@std@@V?$allocator@U?$pair@$$CBII@std@@@2@$0A@@std@@@2@@Z 6400a640 f i archive.obj
 0001:00009770       ?_Linsert@?$_Tree@V?$_Tset_traits@UDirInfo@?4??make_index@Archive@@QAEXXZ@U?$less@UDirInfo@?4??make_index@Archive@@QAEXXZ@@std@@V?$allocator@UDirInfo@?4??make_index@Archive@@QAEXXZ@@5@$0A@@std@@@std@@QAE?AU?$pair@V?$_Tree_const_iterator@V?$_Tree_val@V?$_Tset_traits@UDirInfo@?4??make_index@Archive@@QAEXXZ@U?$less@UDirInfo@?4??make_index@Archive@@QAEXXZ@@std@@V?$allocator@UDirInfo@?4??make_index@Archive@@QAEXXZ@@5@$0A@@std@@@std@@@std@@_N@2@PAU_Node@?$_Tree_nod@V?$_Tset_traits@UDirInfo@?4??make_index@Archive@@QAEXXZ@U?$less@UDirInfo@?4??make_index@Archive@@QAEXXZ@@std@@V?$allocator@UDirInfo@?4??make_index@Archive@@QAEXXZ@@5@$0A@@std@@@2@_N@Z 6400a770 f i archive.obj
 0001:000098d0       ?compare@?$basic_string@_WU?$char_traits@_W@std@@V?$allocator@_W@2@@std@@QBEHIIPB_WI@Z 6400a8d0 f i archive.obj
 0001:00009940       ?_Linsert@?$_Tree@V?$_Tmap_traits@V?$basic_string@_WU?$char_traits@_W@std@@V?$allocator@_W@2@@std@@V12@U?$less@V?$basic_string@_WU?$char_traits@_W@std@@V?$allocator@_W@2@@std@@@2@V?$allocator@U?$pair@$$CBV?$basic_string@_WU?$char_traits@_W@std@@V?$allocator@_W@2@@std@@V12@@std@@@2@$0A@@std@@@std@@QAE?AU?$pair@V?$_Tree_iterator@V?$_Tree_val@V?$_Tmap_traits@V?$basic_string@_WU?$char_traits@_W@std@@V?$allocator@_W@2@@std@@V12@U?$less@V?$basic_string@_WU?$char_traits@_W@std@@V?$allocator@_W@2@@std@@@2@V?$allocator@U?$pair@$$CBV?$basic_string@_WU?$char_traits@_W@std@@V?$allocator@_W@2@@std@@V12@@std@@@2@$0A@@std@@@std@@@std@@_N@2@PAU_Node@?$_Tree_nod@V?$_Tmap_traits@V?$basic_string@_WU?$char_traits@_W@std@@V?$allocator@_W@2@@std@@V12@U?$less@V?$basic_string@_WU?$char_traits@_W@std@@V?$allocator@_W@2@@std@@@2@V?$allocator@U?$pair@$$CBV?$basic_string@_WU?$char_traits@_W@std@@V?$allocator@_W@2@@std@@V12@@std@@@2@$0A@@std@@@2@_N@Z 6400a940 f i archive.obj
 0001:00009ad0       ?_Insert@?$_Tree@V?$_Tmap_traits@V?$basic_string@_WU?$char_traits@_W@std@@V?$allocator@_W@2@@std@@V12@U?$less@V?$basic_string@_WU?$char_traits@_W@std@@V?$allocator@_W@2@@std@@@2@V?$allocator@U?$pair@$$CBV?$basic_string@_WU?$char_traits@_W@std@@V?$allocator@_W@2@@std@@V12@@std@@@2@$0A@@std@@@std@@IAE?AV?$_Tree_iterator@V?$_Tree_val@V?$_Tmap_traits@V?$basic_string@_WU?$char_traits@_W@std@@V?$allocator@_W@2@@std@@V12@U?$less@V?$basic_string@_WU?$char_traits@_W@std@@V?$allocator@_W@2@@std@@@2@V?$allocator@U?$pair@$$CBV?$basic_string@_WU?$char_traits@_W@std@@V?$allocator@_W@2@@std@@V12@@std@@@2@$0A@@std@@@std@@@2@_NPAU_Node@?$_Tree_nod@V?$_Tmap_traits@V?$basic_string@_WU?$char_traits@_W@std@@V?$allocator@_W@2@@std@@V12@U?$less@V?$basic_string@_WU?$char_traits@_W@std@@V?$allocator@_W@2@@std@@@2@V?$allocator@U?$pair@$$CBV?$basic_string@_WU?$char_traits@_W@std@@V?$allocator@_W@2@@std@@V12@@std@@@2@$0A@@std@@@2@1@Z 6400aad0 f i archive.obj
 0001:00009d20       ?_Linsert@?$_Tree@V?$_Tmap_traits@V?$vector@EV?$allocator@E@std@@@std@@UArcFormat@@U?$less@V?$vector@EV?$allocator@E@std@@@std@@@2@V?$allocator@U?$pair@$$CBV?$vector@EV?$allocator@E@std@@@std@@UArcFormat@@@std@@@2@$0A@@std@@@std@@QAE?AU?$pair@V?$_Tree_iterator@V?$_Tree_val@V?$_Tmap_traits@V?$vector@EV?$allocator@E@std@@@std@@UArcFormat@@U?$less@V?$vector@EV?$allocator@E@std@@@std@@@2@V?$allocator@U?$pair@$$CBV?$vector@EV?$allocator@E@std@@@std@@UArcFormat@@@std@@@2@$0A@@std@@@std@@@std@@_N@2@PAU_Node@?$_Tree_nod@V?$_Tmap_traits@V?$vector@EV?$allocator@E@std@@@std@@UArcFormat@@U?$less@V?$vector@EV?$allocator@E@std@@@std@@@2@V?$allocator@U?$pair@$$CBV?$vector@EV?$allocator@E@std@@@std@@UArcFormat@@@std@@@2@$0A@@std@@@2@_N@Z 6400ad20 f i archive.obj
 0001:00009e70       ?_Insert@?$_Tree@V?$_Tmap_traits@V?$vector@EV?$allocator@E@std@@@std@@UArcFormat@@U?$less@V?$vector@EV?$allocator@E@std@@@std@@@2@V?$allocator@U?$pair@$$CBV?$vector@EV?$allocator@E@std@@@std@@UArcFormat@@@std@@@2@$0A@@std@@@std@@IAE?AV?$_Tree_iterator@V?$_Tree_val@V?$_Tmap_traits@V?$vector@EV?$allocator@E@std@@@std@@UArcFormat@@U?$less@V?$vector@EV?$allocator@E@std@@@std@@@2@V?$allocator@U?$pair@$$CBV?$vector@EV?$allocator@E@std@@@std@@UArcFormat@@@std@@@2@$0A@@std@@@std@@@2@_NPAU_Node@?$_Tree_nod@V?$_Tmap_traits@V?$vector@EV?$allocator@E@std@@@std@@UArcFormat@@U?$less@V?$vector@EV?$allocator@E@std@@@std@@@2@V?$allocator@U?$pair@$$CBV?$vector@EV?$allocator@E@std@@@std@@UArcFormat@@@std@@@2@$0A@@std@@@2@1@Z 6400ae70 f i archive.obj
 0001:0000a0e0       ?_Linsert@?$_Tree@V?$_Tmap_traits@IIU?$less@I@std@@V?$allocator@U?$pair@$$CBII@std@@@2@$0A@@std@@@std@@QAE?AU?$pair@V?$_Tree_iterator@V?$_Tree_val@V?$_Tmap_traits@IIU?$less@I@std@@V?$allocator@U?$pair@$$CBII@std@@@2@$0A@@std@@@std@@@std@@_N@2@PAU_Node@?$_Tree_nod@V?$_Tmap_traits@IIU?$less@I@std@@V?$allocator@U?$pair@$$CBII@std@@@2@$0A@@std@@@2@_N@Z 6400b0e0 f i archive.obj
 0001:0000a1b0       ?_Insert@?$_Tree@V?$_Tset_traits@UDirInfo@?4??make_index@Archive@@QAEXXZ@U?$less@UDirInfo@?4??make_index@Archive@@QAEXXZ@@std@@V?$allocator@UDirInfo@?4??make_index@Archive@@QAEXXZ@@5@$0A@@std@@@std@@IAE?AV?$_Tree_const_iterator@V?$_Tree_val@V?$_Tset_traits@UDirInfo@?4??make_index@Archive@@QAEXXZ@U?$less@UDirInfo@?4??make_index@Archive@@QAEXXZ@@std@@V?$allocator@UDirInfo@?4??make_index@Archive@@QAEXXZ@@5@$0A@@std@@@std@@@2@_NPAU_Node@?$_Tree_nod@V?$_Tset_traits@UDirInfo@?4??make_index@Archive@@QAEXXZ@U?$less@UDirInfo@?4??make_index@Archive@@QAEXXZ@@std@@V?$allocator@UDirInfo@?4??make_index@Archive@@QAEXXZ@@5@$0A@@std@@@2@1@Z 6400b1b0 f i archive.obj
 0001:0000a400       ??F?$_Tree_unchecked_const_iterator@V?$_Tree_val@V?$_Tmap_traits@V?$vector@EV?$allocator@E@std@@@std@@UArcFormat@@U?$less@V?$vector@EV?$allocator@E@std@@@std@@@2@V?$allocator@U?$pair@$$CBV?$vector@EV?$allocator@E@std@@@std@@UArcFormat@@@std@@@2@$0A@@std@@@std@@U_Iterator_base0@2@@std@@QAEAAV01@XZ 6400b400 f i archive.obj
 0001:0000a460       ??F?$_Tree_unchecked_const_iterator@V?$_Tree_val@V?$_Tmap_traits@V?$basic_string@_WU?$char_traits@_W@std@@V?$allocator@_W@2@@std@@V12@U?$less@V?$basic_string@_WU?$char_traits@_W@std@@V?$allocator@_W@2@@std@@@2@V?$allocator@U?$pair@$$CBV?$basic_string@_WU?$char_traits@_W@std@@V?$allocator@_W@2@@std@@V12@@std@@@2@$0A@@std@@@std@@U_Iterator_base0@2@@std@@QAEAAV01@XZ 6400b460 f i archive.obj
 0001:0000a4c0       ??F?$_Tree_unchecked_const_iterator@V?$_Tree_val@V?$_Tset_traits@UDirInfo@?4??make_index@Archive@@QAEXXZ@U?$less@UDirInfo@?4??make_index@Archive@@QAEXXZ@@std@@V?$allocator@UDirInfo@?4??make_index@Archive@@QAEXXZ@@5@$0A@@std@@@std@@U_Iterator_base0@2@@std@@QAEAAV01@XZ 6400b4c0 f i archive.obj
 0001:0000a520       ??F?$_Tree_unchecked_const_iterator@V?$_Tree_val@V?$_Tmap_traits@HIU?$less@H@std@@V?$allocator@U?$pair@$$CBHI@std@@@2@$0A@@std@@@std@@U_Iterator_base0@2@@std@@QAEAAV01@XZ 6400b520 f i ui.obj
 0001:0000a520       ??F?$_Tree_unchecked_const_iterator@V?$_Tree_val@V?$_Tmap_traits@IIU?$less@I@std@@V?$allocator@U?$pair@$$CBII@std@@@2@$0A@@std@@@std@@U_Iterator_base0@2@@std@@QAEAAV01@XZ 6400b520 f i archive.obj
 0001:0000a580       ??$_Construct@PBE@?$vector@EV?$allocator@E@std@@@std@@QAEXPBE0Uinput_iterator_tag@1@@Z 6400b580 f i archive.obj
 0001:0000a5f0       ??$_For_each@V?$_List_unchecked_const_iterator@V?$_List_val@UArcEntry@@V?$allocator@UArcEntry@@@std@@@std@@U_Iterator_base0@2@@std@@V<lambda0>@?A0xe7bd9b10@@@std@@YA?AV<lambda0>@?A0xe7bd9b10@@V?$_List_unchecked_const_iterator@V?$_List_val@UArcEntry@@V?$allocator@UArcEntry@@@std@@@std@@U_Iterator_base0@2@@0@0V12@@Z 6400b5f0 f i archive.obj
 0001:0000a7b0       ??$?8_WU?$char_traits@_W@std@@V?$allocator@_W@1@@std@@YA_NABV?$basic_string@_WU?$char_traits@_W@std@@V?$allocator@_W@2@@0@PB_W@Z 6400b7b0 f i archive.obj
 0001:0000a7e0       ??$_For_each@V?$_Tree_unchecked_iterator@V?$_Tree_val@V?$_Tmap_traits@V?$vector@EV?$allocator@E@std@@@std@@UArcFormat@@U?$less@V?$vector@EV?$allocator@E@std@@@std@@@2@V?$allocator@U?$pair@$$CBV?$vector@EV?$allocator@E@std@@@std@@UArcFormat@@@std@@@2@$0A@@std@@@std@@@std@@V<lambda2>@?A0xe7bd9b10@@@std@@YA?AV<lambda2>@?A0xe7bd9b10@@V?$_Tree_unchecked_iterator@V?$_Tree_val@V?$_Tmap_traits@V?$vector@EV?$allocator@E@std@@@std@@UArcFormat@@U?$less@V?$vector@EV?$allocator@E@std@@@std@@@2@V?$allocator@U?$pair@$$CBV?$vector@EV?$allocator@E@std@@@std@@UArcFormat@@@std@@@2@$0A@@std@@@std@@@0@0V12@@Z 6400b7e0 f i archive.obj
 0001:0000a990       ??$_Buynode@AAUDirInfo@?4??make_index@Archive@@QAEXXZ@@?$_Tree_val@V?$_Tset_traits@UDirInfo@?4??make_index@Archive@@QAEXXZ@U?$less@UDirInfo@?4??make_index@Archive@@QAEXXZ@@std@@V?$allocator@UDirInfo@?4??make_index@Archive@@QAEXXZ@@5@$0A@@std@@@std@@QAEPAU_Node@?$_Tree_nod@V?$_Tset_traits@UDirInfo@?4??make_index@Archive@@QAEXXZ@U?$less@UDirInfo@?4??make_index@Archive@@QAEXXZ@@std@@V?$allocator@UDirInfo@?4??make_index@Archive@@QAEXXZ@@5@$0A@@std@@@1@AAUDirInfo@?4??make_index@Archive@@QAEXXZ@@Z 6400b990 f i archive.obj
 0001:0000aa80       ??$_For_each@V?$_Tree_unchecked_const_iterator@V?$_Tree_val@V?$_Tset_traits@UDirInfo@?4??make_index@Archive@@QAEXXZ@U?$less@UDirInfo@?4??make_index@Archive@@QAEXXZ@@std@@V?$allocator@UDirInfo@?4??make_index@Archive@@QAEXXZ@@5@$0A@@std@@@std@@U_Iterator_base0@2@@std@@V<lambda3>@?A0xe7bd9b10@@@std@@YA?AV<lambda3>@?A0xe7bd9b10@@V?$_Tree_unchecked_const_iterator@V?$_Tree_val@V?$_Tset_traits@UDirInfo@?4??make_index@Archive@@QAEXXZ@U?$less@UDirInfo@?4??make_index@Archive@@QAEXXZ@@std@@V?$allocator@UDirInfo@?4??make_index@Archive@@QAEXXZ@@5@$0A@@std@@@std@@U_Iterator_base0@2@@0@0V12@@Z 6400ba80 f i archive.obj
 0001:0000ab20       ??$_Sort@PAIHV<lambda5>@?A0xe7bd9b10@@@std@@YAXPAI0HV<lambda5>@?A0xe7bd9b10@@@Z 6400bb20 f i archive.obj
 0001:0000ac10       ??$_Equal_range@PAIHHV<lambda6>@?A0xe7bd9b10@@@std@@YA?AU?$pair@PAIPAI@0@PAI0ABHV<lambda6>@?A0xe7bd9b10@@PAH@Z 6400bc10 f i archive.obj
 0001:0000add0       ??$_Equal_range@PAIHHV<lambda7>@?A0xe7bd9b10@@@std@@YA?AU?$pair@PAIPAI@0@PAI0ABHV<lambda7>@?A0xe7bd9b10@@PAH@Z 6400bdd0 f i archive.obj
 0001:0000af10       ??$_Insert@V?$_List_const_iterator@V?$_List_val@V?$basic_string@_WU?$char_traits@_W@std@@V?$allocator@_W@2@@std@@V?$allocator@V?$basic_string@_WU?$char_traits@_W@std@@V?$allocator@_W@2@@std@@@2@@std@@@std@@@?$list@V?$basic_string@_WU?$char_traits@_W@std@@V?$allocator@_W@2@@std@@V?$allocator@V?$basic_string@_WU?$char_traits@_W@std@@V?$allocator@_W@2@@std@@@2@@std@@QAEXV?$_List_const_iterator@V?$_List_val@V?$basic_string@_WU?$char_traits@_W@std@@V?$allocator@_W@2@@std@@V?$allocator@V?$basic_string@_WU?$char_traits@_W@std@@V?$allocator@_W@2@@std@@@2@@std@@@1@00Uforward_iterator_tag@1@@Z 6400bf10 f i archive.obj
 0001:0000afe0       ??$_Buynode@V?$basic_string@_WU?$char_traits@_W@std@@V?$allocator@_W@2@@std@@@?$_List_val@V?$basic_string@_WU?$char_traits@_W@std@@V?$allocator@_W@2@@std@@V?$allocator@V?$basic_string@_WU?$char_traits@_W@std@@V?$allocator@_W@2@@std@@@2@@std@@QAEPAU_Node@?$_List_nod@V?$basic_string@_WU?$char_traits@_W@std@@V?$allocator@_W@2@@std@@V?$allocator@V?$basic_string@_WU?$char_traits@_W@std@@V?$allocator@_W@2@@std@@@2@@1@PAU231@0$$QAV?$basic_string@_WU?$char_traits@_W@std@@V?$allocator@_W@2@@1@@Z 6400bfe0 f i archive.obj
 0001:0000b0b0       ??$_Buynode@U?$pair@V?$basic_string@_WU?$char_traits@_W@std@@V?$allocator@_W@2@@std@@V12@@std@@@?$_Tree_val@V?$_Tmap_traits@V?$basic_string@_WU?$char_traits@_W@std@@V?$allocator@_W@2@@std@@V12@U?$less@V?$basic_string@_WU?$char_traits@_W@std@@V?$allocator@_W@2@@std@@@2@V?$allocator@U?$pair@$$CBV?$basic_string@_WU?$char_traits@_W@std@@V?$allocator@_W@2@@std@@V12@@std@@@2@$0A@@std@@@std@@QAEPAU_Node@?$_Tree_nod@V?$_Tmap_traits@V?$basic_string@_WU?$char_traits@_W@std@@V?$allocator@_W@2@@std@@V12@U?$less@V?$basic_string@_WU?$char_traits@_W@std@@V?$allocator@_W@2@@std@@@2@V?$allocator@U?$pair@$$CBV?$basic_string@_WU?$char_traits@_W@std@@V?$allocator@_W@2@@std@@V12@@std@@@2@$0A@@std@@@1@$$QAU?$pair@V?$basic_string@_WU?$char_traits@_W@std@@V?$allocator@_W@2@@std@@V12@@1@@Z 6400c0b0 f i archive.obj
 0001:0000b1b0       ??$_Buynode@U?$pair@$$CBV?$vector@EV?$allocator@E@std@@@std@@UArcFormat@@@std@@@?$_Tree_val@V?$_Tmap_traits@V?$vector@EV?$allocator@E@std@@@std@@UArcFormat@@U?$less@V?$vector@EV?$allocator@E@std@@@std@@@2@V?$allocator@U?$pair@$$CBV?$vector@EV?$allocator@E@std@@@std@@UArcFormat@@@std@@@2@$0A@@std@@@std@@QAEPAU_Node@?$_Tree_nod@V?$_Tmap_traits@V?$vector@EV?$allocator@E@std@@@std@@UArcFormat@@U?$less@V?$vector@EV?$allocator@E@std@@@std@@@2@V?$allocator@U?$pair@$$CBV?$vector@EV?$allocator@E@std@@@std@@UArcFormat@@@std@@@2@$0A@@std@@@1@$$QAU?$pair@$$CBV?$vector@EV?$allocator@E@std@@@std@@UArcFormat@@@1@@Z 6400c1b0 f i archive.obj
 0001:0000b290       ??$_Distance2@V?$_Tree_const_iterator@V?$_Tree_val@V?$_Tset_traits@IU?$less@I@std@@V?$allocator@I@2@$0A@@std@@@std@@@std@@I@std@@YAXV?$_Tree_const_iterator@V?$_Tree_val@V?$_Tset_traits@IU?$less@I@std@@V?$allocator@I@2@$0A@@std@@@std@@@0@0AAIUbidirectional_iterator_tag@0@@Z 6400c290 f i archive.obj
 0001:0000b300       ??$_Distance2@V?$_Tree_const_iterator@V?$_Tree_val@V?$_Tmap_traits@IIU?$less@I@std@@V?$allocator@U?$pair@$$CBII@std@@@2@$0A@@std@@@std@@@std@@I@std@@YAXV?$_Tree_const_iterator@V?$_Tree_val@V?$_Tmap_traits@IIU?$less@I@std@@V?$allocator@U?$pair@$$CBII@std@@@2@$0A@@std@@@std@@@0@0AAIUbidirectional_iterator_tag@0@@Z 6400c300 f i archive.obj
 0001:0000b370       ??$_Move@PAUArcFileInfo@@PAU1@@std@@YAPAUArcFileInfo@@PAU1@00U_Nonscalar_ptr_iterator_tag@0@@Z 6400c370 f i archive.obj
 0001:0000b3b0       ??$_Destroy_range@V?$allocator@UArcFileInfo@@@std@@@std@@YAXPAUArcFileInfo@@0AAV?$allocator@UArcFileInfo@@@0@U_Nonscalar_ptr_iterator_tag@0@@Z 6400c3b0 f i archive.obj
 0001:0000b3f0       ??$_Destroy_range@V?$allocator@UArcLib@@@std@@@std@@YAXPAUArcLib@@0AAV?$allocator@UArcLib@@@0@U_Nonscalar_ptr_iterator_tag@0@@Z 6400c3f0 f i archive.obj
 0001:0000b430       ??0ArcLib@@QAE@ABU0@@Z     6400c430 f i archive.obj
 0001:0000b490       ??$_Unguarded_partition@PAIV<lambda5>@?A0xe7bd9b10@@@std@@YA?AU?$pair@PAIPAI@0@PAI0V<lambda5>@?A0xe7bd9b10@@@Z 6400c490 f i archive.obj
 0001:0000b8c0       ??$_Uninit_copy@V?$_String_iterator@DU?$char_traits@D@std@@V?$allocator@D@2@@std@@PAEV?$allocator@E@2@@std@@YAPAEV?$_String_iterator@DU?$char_traits@D@std@@V?$allocator@D@2@@0@0PAEAAV?$allocator@E@0@U_Nonscalar_ptr_iterator_tag@0@@Z 6400c8c0 f i sfx.obj
 0001:0000b8c0       ??$_Uninit_copy@V?$_Vector_const_iterator@V?$_Vector_val@EV?$allocator@E@std@@@std@@@std@@PAEV?$allocator@E@2@@std@@YAPAEV?$_Vector_const_iterator@V?$_Vector_val@EV?$allocator@E@std@@@std@@@0@0PAEAAV?$allocator@E@0@U_Nonscalar_ptr_iterator_tag@0@@Z 6400c8c0 f i archive.obj
 0001:0000b8f0       ??$_Uninit_move@PAUArcFileInfo@@PAU1@V?$allocator@UArcFileInfo@@@std@@U1@@std@@YAPAUArcFileInfo@@PAU1@00AAV?$allocator@UArcFileInfo@@@0@0U_Nonscalar_ptr_iterator_tag@0@@Z 6400c8f0 f i archive.obj
 0001:0000b9b0       ??$_Uninit_move@PAUSfxModule@@PAU1@V?$allocator@USfxModule@@@std@@U1@@std@@YAPAUSfxModule@@PAU1@00AAV?$allocator@USfxModule@@@0@0U_Nonscalar_ptr_iterator_tag@0@@Z 6400c9b0 f i archive.obj
 0001:0000ba60       ??$_Uninit_move@PAUArcLib@@PAU1@V?$allocator@UArcLib@@@std@@U1@@std@@YAPAUArcLib@@PAU1@00AAV?$allocator@UArcLib@@@0@0U_Nonscalar_ptr_iterator_tag@0@@Z 6400ca60 f i archive.obj
 0001:0000bb50       ??$_Insert@PAE@?$vector@EV?$allocator@E@std@@@std@@QAEXV?$_Vector_const_iterator@V?$_Vector_val@EV?$allocator@E@std@@@std@@@1@PAE1Uforward_iterator_tag@1@@Z 6400cb50 f i archive.obj
 0001:0000bb50       ??$_Insert@PBE@?$vector@EV?$allocator@E@std@@@std@@QAEXV?$_Vector_const_iterator@V?$_Vector_val@EV?$allocator@E@std@@@std@@@1@PBE1Uforward_iterator_tag@1@@Z 6400cb50 f i archive.obj
 0001:0000bc60       ??$_Median@PAIV<lambda5>@?A0xe7bd9b10@@@std@@YAXPAI00V<lambda5>@?A0xe7bd9b10@@@Z 6400cc60 f i archive.obj
 0001:0000bd10       ??$_Make_heap@PAIHIV<lambda5>@?A0xe7bd9b10@@@std@@YAXPAI0V<lambda5>@?A0xe7bd9b10@@PAH0@Z 6400cd10 f i archive.obj
 0001:0000be30       ??$_Sort_heap@PAIV<lambda5>@?A0xe7bd9b10@@@std@@YAXPAI0V<lambda5>@?A0xe7bd9b10@@@Z 6400ce30 f i archive.obj
 0001:0000be80       ??$_Insertion_sort1@PAIV<lambda5>@?A0xe7bd9b10@@I@std@@YAXPAI0V<lambda5>@?A0xe7bd9b10@@0@Z 6400ce80 f i archive.obj
 0001:0000bfe0       ??$_Lower_bound@PAIHHV<lambda6>@?A0xe7bd9b10@@@std@@YAPAIPAI0ABHV<lambda6>@?A0xe7bd9b10@@PAH@Z 6400cfe0 f i archive.obj
 0001:0000c0b0       ??$_Upper_bound@PAIHHV<lambda6>@?A0xe7bd9b10@@@std@@YAPAIPAI0ABHV<lambda6>@?A0xe7bd9b10@@PAH@Z 6400d0b0 f i archive.obj
 0001:0000c180       ??$_Lower_bound@PAIHHV<lambda7>@?A0xe7bd9b10@@@std@@YAPAIPAI0ABHV<lambda7>@?A0xe7bd9b10@@PAH@Z 6400d180 f i archive.obj
 0001:0000c200       ??$_Upper_bound@PAIHHV<lambda7>@?A0xe7bd9b10@@@std@@YAPAIPAI0ABHV<lambda7>@?A0xe7bd9b10@@PAH@Z 6400d200 f i archive.obj
 0001:0000c280       ??$_Med3@PAIV<lambda5>@?A0xe7bd9b10@@@std@@YAXPAI00V<lambda5>@?A0xe7bd9b10@@@Z 6400d280 f i archive.obj
 0001:0000c3c0       ??$_Adjust_heap@PAIHIV<lambda5>@?A0xe7bd9b10@@@std@@YAXPAIHH$$QAIV<lambda5>@?A0xe7bd9b10@@@Z 6400d3c0 f i archive.obj
 0001:0000c490       ?reserve@?$vector@EV?$allocator@E@std@@@std@@QAEXI@Z 6400d490 f i archive.obj
 0001:0000c500       ??$_Push_heap@PAIHIV<lambda5>@?A0xe7bd9b10@@@std@@YAXPAIHH$$QAIV<lambda5>@?A0xe7bd9b10@@@Z 6400d500 f i archive.obj
 0001:0000c5d0       ??$_Rotate@PAEHE@std@@YAXPAE00PAH0@Z 6400d5d0 f i archive.obj
 0001:0000c690       ?_Lexicographical_compare@std@@YA_NPBE000@Z 6400d690 f i archive.obj
 0001:0000c730       ??3@YAXPAX0@Z              6400d730 f i archive.obj
 0001:0000c740       ?compare@?$char_traits@D@std@@SAHPBD0I@Z 6400d740 f i archive.obj
 0001:0000c7c0       ?assign@?$basic_string@_WU?$char_traits@_W@std@@V?$allocator@_W@2@@std@@QAEAAV12@PB_WI@Z 6400d7c0 f i archive.obj
 0001:0000c8b0       ??0?$basic_string@_WU?$char_traits@_W@std@@V?$allocator@_W@2@@std@@QAE@PB_W@Z 6400d8b0 f i archive.obj
 0001:0000c8f0       ?erase@?$basic_string@_WU?$char_traits@_W@std@@V?$allocator@_W@2@@std@@QAEAAV12@II@Z 6400d8f0 f i archive.obj
 0001:0000c970       ?allocate@?$allocator@_W@std@@QAEPA_WI@Z 6400d970 f i archive.obj
 0001:0000c9d0       ?_Copy@?$basic_string@_WU?$char_traits@_W@std@@V?$allocator@_W@2@@std@@QAEXII@Z 6400d9d0 f i archive.obj
 0001:0000cb40       ?_Grow@?$basic_string@_WU?$char_traits@_W@std@@V?$allocator@_W@2@@std@@QAE_NI_N@Z 6400db40 f i archive.obj
 0001:0000cc00       ?data@?$basic_string@_WU?$char_traits@_W@std@@V?$allocator@_W@2@@std@@QBEPB_WXZ 6400dc00 f i archive.obj
 0001:0000cc00       ?_Myptr@?$basic_string@_WU?$char_traits@_W@std@@V?$allocator@_W@2@@std@@QBEPB_WXZ 6400dc00 f i archive.obj
 0001:0000cc00       ?c_str@?$basic_string@_WU?$char_traits@_W@std@@V?$allocator@_W@2@@std@@QBEPB_WXZ 6400dc00 f i archive.obj
 0001:0000cc10       ?assign@?$basic_string@_WU?$char_traits@_W@std@@V?$allocator@_W@2@@std@@QAEAAV12@ABV12@II@Z 6400dc10 f i archive.obj
 0001:0000cd00       ??1IdLang@@QAE@XZ          6400dd00 f i rsrc.obj
 0001:0000cd00       ??$_Dest_val@V?$allocator@USfxModule@@@std@@USfxModule@@@std@@YAXAAV?$allocator@USfxModule@@@0@PAUSfxModule@@@Z 6400dd00 f i archive.obj
 0001:0000cd00       ??1CacheRecord@FileWriteCache@@QAE@XZ 6400dd00 f i extract.obj
 0001:0000cd00       ??$_Dest_val@V?$allocator@V?$basic_string@_WU?$char_traits@_W@std@@V?$allocator@_W@2@@std@@@std@@V?$basic_string@_WU?$char_traits@_W@std@@V?$allocator@_W@2@@2@@std@@YAXAAV?$allocator@V?$basic_string@_WU?$char_traits@_W@std@@V?$allocator@_W@2@@std@@@0@PAV?$basic_string@_WU?$char_traits@_W@std@@V?$allocator@_W@2@@0@@Z 6400dd00 f i plugin.obj
 0001:0000cd00       ??1?$basic_string@_WU?$char_traits@_W@std@@V?$allocator@_W@2@@std@@QAE@XZ 6400dd00 f i archive.obj
 0001:0000cd00       ??1RsrcId@@QAE@XZ          6400dd00 f i rsrc.obj
 0001:0000cd00       ??1SfxModule@@QAE@XZ       6400dd00 f i archive.obj
 0001:0000cd00       ??1FileIndexInfo@@QAE@XZ   6400dd00 f i update.obj
 0001:0000cd30       ??1?$basic_string@DU?$char_traits@D@std@@V?$allocator@D@2@@std@@QAE@XZ 6400dd30 f i archive.obj
 0001:0000cd60       ?erase@?$basic_string@DU?$char_traits@D@std@@V?$allocator@D@2@@std@@QAEAAV12@II@Z 6400dd60 f i archive.obj
 0001:0000cde0       ?assign@?$basic_string@DU?$char_traits@D@std@@V?$allocator@D@2@@std@@QAEAAV12@ABV12@II@Z 6400dde0 f i archive.obj
 0001:0000ced0       ??1bad_alloc@std@@UAE@XZ   6400ded0 f i archive.obj
 0001:0000cee0       ??_Gbad_alloc@std@@UAEPAXI@Z 6400dee0 f i archive.obj
 0001:0000cee0       ??_Ebad_alloc@std@@UAEPAXI@Z 6400dee0 f i  CIL library: CIL module
 0001:0000cf10       ??0bad_alloc@std@@QAE@ABV01@@Z 6400df10 f i archive.obj
 0001:0000cf30       ?allocate@?$allocator@D@std@@QAEPADI@Z 6400df30 f i archive.obj
 0001:0000cf90       ?_Copy@?$basic_string@DU?$char_traits@D@std@@V?$allocator@D@2@@std@@QAEXII@Z 6400df90 f i archive.obj
 0001:0000d100       ?assign@?$basic_string@DU?$char_traits@D@std@@V?$allocator@D@2@@std@@QAEAAV12@PBDI@Z 6400e100 f i archive.obj
 0001:0000d1f0       ??0Error@@QAE@ABV?$basic_string@_WU?$char_traits@_W@std@@V?$allocator@_W@2@@std@@0PBDH@Z 6400e1f0 f i plugin.obj
 0001:0000d2e0       ??0Error@@QAE@ABVexception@std@@@Z 6400e2e0 f i plugin.obj
 0001:0000d530       ?updatable@Archive@@QBE_NXZ 6400e530 f i plugin.obj
 0001:0000d620       ??0Archive@@QAE@XZ         6400e620 f i plugin.obj
 0001:0000d800       ??0Plugin@@QAE@XZ          6400e800 f i plugin.obj
 0001:0000d8d0       ?open@Plugin@@SAPAV1@ABV?$vector@V?$shared_ptr@VArchive@@@tr1@std@@V?$allocator@V?$shared_ptr@VArchive@@@tr1@std@@@3@@std@@@Z 6400e8d0 f i plugin.obj
 0001:0000db60       ?info@Plugin@@QAEXPAUOpenPanelInfo@@@Z 6400eb60 f i plugin.obj
 0001:0000df30       ?set_dir@Plugin@@QAEXABV?$basic_string@_WU?$char_traits@_W@std@@V?$allocator@_W@2@@std@@@Z 6400ef30 f i plugin.obj
 0001:0000e1c0       ?list@Plugin@@QAEXPAPAUPluginPanelItem@@PAI@Z 6400f1c0 f i plugin.obj
 0001:0000e320       ?get_separate_dir_path@Plugin@@SA?AV?$basic_string@_WU?$char_traits@_W@std@@V?$allocator@_W@2@@std@@ABV23@0@Z 6400f320 f i plugin.obj
 0001:0000e440       ?extract@Plugin@@QAEXABVPluginPanelItemAccessor@1@AAV?$basic_string@_WU?$char_traits@_W@std@@V?$allocator@_W@2@@std@@_N_K@Z 6400f440 f i plugin.obj
 0001:0000ec30       ?get_files@Plugin@@QAEXPBUPluginPanelItem@@HHPAPB_W_K@Z 6400fc30 f i plugin.obj
 0001:0000ecd0       ?extract@Plugin@@QAEXXZ    6400fcd0 f i plugin.obj
 0001:0000ed90       ?extract@Plugin@@SAXABV?$vector@V?$basic_string@_WU?$char_traits@_W@std@@V?$allocator@_W@2@@std@@V?$allocator@V?$basic_string@_WU?$char_traits@_W@std@@V?$allocator@_W@2@@std@@@2@@std@@UExtractOptions@@@Z 6400fd90 f i plugin.obj
 0001:0000f970       ?bulk_extract@Plugin@@SAXABV?$vector@V?$basic_string@_WU?$char_traits@_W@std@@V?$allocator@_W@2@@std@@V?$allocator@V?$basic_string@_WU?$char_traits@_W@std@@V?$allocator@_W@2@@std@@@2@@std@@@Z 64010970 f i plugin.obj
 0001:0000fc20       ?cmdline_extract@Plugin@@SAXABUExtractCommand@@@Z 64010c20 f i plugin.obj
 0001:0000fdc0       ?test_files@Plugin@@QAEXPAUPluginPanelItem@@H_K@Z 64010dc0 f i plugin.obj
 0001:00010020       ?bulk_test@Plugin@@SAXABV?$vector@V?$basic_string@_WU?$char_traits@_W@std@@V?$allocator@_W@2@@std@@V?$allocator@V?$basic_string@_WU?$char_traits@_W@std@@V?$allocator@_W@2@@std@@@2@@std@@@Z 64011020 f i plugin.obj
 0001:00010860       ?cmdline_test@Plugin@@SAXABUTestCommand@@@Z 64011860 f i plugin.obj
 0001:00010910       ?put_files@Plugin@@QAEXPBUPluginPanelItem@@HHPB_W_K@Z 64011910 f i plugin.obj
 0001:00011690       ?create_archive@Plugin@@SAXXZ 64012690 f i plugin.obj
 0001:00012210       ?cmdline_update@Plugin@@SAXABUUpdateCommand@@@Z 64013210 f i plugin.obj
 0001:00012cd0       ?delete_files@Plugin@@QAEXPBUPluginPanelItem@@H_K@Z 64013cd0 f i plugin.obj
 0001:000130c0       ?create_dir@Plugin@@QAEXPAPB_W_K@Z 640140c0 f i plugin.obj
 0001:00013390       ?show_attr@Plugin@@QAEXXZ  64014390 f i plugin.obj
 0001:00013600       ?close@Plugin@@QAEXXZ      64014600 f i plugin.obj
 0001:000136a0       ?convert_to_sfx@Plugin@@SAXABV?$vector@V?$basic_string@_WU?$char_traits@_W@std@@V?$allocator@_W@2@@std@@V?$allocator@V?$basic_string@_WU?$char_traits@_W@std@@V?$allocator@_W@2@@std@@@2@@std@@@Z 640146a0 f i plugin.obj
 0001:00013a40       ??1ExtractOptions@@QAE@XZ  64014a40 f i plugin.obj
 0001:00013a90       ??1PluginPanelItems@?1??extract@Plugin@@QAEXXZ@QAE@XZ 64014a90 f i plugin.obj
 0001:00013aa0       ??1OpenOptions@@QAE@XZ     64014aa0 f i plugin.obj
 0001:00013b00       ??0ExtractOptions@@QAE@ABU0@@Z 64014b00 f i plugin.obj
 0001:00013bb0       ??1UpdateOptions@@QAE@XZ   64014bb0 f i plugin.obj
 0001:00013c60       ??4SfxOptions@@QAEAAU0@ABU0@@Z 64014c60 f i plugin.obj
 0001:00013cd0       ??1PanelItem@Far@@QAE@XZ   64014cd0 f i plugin.obj
 0001:00013d20       ??0UpdateOptions@@QAE@ABU0@@Z 64014d20 f i plugin.obj
 0001:00013df0       ??0SfxOptions@@QAE@ABU0@@Z 64014df0 f i plugin.obj
 0001:00013eb0       ??1SfxOptions@@QAE@XZ      64014eb0 f i plugin.obj
 0001:00013f10       ??1ProfileOptions@@QAE@XZ  64014f10 f i plugin.obj
 0001:00013fe0       ??4SfxVersionInfo@@QAEAAU0@ABU0@@Z 64014fe0 f i plugin.obj
 0001:00014050       ??4SfxInstallConfig@@QAEAAU0@ABU0@@Z 64015050 f i plugin.obj
 0001:000140d0       ??0ProfileOptions@@QAE@ABU0@@Z 640150d0 f i plugin.obj
 0001:00014210       ??0SfxVersionInfo@@QAE@ABU0@@Z 64015210 f i plugin.obj
 0001:00014310       ??1SfxVersionInfo@@QAE@XZ  64015310 f i plugin.obj
 0001:000143f0       ??0SfxInstallConfig@@QAE@ABU0@@Z 640153f0 f i plugin.obj
 0001:00014520       ??1SfxInstallConfig@@QAE@XZ 64015520 f i plugin.obj
 0001:00014630       _GetGlobalInfoW@4          64015630 f   plugin.obj
 0001:000146c0       _SetStartupInfoW@4         640156c0 f   plugin.obj
 0001:00014740       _GetPluginInfoW@4          64015740 f   plugin.obj
 0001:00014880       _AnalyseW@4                64015880 f   plugin.obj
 0001:00015030       _CloseAnalyseW@4           64016030 f   plugin.obj
 0001:00015080       _OpenW@4                   64016080 f   plugin.obj
 0001:00015b20       ??1CommandArgs@@QAE@XZ     64016b20 f i plugin.obj
 0001:00015b60       ??1OpenCommand@@QAE@XZ     64016b60 f i plugin.obj
 0001:00015b70       ??0OpenOptions@@QAE@ABU0@@Z 64016b70 f i plugin.obj
 0001:00015c10       ??1UpdateCommand@@QAE@XZ   64016c10 f i plugin.obj
 0001:00015c90       ??1ExtractCommand@@QAE@XZ  64016c90 f i plugin.obj
 0001:00015d00       _ClosePanelW@4             64016d00 f   plugin.obj
 0001:00015dc0       ??1Plugin@@QAE@XZ          64016dc0 f i plugin.obj
 0001:00015ed0       _GetOpenPanelInfoW@4       64016ed0 f   plugin.obj
 0001:00015fb0       _SetDirectoryW@4           64016fb0 f   plugin.obj
 0001:00016100       _GetFindDataW@4            64017100 f   plugin.obj
 0001:00016210       _FreeFindDataW@4           64017210 f   plugin.obj
 0001:00016270       _GetFilesW@4               64017270 f   plugin.obj
 0001:00016390       _PutFilesW@4               64017390 f   plugin.obj
 0001:000164b0       _DeleteFilesW@4            640174b0 f   plugin.obj
 0001:000165d0       _MakeDirectoryW@4          640175d0 f   plugin.obj
 0001:000166e0       _ProcessHostFileW@4        640176e0 f   plugin.obj
 0001:00016890       _ProcessPanelInputW@4      64017890 f   plugin.obj
 0001:000169b0       _ConfigureW@4              640179b0 f   plugin.obj
 0001:00016c60       ??1PluginSettings@@QAE@XZ  64017c60 f i plugin.obj
 0001:00016cf0       ?ExitFARW@@YGXPAUExitInfo@@@Z 64017cf0 f   plugin.obj
 0001:00016d20       ??4?$basic_string@_WU?$char_traits@_W@std@@V?$allocator@_W@2@@std@@QAEAAV01@PB_W@Z 64017d20 f i plugin.obj
 0001:00016d50       ?clear@?$basic_string@_WU?$char_traits@_W@std@@V?$allocator@_W@2@@std@@QAEXXZ 64017d50 f i plugin.obj
 0001:00016d70       ?push_back@?$list@V?$basic_string@_WU?$char_traits@_W@std@@V?$allocator@_W@2@@std@@V?$allocator@V?$basic_string@_WU?$char_traits@_W@std@@V?$allocator@_W@2@@std@@@2@@std@@QAEX$$QAV?$basic_string@_WU?$char_traits@_W@std@@V?$allocator@_W@2@@2@@Z 64017d70 f i plugin.obj
 0001:00016db0       ?push_back@?$vector@V?$basic_string@_WU?$char_traits@_W@std@@V?$allocator@_W@2@@std@@V?$allocator@V?$basic_string@_WU?$char_traits@_W@std@@V?$allocator@_W@2@@std@@@2@@std@@QAEX$$QAV?$basic_string@_WU?$char_traits@_W@std@@V?$allocator@_W@2@@2@@Z 64017db0 f i plugin.obj
 0001:00016e90       ?_Tidy@?$vector@V?$basic_string@_WU?$char_traits@_W@std@@V?$allocator@_W@2@@std@@V?$allocator@V?$basic_string@_WU?$char_traits@_W@std@@V?$allocator@_W@2@@std@@@2@@std@@IAEXXZ 64017e90 f i plugin.obj
 0001:00016e90       ??1?$vector@V?$basic_string@_WU?$char_traits@_W@std@@V?$allocator@_W@2@@std@@V?$allocator@V?$basic_string@_WU?$char_traits@_W@std@@V?$allocator@_W@2@@std@@@2@@std@@QAE@XZ 64017e90 f i plugin.obj
 0001:00016e90       ??1MenuItems@Far@@QAE@XZ   64017e90 f i plugin.obj
 0001:00016e90       ??1TestCommand@@QAE@XZ     64017e90 f i plugin.obj
 0001:00016ec0       ?reserve@?$vector@V?$basic_string@_WU?$char_traits@_W@std@@V?$allocator@_W@2@@std@@V?$allocator@V?$basic_string@_WU?$char_traits@_W@std@@V?$allocator@_W@2@@std@@@2@@std@@QAEXI@Z 64017ec0 f i plugin.obj
 0001:00016fd0       ?push_back@?$vector@V?$basic_string@_WU?$char_traits@_W@std@@V?$allocator@_W@2@@std@@V?$allocator@V?$basic_string@_WU?$char_traits@_W@std@@V?$allocator@_W@2@@std@@@2@@std@@QAEXABV?$basic_string@_WU?$char_traits@_W@std@@V?$allocator@_W@2@@2@@Z 64017fd0 f i plugin.obj
 0001:000170b0       ??0?$list@V?$vector@EV?$allocator@E@std@@@std@@V?$allocator@V?$vector@EV?$allocator@E@std@@@std@@@2@@std@@QAE@ABV01@@Z 640180b0 f i plugin.obj
 0001:00017170       ??4?$list@V?$vector@EV?$allocator@E@std@@@std@@V?$allocator@V?$vector@EV?$allocator@E@std@@@std@@@2@@std@@QAEAAV01@$$QAV01@@Z 64018170 f i plugin.obj
 0001:000171a0       ?count@?$_Tree@V?$_Tmap_traits@V?$vector@EV?$allocator@E@std@@@std@@UArcFormat@@U?$less@V?$vector@EV?$allocator@E@std@@@std@@@2@V?$allocator@U?$pair@$$CBV?$vector@EV?$allocator@E@std@@@std@@UArcFormat@@@std@@@2@$0A@@std@@@std@@QBEIABV?$vector@EV?$allocator@E@std@@@2@@Z 640181a0 f i plugin.obj
 0001:000171e0       ??1?$list@V?$vector@EV?$allocator@E@std@@@std@@V?$allocator@V?$vector@EV?$allocator@E@std@@@std@@@2@@std@@QAE@XZ 640181e0 f i archive.obj
 0001:000171e0       ??1ArcChain@@QAE@XZ        640181e0 f i plugin.obj
 0001:000171e0       ??1?$list@UArcEntry@@V?$allocator@UArcEntry@@@std@@@std@@QAE@XZ 640181e0 f i plugin.obj
 0001:00017200       ??1?$enable_shared_from_this@VArchive@@@tr1@std@@IAE@XZ 64018200 f i plugin.obj
 0001:00017220       ??0?$set@V?$basic_string@_WU?$char_traits@_W@std@@V?$allocator@_W@2@@std@@U?$less@V?$basic_string@_WU?$char_traits@_W@std@@V?$allocator@_W@2@@std@@@2@V?$allocator@V?$basic_string@_WU?$char_traits@_W@std@@V?$allocator@_W@2@@std@@@2@@std@@QAE@XZ 64018220 f i plugin.obj
 0001:00017290       ?count@?$_Tree@V?$_Tset_traits@V?$basic_string@_WU?$char_traits@_W@std@@V?$allocator@_W@2@@std@@U?$less@V?$basic_string@_WU?$char_traits@_W@std@@V?$allocator@_W@2@@std@@@2@V?$allocator@V?$basic_string@_WU?$char_traits@_W@std@@V?$allocator@_W@2@@std@@@2@$0A@@std@@@std@@QBEIABV?$basic_string@_WU?$char_traits@_W@std@@V?$allocator@_W@2@@2@@Z 64018290 f i plugin.obj
 0001:000172d0       ??1?$vector@UArcFileInfo@@V?$allocator@UArcFileInfo@@@std@@@std@@QAE@XZ 640182d0 f i plugin.obj
 0001:00017310       ??1?$list@UAttr@@V?$allocator@UAttr@@@std@@@std@@QAE@XZ 64018310 f i plugin.obj
 0001:00017330       ??4?$shared_ptr@VArchive@@@tr1@std@@QAEAAV012@ABV012@@Z 64018330 f i plugin.obj
 0001:000173a0       ?reserve@?$vector@UInfoPanelLine@@V?$allocator@UInfoPanelLine@@@std@@@std@@QAEXI@Z 640183a0 f i plugin.obj
 0001:00017460       ??1?$unique_ptr@VPlugin@@U?$default_delete@VPlugin@@@std@@@std@@QAE@XZ 64018460 f i plugin.obj
 0001:00017480       ??0?$list@UError@@V?$allocator@UError@@@std@@@std@@QAE@XZ 64018480 f i plugin.obj
 0001:000174e0       ?push_back@?$list@UError@@V?$allocator@UError@@@std@@@std@@QAEXABUError@@@Z 640184e0 f i plugin.obj
 0001:00017520       ??0?$shared_ptr@V?$list@UError@@V?$allocator@UError@@@std@@@std@@@tr1@std@@QAE@ABV012@@Z 64018520 f i plugin.obj
 0001:00017550       ??1?$Buffer@D@@QAE@XZ      64018550 f i archive.obj
 0001:00017550       ??1?$unique_ptr@$$BY0A@EU?$default_delete@$$BY0A@E@std@@@std@@QAE@XZ 64018550 f i farutils.obj
 0001:00017550       ??1?$Buffer@E@@QAE@XZ      64018550 f i plugin.obj
 0001:00017550       ??1?$Buffer@UFarList@@@@QAE@XZ 64018550 f i farutils.obj
 0001:00017550       ??1?$Buffer@_W@@QAE@XZ     64018550 f i farutils.obj
 0001:00017550       ??1?$unique_ptr@$$BY0A@UPluginPanelItem@@U?$default_delete@$$BY0A@UPluginPanelItem@@@std@@@std@@QAE@XZ 64018550 f i plugin.obj
 0001:00017550       ??1?$Buffer@UFarDialogItem@@@@QAE@XZ 64018550 f i farutils.obj
 0001:00017550       ??1?$Buffer@UFarListItem@@@@QAE@XZ 64018550 f i farutils.obj
 0001:00017560       ??1?$unique_ptr@V?$vector@V?$shared_ptr@VArchive@@@tr1@std@@V?$allocator@V?$shared_ptr@VArchive@@@tr1@std@@@3@@std@@U?$default_delete@V?$vector@V?$shared_ptr@VArchive@@@tr1@std@@V?$allocator@V?$shared_ptr@VArchive@@@tr1@std@@@3@@std@@@2@@std@@QAE@XZ 64018560 f i plugin.obj
 0001:000175b0       ?allocate@?$allocator@V?$basic_string@_WU?$char_traits@_W@std@@V?$allocator@_W@2@@std@@@std@@QAEPAV?$basic_string@_WU?$char_traits@_W@std@@V?$allocator@_W@2@@2@I@Z 640185b0 f i plugin.obj
 0001:000175b0       ?allocate@?$allocator@USfxModule@@@std@@QAEPAUSfxModule@@I@Z 640185b0 f i archive.obj
 0001:00017610       ?_Reserve@?$vector@V?$basic_string@_WU?$char_traits@_W@std@@V?$allocator@_W@2@@std@@V?$allocator@V?$basic_string@_WU?$char_traits@_W@std@@V?$allocator@_W@2@@std@@@2@@std@@IAEXI@Z 64018610 f i plugin.obj
 0001:00017690       ?_Grow_to@?$vector@V?$basic_string@_WU?$char_traits@_W@std@@V?$allocator@_W@2@@std@@V?$allocator@V?$basic_string@_WU?$char_traits@_W@std@@V?$allocator@_W@2@@std@@@2@@std@@IBEII@Z 64018690 f i plugin.obj
 0001:000176d0       ?_Eqrange@?$_Tree@V?$_Tmap_traits@V?$vector@EV?$allocator@E@std@@@std@@UArcFormat@@U?$less@V?$vector@EV?$allocator@E@std@@@std@@@2@V?$allocator@U?$pair@$$CBV?$vector@EV?$allocator@E@std@@@std@@UArcFormat@@@std@@@2@$0A@@std@@@std@@IBE?AU?$pair@V?$_Tree_const_iterator@V?$_Tree_val@V?$_Tmap_traits@V?$vector@EV?$allocator@E@std@@@std@@UArcFormat@@U?$less@V?$vector@EV?$allocator@E@std@@@std@@@2@V?$allocator@U?$pair@$$CBV?$vector@EV?$allocator@E@std@@@std@@UArcFormat@@@std@@@2@$0A@@std@@@std@@@std@@V12@@2@ABV?$vector@EV?$allocator@E@std@@@2@@Z 640186d0 f i plugin.obj
 0001:000177c0       ?clear@?$list@V?$vector@EV?$allocator@E@std@@@std@@V?$allocator@V?$vector@EV?$allocator@E@std@@@std@@@2@@std@@QAEXXZ 640187c0 f i archive.obj
 0001:000177c0       ?clear@?$list@UArcEntry@@V?$allocator@UArcEntry@@@std@@@std@@QAEXXZ 640187c0 f i plugin.obj
 0001:00017810       ?_Eqrange@?$_Tree@V?$_Tset_traits@V?$basic_string@_WU?$char_traits@_W@std@@V?$allocator@_W@2@@std@@U?$less@V?$basic_string@_WU?$char_traits@_W@std@@V?$allocator@_W@2@@std@@@2@V?$allocator@V?$basic_string@_WU?$char_traits@_W@std@@V?$allocator@_W@2@@std@@@2@$0A@@std@@@std@@IBE?AU?$pair@V?$_Tree_const_iterator@V?$_Tree_val@V?$_Tset_traits@V?$basic_string@_WU?$char_traits@_W@std@@V?$allocator@_W@2@@std@@U?$less@V?$basic_string@_WU?$char_traits@_W@std@@V?$allocator@_W@2@@std@@@2@V?$allocator@V?$basic_string@_WU?$char_traits@_W@std@@V?$allocator@_W@2@@std@@@2@$0A@@std@@@std@@@std@@V12@@2@ABV?$basic_string@_WU?$char_traits@_W@std@@V?$allocator@_W@2@@2@@Z 64018810 f i plugin.obj
 0001:000179c0       ?clear@?$list@UAttr@@V?$allocator@UAttr@@@std@@@std@@QAEXXZ 640189c0 f i plugin.obj
 0001:00017a30       ?_Buynode@?$_List_val@UError@@V?$allocator@UError@@@std@@@std@@QAEPAU_Node@?$_List_nod@UError@@V?$allocator@UError@@@std@@@2@PAU342@0ABUError@@@Z 64018a30 f i plugin.obj
 0001:00017b10       ?_Splice_same@?$list@UAttr@@V?$allocator@UAttr@@@std@@@std@@QAEXV?$_List_const_iterator@V?$_List_val@UAttr@@V?$allocator@UAttr@@@std@@@std@@@2@AAV12@00I@Z 64018b10 f i plugin.obj
 0001:00017b90       ?_Lrotate@?$_Tree@V?$_Tset_traits@V?$basic_string@_WU?$char_traits@_W@std@@V?$allocator@_W@2@@std@@U?$less@V?$basic_string@_WU?$char_traits@_W@std@@V?$allocator@_W@2@@std@@@2@V?$allocator@V?$basic_string@_WU?$char_traits@_W@std@@V?$allocator@_W@2@@std@@@2@$0A@@std@@@std@@IAEXPAU_Node@?$_Tree_nod@V?$_Tset_traits@V?$basic_string@_WU?$char_traits@_W@std@@V?$allocator@_W@2@@std@@U?$less@V?$basic_string@_WU?$char_traits@_W@std@@V?$allocator@_W@2@@std@@@2@V?$allocator@V?$basic_string@_WU?$char_traits@_W@std@@V?$allocator@_W@2@@std@@@2@$0A@@std@@@2@@Z 64018b90 f i plugin.obj
 0001:00017b90       ?_Lrotate@?$_Tree@V?$_Tset_traits@V?$basic_string@_WU?$char_traits@_W@std@@V?$allocator@_W@2@@std@@UItemCompare@?1??show@MultiSelectDialog@@QAE_NXZ@V?$allocator@V?$basic_string@_WU?$char_traits@_W@std@@V?$allocator@_W@2@@std@@@2@$0A@@std@@@std@@IAEXPAU_Node@?$_Tree_nod@V?$_Tset_traits@V?$basic_string@_WU?$char_traits@_W@std@@V?$allocator@_W@2@@std@@UItemCompare@?1??show@MultiSelectDialog@@QAE_NXZ@V?$allocator@V?$basic_string@_WU?$char_traits@_W@std@@V?$allocator@_W@2@@std@@@2@$0A@@std@@@2@@Z 64018b90 f i ui.obj
 0001:00017be0       ?erase@?$list@UAttr@@V?$allocator@UAttr@@@std@@@std@@QAE?AV?$_List_iterator@V?$_List_val@UAttr@@V?$allocator@UAttr@@@std@@@std@@@2@V?$_List_const_iterator@V?$_List_val@UAttr@@V?$allocator@UAttr@@@std@@@std@@@2@@Z 64018be0 f i plugin.obj
 0001:00017c70       ??E?$_Tree_unchecked_const_iterator@V?$_Tree_val@V?$_Tset_traits@V?$basic_string@_WU?$char_traits@_W@std@@V?$allocator@_W@2@@std@@U?$less@V?$basic_string@_WU?$char_traits@_W@std@@V?$allocator@_W@2@@std@@@2@V?$allocator@V?$basic_string@_WU?$char_traits@_W@std@@V?$allocator@_W@2@@std@@@2@$0A@@std@@@std@@U_Iterator_base0@2@@std@@QAEAAV01@XZ 64018c70 f i plugin.obj
 0001:00017c70       ??E?$_Tree_unchecked_const_iterator@V?$_Tree_val@V?$_Tset_traits@V?$basic_string@_WU?$char_traits@_W@std@@V?$allocator@_W@2@@std@@UItemCompare@?1??show@MultiSelectDialog@@QAE_NXZ@V?$allocator@V?$basic_string@_WU?$char_traits@_W@std@@V?$allocator@_W@2@@std@@@2@$0A@@std@@@std@@U_Iterator_base0@2@@std@@QAEAAV01@XZ 64018c70 f i ui.obj
 0001:00017cc0       ??$?HDU?$char_traits@D@std@@V?$allocator@D@1@@std@@YA?AV?$basic_string@DU?$char_traits@D@std@@V?$allocator@D@2@@0@$$QAV10@PBD@Z 64018cc0 f i plugin.obj
 0001:00017d10       ??$?H_WU?$char_traits@_W@std@@V?$allocator@_W@1@@std@@YA?AV?$basic_string@_WU?$char_traits@_W@std@@V?$allocator@_W@2@@0@PB_W$$QAV10@@Z 64018d10 f i plugin.obj
 0001:00017d60       ??$?H_WU?$char_traits@_W@std@@V?$allocator@_W@1@@std@@YA?AV?$basic_string@_WU?$char_traits@_W@std@@V?$allocator@_W@2@@0@PB_WABV10@@Z 64018d60 f i plugin.obj
 0001:00017e40       ??$?H_WU?$char_traits@_W@std@@V?$allocator@_W@1@@std@@YA?AV?$basic_string@_WU?$char_traits@_W@std@@V?$allocator@_W@2@@0@$$QAV10@ABV10@@Z 64018e40 f i plugin.obj
 0001:00017e80       ??$copy@V?$_List_const_iterator@V?$_List_val@V?$basic_string@_WU?$char_traits@_W@std@@V?$allocator@_W@2@@std@@V?$allocator@V?$basic_string@_WU?$char_traits@_W@std@@V?$allocator@_W@2@@std@@@2@@std@@@std@@V?$insert_iterator@V?$set@V?$basic_string@_WU?$char_traits@_W@std@@V?$allocator@_W@2@@std@@U?$less@V?$basic_string@_WU?$char_traits@_W@std@@V?$allocator@_W@2@@std@@@2@V?$allocator@V?$basic_string@_WU?$char_traits@_W@std@@V?$allocator@_W@2@@std@@@2@@std@@@2@@std@@YA?AV?$insert_iterator@V?$set@V?$basic_string@_WU?$char_traits@_W@std@@V?$allocator@_W@2@@std@@U?$less@V?$basic_string@_WU?$char_traits@_W@std@@V?$allocator@_W@2@@std@@@2@V?$allocator@V?$basic_string@_WU?$char_traits@_W@std@@V?$allocator@_W@2@@std@@@2@@std@@@0@V?$_List_const_iterator@V?$_List_val@V?$basic_string@_WU?$char_traits@_W@std@@V?$allocator@_W@2@@std@@V?$allocator@V?$basic_string@_WU?$char_traits@_W@std@@V?$allocator@_W@2@@std@@@2@@std@@@0@0V10@@Z 64018e80 f i plugin.obj
 0001:00017ec0       ?_Reset@?$_Ptr_base@VArchive@@@tr1@std@@QAEXPAVArchive@@PAV_Ref_count_base@23@_N@Z 64018ec0 f i plugin.obj
 0001:00017f50       ??0bad_weak_ptr@tr1@std@@QAE@ABV012@@Z 64018f50 f i plugin.obj
 0001:00017f70       ?append@?$basic_string@DU?$char_traits@D@std@@V?$allocator@D@2@@std@@QAEAAV12@PBDI@Z 64018f70 f i plugin.obj
 0001:00018080       ?insert@?$basic_string@_WU?$char_traits@_W@std@@V?$allocator@_W@2@@std@@QAEAAV12@IPB_WI@Z 64019080 f i plugin.obj
 0001:000181d0       ?append@?$basic_string@DU?$char_traits@D@std@@V?$allocator@D@2@@std@@QAEAAV12@ABV12@II@Z 640191d0 f i plugin.obj
 0001:000182b0       ??$_Construct@V?$_String_const_iterator@DU?$char_traits@D@std@@V?$allocator@D@2@@std@@@?$basic_string@_WU?$char_traits@_W@std@@V?$allocator@_W@2@@std@@QAEXV?$_String_const_iterator@DU?$char_traits@D@std@@V?$allocator@D@2@@1@0Uforward_iterator_tag@1@@Z 640192b0 f i strutils.obj
 0001:000182b0       ??$_Construct@V?$_String_iterator@DU?$char_traits@D@std@@V?$allocator@D@2@@std@@@?$basic_string@_WU?$char_traits@_W@std@@V?$allocator@_W@2@@std@@QAEXV?$_String_iterator@DU?$char_traits@D@std@@V?$allocator@D@2@@1@0Uforward_iterator_tag@1@@Z 640192b0 f i plugin.obj
 0001:00018430       ??$_Resetp@VArchive@@@?$shared_ptr@VArchive@@@tr1@std@@AAEXPAVArchive@@@Z 64019430 f i plugin.obj
 0001:000184d0       ??$_For_each@V?$_List_unchecked_iterator@V?$_List_val@UAttr@@V?$allocator@UAttr@@@std@@@std@@@std@@V<lambda0>@?A0xc5e9a1c5@@@std@@YA?AV<lambda0>@?A0xc5e9a1c5@@V?$_List_unchecked_iterator@V?$_List_val@UAttr@@V?$allocator@UAttr@@@std@@@std@@@0@0V12@@Z 640194d0 f i plugin.obj
 0001:00018650       ??$_For_each@PBIV<lambda1>@?A0xc5e9a1c5@@@std@@YA?AV<lambda1>@?A0xc5e9a1c5@@PBI0V12@@Z 64019650 f i plugin.obj
 0001:00018800       ??$_Resetp@V?$list@UError@@V?$allocator@UError@@@std@@@std@@@?$shared_ptr@V?$list@UError@@V?$allocator@UError@@@std@@@std@@@tr1@std@@AAEXPAV?$list@UError@@V?$allocator@UError@@@std@@@2@@Z 64019800 f i plugin.obj
 0001:000188c0       ??$_For_each@PBV?$basic_string@_WU?$char_traits@_W@std@@V?$allocator@_W@2@@std@@V<lambda6>@?A0xc5e9a1c5@@@std@@YA?AV<lambda6>@?A0xc5e9a1c5@@PBV?$basic_string@_WU?$char_traits@_W@std@@V?$allocator@_W@2@@0@0V12@@Z 640198c0 f i plugin.obj
 0001:000188c0       ??$_For_each@PBV?$basic_string@_WU?$char_traits@_W@std@@V?$allocator@_W@2@@std@@V<lambda5>@?A0xc5e9a1c5@@@std@@YA?AV<lambda5>@?A0xc5e9a1c5@@PBV?$basic_string@_WU?$char_traits@_W@std@@V?$allocator@_W@2@@0@0V12@@Z 640198c0 f i plugin.obj
 0001:000188c0       ??$_For_each@PBV?$basic_string@_WU?$char_traits@_W@std@@V?$allocator@_W@2@@std@@V<lambda3>@?A0xc5e9a1c5@@@std@@YA?AV<lambda3>@?A0xc5e9a1c5@@PBV?$basic_string@_WU?$char_traits@_W@std@@V?$allocator@_W@2@@0@0V12@@Z 640198c0 f i plugin.obj
 0001:00018980       ??$_For_each@PBIV<lambda2>@?A0xc5e9a1c5@@@std@@YA?AV<lambda2>@?A0xc5e9a1c5@@PBI0V12@@Z 64019980 f i plugin.obj
 0001:00018980       ??$_For_each@PBIV<lambda4>@?A0xc5e9a1c5@@@std@@YA?AV<lambda4>@?A0xc5e9a1c5@@PBI0V12@@Z 64019980 f i plugin.obj
 0001:00018a90       ??$_For_each@PBV?$basic_string@_WU?$char_traits@_W@std@@V?$allocator@_W@2@@std@@V<lambda7>@?A0xc5e9a1c5@@@std@@YA?AV<lambda7>@?A0xc5e9a1c5@@PBV?$basic_string@_WU?$char_traits@_W@std@@V?$allocator@_W@2@@0@0V12@@Z 64019a90 f i plugin.obj
 0001:00018c10       ??$_For_each@PAV?$basic_string@_WU?$char_traits@_W@std@@V?$allocator@_W@2@@std@@V<lambda8>@?A0xc5e9a1c5@@@std@@YA?AV<lambda8>@?A0xc5e9a1c5@@PAV?$basic_string@_WU?$char_traits@_W@std@@V?$allocator@_W@2@@0@0V12@@Z 64019c10 f i plugin.obj
 0001:00018e80       ??$_For_each@PAV?$basic_string@_WU?$char_traits@_W@std@@V?$allocator@_W@2@@std@@V<lambda9>@?A0xc5e9a1c5@@@std@@YA?AV<lambda9>@?A0xc5e9a1c5@@PAV?$basic_string@_WU?$char_traits@_W@std@@V?$allocator@_W@2@@0@0V12@@Z 64019e80 f i plugin.obj
 0001:00018f10       ??$_For_each@V?$_List_unchecked_iterator@V?$_List_val@V?$basic_string@_WU?$char_traits@_W@std@@V?$allocator@_W@2@@std@@V?$allocator@V?$basic_string@_WU?$char_traits@_W@std@@V?$allocator@_W@2@@std@@@2@@std@@@std@@V<lambda10>@?A0xc5e9a1c5@@@std@@YA?AV<lambda10>@?A0xc5e9a1c5@@V?$_List_unchecked_iterator@V?$_List_val@V?$basic_string@_WU?$char_traits@_W@std@@V?$allocator@_W@2@@std@@V?$allocator@V?$basic_string@_WU?$char_traits@_W@std@@V?$allocator@_W@2@@std@@@2@@std@@@0@0V12@@Z 64019f10 f i plugin.obj
 0001:00018fd0       ??$_Resetp@XV<lambda11>@?A0xc5e9a1c5@@@?$shared_ptr@X@tr1@std@@AAEXPAXV<lambda11>@?A0xc5e9a1c5@@@Z 64019fd0 f i plugin.obj
 0001:00019090       ??$_Insert@V?$_List_const_iterator@V?$_List_val@V?$vector@EV?$allocator@E@std@@@std@@V?$allocator@V?$vector@EV?$allocator@E@std@@@std@@@2@@std@@@std@@@?$list@V?$vector@EV?$allocator@E@std@@@std@@V?$allocator@V?$vector@EV?$allocator@E@std@@@std@@@2@@std@@QAEXV?$_List_const_iterator@V?$_List_val@V?$vector@EV?$allocator@E@std@@@std@@V?$allocator@V?$vector@EV?$allocator@E@std@@@std@@@2@@std@@@1@00Uforward_iterator_tag@1@@Z 6401a090 f i plugin.obj
 0001:00019160       ??$_Distance2@V?$_Tree_const_iterator@V?$_Tree_val@V?$_Tmap_traits@V?$vector@EV?$allocator@E@std@@@std@@UArcFormat@@U?$less@V?$vector@EV?$allocator@E@std@@@std@@@2@V?$allocator@U?$pair@$$CBV?$vector@EV?$allocator@E@std@@@std@@UArcFormat@@@std@@@2@$0A@@std@@@std@@@std@@I@std@@YAXV?$_Tree_const_iterator@V?$_Tree_val@V?$_Tmap_traits@V?$vector@EV?$allocator@E@std@@@std@@UArcFormat@@U?$less@V?$vector@EV?$allocator@E@std@@@std@@@2@V?$allocator@U?$pair@$$CBV?$vector@EV?$allocator@E@std@@@std@@UArcFormat@@@std@@@2@$0A@@std@@@std@@@0@0AAIUbidirectional_iterator_tag@0@@Z 6401a160 f i plugin.obj
 0001:000191d0       ??$_Destroy_range@V?$allocator@V?$shared_ptr@VArchive@@@tr1@std@@@std@@@std@@YAXPAV?$shared_ptr@VArchive@@@tr1@0@0AAV?$allocator@V?$shared_ptr@VArchive@@@tr1@std@@@0@U_Nonscalar_ptr_iterator_tag@0@@Z 6401a1d0 f i plugin.obj
 0001:00019220       ??_G?$list@UError@@V?$allocator@UError@@@std@@@std@@QAEPAXI@Z 6401a220 f i plugin.obj
 0001:00019240       ??1Archive@@QAE@XZ         6401a240 f i plugin.obj
 0001:00019400       ??$_Dest_val@V?$allocator@U?$pair@$$CBV?$basic_string@_WU?$char_traits@_W@std@@V?$allocator@_W@2@@std@@V12@@std@@@std@@U?$pair@$$CBV?$basic_string@_WU?$char_traits@_W@std@@V?$allocator@_W@2@@std@@V12@@2@@std@@YAXAAV?$allocator@U?$pair@$$CBV?$basic_string@_WU?$char_traits@_W@std@@V?$allocator@_W@2@@std@@V12@@std@@@0@PAU?$pair@$$CBV?$basic_string@_WU?$char_traits@_W@std@@V?$allocator@_W@2@@std@@V12@@0@@Z 6401a400 f i archive.obj
 0001:00019400       ??1Param@@QAE@XZ           6401a400 f i cmdline.obj
 0001:00019400       ??1?$pair@V?$basic_string@_WU?$char_traits@_W@std@@V?$allocator@_W@2@@std@@V12@@std@@QAE@XZ 6401a400 f i archive.obj
 0001:00019400       ??1Attr@@QAE@XZ            6401a400 f i plugin.obj
 0001:00019400       ??1?$pair@$$CBV?$basic_string@_WU?$char_traits@_W@std@@V?$allocator@_W@2@@std@@V12@@std@@QAE@XZ 6401a400 f i archive.obj
 0001:00019450       ?append@?$basic_string@_WU?$char_traits@_W@std@@V?$allocator@_W@2@@std@@QAEAAV12@I_W@Z 6401a450 f i plugin.obj
 0001:00019500       ??1?$list@UError@@V?$allocator@UError@@@std@@@std@@QAE@XZ 6401a500 f i plugin.obj
 0001:00019510       ?_Destroy@?$_Ref_count@VArchive@@@tr1@std@@EAEXXZ 6401a510 f i plugin.obj
 0001:00019530       ?_Destroy@?$_Ref_count@V?$list@UError@@V?$allocator@UError@@@std@@@std@@@tr1@std@@EAEXXZ 6401a530 f i plugin.obj
 0001:00019560       ?_Get_deleter@?$_Ref_count_del@XV<lambda11>@?A0xc5e9a1c5@@@tr1@std@@UBEPAXABVtype_info@@@Z 6401a560 f i plugin.obj
 0001:00019590       ?_Destroy@?$_Ref_count_del@XV<lambda11>@?A0xc5e9a1c5@@@tr1@std@@EAEXXZ 6401a590 f i plugin.obj
 0001:000195a0       ?clear@?$list@UError@@V?$allocator@UError@@@std@@@std@@QAEXXZ 6401a5a0 f i plugin.obj
 0001:000195f0       ??$_Resetp0@VArchive@@@?$shared_ptr@VArchive@@@tr1@std@@QAEXPAVArchive@@PAV_Ref_count_base@12@@Z 6401a5f0 f i plugin.obj
 0001:00019670       ??$_Copy_impl@V?$_List_unchecked_const_iterator@V?$_List_val@V?$basic_string@_WU?$char_traits@_W@std@@V?$allocator@_W@2@@std@@V?$allocator@V?$basic_string@_WU?$char_traits@_W@std@@V?$allocator@_W@2@@std@@@2@@std@@U_Iterator_base0@2@@std@@V?$insert_iterator@V?$set@V?$basic_string@_WU?$char_traits@_W@std@@V?$allocator@_W@2@@std@@U?$less@V?$basic_string@_WU?$char_traits@_W@std@@V?$allocator@_W@2@@std@@@2@V?$allocator@V?$basic_string@_WU?$char_traits@_W@std@@V?$allocator@_W@2@@std@@@2@@std@@@2@@std@@YA?AV?$insert_iterator@V?$set@V?$basic_string@_WU?$char_traits@_W@std@@V?$allocator@_W@2@@std@@U?$less@V?$basic_string@_WU?$char_traits@_W@std@@V?$allocator@_W@2@@std@@@2@V?$allocator@V?$basic_string@_WU?$char_traits@_W@std@@V?$allocator@_W@2@@std@@@2@@std@@@0@V?$_List_unchecked_const_iterator@V?$_List_val@V?$basic_string@_WU?$char_traits@_W@std@@V?$allocator@_W@2@@std@@V?$allocator@V?$basic_string@_WU?$char_traits@_W@std@@V?$allocator@_W@2@@std@@@2@@std@@U_Iterator_base0@2@@0@0V10@U_Nonscalar_ptr_iterator_tag@0@@Z 6401a670 f i plugin.obj
 0001:00019700       ??$_Uninit_move@PAV?$basic_string@_WU?$char_traits@_W@std@@V?$allocator@_W@2@@std@@PAV12@V?$allocator@V?$basic_string@_WU?$char_traits@_W@std@@V?$allocator@_W@2@@std@@@2@V12@@std@@YAPAV?$basic_string@_WU?$char_traits@_W@std@@V?$allocator@_W@2@@0@PAV10@00AAV?$allocator@V?$basic_string@_WU?$char_traits@_W@std@@V?$allocator@_W@2@@std@@@0@0U_Nonscalar_ptr_iterator_tag@0@@Z 6401a700 f i plugin.obj
 0001:000197c0       ??$_Uninit_move@PAUInfoPanelLine@@PAU1@V?$allocator@UInfoPanelLine@@@std@@U1@@std@@YAPAUInfoPanelLine@@PAU1@00AAV?$allocator@UInfoPanelLine@@@0@0U_Nonscalar_ptr_iterator_tag@0@@Z 6401a7c0 f i plugin.obj
 0001:000197f0       ?insert@?$_Tree@V?$_Tset_traits@V?$basic_string@_WU?$char_traits@_W@std@@V?$allocator@_W@2@@std@@U?$less@V?$basic_string@_WU?$char_traits@_W@std@@V?$allocator@_W@2@@std@@@2@V?$allocator@V?$basic_string@_WU?$char_traits@_W@std@@V?$allocator@_W@2@@std@@@2@$0A@@std@@@std@@QAE?AV?$_Tree_const_iterator@V?$_Tree_val@V?$_Tset_traits@V?$basic_string@_WU?$char_traits@_W@std@@V?$allocator@_W@2@@std@@U?$less@V?$basic_string@_WU?$char_traits@_W@std@@V?$allocator@_W@2@@std@@@2@V?$allocator@V?$basic_string@_WU?$char_traits@_W@std@@V?$allocator@_W@2@@std@@@2@$0A@@std@@@std@@@2@V32@ABV?$basic_string@_WU?$char_traits@_W@std@@V?$allocator@_W@2@@2@@Z 6401a7f0 f i plugin.obj
 0001:00019990       ?insert@?$_Tree@V?$_Tset_traits@V?$basic_string@_WU?$char_traits@_W@std@@V?$allocator@_W@2@@std@@U?$less@V?$basic_string@_WU?$char_traits@_W@std@@V?$allocator@_W@2@@std@@@2@V?$allocator@V?$basic_string@_WU?$char_traits@_W@std@@V?$allocator@_W@2@@std@@@2@$0A@@std@@@std@@QAE?AU?$pair@V?$_Tree_const_iterator@V?$_Tree_val@V?$_Tset_traits@V?$basic_string@_WU?$char_traits@_W@std@@V?$allocator@_W@2@@std@@U?$less@V?$basic_string@_WU?$char_traits@_W@std@@V?$allocator@_W@2@@std@@@2@V?$allocator@V?$basic_string@_WU?$char_traits@_W@std@@V?$allocator@_W@2@@std@@@2@$0A@@std@@@std@@@std@@_N@2@ABV?$basic_string@_WU?$char_traits@_W@std@@V?$allocator@_W@2@@2@_N@Z 6401a990 f i plugin.obj
 0001:00019b10       ??F?$_Tree_unchecked_const_iterator@V?$_Tree_val@V?$_Tset_traits@V?$basic_string@_WU?$char_traits@_W@std@@V?$allocator@_W@2@@std@@UItemCompare@?1??show@MultiSelectDialog@@QAE_NXZ@V?$allocator@V?$basic_string@_WU?$char_traits@_W@std@@V?$allocator@_W@2@@std@@@2@$0A@@std@@@std@@U_Iterator_base0@2@@std@@QAEAAV01@XZ 6401ab10 f i ui.obj
 0001:00019b10       ??F?$_Tree_unchecked_const_iterator@V?$_Tree_val@V?$_Tset_traits@V?$basic_string@_WU?$char_traits@_W@std@@V?$allocator@_W@2@@std@@U?$less@V?$basic_string@_WU?$char_traits@_W@std@@V?$allocator@_W@2@@std@@@2@V?$allocator@V?$basic_string@_WU?$char_traits@_W@std@@V?$allocator@_W@2@@std@@@2@$0A@@std@@@std@@U_Iterator_base0@2@@std@@QAEAAV01@XZ 6401ab10 f i plugin.obj
 0001:00019b70       ??$_Insert@V?$_List_const_iterator@V?$_List_val@UAttr@@V?$allocator@UAttr@@@std@@@std@@@std@@@?$list@UAttr@@V?$allocator@UAttr@@@std@@@std@@QAEXV?$_List_const_iterator@V?$_List_val@UAttr@@V?$allocator@UAttr@@@std@@@std@@@1@00Uforward_iterator_tag@1@@Z 6401ab70 f i plugin.obj
 0001:00019c40       ?_Buynode@?$_List_val@UAttr@@V?$allocator@UAttr@@@std@@@std@@QAEPAU_Node@?$_List_nod@UAttr@@V?$allocator@UAttr@@@std@@@2@PAU342@0ABUAttr@@@Z 6401ac40 f i plugin.obj
 0001:00019cf0       ??$_Construct@UAttr@@ABU1@@std@@YAXPAUAttr@@ABU1@@Z 6401acf0 f i plugin.obj
 0001:00019d80       ?_Get_deleter@_Ref_count_base@tr1@std@@UBEPAXABVtype_info@@@Z 6401ad80 f i plugin.obj
 0001:00019d90       ?what@bad_weak_ptr@tr1@std@@UBEPBDXZ 6401ad90 f i plugin.obj
 0001:00019da0       ?assign@?$basic_string@DU?$char_traits@D@std@@V?$allocator@D@2@@std@@QAEAAV12@$$QAV12@@Z 6401ada0 f i plugin.obj
 0001:00019e10       ??0?$basic_string@DU?$char_traits@D@std@@V?$allocator@D@2@@std@@QAE@PBD@Z 6401ae10 f i plugin.obj
 0001:00019e50       ??0DisableEvents@Dialog@Far@@QAE@AAV12@@Z 6401ae50 f i ui.obj
 0001:00019e70       ??1DisableEvents@Dialog@Far@@QAE@XZ 6401ae70 f i ui.obj
 0001:00019e90       ?get_path@TempFile@@QBE?AV?$basic_string@_WU?$char_traits@_W@std@@V?$allocator@_W@2@@std@@XZ 6401ae90 f i ui.obj
 0001:00019ec0       ??0ProgressSuspend@@QAE@AAVProgressMonitor@@@Z 6401aec0 f i ui.obj
 0001:00019f00       ??1ProgressSuspend@@QAE@XZ 6401af00 f i ui.obj
 0001:00019f10       ?sfx@ArcAPI@@SAABVSfxModules@@XZ 6401af10 f i ui.obj
 0001:00019f90       ?get_error_dlg_title@@YA?AV?$basic_string@_WU?$char_traits@_W@std@@V?$allocator@_W@2@@std@@XZ 6401af90 f   ui.obj
 0001:00019fb0       ??0ProgressMonitor@@QAE@ABV?$basic_string@_WU?$char_traits@_W@std@@V?$allocator@_W@2@@std@@_N1@Z 6401afb0 f   ui.obj
 0001:0001a180       ??1ProgressMonitor@@UAE@XZ 6401b180 f   ui.obj
 0001:0001a280       ?display@ProgressMonitor@@AAEXXZ 6401b280 f   ui.obj
 0001:0001a6a0       ?update_ui@ProgressMonitor@@QAEX_N@Z 6401b6a0 f   ui.obj
 0001:0001a8c0       ?handle_esc@ProgressMonitor@@IAEXXZ 6401b8c0 f   ui.obj
 0001:0001ab80       ?get_size_suffixes@@YAPAPB_WXZ 6401bb80 f   ui.obj
 0001:0001ac30       ?get_speed_suffixes@@YAPAPB_WXZ 6401bc30 f   ui.obj
 0001:0001acf0       ?dialog_proc@PasswordDialog@@EAEHHHPAX@Z 6401bcf0 f i ui.obj
 0001:0001add0       ??0PasswordDialog@@QAE@AAV?$basic_string@_WU?$char_traits@_W@std@@V?$allocator@_W@2@@std@@ABV12@@Z 6401bdd0 f i ui.obj
 0001:0001aee0       ?show@PasswordDialog@@QAE_NXZ 6401bee0 f i ui.obj
 0001:0001b0d0       ?password_dialog@@YA_NAAV?$basic_string@_WU?$char_traits@_W@std@@V?$allocator@_W@2@@std@@ABV12@@Z 6401c0d0 f   ui.obj
 0001:0001b160       ??1PasswordDialog@@QAE@XZ  6401c160 f i ui.obj
 0001:0001b160       ??1OverwriteDialog@@QAE@XZ 6401c160 f i ui.obj
 0001:0001b1d0       ?dialog_proc@OverwriteDialog@@EAEHHHPAX@Z 6401c1d0 f i ui.obj
 0001:0001b2c0       ??0OverwriteDialog@@QAE@ABV?$basic_string@_WU?$char_traits@_W@std@@V?$allocator@_W@2@@std@@ABUOverwriteFileInfo@@1W4OverwriteDialogKind@@AAUOverwriteOptions@@@Z 6401c2c0 f i ui.obj
 0001:0001b430       ?show@OverwriteDialog@@QAE_NXZ 6401c430 f i ui.obj
 0001:0001bbc0       ?overwrite_dialog@@YA_NABV?$basic_string@_WU?$char_traits@_W@std@@V?$allocator@_W@2@@std@@ABUOverwriteFileInfo@@1W4OverwriteDialogKind@@AAUOverwriteOptions@@@Z 6401cbc0 f   ui.obj
 0001:0001bc60       ?read_controls@ExtractDialog@@AAEXAAUExtractOptions@@@Z 6401cc60 f i ui.obj
 0001:0001c010       ?dialog_proc@ExtractDialog@@EAEHHHPAX@Z 6401d010 f i ui.obj
 0001:0001c290       ??0ExtractDialog@@QAE@AAUExtractOptions@@@Z 6401d290 f i ui.obj
 0001:0001c370       ?show@ExtractDialog@@QAE_NXZ 6401d370 f i ui.obj
 0001:0001cad0       ?extract_dialog@@YA_NAAUExtractOptions@@@Z 6401dad0 f   ui.obj
 0001:0001cb80       ?retry_or_ignore_error@@YAXABUError@@AA_N1AAV?$list@UError@@V?$allocator@UError@@@std@@@std@@AAVProgressMonitor@@_N4@Z 6401db80 f   ui.obj
 0001:0001d2d0       ??_D?$basic_ostringstream@_WU?$char_traits@_W@std@@V?$allocator@_W@2@@std@@QAEXXZ 6401e2d0 f i ui.obj
 0001:0001d350       ?show_error_log@@YAXABV?$list@UError@@V?$allocator@UError@@@std@@@std@@@Z 6401e350 f   ui.obj
 0001:0001daf0       ??8@YA_NABUSfxOptions@@0@Z 6401eaf0 f   ui.obj
 0001:0001dc90       ??8@YA_NABUProfileOptions@@0@Z 6401ec90 f   ui.obj
 0001:0001de50       ?get_default_ext@UpdateDialog@@ABE?AV?$basic_string@_WU?$char_traits@_W@std@@V?$allocator@_W@2@@std@@XZ 6401ee50 f i ui.obj
 0001:0001e080       ?change_extension@UpdateDialog@@AAE_NXZ 6401f080 f i ui.obj
 0001:0001e470       ?update_level_list@UpdateDialog@@AAEXXZ 6401f470 f i ui.obj
 0001:0001e9c0       ?set_control_state@UpdateDialog@@AAEXXZ 6401f9c0 f i ui.obj
 0001:0001ee70       ?eval_arc_path@UpdateDialog@@AAE?AV?$basic_string@_WU?$char_traits@_W@std@@V?$allocator@_W@2@@std@@XZ 6401fe70 f i ui.obj
 0001:0001f350       ?read_controls@UpdateDialog@@AAEXAAUUpdateOptions@@@Z 64020350 f i ui.obj
 0001:0001fd30       ?write_controls@UpdateDialog@@AAEXABUProfileOptions@@@Z 64020d30 f i ui.obj
 0001:00020410       ?populate_profile_list@UpdateDialog@@AAEXXZ 64021410 f i ui.obj
 0001:000205c0       ?dialog_proc@UpdateDialog@@EAEHHHPAX@Z 640215c0 f i ui.obj
 0001:000211c0       ??0UpdateDialog@@QAE@_NAAUUpdateOptions@@AAUUpdateProfiles@@@Z 640221c0 f i ui.obj
 0001:00021340       ?show@UpdateDialog@@QAE_NXZ 64022340 f i ui.obj
 0001:00022e50       ??1UpdateDialog@@QAE@XZ    64023e50 f i ui.obj
 0001:00022f60       ?estimate_column_widths@MultiSelectDialog@@AAE?AV?$vector@IV?$allocator@I@std@@@std@@ABV?$vector@V?$basic_string@_WU?$char_traits@_W@std@@V?$allocator@_W@2@@std@@V?$allocator@V?$basic_string@_WU?$char_traits@_W@std@@V?$allocator@_W@2@@std@@@2@@3@@Z 64023f60 f i ui.obj
 0001:000231e0       ?dialog_proc@MultiSelectDialog@@EAEHHHPAX@Z 640241e0 f i ui.obj
 0001:00023410       ??0MultiSelectDialog@@QAE@ABV?$basic_string@_WU?$char_traits@_W@std@@V?$allocator@_W@2@@std@@0AAV12@@Z 64024410 f i ui.obj
 0001:000234e0       ??0MultiSelectDialog@@QAE@ABV?$basic_string@_WU?$char_traits@_W@std@@V?$allocator@_W@2@@std@@0@Z 640244e0 f i ui.obj
 0001:000235b0       ?show@MultiSelectDialog@@QAE_NXZ 640245b0 f i ui.obj
 0001:00023b10       ??1?$set@V?$basic_string@_WU?$char_traits@_W@std@@V?$allocator@_W@2@@std@@U?$less@V?$basic_string@_WU?$char_traits@_W@std@@V?$allocator@_W@2@@std@@@2@V?$allocator@V?$basic_string@_WU?$char_traits@_W@std@@V?$allocator@_W@2@@std@@@2@@std@@QAE@XZ 64024b10 f i plugin.obj
 0001:00023b10       ??1?$set@V?$basic_string@_WU?$char_traits@_W@std@@V?$allocator@_W@2@@std@@UItemCompare@?1??show@MultiSelectDialog@@QAE_NXZ@V?$allocator@V?$basic_string@_WU?$char_traits@_W@std@@V?$allocator@_W@2@@std@@@2@@std@@QAE@XZ 64024b10 f i ui.obj
 0001:00023b70       ?get_masks@FormatLibraryInfoDialog@@AAE?AV?$basic_string@_WU?$char_traits@_W@std@@V?$allocator@_W@2@@std@@I@Z 64024b70 f i ui.obj
 0001:00023d90       ?get_formats@FormatLibraryInfoDialog@@AAE?AV?$basic_string@_WU?$char_traits@_W@std@@V?$allocator@_W@2@@std@@I@Z 64024d90 f i ui.obj
 0001:00023fc0       ?dialog_proc@FormatLibraryInfoDialog@@EAEHHHPAX@Z 64024fc0 f i ui.obj
 0001:000242f0       ??0FormatLibraryInfoDialog@@QAE@XZ 640252f0 f i ui.obj
 0001:00024490       ?show@FormatLibraryInfoDialog@@QAEXXZ 64025490 f i ui.obj
 0001:00024cb0       ??1MultiSelectDialog@@QAE@XZ 64025cb0 f i ui.obj
 0001:00024d40       ??1?$map@IIU?$less@I@std@@V?$allocator@U?$pair@$$CBII@std@@@2@@std@@QAE@XZ 64025d40 f i archive.obj
 0001:00024d40       ??1?$map@HIU?$less@H@std@@V?$allocator@U?$pair@$$CBHI@std@@@2@@std@@QAE@XZ 64025d40 f i ui.obj
 0001:00024db0       ?dialog_proc@SettingsDialog@@EAEHHHPAX@Z 64025db0 f i ui.obj
 0001:00025710       ?generate_masks@SettingsDialog@@AAEXXZ 64026710 f i ui.obj
 0001:00025830       ?default_masks@SettingsDialog@@AAEXXZ 64026830 f i ui.obj
 0001:000258d0       ?get_available_formats@SettingsDialog@@AAE?AV?$basic_string@_WU?$char_traits@_W@std@@V?$allocator@_W@2@@std@@XZ 640268d0 f i ui.obj
 0001:00025a20       ??0SettingsDialog@@QAE@AAUPluginSettings@@@Z 64026a20 f i ui.obj
 0001:00025b00       ?show@SettingsDialog@@QAE_NXZ 64026b00 f i ui.obj
 0001:00026410       ??R<lambda1>@?A0xc33845b5@@QBE_NABUUpdateProfile@@0@Z 64027410 f i options.obj
 0001:00026410       ??R<lambda4>@?A0x80a7ab2d@@QBE_NABV?$basic_string@_WU?$char_traits@_W@std@@V?$allocator@_W@2@@std@@0@Z 64027410 f i ui.obj
 0001:000264f0       ??1FormatLibraryInfoDialog@@QAE@XZ 640274f0 f i ui.obj
 0001:000265d0       ??1Options@@QAE@XZ         640275d0 f i ui.obj
 0001:00026730       ?settings_dialog@@YA_NAAUPluginSettings@@@Z 64027730 f   ui.obj
 0001:000267e0       ??1ExtractDialog@@QAE@XZ   640277e0 f i ui.obj
 0001:000267e0       ??1Dialog@Far@@QAE@XZ      640277e0 f i ui.obj
 0001:000267e0       ??1AttrDialog@@QAE@XZ      640277e0 f i ui.obj
 0001:000267e0       ??1SettingsDialog@@QAE@XZ  640277e0 f i ui.obj
 0001:00026830       ?dialog_proc@AttrDialog@@EAEHHHPAX@Z 64027830 f i ui.obj
 0001:00026a30       ??0AttrDialog@@QAE@ABV?$list@UAttr@@V?$allocator@UAttr@@@std@@@std@@@Z 64027a30 f i ui.obj
 0001:00026b00       ?show@AttrDialog@@QAEXXZ   64027b00 f i ui.obj
 0001:00026bd0       ?attr_dialog@@YAXABV?$list@UAttr@@V?$allocator@UAttr@@@std@@@std@@@Z 64027bd0 f   ui.obj
 0001:00026c60       ??6?$basic_ostream@_WU?$char_traits@_W@std@@@std@@QAEAAV01@H@Z 64027c60 f i ui.obj
 0001:00026e50       ?substr@?$basic_string@_WU?$char_traits@_W@std@@V?$allocator@_W@2@@std@@QBE?AV12@II@Z 64027e50 f i ui.obj
 0001:00026e80       ?reset@?$shared_ptr@VFileFilter@Far@@@tr1@std@@QAEXXZ 64027e80 f i ui.obj
 0001:00026ed0       ?erase@?$vector@UUpdateProfile@@V?$allocator@UUpdateProfile@@@std@@@std@@QAE?AV?$_Vector_iterator@V?$_Vector_val@UUpdateProfile@@V?$allocator@UUpdateProfile@@@std@@@std@@@2@V?$_Vector_const_iterator@V?$_Vector_val@UUpdateProfile@@V?$allocator@UUpdateProfile@@@std@@@std@@@2@@Z 64027ed0 f i ui.obj
 0001:00026f20       ??4?$vector@IV?$allocator@I@std@@@std@@QAEAAV01@ABV01@@Z 64027f20 f i ui.obj
 0001:00027030       ??0?$basic_ostringstream@_WU?$char_traits@_W@std@@V?$allocator@_W@2@@std@@QAE@H@Z 64028030 f i ui.obj
 0001:000270d0       ?str@?$basic_ostringstream@_WU?$char_traits@_W@std@@V?$allocator@_W@2@@std@@QBE?AV?$basic_string@_WU?$char_traits@_W@std@@V?$allocator@_W@2@@2@XZ 640280d0 f i ui.obj
 0001:000270f0       ??1?$basic_stringbuf@_WU?$char_traits@_W@std@@V?$allocator@_W@2@@std@@UAE@XZ 640280f0 f i ui.obj
 0001:00027160       ?overflow@?$basic_stringbuf@_WU?$char_traits@_W@std@@V?$allocator@_W@2@@std@@MAEGG@Z 64028160 f i ui.obj
 0001:00027360       ?pbackfail@?$basic_stringbuf@_WU?$char_traits@_W@std@@V?$allocator@_W@2@@std@@MAEGG@Z 64028360 f i ui.obj
 0001:000273c0       ?underflow@?$basic_stringbuf@_WU?$char_traits@_W@std@@V?$allocator@_W@2@@std@@MAEGXZ 640283c0 f i ui.obj
 0001:00027430       ?seekoff@?$basic_stringbuf@_WU?$char_traits@_W@std@@V?$allocator@_W@2@@std@@MAE?AV?$fpos@H@2@_JHH@Z 64028430 f i ui.obj
 0001:000275f0       ?seekpos@?$basic_stringbuf@_WU?$char_traits@_W@std@@V?$allocator@_W@2@@std@@MAE?AV?$fpos@H@2@V32@H@Z 640285f0 f i ui.obj
 0001:00027730       ??1?$vector@V?$vector@EV?$allocator@E@std@@@std@@V?$allocator@V?$vector@EV?$allocator@E@std@@@std@@@2@@std@@QAE@XZ 64028730 f i ui.obj
 0001:00027760       ?push_back@?$vector@V?$vector@EV?$allocator@E@std@@@std@@V?$allocator@V?$vector@EV?$allocator@E@std@@@std@@@2@@std@@QAEXABV?$vector@EV?$allocator@E@std@@@2@@Z 64028760 f i ui.obj
 0001:00027810       ?push_back@?$vector@UFarListItem@@V?$allocator@UFarListItem@@@std@@@std@@QAEXABUFarListItem@@@Z 64028810 f i ui.obj
 0001:000278c0       ?find@?$_Tree@V?$_Tmap_traits@HIU?$less@H@std@@V?$allocator@U?$pair@$$CBHI@std@@@2@$0A@@std@@@std@@QAE?AV?$_Tree_iterator@V?$_Tree_val@V?$_Tmap_traits@HIU?$less@H@std@@V?$allocator@U?$pair@$$CBHI@std@@@2@$0A@@std@@@std@@@2@ABH@Z 640288c0 f i ui.obj
 0001:00027920       ??_E?$basic_ostringstream@_WU?$char_traits@_W@std@@V?$allocator@_W@2@@std@@UAEPAXI@Z 64028920 f i  CIL library: CIL module
 0001:00027920       ??_G?$basic_ostringstream@_WU?$char_traits@_W@std@@V?$allocator@_W@2@@std@@UAEPAXI@Z 64028920 f i ui.obj
 0001:000279c0       ??_G?$basic_stringbuf@_WU?$char_traits@_W@std@@V?$allocator@_W@2@@std@@UAEPAXI@Z 640289c0 f i ui.obj
 0001:000279c0       ??_E?$basic_stringbuf@_WU?$char_traits@_W@std@@V?$allocator@_W@2@@std@@UAEPAXI@Z 640289c0 f i  CIL library: CIL module
 0001:000279e0       ??0?$basic_ostream@_WU?$char_traits@_W@std@@@std@@QAE@PAV?$basic_streambuf@_WU?$char_traits@_W@std@@@1@_N@Z 640289e0 f i ui.obj
 0001:00027a80       ?rfind@?$basic_string@_WU?$char_traits@_W@std@@V?$allocator@_W@2@@std@@QBEIPB_WII@Z 64028a80 f i ui.obj
 0001:00027b00       ?find_last_of@?$basic_string@_WU?$char_traits@_W@std@@V?$allocator@_W@2@@std@@QBEIPB_WII@Z 64028b00 f i ui.obj
 0001:00027b80       ?_Construct_n@?$vector@IV?$allocator@I@std@@@std@@QAEXIPBI@Z 64028b80 f i ui.obj
 0001:00027be0       ?_Buy@?$vector@IV?$allocator@I@std@@@std@@IAE_NI@Z 64028be0 f i ui.obj
 0001:00027c20       ?str@?$basic_stringbuf@_WU?$char_traits@_W@std@@V?$allocator@_W@2@@std@@QBE?AV?$basic_string@_WU?$char_traits@_W@std@@V?$allocator@_W@2@@2@XZ 64028c20 f i ui.obj
 0001:00027d80       ?_Reserve@?$vector@V?$vector@EV?$allocator@E@std@@@std@@V?$allocator@V?$vector@EV?$allocator@E@std@@@std@@@2@@std@@IAEXI@Z 64028d80 f i ui.obj
 0001:00027dd0       ?_Reserve@?$vector@UFarListItem@@V?$allocator@UFarListItem@@@std@@@std@@IAEXI@Z 64028dd0 f i ui.obj
 0001:00027e40       ?do_put@?$num_put@_WV?$ostreambuf_iterator@_WU?$char_traits@_W@std@@@std@@@std@@MBE?AV?$ostreambuf_iterator@_WU?$char_traits@_W@std@@@2@V32@AAVios_base@2@_W_N@Z 64028e40 f i ui.obj
 0001:00028070       ?do_put@?$num_put@_WV?$ostreambuf_iterator@_WU?$char_traits@_W@std@@@std@@@std@@MBE?AV?$ostreambuf_iterator@_WU?$char_traits@_W@std@@@2@V32@AAVios_base@2@_WJ@Z 64029070 f i ui.obj
 0001:000280f0       ?do_put@?$num_put@_WV?$ostreambuf_iterator@_WU?$char_traits@_W@std@@@std@@@std@@MBE?AV?$ostreambuf_iterator@_WU?$char_traits@_W@std@@@2@V32@AAVios_base@2@_WK@Z 640290f0 f i ui.obj
 0001:00028170       ?do_put@?$num_put@_WV?$ostreambuf_iterator@_WU?$char_traits@_W@std@@@std@@@std@@MBE?AV?$ostreambuf_iterator@_WU?$char_traits@_W@std@@@2@V32@AAVios_base@2@_W_J@Z 64029170 f i ui.obj
 0001:00028200       ?do_put@?$num_put@_WV?$ostreambuf_iterator@_WU?$char_traits@_W@std@@@std@@@std@@MBE?AV?$ostreambuf_iterator@_WU?$char_traits@_W@std@@@2@V32@AAVios_base@2@_W_K@Z 64029200 f i ui.obj
 0001:00028290       ?do_put@?$num_put@_WV?$ostreambuf_iterator@_WU?$char_traits@_W@std@@@std@@@std@@MBE?AV?$ostreambuf_iterator@_WU?$char_traits@_W@std@@@2@V32@AAVios_base@2@_WN@Z 64029290 f i ui.obj
 0001:000284b0       ?do_put@?$num_put@_WV?$ostreambuf_iterator@_WU?$char_traits@_W@std@@@std@@@std@@MBE?AV?$ostreambuf_iterator@_WU?$char_traits@_W@std@@@2@V32@AAVios_base@2@_WO@Z 640294b0 f i ui.obj
 0001:000286c0       ?do_put@?$num_put@_WV?$ostreambuf_iterator@_WU?$char_traits@_W@std@@@std@@@std@@MBE?AV?$ostreambuf_iterator@_WU?$char_traits@_W@std@@@2@V32@AAVios_base@2@_WPBX@Z 640296c0 f i ui.obj
 0001:00028730       ??_E?$num_put@_WV?$ostreambuf_iterator@_WU?$char_traits@_W@std@@@std@@@std@@MAEPAXI@Z 64029730 f i  CIL library: CIL module
 0001:00028730       ??_G?$num_put@_WV?$ostreambuf_iterator@_WU?$char_traits@_W@std@@@std@@@std@@MAEPAXI@Z 64029730 f i ui.obj
 0001:00028730       ??_Efacet@locale@std@@UAEPAXI@Z 64029730 f i  CIL library: CIL module
 0001:00028730       ??_Gfacet@locale@std@@UAEPAXI@Z 64029730 f i ui.obj
 0001:00028750       ??0?$basic_streambuf@_WU?$char_traits@_W@std@@@std@@IAE@XZ 64029750 f i ui.obj
 0001:00028850       ?reserve@?$vector@V?$vector@EV?$allocator@E@std@@@std@@V?$allocator@V?$vector@EV?$allocator@E@std@@@std@@@2@@std@@QAEXI@Z 64029850 f i ui.obj
 0001:00028930       ?_Destroy@?$vector@V?$vector@EV?$allocator@E@std@@@std@@V?$allocator@V?$vector@EV?$allocator@E@std@@@std@@@2@@std@@IAEXPAV?$vector@EV?$allocator@E@std@@@2@0@Z 64029930 f i ui.obj
 0001:00028970       ?reserve@?$vector@UFarListItem@@V?$allocator@UFarListItem@@@std@@@std@@QAEXI@Z 64029970 f i ui.obj
 0001:00028a60       ?erase@?$_Tree@V?$_Tset_traits@V?$basic_string@_WU?$char_traits@_W@std@@V?$allocator@_W@2@@std@@U?$less@V?$basic_string@_WU?$char_traits@_W@std@@V?$allocator@_W@2@@std@@@2@V?$allocator@V?$basic_string@_WU?$char_traits@_W@std@@V?$allocator@_W@2@@std@@@2@$0A@@std@@@std@@QAE?AV?$_Tree_const_iterator@V?$_Tree_val@V?$_Tset_traits@V?$basic_string@_WU?$char_traits@_W@std@@V?$allocator@_W@2@@std@@U?$less@V?$basic_string@_WU?$char_traits@_W@std@@V?$allocator@_W@2@@std@@@2@V?$allocator@V?$basic_string@_WU?$char_traits@_W@std@@V?$allocator@_W@2@@std@@@2@$0A@@std@@@std@@@2@V32@0@Z 64029a60 f i plugin.obj
 0001:00028a60       ?erase@?$_Tree@V?$_Tset_traits@V?$basic_string@_WU?$char_traits@_W@std@@V?$allocator@_W@2@@std@@UItemCompare@?1??show@MultiSelectDialog@@QAE_NXZ@V?$allocator@V?$basic_string@_WU?$char_traits@_W@std@@V?$allocator@_W@2@@std@@@2@$0A@@std@@@std@@QAE?AV?$_Tree_const_iterator@V?$_Tree_val@V?$_Tset_traits@V?$basic_string@_WU?$char_traits@_W@std@@V?$allocator@_W@2@@std@@UItemCompare@?1??show@MultiSelectDialog@@QAE_NXZ@V?$allocator@V?$basic_string@_WU?$char_traits@_W@std@@V?$allocator@_W@2@@std@@@2@$0A@@std@@@std@@@2@V32@0@Z 64029a60 f i ui.obj
 0001:00028b20       ?_Eqrange@?$_Tree@V?$_Tset_traits@V?$basic_string@_WU?$char_traits@_W@std@@V?$allocator@_W@2@@std@@UItemCompare@?1??show@MultiSelectDialog@@QAE_NXZ@V?$allocator@V?$basic_string@_WU?$char_traits@_W@std@@V?$allocator@_W@2@@std@@@2@$0A@@std@@@std@@IBE?AU?$pair@V?$_Tree_const_iterator@V?$_Tree_val@V?$_Tset_traits@V?$basic_string@_WU?$char_traits@_W@std@@V?$allocator@_W@2@@std@@UItemCompare@?1??show@MultiSelectDialog@@QAE_NXZ@V?$allocator@V?$basic_string@_WU?$char_traits@_W@std@@V?$allocator@_W@2@@std@@@2@$0A@@std@@@std@@@std@@V12@@2@ABV?$basic_string@_WU?$char_traits@_W@std@@V?$allocator@_W@2@@2@@Z 64029b20 f i ui.obj
 0001:00028bc0       ?_Fput@?$num_put@_WV?$ostreambuf_iterator@_WU?$char_traits@_W@std@@@std@@@std@@ABA?AV?$ostreambuf_iterator@_WU?$char_traits@_W@std@@@2@V32@AAVios_base@2@_WPBDIIII@Z 64029bc0 f i ui.obj
 0001:00029280       ?_Ifmt@?$num_put@_WV?$ostreambuf_iterator@_WU?$char_traits@_W@std@@@std@@@std@@ABAPADPADPBDH@Z 6402a280 f i ui.obj
 0001:00029300       ?_Iput@?$num_put@_WV?$ostreambuf_iterator@_WU?$char_traits@_W@std@@@std@@@std@@ABA?AV?$ostreambuf_iterator@_WU?$char_traits@_W@std@@@2@V32@AAVios_base@2@_WPADI@Z 6402a300 f i ui.obj
 0001:000295e0       ?_Put@?$num_put@_WV?$ostreambuf_iterator@_WU?$char_traits@_W@std@@@std@@@std@@ABA?AV?$ostreambuf_iterator@_WU?$char_traits@_W@std@@@2@V32@PB_WI@Z 6402a5e0 f i ui.obj
 0001:00029650       ?_Rep@?$num_put@_WV?$ostreambuf_iterator@_WU?$char_traits@_W@std@@@std@@@std@@ABA?AV?$ostreambuf_iterator@_WU?$char_traits@_W@std@@@2@V32@_WI@Z 6402a650 f i ui.obj
 0001:000296c0       ?falsename@?$numpunct@_W@std@@QBE?AV?$basic_string@_WU?$char_traits@_W@std@@V?$allocator@_W@2@@2@XZ 6402a6c0 f i ui.obj
 0001:000296e0       ?truename@?$numpunct@_W@std@@QBE?AV?$basic_string@_WU?$char_traits@_W@std@@V?$allocator@_W@2@@2@XZ 6402a6e0 f i ui.obj
 0001:00029700       ?do_decimal_point@?$numpunct@_W@std@@MBE_WXZ 6402a700 f i ui.obj
 0001:00029710       ?do_thousands_sep@?$numpunct@_W@std@@MBE_WXZ 6402a710 f i ui.obj
 0001:00029720       ?do_grouping@?$numpunct@_W@std@@MBE?AV?$basic_string@DU?$char_traits@D@std@@V?$allocator@D@2@@2@XZ 6402a720 f i ui.obj
 0001:00029770       ?do_falsename@?$numpunct@_W@std@@MBE?AV?$basic_string@_WU?$char_traits@_W@std@@V?$allocator@_W@2@@2@XZ 6402a770 f i ui.obj
 0001:000297c0       ?do_truename@?$numpunct@_W@std@@MBE?AV?$basic_string@_WU?$char_traits@_W@std@@V?$allocator@_W@2@@2@XZ 6402a7c0 f i ui.obj
 0001:00029810       ??_E?$numpunct@_W@std@@MAEPAXI@Z 6402a810 f i  CIL library: CIL module
 0001:00029810       ??_G?$numpunct@_W@std@@MAEPAXI@Z 6402a810 f i ui.obj
 0001:00029860       ?append@?$basic_string@DU?$char_traits@D@std@@V?$allocator@D@2@@std@@QAEAAV12@ID@Z 6402a860 f i ui.obj
 0001:00029920       ?widen@?$basic_ios@_WU?$char_traits@_W@std@@@std@@QBE_WD@Z 6402a920 f i ui.obj
 0001:000299d0       ?allocate@?$allocator@UFarListItem@@@std@@QAEPAUFarListItem@@I@Z 6402a9d0 f i ui.obj
 0001:00029a30       ?erase@?$_Tree@V?$_Tset_traits@V?$basic_string@_WU?$char_traits@_W@std@@V?$allocator@_W@2@@std@@UItemCompare@?1??show@MultiSelectDialog@@QAE_NXZ@V?$allocator@V?$basic_string@_WU?$char_traits@_W@std@@V?$allocator@_W@2@@std@@@2@$0A@@std@@@std@@QAE?AV?$_Tree_const_iterator@V?$_Tree_val@V?$_Tset_traits@V?$basic_string@_WU?$char_traits@_W@std@@V?$allocator@_W@2@@std@@UItemCompare@?1??show@MultiSelectDialog@@QAE_NXZ@V?$allocator@V?$basic_string@_WU?$char_traits@_W@std@@V?$allocator@_W@2@@std@@@2@$0A@@std@@@std@@@2@V32@@Z 6402aa30 f i ui.obj
 0001:00029a30       ?erase@?$_Tree@V?$_Tset_traits@V?$basic_string@_WU?$char_traits@_W@std@@V?$allocator@_W@2@@std@@U?$less@V?$basic_string@_WU?$char_traits@_W@std@@V?$allocator@_W@2@@std@@@2@V?$allocator@V?$basic_string@_WU?$char_traits@_W@std@@V?$allocator@_W@2@@std@@@2@$0A@@std@@@std@@QAE?AV?$_Tree_const_iterator@V?$_Tree_val@V?$_Tset_traits@V?$basic_string@_WU?$char_traits@_W@std@@V?$allocator@_W@2@@std@@U?$less@V?$basic_string@_WU?$char_traits@_W@std@@V?$allocator@_W@2@@std@@@2@V?$allocator@V?$basic_string@_WU?$char_traits@_W@std@@V?$allocator@_W@2@@std@@@2@$0A@@std@@@std@@@2@V32@@Z 6402aa30 f i plugin.obj
 0001:00029cd0       ?clear@?$_Tree@V?$_Tmap_traits@HIU?$less@H@std@@V?$allocator@U?$pair@$$CBHI@std@@@2@$0A@@std@@@std@@QAEXXZ 6402acd0 f i ui.obj
 0001:00029cd0       ?clear@?$_Tree@V?$_Tmap_traits@IIU?$less@I@std@@V?$allocator@U?$pair@$$CBII@std@@@2@$0A@@std@@@std@@QAEXXZ 6402acd0 f i archive.obj
 0001:00029d20       ?_Putc@?$num_put@_WV?$ostreambuf_iterator@_WU?$char_traits@_W@std@@@std@@@std@@ABA?AV?$ostreambuf_iterator@_WU?$char_traits@_W@std@@@2@V32@PBDI@Z 6402ad20 f i ui.obj
 0001:00029e00       ?_Putgrouped@?$num_put@_WV?$ostreambuf_iterator@_WU?$char_traits@_W@std@@@std@@@std@@ABA?AV?$ostreambuf_iterator@_WU?$char_traits@_W@std@@@2@V32@PBDI_W@Z 6402ae00 f i ui.obj
 0001:00029eb0       ?grouping@?$numpunct@_W@std@@QBE?AV?$basic_string@DU?$char_traits@D@std@@V?$allocator@D@2@@2@XZ 6402aeb0 f i ui.obj
 0001:00029ed0       ?_Tidy@?$numpunct@_W@std@@AAEXXZ 6402aed0 f i ui.obj
 0001:00029ef0       ?_Erase@?$_Tree@V?$_Tset_traits@V?$basic_string@_WU?$char_traits@_W@std@@V?$allocator@_W@2@@std@@U?$less@V?$basic_string@_WU?$char_traits@_W@std@@V?$allocator@_W@2@@std@@@2@V?$allocator@V?$basic_string@_WU?$char_traits@_W@std@@V?$allocator@_W@2@@std@@@2@$0A@@std@@@std@@IAEXPAU_Node@?$_Tree_nod@V?$_Tset_traits@V?$basic_string@_WU?$char_traits@_W@std@@V?$allocator@_W@2@@std@@U?$less@V?$basic_string@_WU?$char_traits@_W@std@@V?$allocator@_W@2@@std@@@2@V?$allocator@V?$basic_string@_WU?$char_traits@_W@std@@V?$allocator@_W@2@@std@@@2@$0A@@std@@@2@@Z 6402aef0 f i plugin.obj
 0001:00029ef0       ?_Erase@?$_Tree@V?$_Tset_traits@V?$basic_string@_WU?$char_traits@_W@std@@V?$allocator@_W@2@@std@@UItemCompare@?1??show@MultiSelectDialog@@QAE_NXZ@V?$allocator@V?$basic_string@_WU?$char_traits@_W@std@@V?$allocator@_W@2@@std@@@2@$0A@@std@@@std@@IAEXPAU_Node@?$_Tree_nod@V?$_Tset_traits@V?$basic_string@_WU?$char_traits@_W@std@@V?$allocator@_W@2@@std@@UItemCompare@?1??show@MultiSelectDialog@@QAE_NXZ@V?$allocator@V?$basic_string@_WU?$char_traits@_W@std@@V?$allocator@_W@2@@std@@@2@$0A@@std@@@2@@Z 6402aef0 f i ui.obj
 0001:00029f50       ?_Rrotate@?$_Tree@V?$_Tset_traits@V?$basic_string@_WU?$char_traits@_W@std@@V?$allocator@_W@2@@std@@U?$less@V?$basic_string@_WU?$char_traits@_W@std@@V?$allocator@_W@2@@std@@@2@V?$allocator@V?$basic_string@_WU?$char_traits@_W@std@@V?$allocator@_W@2@@std@@@2@$0A@@std@@@std@@IAEXPAU_Node@?$_Tree_nod@V?$_Tset_traits@V?$basic_string@_WU?$char_traits@_W@std@@V?$allocator@_W@2@@std@@U?$less@V?$basic_string@_WU?$char_traits@_W@std@@V?$allocator@_W@2@@std@@@2@V?$allocator@V?$basic_string@_WU?$char_traits@_W@std@@V?$allocator@_W@2@@std@@@2@$0A@@std@@@2@@Z 6402af50 f i plugin.obj
 0001:00029f50       ?_Rrotate@?$_Tree@V?$_Tset_traits@V?$basic_string@_WU?$char_traits@_W@std@@V?$allocator@_W@2@@std@@UItemCompare@?1??show@MultiSelectDialog@@QAE_NXZ@V?$allocator@V?$basic_string@_WU?$char_traits@_W@std@@V?$allocator@_W@2@@std@@@2@$0A@@std@@@std@@IAEXPAU_Node@?$_Tree_nod@V?$_Tset_traits@V?$basic_string@_WU?$char_traits@_W@std@@V?$allocator@_W@2@@std@@UItemCompare@?1??show@MultiSelectDialog@@QAE_NXZ@V?$allocator@V?$basic_string@_WU?$char_traits@_W@std@@V?$allocator@_W@2@@std@@@2@$0A@@std@@@2@@Z 6402af50 f i ui.obj
 0001:00029fa0       ?_Max@?$_Tree_val@V?$_Tset_traits@V?$basic_string@_WU?$char_traits@_W@std@@V?$allocator@_W@2@@std@@U?$less@V?$basic_string@_WU?$char_traits@_W@std@@V?$allocator@_W@2@@std@@@2@V?$allocator@V?$basic_string@_WU?$char_traits@_W@std@@V?$allocator@_W@2@@std@@@2@$0A@@std@@@std@@SAPAU_Node@?$_Tree_nod@V?$_Tset_traits@V?$basic_string@_WU?$char_traits@_W@std@@V?$allocator@_W@2@@std@@U?$less@V?$basic_string@_WU?$char_traits@_W@std@@V?$allocator@_W@2@@std@@@2@V?$allocator@V?$basic_string@_WU?$char_traits@_W@std@@V?$allocator@_W@2@@std@@@2@$0A@@std@@@2@PAU342@@Z 6402afa0 f i plugin.obj
 0001:00029fa0       ?_Max@?$_Tree_val@V?$_Tset_traits@V?$basic_string@_WU?$char_traits@_W@std@@V?$allocator@_W@2@@std@@UItemCompare@?1??show@MultiSelectDialog@@QAE_NXZ@V?$allocator@V?$basic_string@_WU?$char_traits@_W@std@@V?$allocator@_W@2@@std@@@2@$0A@@std@@@std@@SAPAU_Node@?$_Tree_nod@V?$_Tset_traits@V?$basic_string@_WU?$char_traits@_W@std@@V?$allocator@_W@2@@std@@UItemCompare@?1??show@MultiSelectDialog@@QAE_NXZ@V?$allocator@V?$basic_string@_WU?$char_traits@_W@std@@V?$allocator@_W@2@@std@@@2@$0A@@std@@@2@PAU342@@Z 6402afa0 f i ui.obj
 0001:00029fc0       ?_Erase@?$_Tree@V?$_Tmap_traits@HIU?$less@H@std@@V?$allocator@U?$pair@$$CBHI@std@@@2@$0A@@std@@@std@@IAEXPAU_Node@?$_Tree_nod@V?$_Tmap_traits@HIU?$less@H@std@@V?$allocator@U?$pair@$$CBHI@std@@@2@$0A@@std@@@2@@Z 6402afc0 f i ui.obj
 0001:00029fc0       ?_Erase@?$_Tree@V?$_Tmap_traits@IIU?$less@I@std@@V?$allocator@U?$pair@$$CBII@std@@@2@$0A@@std@@@std@@IAEXPAU_Node@?$_Tree_nod@V?$_Tmap_traits@IIU?$less@I@std@@V?$allocator@U?$pair@$$CBII@std@@@2@$0A@@std@@@2@@Z 6402afc0 f i archive.obj
 0001:0002a000       ??$?8EV?$allocator@E@std@@@std@@YA_NABV?$vector@EV?$allocator@E@std@@@0@0@Z 6402b000 f i ui.obj
 0001:0002a030       ??$?H_WU?$char_traits@_W@std@@V?$allocator@_W@1@@std@@YA?AV?$basic_string@_WU?$char_traits@_W@std@@V?$allocator@_W@2@@0@ABV10@_W@Z 6402b030 f i ui.obj
 0001:0002a0f0       ??$?6_WU?$char_traits@_W@std@@V?$allocator@_W@1@@std@@YAAAV?$basic_ostream@_WU?$char_traits@_W@std@@@0@AAV10@ABV?$basic_string@_WU?$char_traits@_W@std@@V?$allocator@_W@2@@0@@Z 6402b0f0 f i ui.obj
 0001:0002a3a0       ??$?6_WU?$char_traits@_W@std@@@std@@YAAAV?$basic_ostream@_WU?$char_traits@_W@std@@@0@AAV10@_W@Z 6402b3a0 f i ui.obj
 0001:0002a660       ??$?H_WU?$char_traits@_W@std@@V?$allocator@_W@1@@std@@YA?AV?$basic_string@_WU?$char_traits@_W@std@@V?$allocator@_W@2@@0@$$QAV10@_W@Z 6402b660 f i ui.obj
 0001:0002a6a0       ??$?H_WU?$char_traits@_W@std@@V?$allocator@_W@1@@std@@YA?AV?$basic_string@_WU?$char_traits@_W@std@@V?$allocator@_W@2@@0@ABV10@$$QAV10@@Z 6402b6a0 f i ui.obj
 0001:0002a6e0       ??$reset@VFileFilter@Far@@@?$shared_ptr@VFileFilter@Far@@@tr1@std@@QAEXPAVFileFilter@Far@@@Z 6402b6e0 f i ui.obj
 0001:0002a750       ??$?H_WU?$char_traits@_W@std@@V?$allocator@_W@1@@std@@YA?AV?$basic_string@_WU?$char_traits@_W@std@@V?$allocator@_W@2@@0@ABV10@0@Z 6402b750 f i ui.obj
 0001:0002a800       ??$insert@V?$_List_const_iterator@V?$_List_val@V?$basic_string@_WU?$char_traits@_W@std@@V?$allocator@_W@2@@std@@V?$allocator@V?$basic_string@_WU?$char_traits@_W@std@@V?$allocator@_W@2@@std@@@2@@std@@@std@@@?$_Tree@V?$_Tset_traits@V?$basic_string@_WU?$char_traits@_W@std@@V?$allocator@_W@2@@std@@UItemCompare@?1??show@MultiSelectDialog@@QAE_NXZ@V?$allocator@V?$basic_string@_WU?$char_traits@_W@std@@V?$allocator@_W@2@@std@@@2@$0A@@std@@@std@@QAEXV?$_List_const_iterator@V?$_List_val@V?$basic_string@_WU?$char_traits@_W@std@@V?$allocator@_W@2@@std@@V?$allocator@V?$basic_string@_WU?$char_traits@_W@std@@V?$allocator@_W@2@@std@@@2@@std@@@1@0@Z 6402b800 f i ui.obj
 0001:0002a8d0       ??$use_facet@V?$num_put@_WV?$ostreambuf_iterator@_WU?$char_traits@_W@std@@@std@@@std@@@std@@YAABV?$num_put@_WV?$ostreambuf_iterator@_WU?$char_traits@_W@std@@@std@@@0@ABVlocale@0@@Z 6402b8d0 f i ui.obj
 0001:0002aa20       ??$_Ucopy@PAI@?$vector@IV?$allocator@I@std@@@std@@IAEPAIPAI00@Z 6402ba20 f i ui.obj
 0001:0002aa50       ??$use_facet@V?$numpunct@_W@std@@@std@@YAABV?$numpunct@_W@0@ABVlocale@0@@Z 6402ba50 f i ui.obj
 0001:0002aba0       ?_Insert@?$_Tree@V?$_Tmap_traits@HIU?$less@H@std@@V?$allocator@U?$pair@$$CBHI@std@@@2@$0A@@std@@@std@@QAE?AV?$_Tree_iterator@V?$_Tree_val@V?$_Tmap_traits@HIU?$less@H@std@@V?$allocator@U?$pair@$$CBHI@std@@@2@$0A@@std@@@std@@@2@V?$_Tree_const_iterator@V?$_Tree_val@V?$_Tmap_traits@HIU?$less@H@std@@V?$allocator@U?$pair@$$CBHI@std@@@2@$0A@@std@@@std@@@2@PAU_Node@?$_Tree_nod@V?$_Tmap_traits@HIU?$less@H@std@@V?$allocator@U?$pair@$$CBHI@std@@@2@$0A@@std@@@2@@Z 6402bba0 f i ui.obj
 0001:0002acd0       ?_Getcat@?$num_put@_WV?$ostreambuf_iterator@_WU?$char_traits@_W@std@@@std@@@std@@SAIPAPBVfacet@locale@2@PBV42@@Z 6402bcd0 f i ui.obj
 0001:0002ad90       ?_Getcat@?$numpunct@_W@std@@SAIPAPBVfacet@locale@2@PBV42@@Z 6402bd90 f i ui.obj
 0001:0002ae60       ?insert@?$_Tree@V?$_Tset_traits@V?$basic_string@_WU?$char_traits@_W@std@@V?$allocator@_W@2@@std@@UItemCompare@?1??show@MultiSelectDialog@@QAE_NXZ@V?$allocator@V?$basic_string@_WU?$char_traits@_W@std@@V?$allocator@_W@2@@std@@@2@$0A@@std@@@std@@QAE?AU?$pair@V?$_Tree_const_iterator@V?$_Tree_val@V?$_Tset_traits@V?$basic_string@_WU?$char_traits@_W@std@@V?$allocator@_W@2@@std@@UItemCompare@?1??show@MultiSelectDialog@@QAE_NXZ@V?$allocator@V?$basic_string@_WU?$char_traits@_W@std@@V?$allocator@_W@2@@std@@@2@$0A@@std@@@std@@@std@@_N@2@ABV?$basic_string@_WU?$char_traits@_W@std@@V?$allocator@_W@2@@2@_N@Z 6402be60 f i ui.obj
 0001:0002af50       ?_Linsert@?$_Tree@V?$_Tmap_traits@HIU?$less@H@std@@V?$allocator@U?$pair@$$CBHI@std@@@2@$0A@@std@@@std@@QAE?AU?$pair@V?$_Tree_iterator@V?$_Tree_val@V?$_Tmap_traits@HIU?$less@H@std@@V?$allocator@U?$pair@$$CBHI@std@@@2@$0A@@std@@@std@@@std@@_N@2@PAU_Node@?$_Tree_nod@V?$_Tmap_traits@HIU?$less@H@std@@V?$allocator@U?$pair@$$CBHI@std@@@2@$0A@@std@@@2@_N@Z 6402bf50 f i ui.obj
 0001:0002b020       ?_Insert@?$_Tree@V?$_Tmap_traits@IIU?$less@I@std@@V?$allocator@U?$pair@$$CBII@std@@@2@$0A@@std@@@std@@IAE?AV?$_Tree_iterator@V?$_Tree_val@V?$_Tmap_traits@IIU?$less@I@std@@V?$allocator@U?$pair@$$CBII@std@@@2@$0A@@std@@@std@@@2@_NPAU_Node@?$_Tree_nod@V?$_Tmap_traits@IIU?$less@I@std@@V?$allocator@U?$pair@$$CBII@std@@@2@$0A@@std@@@2@1@Z 6402c020 f i archive.obj
 0001:0002b020       ?_Insert@?$_Tree@V?$_Tmap_traits@HIU?$less@H@std@@V?$allocator@U?$pair@$$CBHI@std@@@2@$0A@@std@@@std@@IAE?AV?$_Tree_iterator@V?$_Tree_val@V?$_Tmap_traits@HIU?$less@H@std@@V?$allocator@U?$pair@$$CBHI@std@@@2@$0A@@std@@@std@@@2@_NPAU_Node@?$_Tree_nod@V?$_Tmap_traits@HIU?$less@H@std@@V?$allocator@U?$pair@$$CBHI@std@@@2@$0A@@std@@@2@1@Z 6402c020 f i ui.obj
 0001:0002b240       ?_Insert@?$_Tree@V?$_Tset_traits@V?$basic_string@_WU?$char_traits@_W@std@@V?$allocator@_W@2@@std@@UItemCompare@?1??show@MultiSelectDialog@@QAE_NXZ@V?$allocator@V?$basic_string@_WU?$char_traits@_W@std@@V?$allocator@_W@2@@std@@@2@$0A@@std@@@std@@IAE?AV?$_Tree_const_iterator@V?$_Tree_val@V?$_Tset_traits@V?$basic_string@_WU?$char_traits@_W@std@@V?$allocator@_W@2@@std@@UItemCompare@?1??show@MultiSelectDialog@@QAE_NXZ@V?$allocator@V?$basic_string@_WU?$char_traits@_W@std@@V?$allocator@_W@2@@std@@@2@$0A@@std@@@std@@@2@_NPAU_Node@?$_Tree_nod@V?$_Tset_traits@V?$basic_string@_WU?$char_traits@_W@std@@V?$allocator@_W@2@@std@@UItemCompare@?1??show@MultiSelectDialog@@QAE_NXZ@V?$allocator@V?$basic_string@_WU?$char_traits@_W@std@@V?$allocator@_W@2@@std@@@2@$0A@@std@@@2@1@Z 6402c240 f i ui.obj
 0001:0002b240       ?_Insert@?$_Tree@V?$_Tset_traits@V?$basic_string@_WU?$char_traits@_W@std@@V?$allocator@_W@2@@std@@U?$less@V?$basic_string@_WU?$char_traits@_W@std@@V?$allocator@_W@2@@std@@@2@V?$allocator@V?$basic_string@_WU?$char_traits@_W@std@@V?$allocator@_W@2@@std@@@2@$0A@@std@@@std@@IAE?AV?$_Tree_const_iterator@V?$_Tree_val@V?$_Tset_traits@V?$basic_string@_WU?$char_traits@_W@std@@V?$allocator@_W@2@@std@@U?$less@V?$basic_string@_WU?$char_traits@_W@std@@V?$allocator@_W@2@@std@@@2@V?$allocator@V?$basic_string@_WU?$char_traits@_W@std@@V?$allocator@_W@2@@std@@@2@$0A@@std@@@std@@@2@_NPAU_Node@?$_Tree_nod@V?$_Tset_traits@V?$basic_string@_WU?$char_traits@_W@std@@V?$allocator@_W@2@@std@@U?$less@V?$basic_string@_WU?$char_traits@_W@std@@V?$allocator@_W@2@@std@@@2@V?$allocator@V?$basic_string@_WU?$char_traits@_W@std@@V?$allocator@_W@2@@std@@@2@$0A@@std@@@2@1@Z 6402c240 f i plugin.obj
 0001:0002b490       ?_Buynode@?$_Tree_val@V?$_Tset_traits@V?$basic_string@_WU?$char_traits@_W@std@@V?$allocator@_W@2@@std@@U?$less@V?$basic_string@_WU?$char_traits@_W@std@@V?$allocator@_W@2@@std@@@2@V?$allocator@V?$basic_string@_WU?$char_traits@_W@std@@V?$allocator@_W@2@@std@@@2@$0A@@std@@@std@@QAEPAU_Node@?$_Tree_nod@V?$_Tset_traits@V?$basic_string@_WU?$char_traits@_W@std@@V?$allocator@_W@2@@std@@U?$less@V?$basic_string@_WU?$char_traits@_W@std@@V?$allocator@_W@2@@std@@@2@V?$allocator@V?$basic_string@_WU?$char_traits@_W@std@@V?$allocator@_W@2@@std@@@2@$0A@@std@@@2@ABV?$basic_string@_WU?$char_traits@_W@std@@V?$allocator@_W@2@@2@@Z 6402c490 f i plugin.obj
 0001:0002b490       ??$_Buynode@AAV?$basic_string@_WU?$char_traits@_W@std@@V?$allocator@_W@2@@std@@@?$_Tree_val@V?$_Tset_traits@V?$basic_string@_WU?$char_traits@_W@std@@V?$allocator@_W@2@@std@@U?$less@V?$basic_string@_WU?$char_traits@_W@std@@V?$allocator@_W@2@@std@@@2@V?$allocator@V?$basic_string@_WU?$char_traits@_W@std@@V?$allocator@_W@2@@std@@@2@$0A@@std@@@std@@QAEPAU_Node@?$_Tree_nod@V?$_Tset_traits@V?$basic_string@_WU?$char_traits@_W@std@@V?$allocator@_W@2@@std@@U?$less@V?$basic_string@_WU?$char_traits@_W@std@@V?$allocator@_W@2@@std@@@2@V?$allocator@V?$basic_string@_WU?$char_traits@_W@std@@V?$allocator@_W@2@@std@@@2@$0A@@std@@@1@AAV?$basic_string@_WU?$char_traits@_W@std@@V?$allocator@_W@2@@1@@Z 6402c490 f i open.obj
 0001:0002b490       ?_Buynode@?$_Tree_val@V?$_Tset_traits@V?$basic_string@_WU?$char_traits@_W@std@@V?$allocator@_W@2@@std@@UItemCompare@?1??show@MultiSelectDialog@@QAE_NXZ@V?$allocator@V?$basic_string@_WU?$char_traits@_W@std@@V?$allocator@_W@2@@std@@@2@$0A@@std@@@std@@QAEPAU_Node@?$_Tree_nod@V?$_Tset_traits@V?$basic_string@_WU?$char_traits@_W@std@@V?$allocator@_W@2@@std@@UItemCompare@?1??show@MultiSelectDialog@@QAE_NXZ@V?$allocator@V?$basic_string@_WU?$char_traits@_W@std@@V?$allocator@_W@2@@std@@@2@$0A@@std@@@2@ABV?$basic_string@_WU?$char_traits@_W@std@@V?$allocator@_W@2@@2@@Z 6402c490 f i ui.obj
 0001:0002b570       ?_Init@?$numpunct@_W@std@@IAEXABV_Locinfo@2@_N@Z 6402c570 f i ui.obj
 0001:0002b740       ??$_For_each@PAUUpdateProfile@@V<lambda0>@?A0x80a7ab2d@@@std@@YA?AV<lambda0>@?A0x80a7ab2d@@PAUUpdateProfile@@0V12@@Z 6402c740 f i ui.obj
 0001:0002b7c0       ??$_Sort@PAV?$basic_string@_WU?$char_traits@_W@std@@V?$allocator@_W@2@@std@@HUItemCompare@?1??show@MultiSelectDialog@@QAE_NXZ@@std@@YAXPAV?$basic_string@_WU?$char_traits@_W@std@@V?$allocator@_W@2@@0@0HUItemCompare@?1??show@MultiSelectDialog@@QAE_NXZ@@Z 6402c7c0 f i ui.obj
 0001:0002b910       ??$_For_each@V?$_Tree_unchecked_const_iterator@V?$_Tree_val@V?$_Tmap_traits@V?$vector@EV?$allocator@E@std@@@std@@UArcFormat@@U?$less@V?$vector@EV?$allocator@E@std@@@std@@@2@V?$allocator@U?$pair@$$CBV?$vector@EV?$allocator@E@std@@@std@@UArcFormat@@@std@@@2@$0A@@std@@@std@@U_Iterator_base0@2@@std@@V<lambda2>@?A0x80a7ab2d@@@std@@YA?AV<lambda2>@?A0x80a7ab2d@@V?$_Tree_unchecked_const_iterator@V?$_Tree_val@V?$_Tmap_traits@V?$vector@EV?$allocator@E@std@@@std@@UArcFormat@@U?$less@V?$vector@EV?$allocator@E@std@@@std@@@2@V?$allocator@U?$pair@$$CBV?$vector@EV?$allocator@E@std@@@std@@UArcFormat@@@std@@@2@$0A@@std@@@std@@U_Iterator_base0@2@@0@0V12@@Z 6402c910 f i ui.obj
 0001:0002b9b0       ??$_For_each@V?$_Tree_unchecked_const_iterator@V?$_Tree_val@V?$_Tmap_traits@V?$vector@EV?$allocator@E@std@@@std@@UArcFormat@@U?$less@V?$vector@EV?$allocator@E@std@@@std@@@2@V?$allocator@U?$pair@$$CBV?$vector@EV?$allocator@E@std@@@std@@UArcFormat@@@std@@@2@$0A@@std@@@std@@U_Iterator_base0@2@@std@@V<lambda3>@?A0x80a7ab2d@@@std@@YA?AV<lambda3>@?A0x80a7ab2d@@V?$_Tree_unchecked_const_iterator@V?$_Tree_val@V?$_Tmap_traits@V?$vector@EV?$allocator@E@std@@@std@@UArcFormat@@U?$less@V?$vector@EV?$allocator@E@std@@@std@@@2@V?$allocator@U?$pair@$$CBV?$vector@EV?$allocator@E@std@@@std@@UArcFormat@@@std@@@2@$0A@@std@@@std@@U_Iterator_base0@2@@0@0V12@@Z 6402c9b0 f i ui.obj
 0001:0002ba40       ??$_Sort@PAV?$basic_string@_WU?$char_traits@_W@std@@V?$allocator@_W@2@@std@@HV<lambda4>@?A0x80a7ab2d@@@std@@YAXPAV?$basic_string@_WU?$char_traits@_W@std@@V?$allocator@_W@2@@0@0HV<lambda4>@?A0x80a7ab2d@@@Z 6402ca40 f i ui.obj
 0001:0002bb90       ??$_For_each@PAV?$basic_string@_WU?$char_traits@_W@std@@V?$allocator@_W@2@@std@@V<lambda5>@?A0x80a7ab2d@@@std@@YA?AV<lambda5>@?A0x80a7ab2d@@PAV?$basic_string@_WU?$char_traits@_W@std@@V?$allocator@_W@2@@0@0V12@@Z 6402cb90 f i ui.obj
 0001:0002bbf0       ??$_For_each@V?$_List_unchecked_const_iterator@V?$_List_val@V?$basic_string@_WU?$char_traits@_W@std@@V?$allocator@_W@2@@std@@V?$allocator@V?$basic_string@_WU?$char_traits@_W@std@@V?$allocator@_W@2@@std@@@2@@std@@U_Iterator_base0@2@@std@@V<lambda1>@?A0x80a7ab2d@@@std@@YA?AV<lambda1>@?A0x80a7ab2d@@V?$_List_unchecked_const_iterator@V?$_List_val@V?$basic_string@_WU?$char_traits@_W@std@@V?$allocator@_W@2@@std@@V?$allocator@V?$basic_string@_WU?$char_traits@_W@std@@V?$allocator@_W@2@@std@@@2@@std@@U_Iterator_base0@2@@0@0V12@@Z 6402cbf0 f i ui.obj
 0001:0002bbf0       ??$_For_each@V?$_List_unchecked_const_iterator@V?$_List_val@V?$basic_string@_WU?$char_traits@_W@std@@V?$allocator@_W@2@@std@@V?$allocator@V?$basic_string@_WU?$char_traits@_W@std@@V?$allocator@_W@2@@std@@@2@@std@@U_Iterator_base0@2@@std@@V<lambda6>@?A0x80a7ab2d@@@std@@YA?AV<lambda6>@?A0x80a7ab2d@@V?$_List_unchecked_const_iterator@V?$_List_val@V?$basic_string@_WU?$char_traits@_W@std@@V?$allocator@_W@2@@std@@V?$allocator@V?$basic_string@_WU?$char_traits@_W@std@@V?$allocator@_W@2@@std@@@2@@std@@U_Iterator_base0@2@@0@0V12@@Z 6402cbf0 f i ui.obj
 0001:0002bd10       ??$_For_each@V?$_List_unchecked_const_iterator@V?$_List_val@UAttr@@V?$allocator@UAttr@@@std@@@std@@U_Iterator_base0@2@@std@@V<lambda7>@?A0x80a7ab2d@@@std@@YA?AV<lambda7>@?A0x80a7ab2d@@V?$_List_unchecked_const_iterator@V?$_List_val@UAttr@@V?$allocator@UAttr@@@std@@@std@@U_Iterator_base0@2@@0@0V12@@Z 6402cd10 f i ui.obj
 0001:0002bd70       ??$_For_each@V?$_List_unchecked_const_iterator@V?$_List_val@UAttr@@V?$allocator@UAttr@@@std@@@std@@U_Iterator_base0@2@@std@@V<lambda8>@?A0x80a7ab2d@@@std@@YA?AV<lambda8>@?A0x80a7ab2d@@V?$_List_unchecked_const_iterator@V?$_List_val@UAttr@@V?$allocator@UAttr@@@std@@@std@@U_Iterator_base0@2@@0@0V12@@Z 6402cd70 f i ui.obj
 0001:0002be00       ??$_Move@PAUUpdateProfile@@PAU1@@std@@YAPAUUpdateProfile@@PAU1@00U_Nonscalar_ptr_iterator_tag@0@@Z 6402ce00 f i ui.obj
 0001:0002be50       ??$_Distance2@V?$_Tree_const_iterator@V?$_Tree_val@V?$_Tset_traits@V?$basic_string@_WU?$char_traits@_W@std@@V?$allocator@_W@2@@std@@UItemCompare@?1??show@MultiSelectDialog@@QAE_NXZ@V?$allocator@V?$basic_string@_WU?$char_traits@_W@std@@V?$allocator@_W@2@@std@@@2@$0A@@std@@@std@@@std@@I@std@@YAXV?$_Tree_const_iterator@V?$_Tree_val@V?$_Tset_traits@V?$basic_string@_WU?$char_traits@_W@std@@V?$allocator@_W@2@@std@@UItemCompare@?1??show@MultiSelectDialog@@QAE_NXZ@V?$allocator@V?$basic_string@_WU?$char_traits@_W@std@@V?$allocator@_W@2@@std@@@2@$0A@@std@@@std@@@0@0AAIUbidirectional_iterator_tag@0@@Z 6402ce50 f i ui.obj
 0001:0002be50       ??$_Distance2@V?$_Tree_const_iterator@V?$_Tree_val@V?$_Tset_traits@V?$basic_string@_WU?$char_traits@_W@std@@V?$allocator@_W@2@@std@@U?$less@V?$basic_string@_WU?$char_traits@_W@std@@V?$allocator@_W@2@@std@@@2@V?$allocator@V?$basic_string@_WU?$char_traits@_W@std@@V?$allocator@_W@2@@std@@@2@$0A@@std@@@std@@@std@@I@std@@YAXV?$_Tree_const_iterator@V?$_Tree_val@V?$_Tset_traits@V?$basic_string@_WU?$char_traits@_W@std@@V?$allocator@_W@2@@std@@U?$less@V?$basic_string@_WU?$char_traits@_W@std@@V?$allocator@_W@2@@std@@@2@V?$allocator@V?$basic_string@_WU?$char_traits@_W@std@@V?$allocator@_W@2@@std@@@2@$0A@@std@@@std@@@0@0AAIUbidirectional_iterator_tag@0@@Z 6402ce50 f i plugin.obj
 0001:0002bec0       ??$_Buynode@U?$pair@$$CBII@std@@@?$_Tree_val@V?$_Tmap_traits@IIU?$less@I@std@@V?$allocator@U?$pair@$$CBII@std@@@2@$0A@@std@@@std@@QAEPAU_Node@?$_Tree_nod@V?$_Tmap_traits@IIU?$less@I@std@@V?$allocator@U?$pair@$$CBII@std@@@2@$0A@@std@@@1@$$QAU?$pair@$$CBII@1@@Z 6402cec0 f i archive.obj
 0001:0002bec0       ??$_Buynode@U?$pair@HI@std@@@?$_Tree_val@V?$_Tmap_traits@HIU?$less@H@std@@V?$allocator@U?$pair@$$CBHI@std@@@2@$0A@@std@@@std@@QAEPAU_Node@?$_Tree_nod@V?$_Tmap_traits@HIU?$less@H@std@@V?$allocator@U?$pair@$$CBHI@std@@@2@$0A@@std@@@1@$$QAU?$pair@HI@1@@Z 6402cec0 f i ui.obj
 0001:0002bf30       ??$_Destroy_range@V?$allocator@UUpdateProfile@@@std@@@std@@YAXPAUUpdateProfile@@0AAV?$allocator@UUpdateProfile@@@0@U_Nonscalar_ptr_iterator_tag@0@@Z 6402cf30 f i ui.obj
 0001:0002bf80       ??4ProfileOptions@@QAEAAU0@ABU0@@Z 6402cf80 f i ui.obj
 0001:0002c090       ??$_Resetp@VFileFilter@Far@@@?$shared_ptr@VFileFilter@Far@@@tr1@std@@AAEXPAVFileFilter@Far@@@Z 6402d090 f i ui.obj
 0001:0002c150       ??$_Unguarded_partition@PAV?$basic_string@_WU?$char_traits@_W@std@@V?$allocator@_W@2@@std@@UItemCompare@?1??show@MultiSelectDialog@@QAE_NXZ@@std@@YA?AU?$pair@PAV?$basic_string@_WU?$char_traits@_W@std@@V?$allocator@_W@2@@std@@PAV12@@0@PAV?$basic_string@_WU?$char_traits@_W@std@@V?$allocator@_W@2@@0@0UItemCompare@?1??show@MultiSelectDialog@@QAE_NXZ@@Z 6402d150 f i ui.obj
 0001:0002c600       ??$_Unguarded_partition@PAV?$basic_string@_WU?$char_traits@_W@std@@V?$allocator@_W@2@@std@@V<lambda4>@?A0x80a7ab2d@@@std@@YA?AU?$pair@PAV?$basic_string@_WU?$char_traits@_W@std@@V?$allocator@_W@2@@std@@PAV12@@0@PAV?$basic_string@_WU?$char_traits@_W@std@@V?$allocator@_W@2@@0@0V<lambda4>@?A0x80a7ab2d@@@Z 6402d600 f i ui.obj
 0001:0002cab0       ??$_Uninit_move@PAV?$vector@EV?$allocator@E@std@@@std@@PAV12@V?$allocator@V?$vector@EV?$allocator@E@std@@@std@@@2@V12@@std@@YAPAV?$vector@EV?$allocator@E@std@@@0@PAV10@00AAV?$allocator@V?$vector@EV?$allocator@E@std@@@std@@@0@0U_Nonscalar_ptr_iterator_tag@0@@Z 6402dab0 f i ui.obj
 0001:0002cb30       ??$_Uninit_move@PAUFarListItem@@PAU1@V?$allocator@UFarListItem@@@std@@U1@@std@@YAPAUFarListItem@@PAU1@00AAV?$allocator@UFarListItem@@@0@0U_Nonscalar_ptr_iterator_tag@0@@Z 6402db30 f i ui.obj
 0001:0002cb70       ??_GFileFilter@Far@@QAEPAXI@Z 6402db70 f i ui.obj
 0001:0002cba0       ?_Destroy@?$_Ref_count@VFileFilter@Far@@@tr1@std@@EAEXXZ 6402dba0 f i ui.obj
 0001:0002cbd0       ??$_Insert@V?$_List_const_iterator@V?$_List_val@V?$basic_string@_WU?$char_traits@_W@std@@V?$allocator@_W@2@@std@@V?$allocator@V?$basic_string@_WU?$char_traits@_W@std@@V?$allocator@_W@2@@std@@@2@@std@@@std@@@?$vector@V?$basic_string@_WU?$char_traits@_W@std@@V?$allocator@_W@2@@std@@V?$allocator@V?$basic_string@_WU?$char_traits@_W@std@@V?$allocator@_W@2@@std@@@2@@std@@QAEXV?$_Vector_const_iterator@V?$_Vector_val@V?$basic_string@_WU?$char_traits@_W@std@@V?$allocator@_W@2@@std@@V?$allocator@V?$basic_string@_WU?$char_traits@_W@std@@V?$allocator@_W@2@@std@@@2@@std@@@1@V?$_List_const_iterator@V?$_List_val@V?$basic_string@_WU?$char_traits@_W@std@@V?$allocator@_W@2@@std@@V?$allocator@V?$basic_string@_WU?$char_traits@_W@std@@V?$allocator@_W@2@@std@@@2@@std@@@1@1Uforward_iterator_tag@1@@Z 6402dbd0 f i ui.obj
 0001:0002cdc0       ??$_Median@PAV?$basic_string@_WU?$char_traits@_W@std@@V?$allocator@_W@2@@std@@UItemCompare@?1??show@MultiSelectDialog@@QAE_NXZ@@std@@YAXPAV?$basic_string@_WU?$char_traits@_W@std@@V?$allocator@_W@2@@0@00UItemCompare@?1??show@MultiSelectDialog@@QAE_NXZ@@Z 6402ddc0 f i ui.obj
 0001:0002cea0       ??$_Make_heap@PAV?$basic_string@_WU?$char_traits@_W@std@@V?$allocator@_W@2@@std@@HV12@UItemCompare@?1??show@MultiSelectDialog@@QAE_NXZ@@std@@YAXPAV?$basic_string@_WU?$char_traits@_W@std@@V?$allocator@_W@2@@0@0UItemCompare@?1??show@MultiSelectDialog@@QAE_NXZ@PAH0@Z 6402dea0 f i ui.obj
 0001:0002cfe0       ??$_Sort_heap@PAV?$basic_string@_WU?$char_traits@_W@std@@V?$allocator@_W@2@@std@@UItemCompare@?1??show@MultiSelectDialog@@QAE_NXZ@@std@@YAXPAV?$basic_string@_WU?$char_traits@_W@std@@V?$allocator@_W@2@@0@0UItemCompare@?1??show@MultiSelectDialog@@QAE_NXZ@@Z 6402dfe0 f i ui.obj
 0001:0002d040       ??$_Insertion_sort1@PAV?$basic_string@_WU?$char_traits@_W@std@@V?$allocator@_W@2@@std@@UItemCompare@?1??show@MultiSelectDialog@@QAE_NXZ@V12@@std@@YAXPAV?$basic_string@_WU?$char_traits@_W@std@@V?$allocator@_W@2@@0@0UItemCompare@?1??show@MultiSelectDialog@@QAE_NXZ@0@Z 6402e040 f i ui.obj
 0001:0002d270       ??$_Median@PAV?$basic_string@_WU?$char_traits@_W@std@@V?$allocator@_W@2@@std@@V<lambda4>@?A0x80a7ab2d@@@std@@YAXPAV?$basic_string@_WU?$char_traits@_W@std@@V?$allocator@_W@2@@0@00V<lambda4>@?A0x80a7ab2d@@@Z 6402e270 f i ui.obj
 0001:0002d350       ??$_Make_heap@PAV?$basic_string@_WU?$char_traits@_W@std@@V?$allocator@_W@2@@std@@HV12@V<lambda4>@?A0x80a7ab2d@@@std@@YAXPAV?$basic_string@_WU?$char_traits@_W@std@@V?$allocator@_W@2@@0@0V<lambda4>@?A0x80a7ab2d@@PAH0@Z 6402e350 f i ui.obj
 0001:0002d490       ??$_Sort_heap@PAV?$basic_string@_WU?$char_traits@_W@std@@V?$allocator@_W@2@@std@@V<lambda4>@?A0x80a7ab2d@@@std@@YAXPAV?$basic_string@_WU?$char_traits@_W@std@@V?$allocator@_W@2@@0@0V<lambda4>@?A0x80a7ab2d@@@Z 6402e490 f i ui.obj
 0001:0002d4f0       ??$_Insertion_sort1@PAV?$basic_string@_WU?$char_traits@_W@std@@V?$allocator@_W@2@@std@@V<lambda4>@?A0x80a7ab2d@@V12@@std@@YAXPAV?$basic_string@_WU?$char_traits@_W@std@@V?$allocator@_W@2@@0@0V<lambda4>@?A0x80a7ab2d@@0@Z 6402e4f0 f i ui.obj
 0001:0002d720       ??$_Move@PAV?$basic_string@_WU?$char_traits@_W@std@@V?$allocator@_W@2@@std@@PAV12@@std@@YAPAV?$basic_string@_WU?$char_traits@_W@std@@V?$allocator@_W@2@@0@PAV10@00U_Nonscalar_ptr_iterator_tag@0@@Z 6402e720 f i ui.obj
 0001:0002d7b0       ??1UpdateProfile@@QAE@XZ   6402e7b0 f i ui.obj
 0001:0002d7b0       ??$_Dest_val@V?$allocator@UUpdateProfile@@@std@@UUpdateProfile@@@std@@YAXAAV?$allocator@UUpdateProfile@@@0@PAUUpdateProfile@@@Z 6402e7b0 f i ui.obj
 0001:0002d7e0       ??$rotate@PAV?$basic_string@_WU?$char_traits@_W@std@@V?$allocator@_W@2@@std@@@std@@YAPAV?$basic_string@_WU?$char_traits@_W@std@@V?$allocator@_W@2@@0@PAV10@00@Z 6402e7e0 f i ui.obj
 0001:0002d820       ??$_Med3@PAV?$basic_string@_WU?$char_traits@_W@std@@V?$allocator@_W@2@@std@@UItemCompare@?1??show@MultiSelectDialog@@QAE_NXZ@@std@@YAXPAV?$basic_string@_WU?$char_traits@_W@std@@V?$allocator@_W@2@@0@00UItemCompare@?1??show@MultiSelectDialog@@QAE_NXZ@@Z 6402e820 f i ui.obj
 0001:0002d980       ??$_Adjust_heap@PAV?$basic_string@_WU?$char_traits@_W@std@@V?$allocator@_W@2@@std@@HV12@UItemCompare@?1??show@MultiSelectDialog@@QAE_NXZ@@std@@YAXPAV?$basic_string@_WU?$char_traits@_W@std@@V?$allocator@_W@2@@0@HH$$QAV10@UItemCompare@?1??show@MultiSelectDialog@@QAE_NXZ@@Z 6402e980 f i ui.obj
 0001:0002dae0       ??$_Med3@PAV?$basic_string@_WU?$char_traits@_W@std@@V?$allocator@_W@2@@std@@V<lambda4>@?A0x80a7ab2d@@@std@@YAXPAV?$basic_string@_WU?$char_traits@_W@std@@V?$allocator@_W@2@@0@00V<lambda4>@?A0x80a7ab2d@@@Z 6402eae0 f i ui.obj
 0001:0002dc40       ??$_Adjust_heap@PAV?$basic_string@_WU?$char_traits@_W@std@@V?$allocator@_W@2@@std@@HV12@V<lambda4>@?A0x80a7ab2d@@@std@@YAXPAV?$basic_string@_WU?$char_traits@_W@std@@V?$allocator@_W@2@@0@HH$$QAV10@V<lambda4>@?A0x80a7ab2d@@@Z 6402ec40 f i ui.obj
 0001:0002dda0       ??$_Pop_heap_0@PAV?$basic_string@_WU?$char_traits@_W@std@@V?$allocator@_W@2@@std@@V12@UItemCompare@?1??show@MultiSelectDialog@@QAE_NXZ@@std@@YAXPAV?$basic_string@_WU?$char_traits@_W@std@@V?$allocator@_W@2@@0@0UItemCompare@?1??show@MultiSelectDialog@@QAE_NXZ@0@Z 6402eda0 f i ui.obj
 0001:0002de70       ??$_Move_backward@PAV?$basic_string@_WU?$char_traits@_W@std@@V?$allocator@_W@2@@std@@PAV12@@std@@YAPAV?$basic_string@_WU?$char_traits@_W@std@@V?$allocator@_W@2@@0@PAV10@00U_Nonscalar_ptr_iterator_tag@0@@Z 6402ee70 f i ui.obj
 0001:0002def0       ??$_Push_heap@PAV?$basic_string@_WU?$char_traits@_W@std@@V?$allocator@_W@2@@std@@HV12@UItemCompare@?1??show@MultiSelectDialog@@QAE_NXZ@@std@@YAXPAV?$basic_string@_WU?$char_traits@_W@std@@V?$allocator@_W@2@@0@HH$$QAV10@UItemCompare@?1??show@MultiSelectDialog@@QAE_NXZ@@Z 6402eef0 f i ui.obj
 0001:0002def0       ??$_Push_heap@PAV?$basic_string@_WU?$char_traits@_W@std@@V?$allocator@_W@2@@std@@HV12@V<lambda4>@?A0x80a7ab2d@@@std@@YAXPAV?$basic_string@_WU?$char_traits@_W@std@@V?$allocator@_W@2@@0@HH$$QAV10@V<lambda4>@?A0x80a7ab2d@@@Z 6402eef0 f i ui.obj
 0001:0002e160       ??$_Pop_heap_0@PAV?$basic_string@_WU?$char_traits@_W@std@@V?$allocator@_W@2@@std@@V12@V<lambda4>@?A0x80a7ab2d@@@std@@YAXPAV?$basic_string@_WU?$char_traits@_W@std@@V?$allocator@_W@2@@0@0V<lambda4>@?A0x80a7ab2d@@0@Z 6402f160 f i ui.obj
 0001:0002e230       ??$_Uninit_copy@V?$_List_const_iterator@V?$_List_val@V?$basic_string@_WU?$char_traits@_W@std@@V?$allocator@_W@2@@std@@V?$allocator@V?$basic_string@_WU?$char_traits@_W@std@@V?$allocator@_W@2@@std@@@2@@std@@@std@@PAV?$basic_string@_WU?$char_traits@_W@std@@V?$allocator@_W@2@@2@V?$allocator@V?$basic_string@_WU?$char_traits@_W@std@@V?$allocator@_W@2@@std@@@2@@std@@YAPAV?$basic_string@_WU?$char_traits@_W@std@@V?$allocator@_W@2@@0@V?$_List_const_iterator@V?$_List_val@V?$basic_string@_WU?$char_traits@_W@std@@V?$allocator@_W@2@@std@@V?$allocator@V?$basic_string@_WU?$char_traits@_W@std@@V?$allocator@_W@2@@std@@@2@@std@@@0@0PAV10@AAV?$allocator@V?$basic_string@_WU?$char_traits@_W@std@@V?$allocator@_W@2@@std@@@0@U_Nonscalar_ptr_iterator_tag@0@@Z 6402f230 f i ui.obj
 0001:0002e2f0       ??$_Rotate@PAV?$basic_string@_WU?$char_traits@_W@std@@V?$allocator@_W@2@@std@@HV12@@std@@YAXPAV?$basic_string@_WU?$char_traits@_W@std@@V?$allocator@_W@2@@0@00PAH0@Z 6402f2f0 f i ui.obj
 0001:0002e4a0       ?_Equal@std@@YA_NPBE00@Z   6402f4a0 f i ui.obj
 0001:0002e520       ??$_Maklocstr@_W@std@@YAPA_WPBDPA_WABU_Cvtvec@@@Z 6402f520 f i ui.obj
 0001:0002e5e0       ??_E?$ctype@_W@std@@MAEPAXI@Z 6402f5e0 f i  CIL library: CIL module
 0001:0002e5e0       ??_G?$ctype@_W@std@@MAEPAXI@Z 6402f5e0 f i ui.obj
 0001:0002e620       ?do_is@?$ctype@_W@std@@MBEPB_WPB_W0PAF@Z 6402f620 f i ui.obj
 0001:0002e640       ?do_scan_is@?$ctype@_W@std@@MBEPB_WFPB_W0@Z 6402f640 f i ui.obj
 0001:0002e680       ?do_is@?$ctype@_W@std@@MBE_NF_W@Z 6402f680 f i ui.obj
 0001:0002e6b0       ?do_scan_not@?$ctype@_W@std@@MBEPB_WFPB_W0@Z 6402f6b0 f i ui.obj
 0001:0002e6f0       ?do_tolower@?$ctype@_W@std@@MBEPB_WPA_WPB_W@Z 6402f6f0 f i ui.obj
 0001:0002e730       ?do_tolower@?$ctype@_W@std@@MBE_W_W@Z 6402f730 f i ui.obj
 0001:0002e750       ?do_toupper@?$ctype@_W@std@@MBEPB_WPA_WPB_W@Z 6402f750 f i ui.obj
 0001:0002e790       ?do_toupper@?$ctype@_W@std@@MBE_W_W@Z 6402f790 f i ui.obj
 0001:0002e7b0       ?do_widen@?$ctype@_W@std@@MBEPBDPBD0PA_W@Z 6402f7b0 f i ui.obj
 0001:0002e820       ?do_widen@?$ctype@_W@std@@MBE_WD@Z 6402f820 f i ui.obj
 0001:0002e870       ?do_narrow@?$ctype@_W@std@@MBEPB_WPB_W0DPAD@Z 6402f870 f i ui.obj
 0001:0002e8f0       ?do_narrow@?$ctype@_W@std@@MBED_WD@Z 6402f8f0 f i ui.obj
 0001:0002e940       ??0?$ctype@_W@std@@QAE@ABV_Locinfo@1@I@Z 6402f940 f i ui.obj
 0001:0002e990       ??0_Locinfo@std@@QAE@PBD@Z 6402f990 f i ui.obj
 0001:0002ea40       ??1?$_Yarn@D@std@@QAE@XZ   6402fa40 f i ui.obj
 0001:0002ea60       ??1_Locinfo@std@@QAE@XZ    6402fa60 f i ui.obj
 0001:0002eb10       ?_Getcat@?$ctype@_W@std@@SAIPAPBVfacet@locale@2@PBV42@@Z 6402fb10 f i ui.obj
 0001:0002ebc0       ??$use_facet@V?$ctype@_W@std@@@std@@YAABV?$ctype@_W@0@ABVlocale@0@@Z 6402fbc0 f i ui.obj
 0001:0002ed10       ?_Chassign@?$basic_string@DU?$char_traits@D@std@@V?$allocator@D@2@@std@@QAEXIID@Z 6402fd10 f i ui.obj
 0001:0002ed40       ?insert@?$basic_string@DU?$char_traits@D@std@@V?$allocator@D@2@@std@@QAEAAV12@IID@Z 6402fd40 f i ui.obj
 0001:0002ee20       ?_Init@ios_base@std@@IAEXXZ 6402fe20 f i ui.obj
 0001:0002eeb0       ??_E?$basic_streambuf@_WU?$char_traits@_W@std@@@std@@UAEPAXI@Z 6402feb0 f i  CIL library: CIL module
 0001:0002eeb0       ??_G?$basic_streambuf@_WU?$char_traits@_W@std@@@std@@UAEPAXI@Z 6402feb0 f i ui.obj
 0001:0002eed0       ?showmanyc@?$basic_streambuf@_WU?$char_traits@_W@std@@@std@@MAE_JXZ 6402fed0 f i ui.obj
 0001:0002eee0       ?_Gnavail@?$basic_streambuf@_WU?$char_traits@_W@std@@@std@@IBE_JXZ 6402fee0 f i ui.obj
 0001:0002ef00       ?underflow@?$basic_streambuf@_WU?$char_traits@_W@std@@@std@@MAEGXZ 6402ff00 f i ui.obj
 0001:0002ef10       ?uflow@?$basic_streambuf@_WU?$char_traits@_W@std@@@std@@MAEGXZ 6402ff10 f i ui.obj
 0001:0002ef40       ?xsgetn@?$basic_streambuf@_WU?$char_traits@_W@std@@@std@@MAE_JPA_W_J@Z 6402ff40 f i ui.obj
 0001:0002f040       ?_Pnavail@?$basic_streambuf@_WU?$char_traits@_W@std@@@std@@IBE_JXZ 64030040 f i ui.obj
 0001:0002f060       ?overflow@?$basic_streambuf@_WU?$char_traits@_W@std@@@std@@MAEGG@Z 64030060 f i ui.obj
 0001:0002f060       ?pbackfail@?$basic_streambuf@_WU?$char_traits@_W@std@@@std@@MAEGG@Z 64030060 f i ui.obj
 0001:0002f070       ?xsputn@?$basic_streambuf@_WU?$char_traits@_W@std@@@std@@MAE_JPB_W_J@Z 64030070 f i ui.obj
 0001:0002f160       ?seekoff@?$basic_streambuf@_WU?$char_traits@_W@std@@@std@@MAE?AV?$fpos@H@2@_JHH@Z 64030160 f i ui.obj
 0001:0002f190       ?seekpos@?$basic_streambuf@_WU?$char_traits@_W@std@@@std@@MAE?AV?$fpos@H@2@V32@H@Z 64030190 f i ui.obj
 0001:0002f1c0       ?setbuf@?$basic_streambuf@_WU?$char_traits@_W@std@@@std@@MAEPAV12@PA_W_J@Z 640301c0 f i ui.obj
 0001:0002f1d0       ?imbue@?$basic_streambuf@_WU?$char_traits@_W@std@@@std@@MAEXABVlocale@2@@Z 640301d0 f i ui.obj
 0001:0002f1e0       ??1?$basic_streambuf@_WU?$char_traits@_W@std@@@std@@UAE@XZ 640301e0 f i ui.obj
 0001:0002f250       ??_G?$basic_ostream@_WU?$char_traits@_W@std@@@std@@UAEPAXI@Z 64030250 f i ui.obj
 0001:0002f250       ??_E?$basic_ostream@_WU?$char_traits@_W@std@@@std@@UAEPAXI@Z 64030250 f i  CIL library: CIL module
 0001:0002f290       ??1?$basic_ostream@_WU?$char_traits@_W@std@@@std@@UAE@XZ 64030290 f i ui.obj
 0001:0002f2a0       ?_Incref@facet@locale@std@@QAEXXZ 640302a0 f i ui.obj
 0001:0002f2d0       ?_Decref@facet@locale@std@@QAEPAV123@XZ 640302d0 f i ui.obj
 0001:0002f310       ??1facet@locale@std@@UAE@XZ 64030310 f i ui.obj
 0001:0002f320       ??1locale@std@@QAE@XZ      64030320 f i ui.obj
 0001:0002f370       ?getloc@ios_base@std@@QBE?AVlocale@2@XZ 64030370 f i ui.obj
 0001:0002f3a0       ?_Osfx@?$basic_ostream@_WU?$char_traits@_W@std@@@std@@QAEXXZ 640303a0 f i ui.obj
 0001:0002f450       ??1sentry@?$basic_ostream@_WU?$char_traits@_W@std@@@std@@QAE@XZ 64030450 f i ui.obj
 0001:0002f4d0       ?_Lock@?$basic_streambuf@_WU?$char_traits@_W@std@@@std@@UAEXXZ 640304d0 f i ui.obj
 0001:0002f4e0       ?_Unlock@?$basic_streambuf@_WU?$char_traits@_W@std@@@std@@UAEXXZ 640304e0 f i ui.obj
 0001:0002f4f0       ??1_Sentry_base@?$basic_ostream@_WU?$char_traits@_W@std@@@std@@QAE@XZ 640304f0 f i ui.obj
 0001:0002f510       ?sync@?$basic_streambuf@_WU?$char_traits@_W@std@@@std@@MAEHXZ 64030510 f i ui.obj
 0001:0002f520       ??1runtime_error@std@@UAE@XZ 64030520 f i ui.obj
 0001:0002f520       ??1bad_weak_ptr@tr1@std@@UAE@XZ 64030520 f i plugin.obj
 0001:0002f520       ??1failure@ios_base@std@@UAE@XZ 64030520 f i ui.obj
 0001:0002f530       ??_Efailure@ios_base@std@@UAEPAXI@Z 64030530 f i  CIL library: CIL module
 0001:0002f530       ??_Gfailure@ios_base@std@@UAEPAXI@Z 64030530 f i ui.obj
 0001:0002f530       ??_Ebad_weak_ptr@tr1@std@@UAEPAXI@Z 64030530 f i  CIL library: CIL module
 0001:0002f530       ??_Esystem_error@std@@UAEPAXI@Z 64030530 f i  CIL library: CIL module
 0001:0002f530       ??_Gbad_weak_ptr@tr1@std@@UAEPAXI@Z 64030530 f i plugin.obj
 0001:0002f530       ??_Gruntime_error@std@@UAEPAXI@Z 64030530 f i ui.obj
 0001:0002f530       ??_Gsystem_error@std@@UAEPAXI@Z 64030530 f i ui.obj
 0001:0002f530       ??_Eruntime_error@std@@UAEPAXI@Z 64030530 f i  CIL library: CIL module
 0001:0002f550       ??0failure@ios_base@std@@QAE@ABV012@@Z 64030550 f i ui.obj
 0001:0002f580       ??0system_error@std@@QAE@ABV01@@Z 64030580 f i ui.obj
 0001:0002f5b0       ??0runtime_error@std@@QAE@ABV01@@Z 640305b0 f i ui.obj
 0001:0002f5d0       ?clear@ios_base@std@@QAEXH_N@Z 640305d0 f i ui.obj
 0001:0002f6b0       ?flush@?$basic_ostream@_WU?$char_traits@_W@std@@@std@@QAEAAV12@XZ 640306b0 f i ui.obj
 0001:0002f710       ??_Gios_base@std@@UAEPAXI@Z 64030710 f i ui.obj
 0001:0002f710       ??_G?$basic_ios@_WU?$char_traits@_W@std@@@std@@UAEPAXI@Z 64030710 f i ui.obj
 0001:0002f710       ??_E?$basic_ios@_WU?$char_traits@_W@std@@@std@@UAEPAXI@Z 64030710 f i  CIL library: CIL module
 0001:0002f710       ??_Eios_base@std@@UAEPAXI@Z 64030710 f i  CIL library: CIL module
 0001:0002f740       ??1?$basic_ios@_WU?$char_traits@_W@std@@@std@@UAE@XZ 64030740 f i ui.obj
 0001:0002f750       ??1DisableSleepMode@@QAE@XZ 64030750 f i extract.obj
 0001:0002f760       ??1ComBase@@UAE@XZ         64030760 f i extract.obj
 0001:0002f770       ??_EComBase@@UAEPAXI@Z     64030770 f i  CIL library: CIL module
 0001:0002f770       ??_GComBase@@UAEPAXI@Z     64030770 f i extract.obj
 0001:0002f790       ??1BStr@@QAE@XZ            64030790 f i extract.obj
 0001:0002f7b0       ??0BStr@@QAE@ABV?$basic_string@_WU?$char_traits@_W@std@@V?$allocator@_W@2@@std@@@Z 640307b0 f i extract.obj
 0001:0002f850       ?get_progress_bar_str@@YA?AV?$basic_string@_WU?$char_traits@_W@std@@V?$allocator@_W@2@@std@@III@Z 64030850 f   extract.obj
 0001:0002f9b0       ?do_update_ui@ExtractProgress@@EAEXXZ 640309b0 f i extract.obj
 0001:00030200       ??0ExtractProgress@@QAE@ABV?$basic_string@_WU?$char_traits@_W@std@@V?$allocator@_W@2@@std@@@Z 64031200 f i extract.obj
 0001:00030330       ??_EExtractProgress@@UAEPAXI@Z 64031330 f i  CIL library: CIL module
 0001:00030330       ??_GExtractProgress@@UAEPAXI@Z 64031330 f i extract.obj
 0001:00030350       ??1ExtractProgress@@UAE@XZ 64031350 f i extract.obj
 0001:00030400       ?create_file@FileWriteCache@@AAEXXZ 64031400 f i extract.obj
 0001:000305d0       ?allocate_file@FileWriteCache@@AAEXXZ 640315d0 f i extract.obj
 0001:000306e0       ?write_file@FileWriteCache@@AAEXXZ 640316e0 f i extract.obj
 0001:00030810       ?close_file@FileWriteCache@@AAEXXZ 64031810 f i extract.obj
 0001:00030950       ?write@FileWriteCache@@AAEXXZ 64031950 f i extract.obj
 0001:000309e0       ?store@FileWriteCache@@AAEXPBEI@Z 640319e0 f i extract.obj
 0001:00030b00       ??0FileWriteCache@@QAE@V?$shared_ptr@VArchive@@@tr1@std@@V?$shared_ptr@_N@23@V?$shared_ptr@V?$list@UError@@V?$allocator@UError@@@std@@@std@@@23@V?$shared_ptr@VExtractProgress@@@23@@Z 64031b00 f i extract.obj
 0001:00030e10       ??1FileWriteCache@@QAE@XZ  64031e10 f i extract.obj
 0001:00030fd0       ?store_file@FileWriteCache@@QAEXABV?$basic_string@_WU?$char_traits@_W@std@@V?$allocator@_W@2@@std@@IW4OverwriteAction@@@Z 64031fd0 f i extract.obj
 0001:000310b0       ?store_data@FileWriteCache@@QAEXPBEI@Z 640320b0 f i extract.obj
 0001:00031230       ??0CachedFileExtractStream@@QAE@V?$shared_ptr@VFileWriteCache@@@tr1@std@@@Z 64032230 f i extract.obj
 0001:000312f0       ?QueryInterface@CachedFileExtractStream@@UAGJABU_GUID@@PAPAX@Z 640322f0 f i extract.obj
 0001:00031380       ?Write@CachedFileExtractStream@@UAGJPBXIPAI@Z 64032380 f i extract.obj
 0001:00031460       ??_GCachedFileExtractStream@@UAEPAXI@Z 64032460 f i extract.obj
 0001:00031460       ??_ECachedFileExtractStream@@UAEPAXI@Z 64032460 f i  CIL library: CIL module
 0001:000314f0       ??4Error@@QAEAAU0@ABU0@@Z  640324f0 f i extract.obj
 0001:00031540       ??0ArchiveExtractor@@QAE@IABV?$basic_string@_WU?$char_traits@_W@std@@V?$allocator@_W@2@@std@@V?$shared_ptr@VArchive@@@tr1@2@V?$shared_ptr@W4OverwriteAction@@@42@V?$shared_ptr@_N@42@V?$shared_ptr@V?$list@UError@@V?$allocator@UError@@@std@@@std@@@42@V?$shared_ptr@VFileWriteCache@@@42@V?$shared_ptr@VExtractProgress@@@42@V?$shared_ptr@V?$set@IU?$less@I@std@@V?$allocator@I@2@@std@@@42@@Z 64032540 f i extract.obj
 0001:00031870       ?AddRef@ArchiveUpdater@@UAGKXZ 64032870 f i update.obj
 0001:00031870       ?AddRef@ArchiveExtractor@@UAGKXZ 64032870 f i extract.obj
 0001:00031870       ?AddRef@ArchiveTester@@UAGKXZ 64032870 f i test.obj
 0001:00031880       ?SetTotal@ArchiveExtractor@@UAGJ_K@Z 64032880 f i extract.obj
 0001:000318e0       ?SetCompleted@ArchiveExtractor@@UAGJPB_K@Z 640328e0 f i extract.obj
 0001:000319c0       ?GetStream@ArchiveExtractor@@UAGJIPAPAUISequentialOutStream@@H@Z 640329c0 f i extract.obj
 0001:00031de0       ?SetOperationResult@ArchiveFileDeleter@@UAGJH@Z 64032de0 f i delete.obj
 0001:00031de0       ?PrepareOperation@ArchiveTester@@UAGJH@Z 64032de0 f i test.obj
 0001:00031de0       ?PrepareOperation@ArchiveExtractor@@UAGJH@Z 64032de0 f i extract.obj
 0001:00031e30       ?SetOperationResult@ArchiveExtractor@@UAGJH@Z 64032e30 f i extract.obj
 0001:00032110       ?CryptoGetTextPassword@ArchiveExtractor@@UAGJPAPA_W@Z 64033110 f i extract.obj
 0001:000322c0       ??_EArchiveExtractor@@UAEPAXI@Z 640332c0 f i  CIL library: CIL module
 0001:000322c0       ??_GArchiveExtractor@@UAEPAXI@Z 640332c0 f i extract.obj
 0001:000322e0       ??1ArchiveExtractor@@UAE@XZ 640332e0 f i extract.obj
 0001:00032520       ?prepare_dst_dir@Archive@@AAEXABV?$basic_string@_WU?$char_traits@_W@std@@V?$allocator@_W@2@@std@@@Z 64033520 f   extract.obj
 0001:000325f0       ?do_update_ui@PrepareExtract@@EAEXXZ 640335f0 f i extract.obj
 0001:000327d0       ??0PrepareExtract@@QAE@ABU?$pair@V?$_Vector_const_iterator@V?$_Vector_val@IV?$allocator@I@std@@@std@@@std@@V12@@std@@ABV?$basic_string@_WU?$char_traits@_W@std@@V?$allocator@_W@2@@2@AAVArchive@@AAV?$list@IV?$allocator@I@std@@@2@AA_NAAV?$list@UError@@V?$allocator@UError@@@std@@@2@@Z 640337d0 f i extract.obj
 0001:000328d0       ??R<lambda1>@?A0xd401d377@@QBEXI@Z 640338d0 f i extract.obj
 0001:00032ac0       ?do_update_ui@SetDirAttr@@EAEXXZ 64033ac0 f i extract.obj
 0001:00032ca0       ??0SetDirAttr@@QAE@ABU?$pair@V?$_Vector_const_iterator@V?$_Vector_val@IV?$allocator@I@std@@@std@@@std@@V12@@std@@ABV?$basic_string@_WU?$char_traits@_W@std@@V?$allocator@_W@2@@2@AAVArchive@@AA_NAAV?$list@UError@@V?$allocator@UError@@@std@@@2@@Z 64033ca0 f i extract.obj
 0001:00032da0       ??R<lambda2>@?A0xd401d377@@QBEXI@Z 64033da0 f i extract.obj
 0001:00033010       ??_ESetDirAttr@@UAEPAXI@Z  64034010 f i  CIL library: CIL module
 0001:00033010       ??_GProgressMonitor@@UAEPAXI@Z 64034010 f i ui.obj
 0001:00033010       ??_GDeleteSrcFiles@@UAEPAXI@Z 64034010 f i update.obj
 0001:00033010       ??_GArchiveFileDeleterProgress@@UAEPAXI@Z 64034010 f i delete.obj
 0001:00033010       ??_EProgressMonitor@@UAEPAXI@Z 64034010 f i  CIL library: CIL module
 0001:00033010       ??_EArchiveFileDeleterProgress@@UAEPAXI@Z 64034010 f i  CIL library: CIL module
 0001:00033010       ??_GPrepareExtract@@UAEPAXI@Z 64034010 f i extract.obj
 0001:00033010       ??_EPrepareExtract@@UAEPAXI@Z 64034010 f i  CIL library: CIL module
 0001:00033010       ??_GSetDirAttr@@UAEPAXI@Z  64034010 f i extract.obj
 0001:00033010       ??_EDeleteSrcFiles@@UAEPAXI@Z 64034010 f i  CIL library: CIL module
 0001:00033030       ?extract@Archive@@QAEXIABV?$vector@IV?$allocator@I@std@@@std@@ABUExtractOptions@@V?$shared_ptr@V?$list@UError@@V?$allocator@UError@@@std@@@std@@@tr1@3@PAV23@@Z 64034030 f   extract.obj
 0001:00033a80       ??R<lambda3>@?A0xd401d377@@QBEXABV?$basic_string@_WU?$char_traits@_W@std@@V?$allocator@_W@2@@std@@@Z 64034a80 f i extract.obj
 0001:00033b80       ??0?$vector@IV?$allocator@I@std@@@std@@QAE@ABV01@@Z 64034b80 f i extract.obj
 0001:00033c40       ?shrink_to_fit@?$vector@IV?$allocator@I@std@@@std@@QAEXXZ 64034c40 f i extract.obj
 0001:00033cd0       ?shared_from_this@?$enable_shared_from_this@VArchive@@@tr1@std@@QAE?AV?$shared_ptr@VArchive@@@23@XZ 64034cd0 f i extract.obj
 0001:00033d00       ?_Assign_n@?$list@UCacheRecord@FileWriteCache@@V?$allocator@UCacheRecord@FileWriteCache@@@std@@@std@@QAEXIABUCacheRecord@FileWriteCache@@@Z 64034d00 f i extract.obj
 0001:00033dc0       ?_Insert_n@?$list@UCacheRecord@FileWriteCache@@V?$allocator@UCacheRecord@FileWriteCache@@@std@@@std@@QAEXV?$_List_const_iterator@V?$_List_val@UCacheRecord@FileWriteCache@@V?$allocator@UCacheRecord@FileWriteCache@@@std@@@std@@@2@IABUCacheRecord@FileWriteCache@@@Z 64034dc0 f i extract.obj
 0001:00033e80       ?_Buynode@?$_List_val@UCacheRecord@FileWriteCache@@V?$allocator@UCacheRecord@FileWriteCache@@@std@@@std@@QAEPAU_Node@?$_List_nod@UCacheRecord@FileWriteCache@@V?$allocator@UCacheRecord@FileWriteCache@@@std@@@2@PAU342@0ABUCacheRecord@FileWriteCache@@@Z 64034e80 f i extract.obj
 0001:00033f70       ?_Buynode@?$_List_val@IV?$allocator@I@std@@@std@@QAEPAU_Node@?$_List_nod@IV?$allocator@I@std@@@2@PAU342@0ABI@Z 64034f70 f i extract.obj
 0001:00033fe0       ?erase@?$list@V?$basic_string@_WU?$char_traits@_W@std@@V?$allocator@_W@2@@std@@V?$allocator@V?$basic_string@_WU?$char_traits@_W@std@@V?$allocator@_W@2@@std@@@2@@std@@QAE?AV?$_List_iterator@V?$_List_val@V?$basic_string@_WU?$char_traits@_W@std@@V?$allocator@_W@2@@std@@V?$allocator@V?$basic_string@_WU?$char_traits@_W@std@@V?$allocator@_W@2@@std@@@2@@std@@@2@V?$_List_const_iterator@V?$_List_val@V?$basic_string@_WU?$char_traits@_W@std@@V?$allocator@_W@2@@std@@V?$allocator@V?$basic_string@_WU?$char_traits@_W@std@@V?$allocator@_W@2@@std@@@2@@std@@@2@@Z 64034fe0 f i archive.obj
 0001:00033fe0       ?erase@?$list@UCacheRecord@FileWriteCache@@V?$allocator@UCacheRecord@FileWriteCache@@@std@@@std@@QAE?AV?$_List_iterator@V?$_List_val@UCacheRecord@FileWriteCache@@V?$allocator@UCacheRecord@FileWriteCache@@@std@@@std@@@2@V?$_List_const_iterator@V?$_List_val@UCacheRecord@FileWriteCache@@V?$allocator@UCacheRecord@FileWriteCache@@@std@@@std@@@2@@Z 64034fe0 f i extract.obj
 0001:00034040       ??$?6_WU?$char_traits@_W@std@@@std@@YAAAV?$basic_ostream@_WU?$char_traits@_W@std@@@0@AAV10@PB_W@Z 64035040 f i extract.obj
 0001:00034310       ??$reset@V?$set@IU?$less@I@std@@V?$allocator@I@2@@std@@@?$shared_ptr@V?$set@IU?$less@I@std@@V?$allocator@I@2@@std@@@tr1@std@@QAEXPAV?$set@IU?$less@I@std@@V?$allocator@I@2@@2@@Z 64035310 f i extract.obj
 0001:00034380       ?_Linsert@?$_Tree@V?$_Tset_traits@IU?$less@I@std@@V?$allocator@I@2@$0A@@std@@@std@@QAE?AU?$pair@V?$_Tree_const_iterator@V?$_Tree_val@V?$_Tset_traits@IU?$less@I@std@@V?$allocator@I@2@$0A@@std@@@std@@@std@@_N@2@PAU_Node@?$_Tree_nod@V?$_Tset_traits@IU?$less@I@std@@V?$allocator@I@2@$0A@@std@@@2@_N@Z 64035380 f i extract.obj
 0001:00034450       ??$_For_each@V?$_List_unchecked_iterator@V?$_List_val@UCacheRecord@FileWriteCache@@V?$allocator@UCacheRecord@FileWriteCache@@@std@@@std@@@std@@V<lambda0>@?A0xd401d377@@@std@@YA?AV<lambda0>@?A0xd401d377@@V?$_List_unchecked_iterator@V?$_List_val@UCacheRecord@FileWriteCache@@V?$allocator@UCacheRecord@FileWriteCache@@@std@@@std@@@0@0V12@@Z 64035450 f i extract.obj
 0001:00034540       ??$_Buynode@AAI@?$_Tree_val@V?$_Tset_traits@IU?$less@I@std@@V?$allocator@I@2@$0A@@std@@@std@@QAEPAU_Node@?$_Tree_nod@V?$_Tset_traits@IU?$less@I@std@@V?$allocator@I@2@$0A@@std@@@1@AAI@Z 64035540 f i extract.obj
 0001:00034540       ?_Buynode@?$_Tree_val@V?$_Tset_traits@IU?$less@I@std@@V?$allocator@I@2@$0A@@std@@@std@@QAEPAU_Node@?$_Tree_nod@V?$_Tset_traits@IU?$less@I@std@@V?$allocator@I@2@$0A@@std@@@2@ABI@Z 64035540 f i archive.obj
 0001:000345b0       ??$_Resetp@_N@?$shared_ptr@_N@tr1@std@@AAEXPA_N@Z 640355b0 f i extract.obj
 0001:00034670       ??$_Resetp@W4OverwriteAction@@@?$shared_ptr@W4OverwriteAction@@@tr1@std@@AAEXPAW4OverwriteAction@@@Z 64035670 f i extract.obj
 0001:00034730       ??$_Sort@PAIH@std@@YAXPAI0H@Z 64035730 f i extract.obj
 0001:00034800       ??$_Resetp@VExtractProgress@@@?$shared_ptr@VExtractProgress@@@tr1@std@@AAEXPAVExtractProgress@@@Z 64035800 f i extract.obj
 0001:000348c0       ??$_Resetp@VFileWriteCache@@@?$shared_ptr@VFileWriteCache@@@tr1@std@@AAEXPAVFileWriteCache@@@Z 640358c0 f i extract.obj
 0001:00034990       ??$_Set_difference@PAIV?$_Tree_unchecked_const_iterator@V?$_Tree_val@V?$_Tset_traits@IU?$less@I@std@@V?$allocator@I@2@$0A@@std@@@std@@U_Iterator_base0@2@@std@@V?$back_insert_iterator@V?$vector@IV?$allocator@I@std@@@std@@@2@@std@@YA?AV?$back_insert_iterator@V?$vector@IV?$allocator@I@std@@@std@@@0@PAI0V?$_Tree_unchecked_const_iterator@V?$_Tree_val@V?$_Tset_traits@IU?$less@I@std@@V?$allocator@I@2@$0A@@std@@@std@@U_Iterator_base0@2@@0@1V10@@Z 64035990 f i extract.obj
 0001:00034b80       ??$_For_each@V?$_Tree_unchecked_const_iterator@V?$_Tree_val@V?$_Tset_traits@V?$basic_string@_WU?$char_traits@_W@std@@V?$allocator@_W@2@@std@@U?$less@V?$basic_string@_WU?$char_traits@_W@std@@V?$allocator@_W@2@@std@@@2@V?$allocator@V?$basic_string@_WU?$char_traits@_W@std@@V?$allocator@_W@2@@std@@@2@$0A@@std@@@std@@U_Iterator_base0@2@@std@@V<lambda3>@?A0xd401d377@@@std@@YA?AV<lambda3>@?A0xd401d377@@V?$_Tree_unchecked_const_iterator@V?$_Tree_val@V?$_Tset_traits@V?$basic_string@_WU?$char_traits@_W@std@@V?$allocator@_W@2@@std@@U?$less@V?$basic_string@_WU?$char_traits@_W@std@@V?$allocator@_W@2@@std@@@2@V?$allocator@V?$basic_string@_WU?$char_traits@_W@std@@V?$allocator@_W@2@@std@@@2@$0A@@std@@@std@@U_Iterator_base0@2@@0@0V12@@Z 64035b80 f i extract.obj
 0001:00034c10       ?_Destroy@?$_Ref_count@_N@tr1@std@@EAEXXZ 64035c10 f i extract.obj
 0001:00034c10       ?_Destroy@?$_Ref_count@W4OverwriteAction@@@tr1@std@@EAEXXZ 64035c10 f i extract.obj
 0001:00034c20       ?_Delete_this@?$_Ref_count@V?$map@IUFileIndexInfo@@U?$less@I@std@@V?$allocator@U?$pair@$$CBIUFileIndexInfo@@@std@@@3@@std@@@tr1@std@@EAEXXZ 64035c20 f i update.obj
 0001:00034c20       ?_Delete_this@?$_Ref_count@VFileFilter@Far@@@tr1@std@@EAEXXZ 64035c20 f i ui.obj
 0001:00034c20       ?_Delete_this@?$_Ref_count@W4OverwriteAction@@@tr1@std@@EAEXXZ 64035c20 f i extract.obj
 0001:00034c20       ?_Delete_this@?$_Ref_count_del@XV<lambda11>@?A0xc5e9a1c5@@@tr1@std@@EAEXXZ 64035c20 f i plugin.obj
 0001:00034c20       ?_Delete_this@?$_Ref_count@VArchiveFileDeleterProgress@@@tr1@std@@EAEXXZ 64035c20 f i delete.obj
 0001:00034c20       ?_Delete_this@?$_Ref_count@V?$set@IU?$less@I@std@@V?$allocator@I@2@@std@@@tr1@std@@EAEXXZ 64035c20 f i extract.obj
 0001:00034c20       ?_Delete_this@?$_Ref_count@VArchiveUpdateProgress@@@tr1@std@@EAEXXZ 64035c20 f i update.obj
 0001:00034c20       ?_Delete_this@?$_Ref_count@VExtractProgress@@@tr1@std@@EAEXXZ 64035c20 f i extract.obj
 0001:00034c20       ?_Delete_this@?$_Ref_count@VArchive@@@tr1@std@@EAEXXZ 64035c20 f i plugin.obj
 0001:00034c20       ?_Delete_this@?$_Ref_count@V?$list@UError@@V?$allocator@UError@@@std@@@std@@@tr1@std@@EAEXXZ 64035c20 f i plugin.obj
 0001:00034c20       ?_Delete_this@?$_Ref_count@VFileWriteCache@@@tr1@std@@EAEXXZ 64035c20 f i extract.obj
 0001:00034c20       ?_Delete_this@?$_Ref_count@_N@tr1@std@@EAEXXZ 64035c20 f i extract.obj
 0001:00034c30       ?_Destroy@?$_Ref_count@VFileWriteCache@@@tr1@std@@EAEXXZ 64035c30 f i extract.obj
 0001:00034c50       ??$_Copy_impl@V?$_List_unchecked_iterator@V?$_List_val@IV?$allocator@I@std@@@std@@@std@@V?$back_insert_iterator@V?$vector@IV?$allocator@I@std@@@std@@@2@@std@@YA?AV?$back_insert_iterator@V?$vector@IV?$allocator@I@std@@@std@@@0@V?$_List_unchecked_iterator@V?$_List_val@IV?$allocator@I@std@@@std@@@0@0V10@U_Nonscalar_ptr_iterator_tag@0@@Z 64035c50 f i extract.obj
 0001:00034d50       ??$_Unguarded_partition@PAI@std@@YA?AU?$pair@PAIPAI@0@PAI0@Z 64035d50 f i extract.obj
 0001:00034e90       ??$_Resetp@V?$set@IU?$less@I@std@@V?$allocator@I@2@@std@@@?$shared_ptr@V?$set@IU?$less@I@std@@V?$allocator@I@2@@std@@@tr1@std@@AAEXPAV?$set@IU?$less@I@std@@V?$allocator@I@2@@2@@Z 64035e90 f i extract.obj
 0001:00034f50       ??$_Uninit_copy@V?$_Vector_const_iterator@V?$_Vector_val@IV?$allocator@I@std@@@std@@@std@@PAIV?$allocator@I@2@@std@@YAPAIV?$_Vector_const_iterator@V?$_Vector_val@IV?$allocator@I@std@@@std@@@0@0PAIAAV?$allocator@I@0@U_Nonscalar_ptr_iterator_tag@0@@Z 64035f50 f i extract.obj
 0001:00034f80       ??_G?$set@IU?$less@I@std@@V?$allocator@I@2@@std@@QAEPAXI@Z 64035f80 f i extract.obj
 0001:00034ff0       ?_Destroy@?$_Ref_count@V?$set@IU?$less@I@std@@V?$allocator@I@2@@std@@@tr1@std@@EAEXXZ 64035ff0 f i extract.obj
 0001:00035060       ??$_Median@PAI@std@@YAXPAI00@Z 64036060 f i extract.obj
 0001:00035180       ??$_Make_heap@PAIHI@std@@YAXPAI0PAH0@Z 64036180 f i extract.obj
 0001:00035220       ??$_Sort_heap@PAI@std@@YAXPAI0@Z 64036220 f i extract.obj
 0001:000352b0       ??$_Insertion_sort1@PAII@std@@YAXPAI00@Z 640362b0 f i extract.obj
 0001:00035320       ??$_Copy_impl@PAIV?$back_insert_iterator@V?$vector@IV?$allocator@I@std@@@std@@@std@@@std@@YA?AV?$back_insert_iterator@V?$vector@IV?$allocator@I@std@@@std@@@0@PAI0V10@U_Nonscalar_ptr_iterator_tag@0@@Z 64036320 f i extract.obj
 0001:00035420       ??_EArchiveExtractor@@W7AEPAXI@Z 64036420 f i extract.obj
 0001:00035430       ??_ECachedFileExtractStream@@W3AEPAXI@Z 64036430 f i extract.obj
 0001:00035440       ?QueryInterface@CachedFileExtractStream@@W3AGJABU_GUID@@PAPAX@Z 64036440 f i extract.obj
 0001:00035450       _IsEqualGUID               64036450 f i extract.obj
 0001:000354c0       ?detach@PropVariant@@QAEXPAUtagPROPVARIANT@@@Z 640364c0 f i open.obj
 0001:00035570       ??4PropVariant@@QAEAAV0@PB_W@Z 64036570 f i open.obj
 0001:00035630       ??4PropVariant@@QAEAAV0@_N@Z 64036630 f i open.obj
 0001:00035660       ??4PropVariant@@QAEAAV0@_K@Z 64036660 f i open.obj
 0001:00035690       ??4PropVariant@@QAEAAV0@ABU_FILETIME@@@Z 64036690 f i open.obj
 0001:000356c0       ??0OpenOptions@@QAE@XZ     640366c0 f   open.obj
 0001:00035770       ?check_device_file@ArchiveOpenStream@@AAEXXZ 64036770 f i open.obj
 0001:000358f0       ??0ArchiveOpenStream@@QAE@ABV?$basic_string@_WU?$char_traits@_W@std@@V?$allocator@_W@2@@std@@@Z 640368f0 f i open.obj
 0001:00035980       ?Read@ArchiveOpenStream@@UAGJPAXIPAI@Z 64036980 f i open.obj
 0001:00035b30       ?Seek@ArchiveOpenStream@@UAGJ_JIPA_K@Z 64036b30 f i open.obj
 0001:00035cd0       ?get_info@ArchiveOpenStream@@QAE?AUFindData@@XZ 64036cd0 f i open.obj
 0001:00035df0       ??_GArchiveOpenStream@@UAEPAXI@Z 64036df0 f i open.obj
 0001:00035df0       ??_EArchiveOpenStream@@UAEPAXI@Z 64036df0 f i  CIL library: CIL module
 0001:00035e50       ?do_update_ui@ArchiveOpener@@EAEXXZ 64036e50 f i open.obj
 0001:000362d0       ??0ArchiveOpener@@QAE@V?$shared_ptr@VArchive@@@tr1@std@@@Z 640372d0 f i open.obj
 0001:00036460       ?QueryInterface@ArchiveOpener@@UAGJABU_GUID@@PAPAX@Z 64037460 f i open.obj
 0001:00036550       ?Release@ArchiveOpener@@UAGKXZ 64037550 f i open.obj
 0001:00036570       ?SetTotal@ArchiveOpener@@UAGJPB_K0@Z 64037570 f i open.obj
 0001:00036660       ?SetCompleted@ArchiveOpener@@UAGJPB_K0@Z 64037660 f i open.obj
 0001:00036750       ?GetProperty@ArchiveOpener@@UAGJKPAUtagPROPVARIANT@@@Z 64037750 f i open.obj
 0001:00036960       ?GetStream@ArchiveOpener@@UAGJPB_WPAPAUIInStream@@@Z 64037960 f i open.obj
 0001:00036ba0       ?CryptoGetTextPassword@ArchiveOpener@@UAGJPAPA_W@Z 64037ba0 f i open.obj
 0001:00036d60       ??_EArchiveOpener@@UAEPAXI@Z 64037d60 f i  CIL library: CIL module
 0001:00036d60       ??_GArchiveOpener@@UAEPAXI@Z 64037d60 f i open.obj
 0001:00036e00       ?get_stream@Archive@@QAE_NIPAPAUIInStream@@@Z 64037e00 f   open.obj
 0001:00036f60       ?open@Archive@@AAE_NPAUIInStream@@ABV?$vector@EV?$allocator@E@std@@@std@@@Z 64037f60 f   open.obj
 0001:00037270       ?prioritize@@YAXAAV?$list@UArcEntry@@V?$allocator@UArcEntry@@@std@@@std@@ABV?$vector@EV?$allocator@E@std@@@2@1@Z 64038270 f   open.obj
 0001:00037350       ?detect@Archive@@CA?AV?$list@UArcEntry@@V?$allocator@UArcEntry@@@std@@@std@@PAUIInStream@@ABV?$basic_string@_WU?$char_traits@_W@std@@V?$allocator@_W@2@@3@ABV?$list@V?$vector@EV?$allocator@E@std@@@std@@V?$allocator@V?$vector@EV?$allocator@E@std@@@std@@@2@@3@@Z 64038350 f   open.obj
 0001:00037750       ??1?$set@V?$vector@EV?$allocator@E@std@@@std@@U?$less@V?$vector@EV?$allocator@E@std@@@std@@@2@V?$allocator@V?$vector@EV?$allocator@E@std@@@std@@@2@@std@@QAE@XZ 64038750 f i open.obj
 0001:000377b0       ?open@Archive@@CAXABUOpenOptions@@AAV?$vector@V?$shared_ptr@VArchive@@@tr1@std@@V?$allocator@V?$shared_ptr@VArchive@@@tr1@std@@@3@@std@@@Z 640387b0 f   open.obj
 0001:00037d00       ?open@Archive@@SA?AV?$unique_ptr@V?$vector@V?$shared_ptr@VArchive@@@tr1@std@@V?$allocator@V?$shared_ptr@VArchive@@@tr1@std@@@3@@std@@U?$default_delete@V?$vector@V?$shared_ptr@VArchive@@@tr1@std@@V?$allocator@V?$shared_ptr@VArchive@@@tr1@std@@@3@@std@@@2@@std@@ABUOpenOptions@@@Z 64038d00 f   open.obj
 0001:00037dc0       ?reopen@Archive@@QAEXXZ    64038dc0 f   open.obj
 0001:000380e0       ?close@Archive@@QAEXXZ     640390e0 f   open.obj
 0001:00038180       ??6?$basic_ostream@_WU?$char_traits@_W@std@@@std@@QAEAAV01@_K@Z 64039180 f i open.obj
 0001:00038370       ?erase@?$list@V?$vector@EV?$allocator@E@std@@@std@@V?$allocator@V?$vector@EV?$allocator@E@std@@@std@@@2@@std@@QAE?AV?$_List_iterator@V?$_List_val@V?$vector@EV?$allocator@E@std@@@std@@V?$allocator@V?$vector@EV?$allocator@E@std@@@std@@@2@@std@@@2@V?$_List_const_iterator@V?$_List_val@V?$vector@EV?$allocator@E@std@@@std@@V?$allocator@V?$vector@EV?$allocator@E@std@@@std@@@2@@std@@@2@@Z 64039370 f i archive.obj
 0001:00038370       ?erase@?$list@UArcEntry@@V?$allocator@UArcEntry@@@std@@@std@@QAE?AV?$_List_iterator@V?$_List_val@UArcEntry@@V?$allocator@UArcEntry@@@std@@@std@@@2@V?$_List_const_iterator@V?$_List_val@UArcEntry@@V?$allocator@UArcEntry@@@std@@@std@@@2@@Z 64039370 f i open.obj
 0001:000383e0       ??1?$ComObject@UISetProperties@@@@QAE@XZ 640393e0 f i update.obj
 0001:000383e0       ??1?$ComObject@UIInStream@@@@QAE@XZ 640393e0 f i open.obj
 0001:000383e0       ??1?$ComObject@UISequentialInStream@@@@QAE@XZ 640393e0 f i open.obj
 0001:000383e0       ??1?$ComObject@UIArchiveExtractCallback@@@@QAE@XZ 640393e0 f i extract.obj
 0001:000383e0       ??1?$ComObject@UIInArchiveGetStream@@@@QAE@XZ 640393e0 f i open.obj
 0001:000383e0       ??1?$ComObject@UIOutStream@@@@QAE@XZ 640393e0 f i update.obj
 0001:000383e0       ??1?$ComObject@UIArchiveOpenCallback@@@@QAE@XZ 640393e0 f i open.obj
 0001:000383e0       ??1?$ComObject@UIArchiveUpdateCallback@@@@QAE@XZ 640393e0 f i update.obj
 0001:000383e0       ??1?$ComObject@UIOutArchive@@@@QAE@XZ 640393e0 f i update.obj
 0001:000383e0       ??1?$ComObject@UIInArchive@@@@QAE@XZ 640393e0 f i plugin.obj
 0001:00038400       ??1?$vector@EV?$allocator@E@std@@@std@@QAE@XZ 64039400 f i archive.obj
 0001:00038400       ??1ArcEntry@@QAE@XZ        64039400 f i plugin.obj
 0001:00038400       ?_Tidy@?$vector@UStrPos@@V?$allocator@UStrPos@@@std@@@std@@IAEXXZ 64039400 f i open.obj
 0001:00038400       ?_Tidy@?$vector@IV?$allocator@I@std@@@std@@IAEXXZ 64039400 f i plugin.obj
 0001:00038400       ??1VersionEncoder@@QAE@XZ  64039400 f i rsrc.obj
 0001:00038400       ??1?$vector@UFarListItem@@V?$allocator@UFarListItem@@@std@@@std@@QAE@XZ 64039400 f i ui.obj
 0001:00038400       ??1?$vector@PB_WV?$allocator@PB_W@std@@@std@@QAE@XZ 64039400 f i update.obj
 0001:00038400       ??1?$vector@IV?$allocator@I@std@@@std@@QAE@XZ 64039400 f i plugin.obj
 0001:00038400       ??1?$_Vb_val@V?$allocator@_N@std@@@std@@QAE@XZ 64039400 f i msearch.obj
 0001:00038400       ??1?$vector@UFarMenuItem@@V?$allocator@UFarMenuItem@@@std@@@std@@QAE@XZ 64039400 f i farutils.obj
 0001:00038400       ??1?$vector@UDialogItem@Far@@V?$allocator@UDialogItem@Far@@@std@@@std@@QAE@XZ 64039400 f i ui.obj
 0001:00038400       ?_Tidy@?$vector@EV?$allocator@E@std@@@std@@IAEXXZ 64039400 f i archive.obj
 0001:00038400       ??1?$vector@UStrPos@@V?$allocator@UStrPos@@@std@@@std@@QAE@XZ 64039400 f i open.obj
 0001:00038430       ?push_back@?$vector@V?$shared_ptr@VArchive@@@tr1@std@@V?$allocator@V?$shared_ptr@VArchive@@@tr1@std@@@3@@std@@QAEXABV?$shared_ptr@VArchive@@@tr1@2@@Z 64039430 f i open.obj
 0001:00038500       ?insert@?$_Tree@V?$_Tset_traits@V?$vector@EV?$allocator@E@std@@@std@@U?$less@V?$vector@EV?$allocator@E@std@@@std@@@2@V?$allocator@V?$vector@EV?$allocator@E@std@@@std@@@2@$0A@@std@@@std@@QAE?AU?$pair@V?$_Tree_const_iterator@V?$_Tree_val@V?$_Tset_traits@V?$vector@EV?$allocator@E@std@@@std@@U?$less@V?$vector@EV?$allocator@E@std@@@std@@@2@V?$allocator@V?$vector@EV?$allocator@E@std@@@std@@@2@$0A@@std@@@std@@@std@@_N@2@ABV?$vector@EV?$allocator@E@std@@@2@_N@Z 64039500 f i open.obj
 0001:00038600       ?_Reserve@?$vector@V?$shared_ptr@VArchive@@@tr1@std@@V?$allocator@V?$shared_ptr@VArchive@@@tr1@std@@@3@@std@@IAEXI@Z 64039600 f i open.obj
 0001:00038650       ?_Copy@?$_Tree@V?$_Tset_traits@V?$basic_string@_WU?$char_traits@_W@std@@V?$allocator@_W@2@@std@@U?$less@V?$basic_string@_WU?$char_traits@_W@std@@V?$allocator@_W@2@@std@@@2@V?$allocator@V?$basic_string@_WU?$char_traits@_W@std@@V?$allocator@_W@2@@std@@@2@$0A@@std@@@std@@IAEXABV12@@Z 64039650 f i open.obj
 0001:000386c0       ?erase@?$_Tree@V?$_Tset_traits@V?$vector@EV?$allocator@E@std@@@std@@U?$less@V?$vector@EV?$allocator@E@std@@@std@@@2@V?$allocator@V?$vector@EV?$allocator@E@std@@@std@@@2@$0A@@std@@@std@@QAE?AV?$_Tree_const_iterator@V?$_Tree_val@V?$_Tset_traits@V?$vector@EV?$allocator@E@std@@@std@@U?$less@V?$vector@EV?$allocator@E@std@@@std@@@2@V?$allocator@V?$vector@EV?$allocator@E@std@@@std@@@2@$0A@@std@@@std@@@2@V32@0@Z 640396c0 f i open.obj
 0001:00038780       ?_Eqrange@?$_Tree@V?$_Tset_traits@V?$vector@EV?$allocator@E@std@@@std@@U?$less@V?$vector@EV?$allocator@E@std@@@std@@@2@V?$allocator@V?$vector@EV?$allocator@E@std@@@std@@@2@$0A@@std@@@std@@IBE?AU?$pair@V?$_Tree_const_iterator@V?$_Tree_val@V?$_Tset_traits@V?$vector@EV?$allocator@E@std@@@std@@U?$less@V?$vector@EV?$allocator@E@std@@@std@@@2@V?$allocator@V?$vector@EV?$allocator@E@std@@@std@@@2@$0A@@std@@@std@@@std@@V12@@2@ABV?$vector@EV?$allocator@E@std@@@2@@Z 64039780 f i open.obj
 0001:00038870       ?reserve@?$vector@V?$shared_ptr@VArchive@@@tr1@std@@V?$allocator@V?$shared_ptr@VArchive@@@tr1@std@@@3@@std@@QAEXI@Z 64039870 f i open.obj
 0001:00038950       ?_Copy@?$_Tree@V?$_Tset_traits@V?$basic_string@_WU?$char_traits@_W@std@@V?$allocator@_W@2@@std@@U?$less@V?$basic_string@_WU?$char_traits@_W@std@@V?$allocator@_W@2@@std@@@2@V?$allocator@V?$basic_string@_WU?$char_traits@_W@std@@V?$allocator@_W@2@@std@@@2@$0A@@std@@@std@@IAEPAU_Node@?$_Tree_nod@V?$_Tset_traits@V?$basic_string@_WU?$char_traits@_W@std@@V?$allocator@_W@2@@std@@U?$less@V?$basic_string@_WU?$char_traits@_W@std@@V?$allocator@_W@2@@std@@@2@V?$allocator@V?$basic_string@_WU?$char_traits@_W@std@@V?$allocator@_W@2@@std@@@2@$0A@@std@@@2@PAU342@0@Z 64039950 f i open.obj
 0001:00038a10       ?erase@?$_Tree@V?$_Tset_traits@V?$vector@EV?$allocator@E@std@@@std@@U?$less@V?$vector@EV?$allocator@E@std@@@std@@@2@V?$allocator@V?$vector@EV?$allocator@E@std@@@std@@@2@$0A@@std@@@std@@QAE?AV?$_Tree_const_iterator@V?$_Tree_val@V?$_Tset_traits@V?$vector@EV?$allocator@E@std@@@std@@U?$less@V?$vector@EV?$allocator@E@std@@@std@@@2@V?$allocator@V?$vector@EV?$allocator@E@std@@@std@@@2@$0A@@std@@@std@@@2@V32@@Z 64039a10 f i open.obj
 0001:00038c90       ?_Insert@?$_Tree@V?$_Tset_traits@V?$vector@EV?$allocator@E@std@@@std@@U?$less@V?$vector@EV?$allocator@E@std@@@std@@@2@V?$allocator@V?$vector@EV?$allocator@E@std@@@std@@@2@$0A@@std@@@std@@IAE?AV?$_Tree_const_iterator@V?$_Tree_val@V?$_Tset_traits@V?$vector@EV?$allocator@E@std@@@std@@U?$less@V?$vector@EV?$allocator@E@std@@@std@@@2@V?$allocator@V?$vector@EV?$allocator@E@std@@@std@@@2@$0A@@std@@@std@@@2@_NPAU_Node@?$_Tree_nod@V?$_Tset_traits@V?$vector@EV?$allocator@E@std@@@std@@U?$less@V?$vector@EV?$allocator@E@std@@@std@@@2@V?$allocator@V?$vector@EV?$allocator@E@std@@@std@@@2@$0A@@std@@@2@1@Z 64039c90 f i open.obj
 0001:00038ec0       ??F?$_Tree_unchecked_const_iterator@V?$_Tree_val@V?$_Tset_traits@V?$vector@EV?$allocator@E@std@@@std@@U?$less@V?$vector@EV?$allocator@E@std@@@std@@@2@V?$allocator@V?$vector@EV?$allocator@E@std@@@std@@@2@$0A@@std@@@std@@U_Iterator_base0@2@@std@@QAEAAV01@XZ 64039ec0 f i open.obj
 0001:00038f20       ?allocate@?$allocator@UStrPos@@@std@@QAEPAUStrPos@@I@Z 64039f20 f i msearch.obj
 0001:00038f20       ?allocate@?$allocator@V?$shared_ptr@VArchive@@@tr1@std@@@std@@QAEPAV?$shared_ptr@VArchive@@@tr1@2@I@Z 64039f20 f i open.obj
 0001:00038f80       ?_Erase@?$_Tree@V?$_Tset_traits@V?$vector@EV?$allocator@E@std@@@std@@U?$less@V?$vector@EV?$allocator@E@std@@@std@@@2@V?$allocator@V?$vector@EV?$allocator@E@std@@@std@@@2@$0A@@std@@@std@@IAEXPAU_Node@?$_Tree_nod@V?$_Tset_traits@V?$vector@EV?$allocator@E@std@@@std@@U?$less@V?$vector@EV?$allocator@E@std@@@std@@@2@V?$allocator@V?$vector@EV?$allocator@E@std@@@std@@@2@$0A@@std@@@2@@Z 64039f80 f i open.obj
 0001:00038fd0       ?_Lrotate@?$_Tree@V?$_Tset_traits@V?$vector@EV?$allocator@E@std@@@std@@U?$less@V?$vector@EV?$allocator@E@std@@@std@@@2@V?$allocator@V?$vector@EV?$allocator@E@std@@@std@@@2@$0A@@std@@@std@@IAEXPAU_Node@?$_Tree_nod@V?$_Tset_traits@V?$vector@EV?$allocator@E@std@@@std@@U?$less@V?$vector@EV?$allocator@E@std@@@std@@@2@V?$allocator@V?$vector@EV?$allocator@E@std@@@std@@@2@$0A@@std@@@2@@Z 64039fd0 f i open.obj
 0001:00039020       ?_Rrotate@?$_Tree@V?$_Tset_traits@V?$vector@EV?$allocator@E@std@@@std@@U?$less@V?$vector@EV?$allocator@E@std@@@std@@@2@V?$allocator@V?$vector@EV?$allocator@E@std@@@std@@@2@$0A@@std@@@std@@IAEXPAU_Node@?$_Tree_nod@V?$_Tset_traits@V?$vector@EV?$allocator@E@std@@@std@@U?$less@V?$vector@EV?$allocator@E@std@@@std@@@2@V?$allocator@V?$vector@EV?$allocator@E@std@@@std@@@2@$0A@@std@@@2@@Z 6403a020 f i open.obj
 0001:00039070       ?_Max@?$_Tree_val@V?$_Tset_traits@V?$vector@EV?$allocator@E@std@@@std@@U?$less@V?$vector@EV?$allocator@E@std@@@std@@@2@V?$allocator@V?$vector@EV?$allocator@E@std@@@std@@@2@$0A@@std@@@std@@SAPAU_Node@?$_Tree_nod@V?$_Tset_traits@V?$vector@EV?$allocator@E@std@@@std@@U?$less@V?$vector@EV?$allocator@E@std@@@std@@@2@V?$allocator@V?$vector@EV?$allocator@E@std@@@std@@@2@$0A@@std@@@2@PAU342@@Z 6403a070 f i open.obj
 0001:00039090       ??E?$_Tree_unchecked_const_iterator@V?$_Tree_val@V?$_Tset_traits@V?$vector@EV?$allocator@E@std@@@std@@U?$less@V?$vector@EV?$allocator@E@std@@@std@@@2@V?$allocator@V?$vector@EV?$allocator@E@std@@@std@@@2@$0A@@std@@@std@@U_Iterator_base0@2@@std@@QAEAAV01@XZ 6403a090 f i open.obj
 0001:000390e0       ?_Linsert@?$_Tree@V?$_Tset_traits@V?$basic_string@_WU?$char_traits@_W@std@@V?$allocator@_W@2@@std@@U?$less@V?$basic_string@_WU?$char_traits@_W@std@@V?$allocator@_W@2@@std@@@2@V?$allocator@V?$basic_string@_WU?$char_traits@_W@std@@V?$allocator@_W@2@@std@@@2@$0A@@std@@@std@@QAE?AU?$pair@V?$_Tree_const_iterator@V?$_Tree_val@V?$_Tset_traits@V?$basic_string@_WU?$char_traits@_W@std@@V?$allocator@_W@2@@std@@U?$less@V?$basic_string@_WU?$char_traits@_W@std@@V?$allocator@_W@2@@std@@@2@V?$allocator@V?$basic_string@_WU?$char_traits@_W@std@@V?$allocator@_W@2@@std@@@2@$0A@@std@@@std@@@std@@_N@2@PAU_Node@?$_Tree_nod@V?$_Tset_traits@V?$basic_string@_WU?$char_traits@_W@std@@V?$allocator@_W@2@@std@@U?$less@V?$basic_string@_WU?$char_traits@_W@std@@V?$allocator@_W@2@@std@@@2@V?$allocator@V?$basic_string@_WU?$char_traits@_W@std@@V?$allocator@_W@2@@std@@@2@$0A@@std@@@2@_N@Z 6403a0e0 f i open.obj
 0001:00039280       ?_Linsert@?$_Tree@V?$_Tset_traits@V?$vector@EV?$allocator@E@std@@@std@@U?$less@V?$vector@EV?$allocator@E@std@@@std@@@2@V?$allocator@V?$vector@EV?$allocator@E@std@@@std@@@2@$0A@@std@@@std@@QAE?AU?$pair@V?$_Tree_const_iterator@V?$_Tree_val@V?$_Tset_traits@V?$vector@EV?$allocator@E@std@@@std@@U?$less@V?$vector@EV?$allocator@E@std@@@std@@@2@V?$allocator@V?$vector@EV?$allocator@E@std@@@std@@@2@$0A@@std@@@std@@@std@@_N@2@PAU_Node@?$_Tree_nod@V?$_Tset_traits@V?$vector@EV?$allocator@E@std@@@std@@U?$less@V?$vector@EV?$allocator@E@std@@@std@@@2@V?$allocator@V?$vector@EV?$allocator@E@std@@@std@@@2@$0A@@std@@@2@_N@Z 6403a280 f i open.obj
 0001:00039390       ??$_Buynode@AAPB_W@?$_Tree_val@V?$_Tset_traits@V?$basic_string@_WU?$char_traits@_W@std@@V?$allocator@_W@2@@std@@U?$less@V?$basic_string@_WU?$char_traits@_W@std@@V?$allocator@_W@2@@std@@@2@V?$allocator@V?$basic_string@_WU?$char_traits@_W@std@@V?$allocator@_W@2@@std@@@2@$0A@@std@@@std@@QAEPAU_Node@?$_Tree_nod@V?$_Tset_traits@V?$basic_string@_WU?$char_traits@_W@std@@V?$allocator@_W@2@@std@@U?$less@V?$basic_string@_WU?$char_traits@_W@std@@V?$allocator@_W@2@@std@@@2@V?$allocator@V?$basic_string@_WU?$char_traits@_W@std@@V?$allocator@_W@2@@std@@@2@$0A@@std@@@1@AAPB_W@Z 6403a390 f i open.obj
 0001:00039490       ??$_For_each@V?$_List_unchecked_const_iterator@V?$_List_val@V?$vector@EV?$allocator@E@std@@@std@@V?$allocator@V?$vector@EV?$allocator@E@std@@@std@@@2@@std@@U_Iterator_base0@2@@std@@V<lambda0>@?A0x0922b246@@@std@@YA?AV<lambda0>@?A0x0922b246@@V?$_List_unchecked_const_iterator@V?$_List_val@V?$vector@EV?$allocator@E@std@@@std@@V?$allocator@V?$vector@EV?$allocator@E@std@@@std@@@2@@std@@U_Iterator_base0@2@@0@0V12@@Z 6403a490 f i open.obj
 0001:00039960       ?_Buynode@?$_Tree_val@V?$_Tset_traits@V?$vector@EV?$allocator@E@std@@@std@@U?$less@V?$vector@EV?$allocator@E@std@@@std@@@2@V?$allocator@V?$vector@EV?$allocator@E@std@@@std@@@2@$0A@@std@@@std@@QAEPAU_Node@?$_Tree_nod@V?$_Tset_traits@V?$vector@EV?$allocator@E@std@@@std@@U?$less@V?$vector@EV?$allocator@E@std@@@std@@@2@V?$allocator@V?$vector@EV?$allocator@E@std@@@std@@@2@$0A@@std@@@2@ABV?$vector@EV?$allocator@E@std@@@2@@Z 6403a960 f i open.obj
 0001:00039960       ??$_Buynode@AAV?$vector@EV?$allocator@E@std@@@std@@@?$_Tree_val@V?$_Tset_traits@V?$vector@EV?$allocator@E@std@@@std@@U?$less@V?$vector@EV?$allocator@E@std@@@std@@@2@V?$allocator@V?$vector@EV?$allocator@E@std@@@std@@@2@$0A@@std@@@std@@QAEPAU_Node@?$_Tree_nod@V?$_Tset_traits@V?$vector@EV?$allocator@E@std@@@std@@U?$less@V?$vector@EV?$allocator@E@std@@@std@@@2@V?$allocator@V?$vector@EV?$allocator@E@std@@@std@@@2@$0A@@std@@@1@AAV?$vector@EV?$allocator@E@std@@@1@@Z 6403a960 f i open.obj
 0001:00039a30       ??$_For_each@PAUStrPos@@V<lambda1>@?A0x0922b246@@@std@@YA?AV<lambda1>@?A0x0922b246@@PAUStrPos@@0V12@@Z 6403aa30 f i open.obj
 0001:00039b40       ??$_Find@V?$_List_unchecked_const_iterator@V?$_List_val@V?$vector@EV?$allocator@E@std@@@std@@V?$allocator@V?$vector@EV?$allocator@E@std@@@std@@@2@@std@@U_Iterator_base0@2@@std@@V?$vector@EV?$allocator@E@std@@@2@@std@@YA?AV?$_List_unchecked_const_iterator@V?$_List_val@V?$vector@EV?$allocator@E@std@@@std@@V?$allocator@V?$vector@EV?$allocator@E@std@@@std@@@2@@std@@U_Iterator_base0@2@@0@V10@0ABV?$vector@EV?$allocator@E@std@@@0@@Z 6403ab40 f i open.obj
 0001:00039ba0       ??$_For_each@V?$_List_unchecked_iterator@V?$_List_val@V?$vector@EV?$allocator@E@std@@@std@@V?$allocator@V?$vector@EV?$allocator@E@std@@@std@@@2@@std@@@std@@V<lambda2>@?A0x0922b246@@@std@@YA?AV<lambda2>@?A0x0922b246@@V?$_List_unchecked_iterator@V?$_List_val@V?$vector@EV?$allocator@E@std@@@std@@V?$allocator@V?$vector@EV?$allocator@E@std@@@std@@@2@@std@@@0@0V12@@Z 6403aba0 f i open.obj
 0001:00039cf0       ??$_For_each@V?$_List_unchecked_const_iterator@V?$_List_val@V?$vector@EV?$allocator@E@std@@@std@@V?$allocator@V?$vector@EV?$allocator@E@std@@@std@@@2@@std@@U_Iterator_base0@2@@std@@V<lambda3>@?A0x0922b246@@@std@@YA?AV<lambda3>@?A0x0922b246@@V?$_List_unchecked_const_iterator@V?$_List_val@V?$vector@EV?$allocator@E@std@@@std@@V?$allocator@V?$vector@EV?$allocator@E@std@@@std@@@2@@std@@U_Iterator_base0@2@@0@0V12@@Z 6403acf0 f i open.obj
 0001:00039e00       ??$_Distance2@V?$_Tree_const_iterator@V?$_Tree_val@V?$_Tset_traits@V?$vector@EV?$allocator@E@std@@@std@@U?$less@V?$vector@EV?$allocator@E@std@@@std@@@2@V?$allocator@V?$vector@EV?$allocator@E@std@@@std@@@2@$0A@@std@@@std@@@std@@I@std@@YAXV?$_Tree_const_iterator@V?$_Tree_val@V?$_Tset_traits@V?$vector@EV?$allocator@E@std@@@std@@U?$less@V?$vector@EV?$allocator@E@std@@@std@@@2@V?$allocator@V?$vector@EV?$allocator@E@std@@@std@@@2@$0A@@std@@@std@@@0@0AAIUbidirectional_iterator_tag@0@@Z 6403ae00 f i open.obj
 0001:00039e70       ??$_Move@PAV?$shared_ptr@VArchive@@@tr1@std@@PAV123@@std@@YAPAV?$shared_ptr@VArchive@@@tr1@0@PAV120@00U_Nonscalar_ptr_iterator_tag@0@@Z 6403ae70 f i open.obj
 0001:00039ef0       ??$_Uninit_move@PAV?$shared_ptr@VArchive@@@tr1@std@@PAV123@V?$allocator@V?$shared_ptr@VArchive@@@tr1@std@@@3@V123@@std@@YAPAV?$shared_ptr@VArchive@@@tr1@0@PAV120@00AAV?$allocator@V?$shared_ptr@VArchive@@@tr1@std@@@0@0U_Nonscalar_ptr_iterator_tag@0@@Z 6403aef0 f i open.obj
 0001:00039f30       ??$_Buynode@UArcEntry@@@?$_List_val@UArcEntry@@V?$allocator@UArcEntry@@@std@@@std@@QAEPAU_Node@?$_List_nod@UArcEntry@@V?$allocator@UArcEntry@@@std@@@1@PAU231@0$$QAUArcEntry@@@Z 6403af30 f i open.obj
 0001:00039f30       ?_Buynode@?$_List_val@UArcEntry@@V?$allocator@UArcEntry@@@std@@@std@@QAEPAU_Node@?$_List_nod@UArcEntry@@V?$allocator@UArcEntry@@@std@@@2@PAU342@0ABUArcEntry@@@Z 6403af30 f i open.obj
 0001:00039f30       ??$_Buynode@AAUArcEntry@@@?$_List_val@UArcEntry@@V?$allocator@UArcEntry@@@std@@@std@@QAEPAU_Node@?$_List_nod@UArcEntry@@V?$allocator@UArcEntry@@@std@@@1@PAU231@0AAUArcEntry@@@Z 6403af30 f i open.obj
 0001:0003a000       ??$_Insert@V?$_List_iterator@V?$_List_val@UArcEntry@@V?$allocator@UArcEntry@@@std@@@std@@@std@@@?$list@UArcEntry@@V?$allocator@UArcEntry@@@std@@@std@@QAEXV?$_List_const_iterator@V?$_List_val@UArcEntry@@V?$allocator@UArcEntry@@@std@@@std@@@1@V?$_List_iterator@V?$_List_val@UArcEntry@@V?$allocator@UArcEntry@@@std@@@std@@@1@1Uforward_iterator_tag@1@@Z 6403b000 f i open.obj
 0001:0003a0d0       ?Release@ArchiveOpener@@W3AGKXZ 6403b0d0 f i open.obj
 0001:0003a0e0       ?Release@ArchiveOpener@@W7AGKXZ 6403b0e0 f i open.obj
 0001:0003a0f0       ??_EArchiveOpenStream@@W3AEPAXI@Z 6403b0f0 f i open.obj
 0001:0003a100       ??_EArchiveOpener@@WM@AEPAXI@Z 6403b100 f i open.obj
 0001:0003a110       ?Release@ArchiveOpener@@WM@AGKXZ 6403b110 f i open.obj
 0001:0003a120       ?AddRef@ArchiveOpener@@W3AGKXZ 6403b120 f i open.obj
 0001:0003a130       ?AddRef@ArchiveOpener@@W7AGKXZ 6403b130 f i open.obj
 0001:0003a140       ?QueryInterface@ArchiveOpener@@W3AGJABU_GUID@@PAPAX@Z 6403b140 f i open.obj
 0001:0003a150       ?AddRef@ArchiveOpener@@WM@AGKXZ 6403b150 f i open.obj
 0001:0003a150       ?AddRef@SfxUpdateStream@@WM@AGKXZ 6403b150 f i update.obj
 0001:0003a150       ?AddRef@SimpleUpdateStream@@WM@AGKXZ 6403b150 f i update.obj
 0001:0003a150       ?AddRef@MultiVolumeUpdateStream@@WM@AGKXZ 6403b150 f i update.obj
 0001:0003a160       ??_EArchiveOpener@@WBI@AEPAXI@Z 6403b160 f i open.obj
 0001:0003a170       ?QueryInterface@ArchiveOpener@@W7AGJABU_GUID@@PAPAX@Z 6403b170 f i open.obj
 0001:0003a180       ?QueryInterface@ArchiveOpener@@WM@AGJABU_GUID@@PAPAX@Z 6403b180 f i open.obj
 0001:0003a190       ??_GCriticalSection@@UAEPAXI@Z 6403b190 f i update.obj
 0001:0003a190       ??_ECriticalSection@@UAEPAXI@Z 6403b190 f i  CIL library: CIL module
 0001:0003a1c0       ??1CriticalSectionLock@@QAE@XZ 6403b1c0 f i update.obj
 0001:0003a1e0       ??0PropVariant@@QAE@ABV0@@Z 6403b1e0 f i update.obj
 0001:0003a260       ??0PropVariant@@QAE@ABV?$basic_string@_WU?$char_traits@_W@std@@V?$allocator@_W@2@@std@@@Z 6403b260 f i update.obj
 0001:0003a310       ??0PropVariant@@QAE@PB_W@Z 6403b310 f i update.obj
 0001:0003a3d0       ??4PropVariant@@QAEAAV0@ABV?$basic_string@_WU?$char_traits@_W@std@@V?$allocator@_W@2@@std@@@Z 6403b3d0 f i update.obj
 0001:0003a490       ?format_time@@YA?AV?$basic_string@_WU?$char_traits@_W@std@@V?$allocator@_W@2@@std@@_K@Z 6403b490 f   update.obj
 0001:0003a6b0       ?do_update_ui@ArchiveUpdateProgress@@EAEXXZ 6403b6b0 f i update.obj
 0001:0003b100       ??0ArchiveUpdateProgress@@QAE@_NABV?$basic_string@_WU?$char_traits@_W@std@@V?$allocator@_W@2@@std@@@Z 6403c100 f i update.obj
 0001:0003b250       ?on_open_file@ArchiveUpdateProgress@@QAEXABV?$basic_string@_WU?$char_traits@_W@std@@V?$allocator@_W@2@@std@@_K@Z 6403c250 f i update.obj
 0001:0003b300       ?on_write_archive@ArchiveUpdateProgress@@QAEXI@Z 6403c300 f i update.obj
 0001:0003b390       ??_EArchiveUpdateProgress@@UAEPAXI@Z 6403c390 f i  CIL library: CIL module
 0001:0003b390       ??_GArchiveUpdateProgress@@UAEPAXI@Z 6403c390 f i update.obj
 0001:0003b3b0       ??1ArchiveUpdateProgress@@UAE@XZ 6403c3b0 f i update.obj
 0001:0003b440       ?translate_seek_method@@YAKI@Z 6403c440 f   update.obj
 0001:0003b4f0       ??0UpdateStream@@QAE@V?$shared_ptr@VArchiveUpdateProgress@@@tr1@std@@@Z 6403c4f0 f i update.obj
 0001:0003b590       ??1UpdateStream@@UAE@XZ    6403c590 f i update.obj
 0001:0003b5d0       ??_EUpdateStream@@UAEPAXI@Z 6403c5d0 f i  CIL library: CIL module
 0001:0003b5d0       ??_GUpdateStream@@UAEPAXI@Z 6403c5d0 f i update.obj
 0001:0003b630       ??0SimpleUpdateStream@@QAE@ABV?$basic_string@_WU?$char_traits@_W@std@@V?$allocator@_W@2@@std@@V?$shared_ptr@VArchiveUpdateProgress@@@tr1@2@@Z 6403c630 f i update.obj
 0001:0003b780       ?AddRef@SfxUpdateStream@@UAGKXZ 6403c780 f i update.obj
 0001:0003b780       ?AddRef@SimpleUpdateStream@@UAGKXZ 6403c780 f i update.obj
 0001:0003b780       ?AddRef@MultiVolumeUpdateStream@@UAGKXZ 6403c780 f i update.obj
 0001:0003b780       ?AddRef@ArchiveOpener@@UAGKXZ 6403c780 f i open.obj
 0001:0003b790       ?Write@SfxUpdateStream@@UAGJPBXIPAI@Z 6403c790 f i update.obj
 0001:0003b790       ?Write@SimpleUpdateStream@@UAGJPBXIPAI@Z 6403c790 f i update.obj
 0001:0003b910       ?Seek@SimpleUpdateStream@@UAGJ_JIPA_K@Z 6403c910 f i update.obj
 0001:0003ba00       ?SetSize@SimpleUpdateStream@@UAGJ_K@Z 6403ca00 f i update.obj
 0001:0003bb30       ??_ESimpleUpdateStream@@UAEPAXI@Z 6403cb30 f i  CIL library: CIL module
 0001:0003bb30       ??_ESfxUpdateStream@@UAEPAXI@Z 6403cb30 f i  CIL library: CIL module
 0001:0003bb30       ??_GSimpleUpdateStream@@UAEPAXI@Z 6403cb30 f i update.obj
 0001:0003bb30       ??_GSfxUpdateStream@@UAEPAXI@Z 6403cb30 f i update.obj
 0001:0003bb50       ??1SfxUpdateStream@@UAE@XZ 6403cb50 f i update.obj
 0001:0003bb50       ??1SimpleUpdateStream@@UAE@XZ 6403cb50 f i update.obj
 0001:0003bbd0       ??0SfxUpdateStream@@QAE@ABV?$basic_string@_WU?$char_traits@_W@std@@V?$allocator@_W@2@@std@@ABUSfxOptions@@V?$shared_ptr@VArchiveUpdateProgress@@@tr1@2@@Z 6403cbd0 f i update.obj
 0001:0003bd50       ?QueryInterface@MultiVolumeUpdateStream@@UAGJABU_GUID@@PAPAX@Z 6403cd50 f i update.obj
 0001:0003bd50       ?QueryInterface@SimpleUpdateStream@@UAGJABU_GUID@@PAPAX@Z 6403cd50 f i update.obj
 0001:0003bd50       ?QueryInterface@SfxUpdateStream@@UAGJABU_GUID@@PAPAX@Z 6403cd50 f i update.obj
 0001:0003bdf0       ?Release@MultiVolumeUpdateStream@@UAGKXZ 6403cdf0 f i update.obj
 0001:0003bdf0       ?Release@SimpleUpdateStream@@UAGKXZ 6403cdf0 f i update.obj
 0001:0003bdf0       ?Release@SfxUpdateStream@@UAGKXZ 6403cdf0 f i update.obj
 0001:0003be10       ?Seek@SfxUpdateStream@@UAGJ_JIPA_K@Z 6403ce10 f i update.obj
 0001:0003bf90       ?SetSize@SfxUpdateStream@@UAGJ_K@Z 6403cf90 f i update.obj
 0001:0003c0c0       ?clean_files@SfxUpdateStream@@UAEXXZ 6403d0c0 f i update.obj
 0001:0003c0c0       ?clean_files@SimpleUpdateStream@@UAEXXZ 6403d0c0 f i update.obj
 0001:0003c0f0       ?get_volume_path@MultiVolumeUpdateStream@@AAE?AV?$basic_string@_WU?$char_traits@_W@std@@V?$allocator@_W@2@@std@@_K@Z 6403d0f0 f i update.obj
 0001:0003c2f0       ?get_last_volume_idx@MultiVolumeUpdateStream@@AAE_KXZ 6403d2f0 f i update.obj
 0001:0003c320       ??0MultiVolumeUpdateStream@@QAE@ABV?$basic_string@_WU?$char_traits@_W@std@@V?$allocator@_W@2@@std@@_KV?$shared_ptr@VArchiveUpdateProgress@@@tr1@2@@Z 6403d320 f i update.obj
 0001:0003c4e0       ?Write@MultiVolumeUpdateStream@@UAGJPBXIPAI@Z 6403d4e0 f i update.obj
 0001:0003cb50       ?Seek@MultiVolumeUpdateStream@@UAGJ_JIPA_K@Z 6403db50 f i update.obj
 0001:0003cd30       ?SetSize@MultiVolumeUpdateStream@@UAGJ_K@Z 6403dd30 f i update.obj
 0001:0003d0c0       ?clean_files@MultiVolumeUpdateStream@@UAEXXZ 6403e0c0 f i update.obj
 0001:0003d1f0       ??_GMultiVolumeUpdateStream@@UAEPAXI@Z 6403e1f0 f i update.obj
 0001:0003d1f0       ??_EMultiVolumeUpdateStream@@UAEPAXI@Z 6403e1f0 f i  CIL library: CIL module
 0001:0003d210       ??1MultiVolumeUpdateStream@@UAE@XZ 6403e210 f i update.obj
 0001:0003d2c0       ??0FileReadStream@@QAE@ABV?$basic_string@_WU?$char_traits@_W@std@@V?$allocator@_W@2@@std@@_NV?$shared_ptr@VArchiveUpdateProgress@@@tr1@2@@Z 6403e2c0 f i update.obj
 0001:0003d3c0       ?QueryInterface@FileReadStream@@UAGJABU_GUID@@PAPAX@Z 6403e3c0 f i update.obj
 0001:0003d3c0       ?QueryInterface@ArchiveOpenStream@@UAGJABU_GUID@@PAPAX@Z 6403e3c0 f i open.obj
 0001:0003d460       ?AddRef@CachedFileExtractStream@@UAGKXZ 6403e460 f i extract.obj
 0001:0003d460       ?AddRef@ArchiveFileDeleterStream@@UAGKXZ 6403e460 f i delete.obj
 0001:0003d460       ?AddRef@ArchiveOpenStream@@UAGKXZ 6403e460 f i open.obj
 0001:0003d460       ?AddRef@FileReadStream@@UAGKXZ 6403e460 f i update.obj
 0001:0003d460       ?AddRef@ArchiveFileDeleter@@UAGKXZ 6403e460 f i delete.obj
 0001:0003d470       ?Read@FileReadStream@@UAGJPAXIPAI@Z 6403e470 f i update.obj
 0001:0003d5a0       ?do_update_ui@PrepareUpdate@@EAEXXZ 6403e5a0 f i update.obj
 0001:0003d780       ?process_file@PrepareUpdate@@AAE_NABV?$basic_string@_WU?$char_traits@_W@std@@V?$allocator@_W@2@@std@@ABUFindData@@IAAI@Z 6403e780 f i update.obj
 0001:0003dc00       ?process_file_enum@PrepareUpdate@@AAE_NAAVFileEnum@@ABV?$basic_string@_WU?$char_traits@_W@std@@V?$allocator@_W@2@@std@@I@Z 6403ec00 f i update.obj
 0001:0003df10       ??0PrepareUpdate@@QAE@ABV?$basic_string@_WU?$char_traits@_W@std@@V?$allocator@_W@2@@std@@ABV?$vector@V?$basic_string@_WU?$char_traits@_W@std@@V?$allocator@_W@2@@std@@V?$allocator@V?$basic_string@_WU?$char_traits@_W@std@@V?$allocator@_W@2@@std@@@2@@2@IAAVArchive@@AAV?$map@IUFileIndexInfo@@U?$less@I@std@@V?$allocator@U?$pair@$$CBIUFileIndexInfo@@@std@@@3@@2@AAIW4OverwriteAction@@AA_NAAV?$list@UError@@V?$allocator@UError@@@std@@@2@PAVFileFilter@Far@@6@Z 6403ef10 f i update.obj
 0001:0003e220       ??4FileIndexInfo@@QAEAAU0@ABU0@@Z 6403f220 f i update.obj
 0001:0003e250       ??_EAttachSfxModuleProgress@@UAEPAXI@Z 6403f250 f i  CIL library: CIL module
 0001:0003e250       ??_EPrepareUpdate@@UAEPAXI@Z 6403f250 f i  CIL library: CIL module
 0001:0003e250       ??_GAttachSfxModuleProgress@@UAEPAXI@Z 6403f250 f i sfx.obj
 0001:0003e250       ??_GPrepareUpdate@@UAEPAXI@Z 6403f250 f i update.obj
 0001:0003e2b0       ??0ArchiveUpdater@@QAE@ABV?$basic_string@_WU?$char_traits@_W@std@@V?$allocator@_W@2@@std@@0IV?$shared_ptr@V?$map@IUFileIndexInfo@@U?$less@I@std@@V?$allocator@U?$pair@$$CBIUFileIndexInfo@@@std@@@3@@std@@@tr1@2@ABUUpdateOptions@@V?$shared_ptr@_N@42@V?$shared_ptr@V?$list@UError@@V?$allocator@UError@@@std@@@std@@@42@V?$shared_ptr@VArchiveUpdateProgress@@@42@@Z 6403f2b0 f i update.obj
 0001:0003e4d0       ?QueryInterface@ArchiveUpdater@@UAGJABU_GUID@@PAPAX@Z 6403f4d0 f i update.obj
 0001:0003e5a0       ?Release@ArchiveTester@@UAGKXZ 6403f5a0 f i test.obj
 0001:0003e5a0       ?Release@ArchiveUpdater@@UAGKXZ 6403f5a0 f i update.obj
 0001:0003e5a0       ?Release@ArchiveExtractor@@UAGKXZ 6403f5a0 f i extract.obj
 0001:0003e5c0       ?SetTotal@ArchiveUpdater@@UAGJ_K@Z 6403f5c0 f i update.obj
 0001:0003e6e0       ?SetCompleted@ArchiveUpdater@@UAGJPB_K@Z 6403f6e0 f i update.obj
 0001:0003e7f0       ?GetUpdateItemInfo@ArchiveUpdater@@UAGJIPAH0PAI@Z 6403f7f0 f i update.obj
 0001:0003e890       ?GetProperty@ArchiveUpdater@@UAGJIKPAUtagPROPVARIANT@@@Z 6403f890 f i update.obj
 0001:0003eaf0       ?GetStream@ArchiveUpdater@@UAGJIPAPAUISequentialInStream@@@Z 6403faf0 f i update.obj
 0001:0003edf0       ?SetOperationResult@ArchiveUpdater@@UAGJH@Z 6403fdf0 f i update.obj
 0001:0003efd0       ?CryptoGetTextPassword2@ArchiveUpdater@@UAGJPAHPAPA_W@Z 6403ffd0 f i update.obj
 0001:0003f0c0       ??_EArchiveUpdater@@UAEPAXI@Z 640400c0 f i  CIL library: CIL module
 0001:0003f0c0       ??_GArchiveUpdater@@UAEPAXI@Z 640400c0 f i update.obj
 0001:0003f0e0       ??1ArchiveUpdater@@UAE@XZ  640400e0 f i update.obj
 0001:0003f250       ?set_properties@Archive@@AAEXPAUIOutArchive@@ABUUpdateOptions@@@Z 64040250 f   update.obj
 0001:000409a0       ?do_update_ui@DeleteSrcFiles@@EAEXXZ 640419a0 f i update.obj
 0001:00040b80       ?delete_src_file@DeleteSrcFiles@@AAEXABV?$basic_string@_WU?$char_traits@_W@std@@V?$allocator@_W@2@@std@@@Z 64041b80 f i update.obj
 0001:00040c50       ?delete_src_dir@DeleteSrcFiles@@AAEXABV?$basic_string@_WU?$char_traits@_W@std@@V?$allocator@_W@2@@std@@@Z 64041c50 f i update.obj
 0001:00040e40       ??0DeleteSrcFiles@@QAE@ABV?$basic_string@_WU?$char_traits@_W@std@@V?$allocator@_W@2@@std@@ABV?$vector@V?$basic_string@_WU?$char_traits@_W@std@@V?$allocator@_W@2@@std@@V?$allocator@V?$basic_string@_WU?$char_traits@_W@std@@V?$allocator@_W@2@@std@@@2@@2@AA_NAAV?$list@UError@@V?$allocator@UError@@@std@@@2@@Z 64041e40 f i update.obj
 0001:00041030       ?create@Archive@@QAEXABV?$basic_string@_WU?$char_traits@_W@std@@V?$allocator@_W@2@@std@@ABV?$vector@V?$basic_string@_WU?$char_traits@_W@std@@V?$allocator@_W@2@@std@@V?$allocator@V?$basic_string@_WU?$char_traits@_W@std@@V?$allocator@_W@2@@std@@@2@@3@ABUUpdateOptions@@V?$shared_ptr@V?$list@UError@@V?$allocator@UError@@@std@@@std@@@tr1@3@@Z 64042030 f   update.obj
 0001:00041930       ?update@Archive@@QAEXABV?$basic_string@_WU?$char_traits@_W@std@@V?$allocator@_W@2@@std@@ABV?$vector@V?$basic_string@_WU?$char_traits@_W@std@@V?$allocator@_W@2@@std@@V?$allocator@V?$basic_string@_WU?$char_traits@_W@std@@V?$allocator@_W@2@@std@@@2@@3@0ABUUpdateOptions@@V?$shared_ptr@V?$list@UError@@V?$allocator@UError@@@std@@@std@@@tr1@3@@Z 64042930 f   update.obj
 0001:000421c0       ?create_dir@Archive@@QAEXABV?$basic_string@_WU?$char_traits@_W@std@@V?$allocator@_W@2@@std@@0@Z 640431c0 f   update.obj
 0001:00042ba0       ??6?$basic_ostream@_WU?$char_traits@_W@std@@@std@@QAEAAV01@I@Z 64043ba0 f i update.obj
 0001:00042d90       ??A?$map@IUFileIndexInfo@@U?$less@I@std@@V?$allocator@U?$pair@$$CBIUFileIndexInfo@@@std@@@3@@std@@QAEAAUFileIndexInfo@@ABI@Z 64043d90 f i update.obj
 0001:00042f10       ?erase@?$_Tree@V?$_Tmap_traits@IUFileIndexInfo@@U?$less@I@std@@V?$allocator@U?$pair@$$CBIUFileIndexInfo@@@std@@@3@$0A@@std@@@std@@QAEIABI@Z 64043f10 f i update.obj
 0001:00042f70       ?find@?$_Tree@V?$_Tmap_traits@IUFileIndexInfo@@U?$less@I@std@@V?$allocator@U?$pair@$$CBIUFileIndexInfo@@@std@@@3@$0A@@std@@@std@@QAE?AV?$_Tree_iterator@V?$_Tree_val@V?$_Tmap_traits@IUFileIndexInfo@@U?$less@I@std@@V?$allocator@U?$pair@$$CBIUFileIndexInfo@@@std@@@3@$0A@@std@@@std@@@2@ABI@Z 64043f70 f i update.obj
 0001:00042fd0       ??1?$shared_ptr@X@tr1@std@@QAE@XZ 64043fd0 f i plugin.obj
 0001:00042fd0       ??1?$shared_ptr@VProgressMonitor@@@tr1@std@@QAE@XZ 64043fd0 f i delete.obj
 0001:00042fd0       ??1?$shared_ptr@W4OverwriteAction@@@tr1@std@@QAE@XZ 64043fd0 f i extract.obj
 0001:00042fd0       ??1?$shared_ptr@VArchive@@@tr1@std@@QAE@XZ 64043fd0 f i plugin.obj
 0001:00042fd0       ??1?$shared_ptr@V?$set@IU?$less@I@std@@V?$allocator@I@2@@std@@@tr1@std@@QAE@XZ 64043fd0 f i extract.obj
 0001:00042fd0       ??1?$shared_ptr@_N@tr1@std@@QAE@XZ 64043fd0 f i extract.obj
 0001:00042fd0       ??1?$shared_ptr@VFileWriteCache@@@tr1@std@@QAE@XZ 64043fd0 f i extract.obj
 0001:00042fd0       ??1?$shared_ptr@V?$list@UError@@V?$allocator@UError@@@std@@@std@@@tr1@std@@QAE@XZ 64043fd0 f i plugin.obj
 0001:00042fd0       ??1?$shared_ptr@VArchiveUpdateProgress@@@tr1@std@@QAE@XZ 64043fd0 f i update.obj
 0001:00042fd0       ??1?$shared_ptr@VExtractProgress@@@tr1@std@@QAE@XZ 64043fd0 f i extract.obj
 0001:00042fd0       ??1?$shared_ptr@VArchiveFileDeleterProgress@@@tr1@std@@QAE@XZ 64043fd0 f i delete.obj
 0001:00042fd0       ??1?$shared_ptr@V?$map@IUFileIndexInfo@@U?$less@I@std@@V?$allocator@U?$pair@$$CBIUFileIndexInfo@@@std@@@3@@std@@@tr1@std@@QAE@XZ 64043fd0 f i update.obj
 0001:00043010       ?push_back@?$vector@VPropVariant@@V?$allocator@VPropVariant@@@std@@@std@@QAEX$$QAVPropVariant@@@Z 64044010 f i update.obj
 0001:00043010       ?push_back@?$vector@VPropVariant@@V?$allocator@VPropVariant@@@std@@@std@@QAEXABVPropVariant@@@Z 64044010 f i update.obj
 0001:000430c0       ??1?$vector@VPropVariant@@V?$allocator@VPropVariant@@@std@@@std@@QAE@XZ 640440c0 f i update.obj
 0001:00043100       ??$_Dest_val@V?$allocator@UArcFileInfo@@@std@@UArcFileInfo@@@std@@YAXAAV?$allocator@UArcFileInfo@@@0@PAUArcFileInfo@@@Z 64044100 f i archive.obj
 0001:00043100       ??1?$pair@$$CBIUFileIndexInfo@@@std@@QAE@XZ 64044100 f i update.obj
 0001:00043100       ??1ArcFileInfo@@QAE@XZ     64044100 f i archive.obj
 0001:00043130       ?find@?$basic_string@_WU?$char_traits@_W@std@@V?$allocator@_W@2@@std@@QBEIPB_WII@Z 64044130 f i update.obj
 0001:00043210       ?erase@?$_Tree@V?$_Tmap_traits@IUFileIndexInfo@@U?$less@I@std@@V?$allocator@U?$pair@$$CBIUFileIndexInfo@@@std@@@3@$0A@@std@@@std@@QAE?AV?$_Tree_iterator@V?$_Tree_val@V?$_Tmap_traits@IUFileIndexInfo@@U?$less@I@std@@V?$allocator@U?$pair@$$CBIUFileIndexInfo@@@std@@@3@$0A@@std@@@std@@@2@V?$_Tree_const_iterator@V?$_Tree_val@V?$_Tmap_traits@IUFileIndexInfo@@U?$less@I@std@@V?$allocator@U?$pair@$$CBIUFileIndexInfo@@@std@@@3@$0A@@std@@@std@@@2@0@Z 64044210 f i update.obj
 0001:000432e0       ?_Reserve@?$vector@VPropVariant@@V?$allocator@VPropVariant@@@std@@@std@@IAEXI@Z 640442e0 f i update.obj
 0001:00043330       ?erase@?$_Tree@V?$_Tmap_traits@IUFileIndexInfo@@U?$less@I@std@@V?$allocator@U?$pair@$$CBIUFileIndexInfo@@@std@@@3@$0A@@std@@@std@@QAE?AV?$_Tree_iterator@V?$_Tree_val@V?$_Tmap_traits@IUFileIndexInfo@@U?$less@I@std@@V?$allocator@U?$pair@$$CBIUFileIndexInfo@@@std@@@3@$0A@@std@@@std@@@2@V?$_Tree_const_iterator@V?$_Tree_val@V?$_Tmap_traits@IUFileIndexInfo@@U?$less@I@std@@V?$allocator@U?$pair@$$CBIUFileIndexInfo@@@std@@@3@$0A@@std@@@std@@@2@@Z 64044330 f i update.obj
 0001:00043630       ?_Eqrange@?$_Tree@V?$_Tmap_traits@IUFileIndexInfo@@U?$less@I@std@@V?$allocator@U?$pair@$$CBIUFileIndexInfo@@@std@@@3@$0A@@std@@@std@@IAE?AU?$pair@V?$_Tree_iterator@V?$_Tree_val@V?$_Tmap_traits@IUFileIndexInfo@@U?$less@I@std@@V?$allocator@U?$pair@$$CBIUFileIndexInfo@@@std@@@3@$0A@@std@@@std@@@std@@V12@@2@ABI@Z 64044630 f i update.obj
 0001:000436c0       ?reserve@?$vector@VPropVariant@@V?$allocator@VPropVariant@@@std@@@std@@QAEXI@Z 640446c0 f i update.obj
 0001:000437b0       ?_Erase@?$_Tree@V?$_Tmap_traits@IUFileIndexInfo@@U?$less@I@std@@V?$allocator@U?$pair@$$CBIUFileIndexInfo@@@std@@@3@$0A@@std@@@std@@IAEXPAU_Node@?$_Tree_nod@V?$_Tmap_traits@IUFileIndexInfo@@U?$less@I@std@@V?$allocator@U?$pair@$$CBIUFileIndexInfo@@@std@@@3@$0A@@std@@@2@@Z 640447b0 f i update.obj
 0001:00043820       ?_Lrotate@?$_Tree@V?$_Tmap_traits@IUFileIndexInfo@@U?$less@I@std@@V?$allocator@U?$pair@$$CBIUFileIndexInfo@@@std@@@3@$0A@@std@@@std@@IAEXPAU_Node@?$_Tree_nod@V?$_Tmap_traits@IUFileIndexInfo@@U?$less@I@std@@V?$allocator@U?$pair@$$CBIUFileIndexInfo@@@std@@@3@$0A@@std@@@2@@Z 64044820 f i update.obj
 0001:00043870       ?_Rrotate@?$_Tree@V?$_Tmap_traits@IUFileIndexInfo@@U?$less@I@std@@V?$allocator@U?$pair@$$CBIUFileIndexInfo@@@std@@@3@$0A@@std@@@std@@IAEXPAU_Node@?$_Tree_nod@V?$_Tmap_traits@IUFileIndexInfo@@U?$less@I@std@@V?$allocator@U?$pair@$$CBIUFileIndexInfo@@@std@@@3@$0A@@std@@@2@@Z 64044870 f i update.obj
 0001:000438d0       ?_Max@?$_Tree_val@V?$_Tmap_traits@IUFileIndexInfo@@U?$less@I@std@@V?$allocator@U?$pair@$$CBIUFileIndexInfo@@@std@@@3@$0A@@std@@@std@@SAPAU_Node@?$_Tree_nod@V?$_Tmap_traits@IUFileIndexInfo@@U?$less@I@std@@V?$allocator@U?$pair@$$CBIUFileIndexInfo@@@std@@@3@$0A@@std@@@2@PAU342@@Z 640448d0 f i update.obj
 0001:000438f0       ?_Min@?$_Tree_val@V?$_Tmap_traits@IUFileIndexInfo@@U?$less@I@std@@V?$allocator@U?$pair@$$CBIUFileIndexInfo@@@std@@@3@$0A@@std@@@std@@SAPAU_Node@?$_Tree_nod@V?$_Tmap_traits@IUFileIndexInfo@@U?$less@I@std@@V?$allocator@U?$pair@$$CBIUFileIndexInfo@@@std@@@3@$0A@@std@@@2@PAU342@@Z 640448f0 f i update.obj
 0001:00043910       ?allocate@?$allocator@UInfoPanelLine@@@std@@QAEPAUInfoPanelLine@@I@Z 64044910 f i plugin.obj
 0001:00043910       ?allocate@?$allocator@VPropVariant@@@std@@QAEPAVPropVariant@@I@Z 64044910 f i update.obj
 0001:00043910       ?allocate@?$allocator@V?$vector@EV?$allocator@E@std@@@std@@@std@@QAEPAV?$vector@EV?$allocator@E@std@@@2@I@Z 64044910 f i ui.obj
 0001:00043970       ??E?$_Tree_unchecked_const_iterator@V?$_Tree_val@V?$_Tmap_traits@IUFileIndexInfo@@U?$less@I@std@@V?$allocator@U?$pair@$$CBIUFileIndexInfo@@@std@@@3@$0A@@std@@@std@@U_Iterator_base0@2@@std@@QAEAAV01@XZ 64044970 f i update.obj
 0001:000439d0       ?_Insert@?$_Tree@V?$_Tmap_traits@IUFileIndexInfo@@U?$less@I@std@@V?$allocator@U?$pair@$$CBIUFileIndexInfo@@@std@@@3@$0A@@std@@@std@@QAE?AV?$_Tree_iterator@V?$_Tree_val@V?$_Tmap_traits@IUFileIndexInfo@@U?$less@I@std@@V?$allocator@U?$pair@$$CBIUFileIndexInfo@@@std@@@3@$0A@@std@@@std@@@2@V?$_Tree_const_iterator@V?$_Tree_val@V?$_Tmap_traits@IUFileIndexInfo@@U?$less@I@std@@V?$allocator@U?$pair@$$CBIUFileIndexInfo@@@std@@@3@$0A@@std@@@std@@@2@PAU_Node@?$_Tree_nod@V?$_Tmap_traits@IUFileIndexInfo@@U?$less@I@std@@V?$allocator@U?$pair@$$CBIUFileIndexInfo@@@std@@@3@$0A@@std@@@2@@Z 640449d0 f i update.obj
 0001:00043b10       ?_Linsert@?$_Tree@V?$_Tmap_traits@IUFileIndexInfo@@U?$less@I@std@@V?$allocator@U?$pair@$$CBIUFileIndexInfo@@@std@@@3@$0A@@std@@@std@@QAE?AU?$pair@V?$_Tree_iterator@V?$_Tree_val@V?$_Tmap_traits@IUFileIndexInfo@@U?$less@I@std@@V?$allocator@U?$pair@$$CBIUFileIndexInfo@@@std@@@3@$0A@@std@@@std@@@std@@_N@2@PAU_Node@?$_Tree_nod@V?$_Tmap_traits@IUFileIndexInfo@@U?$less@I@std@@V?$allocator@U?$pair@$$CBIUFileIndexInfo@@@std@@@3@$0A@@std@@@2@_N@Z 64044b10 f i update.obj
 0001:00043c00       ?_Insert@?$_Tree@V?$_Tmap_traits@IUFileIndexInfo@@U?$less@I@std@@V?$allocator@U?$pair@$$CBIUFileIndexInfo@@@std@@@3@$0A@@std@@@std@@IAE?AV?$_Tree_iterator@V?$_Tree_val@V?$_Tmap_traits@IUFileIndexInfo@@U?$less@I@std@@V?$allocator@U?$pair@$$CBIUFileIndexInfo@@@std@@@3@$0A@@std@@@std@@@2@_NPAU_Node@?$_Tree_nod@V?$_Tmap_traits@IUFileIndexInfo@@U?$less@I@std@@V?$allocator@U?$pair@$$CBIUFileIndexInfo@@@std@@@3@$0A@@std@@@2@1@Z 64044c00 f i update.obj
 0001:00043e80       ??F?$_Tree_unchecked_const_iterator@V?$_Tree_val@V?$_Tmap_traits@IUFileIndexInfo@@U?$less@I@std@@V?$allocator@U?$pair@$$CBIUFileIndexInfo@@@std@@@3@$0A@@std@@@std@@U_Iterator_base0@2@@std@@QAEAAV01@XZ 64044e80 f i update.obj
 0001:00043f00       ??$_Equal_range@PAIHHV<lambda0>@?A0x98363e99@@@std@@YA?AU?$pair@PAIPAI@0@PAI0ABHV<lambda0>@?A0x98363e99@@PAH@Z 64044f00 f i update.obj
 0001:000440d0       ??$_For_each@V?$_List_unchecked_iterator@V?$_List_val@V?$basic_string@_WU?$char_traits@_W@std@@V?$allocator@_W@2@@std@@V?$allocator@V?$basic_string@_WU?$char_traits@_W@std@@V?$allocator@_W@2@@std@@@2@@std@@@std@@V<lambda1>@?A0x98363e99@@@std@@YA?AV<lambda1>@?A0x98363e99@@V?$_List_unchecked_iterator@V?$_List_val@V?$basic_string@_WU?$char_traits@_W@std@@V?$allocator@_W@2@@std@@V?$allocator@V?$basic_string@_WU?$char_traits@_W@std@@V?$allocator@_W@2@@std@@@2@@std@@@0@0V12@@Z 640450d0 f i update.obj
 0001:000443e0       ??$_Resetp@V?$map@IUFileIndexInfo@@U?$less@I@std@@V?$allocator@U?$pair@$$CBIUFileIndexInfo@@@std@@@3@@std@@@?$shared_ptr@V?$map@IUFileIndexInfo@@U?$less@I@std@@V?$allocator@U?$pair@$$CBIUFileIndexInfo@@@std@@@3@@std@@@tr1@std@@AAEXPAV?$map@IUFileIndexInfo@@U?$less@I@std@@V?$allocator@U?$pair@$$CBIUFileIndexInfo@@@std@@@3@@2@@Z 640453e0 f i update.obj
 0001:000444a0       ??$_Resetp@VArchiveUpdateProgress@@@?$shared_ptr@VArchiveUpdateProgress@@@tr1@std@@AAEXPAVArchiveUpdateProgress@@@Z 640454a0 f i update.obj
 0001:00044560       ??$_Buynode@U?$pair@$$CBIUFileIndexInfo@@@std@@@?$_Tree_val@V?$_Tmap_traits@IUFileIndexInfo@@U?$less@I@std@@V?$allocator@U?$pair@$$CBIUFileIndexInfo@@@std@@@3@$0A@@std@@@std@@QAEPAU_Node@?$_Tree_nod@V?$_Tmap_traits@IUFileIndexInfo@@U?$less@I@std@@V?$allocator@U?$pair@$$CBIUFileIndexInfo@@@std@@@3@$0A@@std@@@1@$$QAU?$pair@$$CBIUFileIndexInfo@@@1@@Z 64045560 f i update.obj
 0001:00044660       ??$_Distance2@V?$_Tree_iterator@V?$_Tree_val@V?$_Tmap_traits@IUFileIndexInfo@@U?$less@I@std@@V?$allocator@U?$pair@$$CBIUFileIndexInfo@@@std@@@3@$0A@@std@@@std@@@std@@I@std@@YAXV?$_Tree_iterator@V?$_Tree_val@V?$_Tmap_traits@IUFileIndexInfo@@U?$less@I@std@@V?$allocator@U?$pair@$$CBIUFileIndexInfo@@@std@@@3@$0A@@std@@@std@@@0@0AAIUbidirectional_iterator_tag@0@@Z 64045660 f i update.obj
 0001:000446e0       ??_G?$map@IUFileIndexInfo@@U?$less@I@std@@V?$allocator@U?$pair@$$CBIUFileIndexInfo@@@std@@@3@@std@@QAEPAXI@Z 640456e0 f i update.obj
 0001:00044750       ?_Destroy@?$_Ref_count@V?$map@IUFileIndexInfo@@U?$less@I@std@@V?$allocator@U?$pair@$$CBIUFileIndexInfo@@@std@@@3@@std@@@tr1@std@@EAEXXZ 64045750 f i update.obj
 0001:000447c0       ?_Destroy@?$_Ref_count@VArchiveUpdateProgress@@@tr1@std@@EAEXXZ 640457c0 f i update.obj
 0001:000447c0       ?_Destroy@?$_Ref_count@VExtractProgress@@@tr1@std@@EAEXXZ 640457c0 f i extract.obj
 0001:000447c0       ?_Destroy@?$_Ref_count@VArchiveFileDeleterProgress@@@tr1@std@@EAEXXZ 640457c0 f i delete.obj
 0001:000447e0       ??_E?$_Ref_count_del@XV<lambda11>@?A0xc5e9a1c5@@@tr1@std@@UAEPAXI@Z 640457e0 f i  CIL library: CIL module
 0001:000447e0       ??_G?$_Ref_count_del@XV<lambda11>@?A0xc5e9a1c5@@@tr1@std@@UAEPAXI@Z 640457e0 f i plugin.obj
 0001:000447e0       ??_G?$_Ref_count@VArchive@@@tr1@std@@UAEPAXI@Z 640457e0 f i plugin.obj
 0001:000447e0       ??_E?$_Ref_count@VArchiveFileDeleterProgress@@@tr1@std@@UAEPAXI@Z 640457e0 f i  CIL library: CIL module
 0001:000447e0       ??_G?$_Ref_count@VExtractProgress@@@tr1@std@@UAEPAXI@Z 640457e0 f i extract.obj
 0001:000447e0       ??_E?$_Ref_count@V?$list@UError@@V?$allocator@UError@@@std@@@std@@@tr1@std@@UAEPAXI@Z 640457e0 f i  CIL library: CIL module
 0001:000447e0       ??_E?$_Ref_count@W4OverwriteAction@@@tr1@std@@UAEPAXI@Z 640457e0 f i  CIL library: CIL module
 0001:000447e0       ??_E?$_Ref_count@_N@tr1@std@@UAEPAXI@Z 640457e0 f i  CIL library: CIL module
 0001:000447e0       ??_G_Ref_count_base@tr1@std@@UAEPAXI@Z 640457e0 f i plugin.obj
 0001:000447e0       ??_E?$_Ref_count@VArchive@@@tr1@std@@UAEPAXI@Z 640457e0 f i  CIL library: CIL module
 0001:000447e0       ??_E?$_Ref_count@VArchiveUpdateProgress@@@tr1@std@@UAEPAXI@Z 640457e0 f i  CIL library: CIL module
 0001:000447e0       ??_G?$_Ref_count@V?$map@IUFileIndexInfo@@U?$less@I@std@@V?$allocator@U?$pair@$$CBIUFileIndexInfo@@@std@@@3@@std@@@tr1@std@@UAEPAXI@Z 640457e0 f i update.obj
 0001:000447e0       ??_E?$_Ref_count@VExtractProgress@@@tr1@std@@UAEPAXI@Z 640457e0 f i  CIL library: CIL module
 0001:000447e0       ??_G?$_Ref_count@_N@tr1@std@@UAEPAXI@Z 640457e0 f i extract.obj
 0001:000447e0       ??_E?$_Ref_count@VFileFilter@Far@@@tr1@std@@UAEPAXI@Z 640457e0 f i  CIL library: CIL module
 0001:000447e0       ??_E_Ref_count_base@tr1@std@@UAEPAXI@Z 640457e0 f i  CIL library: CIL module
 0001:000447e0       ??_G?$_Ref_count@V?$set@IU?$less@I@std@@V?$allocator@I@2@@std@@@tr1@std@@UAEPAXI@Z 640457e0 f i extract.obj
 0001:000447e0       ??_E?$_Ref_count@V?$map@IUFileIndexInfo@@U?$less@I@std@@V?$allocator@U?$pair@$$CBIUFileIndexInfo@@@std@@@3@@std@@@tr1@std@@UAEPAXI@Z 640457e0 f i  CIL library: CIL module
 0001:000447e0       ??_G?$_Ref_count@VArchiveFileDeleterProgress@@@tr1@std@@UAEPAXI@Z 640457e0 f i delete.obj
 0001:000447e0       ??_G?$_Ref_count@VFileFilter@Far@@@tr1@std@@UAEPAXI@Z 640457e0 f i ui.obj
 0001:000447e0       ??_E?$_Ref_count@V?$set@IU?$less@I@std@@V?$allocator@I@2@@std@@@tr1@std@@UAEPAXI@Z 640457e0 f i  CIL library: CIL module
 0001:000447e0       ??_E?$_Ref_count@VFileWriteCache@@@tr1@std@@UAEPAXI@Z 640457e0 f i  CIL library: CIL module
 0001:000447e0       ??_G?$_Ref_count@VFileWriteCache@@@tr1@std@@UAEPAXI@Z 640457e0 f i extract.obj
 0001:000447e0       ??_G?$_Ref_count@V?$list@UError@@V?$allocator@UError@@@std@@@std@@@tr1@std@@UAEPAXI@Z 640457e0 f i plugin.obj
 0001:000447e0       ??_G?$_Ref_count@W4OverwriteAction@@@tr1@std@@UAEPAXI@Z 640457e0 f i extract.obj
 0001:000447e0       ??_G?$_Ref_count@VArchiveUpdateProgress@@@tr1@std@@UAEPAXI@Z 640457e0 f i update.obj
 0001:00044800       ??$_Uninit_move@PAVPropVariant@@PAV1@V?$allocator@VPropVariant@@@std@@V1@@std@@YAPAVPropVariant@@PAV1@00AAV?$allocator@VPropVariant@@@0@0U_Nonscalar_ptr_iterator_tag@0@@Z 64045800 f i update.obj
 0001:000448a0       ??$_Lower_bound@PAIHHV<lambda0>@?A0x98363e99@@@std@@YAPAIPAI0ABHV<lambda0>@?A0x98363e99@@PAH@Z 640458a0 f i update.obj
 0001:00044970       ??$_Upper_bound@PAIHHV<lambda0>@?A0x98363e99@@@std@@YAPAIPAI0ABHV<lambda0>@?A0x98363e99@@PAH@Z 64045970 f i update.obj
 0001:00044a40       ?Release@ArchiveExtractor@@W3AGKXZ 64045a40 f i extract.obj
 0001:00044a40       ?Release@ArchiveUpdater@@W3AGKXZ 64045a40 f i update.obj
 0001:00044a40       ?Release@ArchiveTester@@W3AGKXZ 64045a40 f i test.obj
 0001:00044a50       ?Release@ArchiveExtractor@@W7AGKXZ 64045a50 f i extract.obj
 0001:00044a50       ?Release@ArchiveTester@@W7AGKXZ 64045a50 f i test.obj
 0001:00044a50       ?Release@ArchiveUpdater@@W7AGKXZ 64045a50 f i update.obj
 0001:00044a60       ??_EArchiveUpdater@@W7AEPAXI@Z 64045a60 f i update.obj
 0001:00044a70       ?AddRef@ArchiveUpdater@@W3AGKXZ 64045a70 f i update.obj
 0001:00044a70       ?AddRef@ArchiveTester@@W3AGKXZ 64045a70 f i test.obj
 0001:00044a70       ?AddRef@ArchiveExtractor@@W3AGKXZ 64045a70 f i extract.obj
 0001:00044a80       ??_ESfxUpdateStream@@WM@AEPAXI@Z 64045a80 f i update.obj
 0001:00044a80       ??_ESimpleUpdateStream@@WM@AEPAXI@Z 64045a80 f i update.obj
 0001:00044a90       ?AddRef@ArchiveExtractor@@W7AGKXZ 64045a90 f i extract.obj
 0001:00044a90       ?AddRef@ArchiveUpdater@@W7AGKXZ 64045a90 f i update.obj
 0001:00044a90       ?AddRef@ArchiveTester@@W7AGKXZ 64045a90 f i test.obj
 0001:00044aa0       ?QueryInterface@MultiVolumeUpdateStream@@WM@AGJABU_GUID@@PAPAX@Z 64045aa0 f i update.obj
 0001:00044aa0       ?QueryInterface@SfxUpdateStream@@WM@AGJABU_GUID@@PAPAX@Z 64045aa0 f i update.obj
 0001:00044aa0       ?QueryInterface@SimpleUpdateStream@@WM@AGJABU_GUID@@PAPAX@Z 64045aa0 f i update.obj
 0001:00044ab0       ?QueryInterface@ArchiveUpdater@@W3AGJABU_GUID@@PAPAX@Z 64045ab0 f i update.obj
 0001:00044ac0       ?QueryInterface@FileReadStream@@W3AGJABU_GUID@@PAPAX@Z 64045ac0 f i update.obj
 0001:00044ac0       ?QueryInterface@ArchiveOpenStream@@W3AGJABU_GUID@@PAPAX@Z 64045ac0 f i open.obj
 0001:00044ad0       ?Release@SimpleUpdateStream@@WM@AGKXZ 64045ad0 f i update.obj
 0001:00044ad0       ?Release@MultiVolumeUpdateStream@@WM@AGKXZ 64045ad0 f i update.obj
 0001:00044ad0       ?Release@SfxUpdateStream@@WM@AGKXZ 64045ad0 f i update.obj
 0001:00044ae0       ?QueryInterface@ArchiveUpdater@@W7AGJABU_GUID@@PAPAX@Z 64045ae0 f i update.obj
 0001:00044af0       ??_EMultiVolumeUpdateStream@@WM@AEPAXI@Z 64045af0 f i update.obj
 0001:00044b00       ?do_update_ui@ArchiveFileDeleterProgress@@EAEXXZ 64045b00 f i delete.obj
 0001:00045070       ??0ArchiveFileDeleterStream@@QAE@ABV?$basic_string@_WU?$char_traits@_W@std@@V?$allocator@_W@2@@std@@V?$shared_ptr@VProgressMonitor@@@tr1@2@@Z 64046070 f i delete.obj
 0001:000451c0       ?QueryInterface@ArchiveFileDeleterStream@@UAGJABU_GUID@@PAPAX@Z 640461c0 f i delete.obj
 0001:00045260       ?Release@ArchiveFileDeleter@@UAGKXZ 64046260 f i delete.obj
 0001:00045260       ?Release@ArchiveOpenStream@@UAGKXZ 64046260 f i open.obj
 0001:00045260       ?Release@CachedFileExtractStream@@UAGKXZ 64046260 f i extract.obj
 0001:00045260       ?Release@FileReadStream@@UAGKXZ 64046260 f i update.obj
 0001:00045260       ?Release@ArchiveFileDeleterStream@@UAGKXZ 64046260 f i delete.obj
 0001:00045280       ?Write@ArchiveFileDeleterStream@@UAGJPBXIPAI@Z 64046280 f i delete.obj
 0001:000453b0       ?Seek@ArchiveFileDeleterStream@@UAGJ_JIPA_K@Z 640463b0 f i delete.obj
 0001:000453b0       ?Seek@FileReadStream@@UAGJ_JIPA_K@Z 640463b0 f i update.obj
 0001:000454a0       ?SetSize@ArchiveFileDeleterStream@@UAGJ_K@Z 640464a0 f i delete.obj
 0001:000455d0       ??_GFileReadStream@@UAEPAXI@Z 640465d0 f i update.obj
 0001:000455d0       ??_EFileReadStream@@UAEPAXI@Z 640465d0 f i  CIL library: CIL module
 0001:000455d0       ??_GArchiveFileDeleterStream@@UAEPAXI@Z 640465d0 f i delete.obj
 0001:000455d0       ??_EArchiveFileDeleterStream@@UAEPAXI@Z 640465d0 f i  CIL library: CIL module
 0001:000455f0       ??1FileReadStream@@UAE@XZ  640465f0 f i update.obj
 0001:000455f0       ??1ArchiveFileDeleterStream@@UAE@XZ 640465f0 f i delete.obj
 0001:000456b0       ??0ArchiveFileDeleter@@QAE@ABV?$vector@IV?$allocator@I@std@@@std@@V?$shared_ptr@VArchiveFileDeleterProgress@@@tr1@2@@Z 640466b0 f i delete.obj
 0001:00045780       ?QueryInterface@ArchiveFileDeleter@@UAGJABU_GUID@@PAPAX@Z 64046780 f i delete.obj
 0001:00045820       ?SetTotal@ArchiveFileDeleter@@UAGJ_K@Z 64046820 f i delete.obj
 0001:000458f0       ?SetCompleted@ArchiveFileDeleter@@UAGJPB_K@Z 640468f0 f i delete.obj
 0001:000459d0       ?GetUpdateItemInfo@ArchiveFileDeleter@@UAGJIPAH0PAI@Z 640469d0 f i delete.obj
 0001:00045a30       ?GetProperty@ArchiveFileDeleter@@UAGJIKPAUtagPROPVARIANT@@@Z 64046a30 f i delete.obj
 0001:00045b10       ?GetStream@ArchiveFileDeleter@@UAGJIPAPAUISequentialInStream@@@Z 64046b10 f i delete.obj
 0001:00045b50       ??_EArchiveFileDeleter@@UAEPAXI@Z 64046b50 f i  CIL library: CIL module
 0001:00045b50       ??_GArchiveFileDeleter@@UAEPAXI@Z 64046b50 f i delete.obj
 0001:00045b70       ??1ArchiveFileDeleter@@UAE@XZ 64046b70 f i delete.obj
 0001:00045c10       ?enum_deleted_indices@Archive@@AAEXIAAV?$vector@IV?$allocator@I@std@@@std@@@Z 64046c10 f   delete.obj
 0001:00045cd0       ?delete_files@Archive@@QAEXABV?$vector@IV?$allocator@I@std@@@std@@@Z 64046cd0 f   delete.obj
 0001:000463e0       ?_Reset@?$_Ptr_base@W4OverwriteAction@@@tr1@std@@QAEXPAW4OverwriteAction@@PAV_Ref_count_base@23@_N@Z 640473e0 f i extract.obj
 0001:000463e0       ?_Reset@?$_Ptr_base@_N@tr1@std@@QAEXPA_NPAV_Ref_count_base@23@_N@Z 640473e0 f i extract.obj
 0001:000463e0       ?_Reset@?$_Ptr_base@VExtractProgress@@@tr1@std@@QAEXPAVExtractProgress@@PAV_Ref_count_base@23@_N@Z 640473e0 f i extract.obj
 0001:000463e0       ?_Reset@?$_Ptr_base@VProgressMonitor@@@tr1@std@@QAEXPAVProgressMonitor@@PAV_Ref_count_base@23@_N@Z 640473e0 f i delete.obj
 0001:000463e0       ?_Reset@?$_Ptr_base@VFileFilter@Far@@@tr1@std@@QAEXPAVFileFilter@Far@@PAV_Ref_count_base@23@_N@Z 640473e0 f i plugin.obj
 0001:000463e0       ?_Reset@?$_Ptr_base@V?$list@UError@@V?$allocator@UError@@@std@@@std@@@tr1@std@@QAEXPAV?$list@UError@@V?$allocator@UError@@@std@@@3@PAV_Ref_count_base@23@_N@Z 640473e0 f i plugin.obj
 0001:000463e0       ?_Reset@?$_Ptr_base@VArchiveUpdateProgress@@@tr1@std@@QAEXPAVArchiveUpdateProgress@@PAV_Ref_count_base@23@_N@Z 640473e0 f i update.obj
 0001:000463e0       ?_Reset@?$_Ptr_base@V?$set@IU?$less@I@std@@V?$allocator@I@2@@std@@@tr1@std@@QAEXPAV?$set@IU?$less@I@std@@V?$allocator@I@2@@3@PAV_Ref_count_base@23@_N@Z 640473e0 f i extract.obj
 0001:000463e0       ?_Reset@?$_Ptr_base@V?$map@IUFileIndexInfo@@U?$less@I@std@@V?$allocator@U?$pair@$$CBIUFileIndexInfo@@@std@@@3@@std@@@tr1@std@@QAEXPAV?$map@IUFileIndexInfo@@U?$less@I@std@@V?$allocator@U?$pair@$$CBIUFileIndexInfo@@@std@@@3@@3@PAV_Ref_count_base@23@_N@Z 640473e0 f i update.obj
 0001:000463e0       ?_Reset@?$_Ptr_base@VFileWriteCache@@@tr1@std@@QAEXPAVFileWriteCache@@PAV_Ref_count_base@23@_N@Z 640473e0 f i extract.obj
 0001:000463e0       ?_Reset@?$_Ptr_base@VArchiveFileDeleterProgress@@@tr1@std@@QAEXPAVArchiveFileDeleterProgress@@PAV_Ref_count_base@23@_N@Z 640473e0 f i delete.obj
 0001:00046450       ??$_Set_difference@PAIPAIV?$back_insert_iterator@V?$vector@IV?$allocator@I@std@@@std@@@std@@@std@@YA?AV?$back_insert_iterator@V?$vector@IV?$allocator@I@std@@@std@@@0@PAI000V10@@Z 64047450 f i delete.obj
 0001:000465c0       ??$_Resetp@VArchiveFileDeleterProgress@@@?$shared_ptr@VArchiveFileDeleterProgress@@@tr1@std@@AAEXPAVArchiveFileDeleterProgress@@@Z 640475c0 f i delete.obj
 0001:00046680       ?QueryInterface@ArchiveFileDeleterStream@@W3AGJABU_GUID@@PAPAX@Z 64047680 f i delete.obj
 0001:00046690       ??_EArchiveFileDeleter@@W3AEPAXI@Z 64047690 f i delete.obj
 0001:000466a0       ?AddRef@ArchiveOpenStream@@W3AGKXZ 640476a0 f i open.obj
 0001:000466a0       ?AddRef@CachedFileExtractStream@@W3AGKXZ 640476a0 f i extract.obj
 0001:000466a0       ?AddRef@FileReadStream@@W3AGKXZ 640476a0 f i update.obj
 0001:000466a0       ?AddRef@ArchiveFileDeleter@@W3AGKXZ 640476a0 f i delete.obj
 0001:000466a0       ?AddRef@ArchiveFileDeleterStream@@W3AGKXZ 640476a0 f i delete.obj
 0001:000466b0       ??_EArchiveFileDeleterStream@@W3AEPAXI@Z 640476b0 f i delete.obj
 0001:000466b0       ??_EFileReadStream@@W3AEPAXI@Z 640476b0 f i update.obj
 0001:000466c0       ?Release@CachedFileExtractStream@@W3AGKXZ 640476c0 f i extract.obj
 0001:000466c0       ?Release@ArchiveFileDeleter@@W3AGKXZ 640476c0 f i delete.obj
 0001:000466c0       ?Release@ArchiveOpenStream@@W3AGKXZ 640476c0 f i open.obj
 0001:000466c0       ?Release@ArchiveFileDeleterStream@@W3AGKXZ 640476c0 f i delete.obj
 0001:000466c0       ?Release@FileReadStream@@W3AGKXZ 640476c0 f i update.obj
 0001:000466d0       ?QueryInterface@ArchiveFileDeleter@@W3AGJABU_GUID@@PAPAX@Z 640476d0 f i delete.obj
 0001:000466e0       ?get_str@OptionsKey@@QAE?AV?$basic_string@_WU?$char_traits@_W@std@@V?$allocator@_W@2@@std@@PB_WABV23@@Z 640476e0 f i options.obj
 0001:000467c0       ?get_binary@OptionsKey@@QAE?AV?$vector@EV?$allocator@E@std@@@std@@PB_WABV23@@Z 640477c0 f i options.obj
 0001:00046880       ?set_binary@OptionsKey@@QAEXPB_WABV?$vector@EV?$allocator@E@std@@@std@@1@Z 64047880 f i options.obj
 0001:000468f0       ??0Options@@QAE@XZ         640478f0 f   options.obj
 0001:00046a70       ?load_sfx_options@@YAXAAVOptionsKey@@AAUSfxOptions@@@Z 64047a70 f   options.obj
 0001:000470b0       ?save_sfx_options@@YAXAAVOptionsKey@@ABUSfxOptions@@@Z 640480b0 f   options.obj
 0001:00047950       ?load@Options@@QAEXXZ      64048950 f   options.obj
 0001:000485d0       ?save@Options@@QBEXXZ      640495d0 f   options.obj
 0001:00049460       ?get_profile_key_name@@YA?AV?$basic_string@_WU?$char_traits@_W@std@@V?$allocator@_W@2@@std@@ABV12@@Z 6404a460 f   options.obj
 0001:00049540       ??0ProfileOptions@@QAE@XZ  6404a540 f   options.obj
 0001:000495d0       ??0UpdateOptions@@QAE@XZ   6404a5d0 f   options.obj
 0001:00049620       ??0SfxOptions@@QAE@XZ      6404a620 f   options.obj
 0001:00049730       ?load@UpdateProfiles@@QAEXXZ 6404a730 f   options.obj
 0001:0004a0f0       ?save@UpdateProfiles@@QBEXXZ 6404b0f0 f   options.obj
 0001:0004a320       ??R<lambda0>@?A0xc33845b5@@QBEXABUUpdateProfile@@@Z 6404b320 f i options.obj
 0001:0004a830       ?find_by_name@UpdateProfiles@@QAEIABV?$basic_string@_WU?$char_traits@_W@std@@V?$allocator@_W@2@@std@@@Z 6404b830 f   options.obj
 0001:0004aa20       ?find_by_options@UpdateProfiles@@QAEIABUUpdateOptions@@@Z 6404ba20 f   options.obj
 0001:0004aaa0       ?update@UpdateProfiles@@QAEXABV?$basic_string@_WU?$char_traits@_W@std@@V?$allocator@_W@2@@std@@ABUUpdateOptions@@@Z 6404baa0 f   options.obj
 0001:0004ad40       ?get_app_option@@YA_NIPB_WAA_N@Z 6404bd40 f   options.obj
 0001:0004ae20       ?push_back@?$vector@UUpdateProfile@@V?$allocator@UUpdateProfile@@@std@@@std@@QAEXABUUpdateProfile@@@Z 6404be20 f i options.obj
 0001:0004af30       ?_Reserve@?$vector@UUpdateProfile@@V?$allocator@UUpdateProfile@@@std@@@std@@IAEXI@Z 6404bf30 f i options.obj
 0001:0004afa0       ?reserve@?$vector@UUpdateProfile@@V?$allocator@UUpdateProfile@@@std@@@std@@QAEXI@Z 6404bfa0 f i options.obj
 0001:0004b0a0       ?allocate@?$allocator@UUpdateProfile@@@std@@QAEPAUUpdateProfile@@I@Z 6404c0a0 f i options.obj
 0001:0004b100       ??$_Sort@PAUUpdateProfile@@HV<lambda1>@?A0xc33845b5@@@std@@YAXPAUUpdateProfile@@0HV<lambda1>@?A0xc33845b5@@@Z 6404c100 f i options.obj
 0001:0004b250       ??$_Unguarded_partition@PAUUpdateProfile@@V<lambda1>@?A0xc33845b5@@@std@@YA?AU?$pair@PAUUpdateProfile@@PAU1@@0@PAUUpdateProfile@@0V<lambda1>@?A0xc33845b5@@@Z 6404c250 f i options.obj
 0001:0004b450       ??$_Uninit_move@PAUUpdateProfile@@PAU1@V?$allocator@UUpdateProfile@@@std@@U1@@std@@YAPAUUpdateProfile@@PAU1@00AAV?$allocator@UUpdateProfile@@@0@0U_Nonscalar_ptr_iterator_tag@0@@Z 6404c450 f i options.obj
 0001:0004b520       ??$_Median@PAUUpdateProfile@@V<lambda1>@?A0xc33845b5@@@std@@YAXPAUUpdateProfile@@00V<lambda1>@?A0xc33845b5@@@Z 6404c520 f i options.obj
 0001:0004b700       ??$_Make_heap@PAUUpdateProfile@@HU1@V<lambda1>@?A0xc33845b5@@@std@@YAXPAUUpdateProfile@@0V<lambda1>@?A0xc33845b5@@PAH0@Z 6404c700 f i options.obj
 0001:0004b850       ??$_Sort_heap@PAUUpdateProfile@@V<lambda1>@?A0xc33845b5@@@std@@YAXPAUUpdateProfile@@0V<lambda1>@?A0xc33845b5@@@Z 6404c850 f i options.obj
 0001:0004b8b0       ??$_Insertion_sort1@PAUUpdateProfile@@V<lambda1>@?A0xc33845b5@@U1@@std@@YAXPAUUpdateProfile@@0V<lambda1>@?A0xc33845b5@@0@Z 6404c8b0 f i options.obj
 0001:0004ba80       ??$swap@UUpdateProfile@@@std@@YAXAAUUpdateProfile@@0@Z 6404ca80 f i options.obj
 0001:0004bb80       ??$_Adjust_heap@PAUUpdateProfile@@HU1@V<lambda1>@?A0xc33845b5@@@std@@YAXPAUUpdateProfile@@HH$$QAU1@V<lambda1>@?A0xc33845b5@@@Z 6404cb80 f i options.obj
 0001:0004bc50       ??$_Push_heap@PAUUpdateProfile@@HU1@V<lambda1>@?A0xc33845b5@@@std@@YAXPAUUpdateProfile@@HH$$QAU1@V<lambda1>@?A0xc33845b5@@@Z 6404cc50 f i options.obj
 0001:0004bcf0       ??$_Pop_heap_0@PAUUpdateProfile@@U1@V<lambda1>@?A0xc33845b5@@@std@@YAXPAUUpdateProfile@@0V<lambda1>@?A0xc33845b5@@0@Z 6404ccf0 f i options.obj
 0001:0004be20       ??$_Move_backward@PAUUpdateProfile@@PAU1@@std@@YAPAUUpdateProfile@@PAU1@00U_Nonscalar_ptr_iterator_tag@0@@Z 6404ce20 f i options.obj
 0001:0004be70       ?create_state_matrix@@YAPAVStateMatrix@@ABV?$vector@V?$vector@EV?$allocator@E@std@@@std@@V?$allocator@V?$vector@EV?$allocator@E@std@@@std@@@2@@std@@@Z 6404ce70 f   msearch.obj
 0001:0004bfd0       ?msearch@@YA?AV?$vector@UStrPos@@V?$allocator@UStrPos@@@std@@@std@@PAEIABV?$vector@V?$vector@EV?$allocator@E@std@@@std@@V?$allocator@V?$vector@EV?$allocator@E@std@@@std@@@2@@2@@Z 6404cfd0 f   msearch.obj
 0001:0004c390       ?reserve@?$vector@UStrPos@@V?$allocator@UStrPos@@@std@@@std@@QAEXI@Z 6404d390 f i msearch.obj
 0001:0004c460       ??1?$auto_ptr@VStateMatrix@@@std@@QAE@XZ 6404d460 f i msearch.obj
 0001:0004c480       ??1?$vector@_NV?$allocator@_N@std@@@std@@QAE@XZ 6404d480 f i msearch.obj
 0001:0004c4b0       ??0?$vector@UStrPos@@V?$allocator@UStrPos@@@std@@@std@@QAE@ABV01@@Z 6404d4b0 f i msearch.obj
 0001:0004c570       ?_Trim@?$vector@_NV?$allocator@_N@std@@@std@@QAEXI@Z 6404d570 f i msearch.obj
 0001:0004c5f0       ??$_Sort@PAUStrPos@@H@std@@YAXPAUStrPos@@0H@Z 6404d5f0 f i msearch.obj
 0001:0004c6c0       ??$_Unguarded_partition@PAUStrPos@@@std@@YA?AU?$pair@PAUStrPos@@PAU1@@0@PAUStrPos@@0@Z 6404d6c0 f i msearch.obj
 0001:0004c880       ??$_Uninit_move@PAUStrPos@@PAU1@V?$allocator@UStrPos@@@std@@U1@@std@@YAPAUStrPos@@PAU1@00AAV?$allocator@UStrPos@@@0@0U_Nonscalar_ptr_iterator_tag@0@@Z 6404d880 f i msearch.obj
 0001:0004c8a0       ??$_Uninit_copy@V?$_Vector_const_iterator@V?$_Vector_val@UStrPos@@V?$allocator@UStrPos@@@std@@@std@@@std@@PAUStrPos@@V?$allocator@UStrPos@@@2@@std@@YAPAUStrPos@@V?$_Vector_const_iterator@V?$_Vector_val@UStrPos@@V?$allocator@UStrPos@@@std@@@std@@@0@0PAU1@AAV?$allocator@UStrPos@@@0@U_Nonscalar_ptr_iterator_tag@0@@Z 6404d8a0 f i msearch.obj
 0001:0004c8d0       ??$_Median@PAUStrPos@@@std@@YAXPAUStrPos@@00@Z 6404d8d0 f i msearch.obj
 0001:0004cb60       ??$_Make_heap@PAUStrPos@@HU1@@std@@YAXPAUStrPos@@0PAH0@Z 6404db60 f i msearch.obj
 0001:0004cc40       ??$_Sort_heap@PAUStrPos@@@std@@YAXPAUStrPos@@0@Z 6404dc40 f i msearch.obj
 0001:0004cca0       ??$_Insertion_sort1@PAUStrPos@@U1@@std@@YAXPAUStrPos@@00@Z 6404dca0 f i msearch.obj
 0001:0004cd10       ??$_Adjust_heap@PAUStrPos@@HU1@@std@@YAXPAUStrPos@@HH$$QAU1@@Z 6404dd10 f i msearch.obj
 0001:0004cda0       ?is_int@PropVariant@@QBE_NXZ 6404dda0 f i attr.obj
 0001:0004cdd0       ?uint_to_hex_str@@YA?AV?$basic_string@_WU?$char_traits@_W@std@@V?$allocator@_W@2@@std@@_KI@Z 6404ddd0 f   attr.obj
 0001:0004ce70       ?format_str_prop@@YA?AV?$basic_string@_WU?$char_traits@_W@std@@V?$allocator@_W@2@@std@@ABVPropVariant@@@Z 6404de70 f   attr.obj
 0001:0004ced0       ?format_int_prop@@YA?AV?$basic_string@_WU?$char_traits@_W@std@@V?$allocator@_W@2@@std@@ABVPropVariant@@@Z 6404ded0 f   attr.obj
 0001:0004d110       ?format_uint_prop@@YA?AV?$basic_string@_WU?$char_traits@_W@std@@V?$allocator@_W@2@@std@@ABVPropVariant@@@Z 6404e110 f   attr.obj
 0001:0004d340       ?format_size_prop@@YA?AV?$basic_string@_WU?$char_traits@_W@std@@V?$allocator@_W@2@@std@@ABVPropVariant@@@Z 6404e340 f   attr.obj
 0001:0004d600       ?format_filetime_prop@@YA?AV?$basic_string@_WU?$char_traits@_W@std@@V?$allocator@_W@2@@std@@ABVPropVariant@@@Z 6404e600 f   attr.obj
 0001:0004d7c0       ?format_crc_prop@@YA?AV?$basic_string@_WU?$char_traits@_W@std@@V?$allocator@_W@2@@std@@ABVPropVariant@@@Z 6404e7c0 f   attr.obj
 0001:0004d9b0       ?format_attrib_prop@@YA?AV?$basic_string@_WU?$char_traits@_W@std@@V?$allocator@_W@2@@std@@ABVPropVariant@@@Z 6404e9b0 f   attr.obj
 0001:0004db40       ?format_posix_attrib_prop@@YA?AV?$basic_string@_WU?$char_traits@_W@std@@V?$allocator@_W@2@@std@@ABVPropVariant@@@Z 6404eb40 f   attr.obj
 0001:0004df10       ?get_attr_list@Archive@@QAE?AV?$list@UAttr@@V?$allocator@UAttr@@@std@@@std@@I@Z 6404ef10 f   attr.obj
 0001:0004e610       ?load_arc_attr@Archive@@AAEXXZ 6404f610 f   attr.obj
 0001:0004fab0       ??R<lambda0>@?A0xf01732b4@@QBEXABV?$basic_string@_WU?$char_traits@_W@std@@V?$allocator@_W@2@@std@@@Z 64050ab0 f i attr.obj
 0001:0004fbe0       ?load_update_props@Archive@@QAEXXZ 64050be0 f   attr.obj
 0001:0004fed0       ??$?H_WU?$char_traits@_W@std@@V?$allocator@_W@1@@std@@YA?AV?$basic_string@_WU?$char_traits@_W@std@@V?$allocator@_W@2@@0@ABV10@PB_W@Z 64050ed0 f i attr.obj
 0001:0004ffc0       ??$_For_each@V?$_Tree_unchecked_const_iterator@V?$_Tree_val@V?$_Tset_traits@V?$basic_string@_WU?$char_traits@_W@std@@V?$allocator@_W@2@@std@@U?$less@V?$basic_string@_WU?$char_traits@_W@std@@V?$allocator@_W@2@@std@@@2@V?$allocator@V?$basic_string@_WU?$char_traits@_W@std@@V?$allocator@_W@2@@std@@@2@$0A@@std@@@std@@U_Iterator_base0@2@@std@@V<lambda0>@?A0xf01732b4@@@std@@YA?AV<lambda0>@?A0xf01732b4@@V?$_Tree_unchecked_const_iterator@V?$_Tree_val@V?$_Tset_traits@V?$basic_string@_WU?$char_traits@_W@std@@V?$allocator@_W@2@@std@@U?$less@V?$basic_string@_WU?$char_traits@_W@std@@V?$allocator@_W@2@@std@@@2@V?$allocator@V?$basic_string@_WU?$char_traits@_W@std@@V?$allocator@_W@2@@std@@@2@$0A@@std@@@std@@U_Iterator_base0@2@@0@0V12@@Z 64050fc0 f i attr.obj
 0001:00050050       ?do_update_ui@ArchiveTester@@EAEXXZ 64051050 f i test.obj
 0001:00050570       ??0ArchiveTester@@QAE@IV?$shared_ptr@VArchive@@@tr1@std@@@Z 64051570 f i test.obj
 0001:000506e0       ?QueryInterface@ArchiveTester@@UAGJABU_GUID@@PAPAX@Z 640516e0 f i test.obj
 0001:000506e0       ?QueryInterface@ArchiveExtractor@@UAGJABU_GUID@@PAPAX@Z 640516e0 f i extract.obj
 0001:000507b0       ?SetTotal@ArchiveTester@@UAGJ_K@Z 640517b0 f i test.obj
 0001:00050880       ?SetCompleted@ArchiveTester@@UAGJPB_K@Z 64051880 f i test.obj
 0001:00050960       ?GetStream@ArchiveTester@@UAGJIPAPAUISequentialOutStream@@H@Z 64051960 f i test.obj
 0001:00050aa0       ?SetOperationResult@ArchiveTester@@UAGJH@Z 64051aa0 f i test.obj
 0001:00050d30       ?CryptoGetTextPassword@ArchiveTester@@UAGJPAPA_W@Z 64051d30 f i test.obj
 0001:00050ef0       ??_EArchiveTester@@UAEPAXI@Z 64051ef0 f i  CIL library: CIL module
 0001:00050ef0       ??_GArchiveTester@@UAEPAXI@Z 64051ef0 f i test.obj
 0001:00050f10       ??1ArchiveTester@@UAE@XZ   64051f10 f i test.obj
 0001:00050fd0       ?prepare_test@Archive@@AAEXIAAV?$list@IV?$allocator@I@std@@@std@@@Z 64051fd0 f   test.obj
 0001:00051070       ?test@Archive@@QAEXIABV?$vector@IV?$allocator@I@std@@@std@@@Z 64052070 f   test.obj
 0001:00051410       ??_EArchiveTester@@W7AEPAXI@Z 64052410 f i test.obj
 0001:00051420       ??_EArchiveTester@@WBA@AEPAXI@Z 64052420 f i test.obj
 0001:00051430       ?QueryInterface@ArchiveExtractor@@W3AGJABU_GUID@@PAPAX@Z 64052430 f i extract.obj
 0001:00051430       ?QueryInterface@ArchiveTester@@W3AGJABU_GUID@@PAPAX@Z 64052430 f i test.obj
 0001:00051440       ?QueryInterface@ArchiveTester@@W7AGJABU_GUID@@PAPAX@Z 64052440 f i test.obj
 0001:00051440       ?QueryInterface@ArchiveExtractor@@W7AGJABU_GUID@@PAPAX@Z 64052440 f i extract.obj
 0001:00051450       ?calc_percent@@YAI_K0@Z    64052450 f   common.obj
 0001:00051510       ?get_module_version@@YA_KABV?$basic_string@_WU?$char_traits@_W@std@@V?$allocator@_W@2@@std@@@Z 64052510 f   common.obj
 0001:000515b0       ?parse_size_string@@YA_KABV?$basic_string@_WU?$char_traits@_W@std@@V?$allocator@_W@2@@std@@@Z 640525b0 f   common.obj
 0001:00051700       ?expand_macros@@YA?AV?$basic_string@_WU?$char_traits@_W@std@@V?$allocator@_W@2@@std@@ABV12@@Z 64052700 f   common.obj
 0001:00051a60       ?load_file@@YA?AV?$basic_string@_WU?$char_traits@_W@std@@V?$allocator@_W@2@@std@@ABV12@PAI@Z 64052a60 f   common.obj
 0001:00051c60       ?auto_rename@@YA?AV?$basic_string@_WU?$char_traits@_W@std@@V?$allocator@_W@2@@std@@ABV12@@Z 64052c60 f   common.obj
 0001:00051eb0       ?do_update_ui@AttachSfxModuleProgress@@EAEXXZ 64052eb0 f i sfx.obj
 0001:000520c0       ??0AttachSfxModuleProgress@@QAE@ABV?$basic_string@_WU?$char_traits@_W@std@@V?$allocator@_W@2@@std@@@Z 640530c0 f i sfx.obj
 0001:000521a0       ??1AttachSfxModuleProgress@@UAE@XZ 640531a0 f i sfx.obj
 0001:000521e0       ?generate_install_config@@YA?AV?$vector@EV?$allocator@E@std@@@std@@ABUSfxInstallConfig@@@Z 640531e0 f   sfx.obj
 0001:00052730       ?create_sfx_module@@YAXABV?$basic_string@_WU?$char_traits@_W@std@@V?$allocator@_W@2@@std@@ABUSfxOptions@@@Z 64053730 f   sfx.obj
 0001:00052be0       ?attach_sfx_module@@YAXABV?$basic_string@_WU?$char_traits@_W@std@@V?$allocator@_W@2@@std@@ABUSfxOptions@@@Z 64053be0 f   sfx.obj
 0001:000532f0       ?set_control_state@SfxOptionsDialog@@AAEXXZ 640542f0 f i sfx.obj
 0001:00053630       ?read_controls@SfxOptionsDialog@@AAE?AUSfxOptions@@XZ 64054630 f i sfx.obj
 0001:00053db0       ?write_controls@SfxOptionsDialog@@AAEXABUSfxOptions@@@Z 64054db0 f i sfx.obj
 0001:00054130       ?dialog_proc@SfxOptionsDialog@@EAEHHHPAX@Z 64055130 f i sfx.obj
 0001:000544d0       ??0SfxOptionsDialog@@QAE@AAUSfxOptions@@ABUUpdateProfiles@@@Z 640554d0 f i sfx.obj
 0001:000545d0       ?show@SfxOptionsDialog@@QAE_NXZ 640555d0 f i sfx.obj
 0001:00055840       ??1SfxProfile@@QAE@XZ      64056840 f i sfx.obj
 0001:00055840       ??$_Dest_val@V?$allocator@USfxProfile@@@std@@USfxProfile@@@std@@YAXAAV?$allocator@USfxProfile@@@0@PAUSfxProfile@@@Z 64056840 f i sfx.obj
 0001:00055870       ?sfx_options_dialog@@YA_NAAUSfxOptions@@ABUUpdateProfiles@@@Z 64056870 f   sfx.obj
 0001:000558e0       ??1SfxOptionsDialog@@QAE@XZ 640568e0 f i sfx.obj
 0001:00055950       ??1?$vector@USfxProfile@@V?$allocator@USfxProfile@@@std@@@std@@QAE@XZ 64056950 f i sfx.obj
 0001:00055990       ?push_back@?$vector@USfxProfile@@V?$allocator@USfxProfile@@@std@@@std@@QAEXABUSfxProfile@@@Z 64056990 f i sfx.obj
 0001:00055aa0       ?_Reserve@?$vector@USfxProfile@@V?$allocator@USfxProfile@@@std@@@std@@IAEXI@Z 64056aa0 f i sfx.obj
 0001:00055b10       ?reserve@?$vector@USfxProfile@@V?$allocator@USfxProfile@@@std@@@std@@QAEXI@Z 64056b10 f i sfx.obj
 0001:00055c10       ?allocate@?$allocator@USfxProfile@@@std@@QAEPAUSfxProfile@@I@Z 64056c10 f i sfx.obj
 0001:00055c70       ??$_Construct@V?$_String_iterator@DU?$char_traits@D@std@@V?$allocator@D@2@@std@@@?$vector@EV?$allocator@E@std@@@std@@QAEXV?$_String_iterator@DU?$char_traits@D@std@@V?$allocator@D@2@@1@0Uinput_iterator_tag@1@@Z 64056c70 f i sfx.obj
 0001:00055ce0       ??$_For_each@PBUUpdateProfile@@V<lambda0>@?A0x0c4375f2@@@std@@YA?AV<lambda0>@?A0x0c4375f2@@PBUUpdateProfile@@0V12@@Z 64056ce0 f i sfx.obj
 0001:00055f20       ??$_For_each@PBUSfxModule@@V<lambda1>@?A0x0c4375f2@@@std@@YA?AV<lambda1>@?A0x0c4375f2@@PBUSfxModule@@0V12@@Z 64056f20 f i sfx.obj
 0001:00055fe0       ??$_Destroy_range@V?$allocator@USfxProfile@@@std@@@std@@YAXPAUSfxProfile@@0AAV?$allocator@USfxProfile@@@0@U_Nonscalar_ptr_iterator_tag@0@@Z 64056fe0 f i sfx.obj
 0001:00056090       ??$_Uninit_move@PAUSfxProfile@@PAU1@V?$allocator@USfxProfile@@@std@@U1@@std@@YAPAUSfxProfile@@PAU1@00AAV?$allocator@USfxProfile@@@0@0U_Nonscalar_ptr_iterator_tag@0@@Z 64057090 f i sfx.obj
 0001:00056150       ??$_Insert@V?$_String_iterator@DU?$char_traits@D@std@@V?$allocator@D@2@@std@@@?$vector@EV?$allocator@E@std@@@std@@QAEXV?$_Vector_const_iterator@V?$_Vector_val@EV?$allocator@E@std@@@std@@@1@V?$_String_iterator@DU?$char_traits@D@std@@V?$allocator@D@2@@1@1Uforward_iterator_tag@1@@Z 64057150 f i sfx.obj
 0001:000562c0       ?lc@@YA?AV?$basic_string@_WU?$char_traits@_W@std@@V?$allocator@_W@2@@std@@ABV12@@Z 640572c0 f   cmdline.obj
 0001:00056420       ?parse_command@@YA?AUCommandArgs@@ABV?$basic_string@_WU?$char_traits@_W@std@@V?$allocator@_W@2@@std@@@Z 64057420 f   cmdline.obj
 0001:000566f0       ?parse_param@@YA?AUParam@@ABV?$basic_string@_WU?$char_traits@_W@std@@V?$allocator@_W@2@@std@@@Z 640576f0 f   cmdline.obj
 0001:000568c0       ?parse_bool_value@@YA_NABV?$basic_string@_WU?$char_traits@_W@std@@V?$allocator@_W@2@@std@@@Z 640578c0 f   cmdline.obj
 0001:000569b0       ?parse_tri_state_value@@YA?AW4TriState@@ABV?$basic_string@_WU?$char_traits@_W@std@@V?$allocator@_W@2@@std@@@Z 640579b0 f   cmdline.obj
 0001:00056ad0       ?parse_listfile@@YA?AV?$list@V?$basic_string@_WU?$char_traits@_W@std@@V?$allocator@_W@2@@std@@V?$allocator@V?$basic_string@_WU?$char_traits@_W@std@@V?$allocator@_W@2@@std@@@2@@std@@ABV?$basic_string@_WU?$char_traits@_W@std@@V?$allocator@_W@2@@2@@Z 64057ad0 f   cmdline.obj
 0001:00056c90       ?parse_open_command@@YA?AUOpenCommand@@ABUCommandArgs@@@Z 64057c90 f   cmdline.obj
 0001:00057380       ?parse_update_command@@YA?AUUpdateCommand@@ABUCommandArgs@@@Z 64058380 f   cmdline.obj
 0001:00058750       ??0UpdateCommand@@QAE@XZ   64059750 f i cmdline.obj
 0001:000587c0       ?parse_extract_command@@YA?AUExtractCommand@@ABUCommandArgs@@@Z 640597c0 f   cmdline.obj
 0001:00059070       ?parse_test_command@@YA?AUTestCommand@@ABUCommandArgs@@@Z 6405a070 f   cmdline.obj
 0001:00059230       ??0?$vector@V?$basic_string@_WU?$char_traits@_W@std@@V?$allocator@_W@2@@std@@V?$allocator@V?$basic_string@_WU?$char_traits@_W@std@@V?$allocator@_W@2@@std@@@2@@std@@QAE@ABV01@@Z 6405a230 f i cmdline.obj
 0001:00059310       ?erase@?$vector@V?$basic_string@_WU?$char_traits@_W@std@@V?$allocator@_W@2@@std@@V?$allocator@V?$basic_string@_WU?$char_traits@_W@std@@V?$allocator@_W@2@@std@@@2@@std@@QAE?AV?$_Vector_iterator@V?$_Vector_val@V?$basic_string@_WU?$char_traits@_W@std@@V?$allocator@_W@2@@std@@V?$allocator@V?$basic_string@_WU?$char_traits@_W@std@@V?$allocator@_W@2@@std@@@2@@std@@@2@V?$_Vector_const_iterator@V?$_Vector_val@V?$basic_string@_WU?$char_traits@_W@std@@V?$allocator@_W@2@@std@@V?$allocator@V?$basic_string@_WU?$char_traits@_W@std@@V?$allocator@_W@2@@std@@@2@@std@@@2@@Z 6405a310 f i cmdline.obj
 0001:00059380       ??$_Find@PAPB_WV?$basic_string@_WU?$char_traits@_W@std@@V?$allocator@_W@2@@std@@@std@@YAPAPB_WPAPB_W0ABV?$basic_string@_WU?$char_traits@_W@std@@V?$allocator@_W@2@@0@@Z 6405a380 f i cmdline.obj
 0001:00059440       ??$_Uninit_copy@V?$_Vector_const_iterator@V?$_Vector_val@V?$basic_string@_WU?$char_traits@_W@std@@V?$allocator@_W@2@@std@@V?$allocator@V?$basic_string@_WU?$char_traits@_W@std@@V?$allocator@_W@2@@std@@@2@@std@@@std@@PAV?$basic_string@_WU?$char_traits@_W@std@@V?$allocator@_W@2@@2@V?$allocator@V?$basic_string@_WU?$char_traits@_W@std@@V?$allocator@_W@2@@std@@@2@@std@@YAPAV?$basic_string@_WU?$char_traits@_W@std@@V?$allocator@_W@2@@0@V?$_Vector_const_iterator@V?$_Vector_val@V?$basic_string@_WU?$char_traits@_W@std@@V?$allocator@_W@2@@std@@V?$allocator@V?$basic_string@_WU?$char_traits@_W@std@@V?$allocator@_W@2@@std@@@2@@std@@@0@0PAV10@AAV?$allocator@V?$basic_string@_WU?$char_traits@_W@std@@V?$allocator@_W@2@@std@@@0@U_Nonscalar_ptr_iterator_tag@0@@Z 6405a440 f i cmdline.obj
 0001:00059500       ??0RsrcId@@QAE@PB_W@Z      6405a500 f i rsrc.obj
 0001:000595a0       ??BRsrcId@@QBEPB_WXZ       6405a5a0 f i rsrc.obj
 0001:000595c0       ?load_icon_file@@YA?AV?$list@UIconImage@@V?$allocator@UIconImage@@@std@@@std@@ABV?$basic_string@_WU?$char_traits@_W@std@@V?$allocator@_W@2@@2@@Z 6405a5c0 f   rsrc.obj
 0001:00059990       ??1IconImage@@QAE@XZ       6405a990 f i rsrc.obj
 0001:000599c0       ?load_icon_rsrc@@YA?AUIconRsrc@@PAUHINSTANCE__@@PB_WG@Z 6405a9c0 f   rsrc.obj
 0001:00059eb0       ??1IconRsrc@@QAE@XZ        6405aeb0 f i rsrc.obj
 0001:00059ef0       ??1IconImageRsrc@@QAE@XZ   6405aef0 f i rsrc.obj
 0001:00059f20       ?enum_names_proc@@YGHPAUHINSTANCE__@@PB_WPA_WJ@Z 6405af20 f   rsrc.obj
 0001:00059fe0       ?enum_rsrc_names@@YA?AV?$list@VRsrcId@@V?$allocator@VRsrcId@@@std@@@std@@PAUHINSTANCE__@@PB_W@Z 6405afe0 f   rsrc.obj
 0001:0005a060       ?enum_langs_proc@@YGHPAUHINSTANCE__@@PB_W1GJ@Z 6405b060 f   rsrc.obj
 0001:0005a100       ?enum_rsrc_langs@@YA?AV?$list@GV?$allocator@G@std@@@std@@PAUHINSTANCE__@@PB_W1@Z 6405b100 f   rsrc.obj
 0001:0005a180       ??0RsrcModule@@QAE@ABV?$basic_string@_WU?$char_traits@_W@std@@V?$allocator@_W@2@@std@@@Z 6405b180 f i rsrc.obj
 0001:0005a230       ??1RsrcModule@@QAE@XZ      6405b230 f i rsrc.obj
 0001:0005a250       ??0ResourceUpdate@@QAE@ABV?$basic_string@_WU?$char_traits@_W@std@@V?$allocator@_W@2@@std@@@Z 6405b250 f i rsrc.obj
 0001:0005a300       ??1ResourceUpdate@@QAE@XZ  6405b300 f i rsrc.obj
 0001:0005a310       ?update@ResourceUpdate@@QAEXPB_W0GPBEK@Z 6405b310 f i rsrc.obj
 0001:0005a3a0       ?finalize@ResourceUpdate@@QAEXXZ 6405b3a0 f i rsrc.obj
 0001:0005a430       ?replace_icon@@YAXABV?$basic_string@_WU?$char_traits@_W@std@@V?$allocator@_W@2@@std@@0@Z 6405b430 f   rsrc.obj
 0001:0005a8d0       ?replace_ver_info@@YAXABV?$basic_string@_WU?$char_traits@_W@std@@V?$allocator@_W@2@@std@@ABUSfxVersionInfo@@@Z 6405b8d0 f   rsrc.obj
 0001:0005b720       ??R<lambda10>@?A0xc4c5a11d@@QBEXABU?$pair@V?$basic_string@_WU?$char_traits@_W@std@@V?$allocator@_W@2@@std@@V12@@std@@@Z 6405c720 f i rsrc.obj
 0001:0005b850       ??6?$basic_ostream@_WU?$char_traits@_W@std@@@std@@QAEAAV01@G@Z 6405c850 f i rsrc.obj
 0001:0005ba40       ??1?$list@UIconImage@@V?$allocator@UIconImage@@@std@@@std@@QAE@XZ 6405ca40 f i rsrc.obj
 0001:0005ba60       ??0?$list@UIconImageRsrc@@V?$allocator@UIconImageRsrc@@@std@@@std@@QAE@ABV01@@Z 6405ca60 f i rsrc.obj
 0001:0005bb20       ?push_back@?$list@UIconImageRsrc@@V?$allocator@UIconImageRsrc@@@std@@@std@@QAEXABUIconImageRsrc@@@Z 6405cb20 f i rsrc.obj
 0001:0005bb60       ??1?$list@UCacheRecord@FileWriteCache@@V?$allocator@UCacheRecord@FileWriteCache@@@std@@@std@@QAE@XZ 6405cb60 f i extract.obj
 0001:0005bb60       ??1?$list@V?$basic_string@_WU?$char_traits@_W@std@@V?$allocator@_W@2@@std@@V?$allocator@V?$basic_string@_WU?$char_traits@_W@std@@V?$allocator@_W@2@@std@@@2@@std@@QAE@XZ 6405cb60 f i archive.obj
 0001:0005bb60       ??1?$list@UIdLang@@V?$allocator@UIdLang@@@std@@@std@@QAE@XZ 6405cb60 f i rsrc.obj
 0001:0005bb60       ??1?$list@VRsrcId@@V?$allocator@VRsrcId@@@std@@@std@@QAE@XZ 6405cb60 f i rsrc.obj
 0001:0005bb80       ??1?$list@IV?$allocator@I@std@@@std@@QAE@XZ 6405cb80 f i extract.obj
 0001:0005bb80       ??1?$list@GV?$allocator@G@std@@@std@@QAE@XZ 6405cb80 f i rsrc.obj
 0001:0005bbc0       ??1?$list@UIconRsrc@@V?$allocator@UIconRsrc@@@std@@@std@@QAE@XZ 6405cbc0 f i rsrc.obj
 0001:0005bbd0       ??A?$map@V?$basic_string@_WU?$char_traits@_W@std@@V?$allocator@_W@2@@std@@V12@U?$less@V?$basic_string@_WU?$char_traits@_W@std@@V?$allocator@_W@2@@std@@@2@V?$allocator@U?$pair@$$CBV?$basic_string@_WU?$char_traits@_W@std@@V?$allocator@_W@2@@std@@V12@@std@@@2@@std@@QAEAAV?$basic_string@_WU?$char_traits@_W@std@@V?$allocator@_W@2@@1@ABV21@@Z 6405cbd0 f i rsrc.obj
 0001:0005bd40       ?_Insert_n@?$vector@EV?$allocator@E@std@@@std@@IAEXV?$_Vector_const_iterator@V?$_Vector_val@EV?$allocator@E@std@@@std@@@2@IABE@Z 6405cd40 f i rsrc.obj
 0001:0005bef0       ??1?$_List_val@V?$basic_string@_WU?$char_traits@_W@std@@V?$allocator@_W@2@@std@@V?$allocator@V?$basic_string@_WU?$char_traits@_W@std@@V?$allocator@_W@2@@std@@@2@@std@@QAE@XZ 6405cef0 f i archive.obj
 0001:0005bef0       ??1?$_List_val@V?$vector@EV?$allocator@E@std@@@std@@V?$allocator@V?$vector@EV?$allocator@E@std@@@std@@@2@@std@@QAE@XZ 6405cef0 f i archive.obj
 0001:0005bef0       ??1?$_List_val@UIconImageRsrc@@V?$allocator@UIconImageRsrc@@@std@@@std@@QAE@XZ 6405cef0 f i rsrc.obj
 0001:0005bef0       ??1?$_List_val@UAttr@@V?$allocator@UAttr@@@std@@@std@@QAE@XZ 6405cef0 f i plugin.obj
 0001:0005bf00       ?clear@?$list@UIconImage@@V?$allocator@UIconImage@@@std@@@std@@QAEXXZ 6405cf00 f i rsrc.obj
 0001:0005bf50       ?_Buynode@?$_List_val@UIconImage@@V?$allocator@UIconImage@@@std@@@std@@QAEPAU_Node@?$_List_nod@UIconImage@@V?$allocator@UIconImage@@@std@@@2@PAU342@0ABUIconImage@@@Z 6405cf50 f i rsrc.obj
 0001:0005c040       ?clear@?$list@UIconImageRsrc@@V?$allocator@UIconImageRsrc@@@std@@@std@@QAEXXZ 6405d040 f i rsrc.obj
 0001:0005c090       ?_Buynode@?$_List_val@UIconImageRsrc@@V?$allocator@UIconImageRsrc@@@std@@@std@@QAEPAU_Node@?$_List_nod@UIconImageRsrc@@V?$allocator@UIconImageRsrc@@@std@@@2@PAU342@0ABUIconImageRsrc@@@Z 6405d090 f i rsrc.obj
 0001:0005c190       ?clear@?$list@VRsrcId@@V?$allocator@VRsrcId@@@std@@@std@@QAEXXZ 6405d190 f i rsrc.obj
 0001:0005c190       ?clear@?$list@UIdLang@@V?$allocator@UIdLang@@@std@@@std@@QAEXXZ 6405d190 f i rsrc.obj
 0001:0005c190       ?clear@?$list@V?$basic_string@_WU?$char_traits@_W@std@@V?$allocator@_W@2@@std@@V?$allocator@V?$basic_string@_WU?$char_traits@_W@std@@V?$allocator@_W@2@@std@@@2@@std@@QAEXXZ 6405d190 f i archive.obj
 0001:0005c190       ?clear@?$list@UCacheRecord@FileWriteCache@@V?$allocator@UCacheRecord@FileWriteCache@@@std@@@std@@QAEXXZ 6405d190 f i extract.obj
 0001:0005c1f0       ?_Buynode@?$_List_val@VRsrcId@@V?$allocator@VRsrcId@@@std@@@std@@QAEPAU_Node@?$_List_nod@VRsrcId@@V?$allocator@VRsrcId@@@std@@@2@PAU342@0ABVRsrcId@@@Z 6405d1f0 f i rsrc.obj
 0001:0005c2d0       ?_Buynode@?$_List_val@GV?$allocator@G@std@@@std@@QAEPAU_Node@?$_List_nod@GV?$allocator@G@std@@@2@PAU342@0ABG@Z 6405d2d0 f i rsrc.obj
 0001:0005c340       ?clear@?$list@UIconRsrc@@V?$allocator@UIconRsrc@@@std@@@std@@QAEXXZ 6405d340 f i rsrc.obj
 0001:0005c400       ??$_Buynode@UIconRsrc@@@?$_List_val@UIconRsrc@@V?$allocator@UIconRsrc@@@std@@@std@@QAEPAU_Node@?$_List_nod@UIconRsrc@@V?$allocator@UIconRsrc@@@std@@@1@PAU231@0$$QAUIconRsrc@@@Z 6405d400 f i rsrc.obj
 0001:0005c400       ?_Buynode@?$_List_val@UIconRsrc@@V?$allocator@UIconRsrc@@@std@@@std@@QAEPAU_Node@?$_List_nod@UIconRsrc@@V?$allocator@UIconRsrc@@@std@@@2@PAU342@0ABUIconRsrc@@@Z 6405d400 f i rsrc.obj
 0001:0005c500       ?_Buynode@?$_List_val@UIdLang@@V?$allocator@UIdLang@@@std@@@std@@QAEPAU_Node@?$_List_nod@UIdLang@@V?$allocator@UIdLang@@@std@@@2@PAU342@0ABUIdLang@@@Z 6405d500 f i rsrc.obj
 0001:0005c5e0       ??$_For_each@V?$_List_unchecked_const_iterator@V?$_List_val@VRsrcId@@V?$allocator@VRsrcId@@@std@@@std@@U_Iterator_base0@2@@std@@V<lambda0>@?A0xc4c5a11d@@@std@@YA?AV<lambda0>@?A0xc4c5a11d@@V?$_List_unchecked_const_iterator@V?$_List_val@VRsrcId@@V?$allocator@VRsrcId@@@std@@@std@@U_Iterator_base0@2@@0@0V12@@Z 6405d5e0 f i rsrc.obj
 0001:0005c6f0       ??$_For_each@V?$_List_unchecked_const_iterator@V?$_List_val@UIconRsrc@@V?$allocator@UIconRsrc@@@std@@@std@@U_Iterator_base0@2@@std@@V<lambda1>@?A0xc4c5a11d@@@std@@YA?AV<lambda1>@?A0xc4c5a11d@@V?$_List_unchecked_const_iterator@V?$_List_val@UIconRsrc@@V?$allocator@UIconRsrc@@@std@@@std@@U_Iterator_base0@2@@0@0V12@@Z 6405d6f0 f i rsrc.obj
 0001:0005c8a0       ??$_For_each@V?$_List_unchecked_const_iterator@V?$_List_val@UIconImage@@V?$allocator@UIconImage@@@std@@@std@@U_Iterator_base0@2@@std@@V<lambda2>@?A0xc4c5a11d@@@std@@YA?AV<lambda2>@?A0xc4c5a11d@@V?$_List_unchecked_const_iterator@V?$_List_val@UIconImage@@V?$allocator@UIconImage@@@std@@@std@@U_Iterator_base0@2@@0@0V12@@Z 6405d8a0 f i rsrc.obj
 0001:0005c9c0       ??$_For_each@V?$_List_unchecked_iterator@V?$_List_val@UIconRsrc@@V?$allocator@UIconRsrc@@@std@@@std@@@std@@V<lambda3>@?A0xc4c5a11d@@@std@@YA?AV<lambda3>@?A0xc4c5a11d@@V?$_List_unchecked_iterator@V?$_List_val@UIconRsrc@@V?$allocator@UIconRsrc@@@std@@@std@@@0@0V12@@Z 6405d9c0 f i rsrc.obj
 0001:0005ca80       ??$_For_each@V?$_List_unchecked_const_iterator@V?$_List_val@UIconRsrc@@V?$allocator@UIconRsrc@@@std@@@std@@U_Iterator_base0@2@@std@@V<lambda4>@?A0xc4c5a11d@@@std@@YA?AV<lambda4>@?A0xc4c5a11d@@V?$_List_unchecked_const_iterator@V?$_List_val@UIconRsrc@@V?$allocator@UIconRsrc@@@std@@@std@@U_Iterator_base0@2@@0@0V12@@Z 6405da80 f i rsrc.obj
 0001:0005cbd0       ??$_For_each@V?$_List_unchecked_const_iterator@V?$_List_val@GV?$allocator@G@std@@@std@@U_Iterator_base0@2@@std@@V<lambda5>@?A0xc4c5a11d@@@std@@YA?AV<lambda5>@?A0xc4c5a11d@@V?$_List_unchecked_const_iterator@V?$_List_val@GV?$allocator@G@std@@@std@@U_Iterator_base0@2@@0@0V12@@Z 6405dbd0 f i rsrc.obj
 0001:0005cd50       ??$_For_each@V?$_List_unchecked_const_iterator@V?$_List_val@UIconImageRsrc@@V?$allocator@UIconImageRsrc@@@std@@@std@@U_Iterator_base0@2@@std@@V<lambda8>@?A0xc4c5a11d@@@std@@YA?AV<lambda8>@?A0xc4c5a11d@@V?$_List_unchecked_const_iterator@V?$_List_val@UIconImageRsrc@@V?$allocator@UIconImageRsrc@@@std@@@std@@U_Iterator_base0@2@@0@0V12@@Z 6405dd50 f i rsrc.obj
 0001:0005ce20       ??$_For_each@V?$_List_unchecked_iterator@V?$_List_val@VRsrcId@@V?$allocator@VRsrcId@@@std@@@std@@@std@@V<lambda9>@?A0xc4c5a11d@@@std@@YA?AV<lambda9>@?A0xc4c5a11d@@V?$_List_unchecked_iterator@V?$_List_val@VRsrcId@@V?$allocator@VRsrcId@@@std@@@std@@@0@0V12@@Z 6405de20 f i rsrc.obj
 0001:0005cf20       ??$_For_each@V?$_Tree_unchecked_const_iterator@V?$_Tree_val@V?$_Tmap_traits@V?$basic_string@_WU?$char_traits@_W@std@@V?$allocator@_W@2@@std@@V12@U?$less@V?$basic_string@_WU?$char_traits@_W@std@@V?$allocator@_W@2@@std@@@2@V?$allocator@U?$pair@$$CBV?$basic_string@_WU?$char_traits@_W@std@@V?$allocator@_W@2@@std@@V12@@std@@@2@$0A@@std@@@std@@U_Iterator_base0@2@@std@@V<lambda10>@?A0xc4c5a11d@@@std@@YA?AV<lambda10>@?A0xc4c5a11d@@V?$_Tree_unchecked_const_iterator@V?$_Tree_val@V?$_Tmap_traits@V?$basic_string@_WU?$char_traits@_W@std@@V?$allocator@_W@2@@std@@V12@U?$less@V?$basic_string@_WU?$char_traits@_W@std@@V?$allocator@_W@2@@std@@@2@V?$allocator@U?$pair@$$CBV?$basic_string@_WU?$char_traits@_W@std@@V?$allocator@_W@2@@std@@V12@@std@@@2@$0A@@std@@@std@@U_Iterator_base0@2@@0@0V12@@Z 6405df20 f i rsrc.obj
 0001:0005d090       ??$_For_each@V?$_List_unchecked_const_iterator@V?$_List_val@UIdLang@@V?$allocator@UIdLang@@@std@@@std@@U_Iterator_base0@2@@std@@V<lambda11>@?A0xc4c5a11d@@@std@@YA?AV<lambda11>@?A0xc4c5a11d@@V?$_List_unchecked_const_iterator@V?$_List_val@UIdLang@@V?$allocator@UIdLang@@@std@@@std@@U_Iterator_base0@2@@0@0V12@@Z 6405e090 f i rsrc.obj
 0001:0005d190       ??$_For_each@V?$_List_unchecked_iterator@V?$_List_val@GV?$allocator@G@std@@@std@@@std@@V<lambda12>@?A0xc4c5a11d@@@std@@YA?AV<lambda12>@?A0xc4c5a11d@@V?$_List_unchecked_iterator@V?$_List_val@GV?$allocator@G@std@@@std@@@0@0V12@@Z 6405e190 f i rsrc.obj
 0001:0005d2c0       ??$_Insert@V?$_List_const_iterator@V?$_List_val@UIconImageRsrc@@V?$allocator@UIconImageRsrc@@@std@@@std@@@std@@@?$list@UIconImageRsrc@@V?$allocator@UIconImageRsrc@@@std@@@std@@QAEXV?$_List_const_iterator@V?$_List_val@UIconImageRsrc@@V?$allocator@UIconImageRsrc@@@std@@@std@@@1@00Uforward_iterator_tag@1@@Z 6405e2c0 f i rsrc.obj
 0001:0005d390       ??$_Buynode@U?$pair@$$CBV?$basic_string@_WU?$char_traits@_W@std@@V?$allocator@_W@2@@std@@V12@@std@@@?$_Tree_val@V?$_Tmap_traits@V?$basic_string@_WU?$char_traits@_W@std@@V?$allocator@_W@2@@std@@V12@U?$less@V?$basic_string@_WU?$char_traits@_W@std@@V?$allocator@_W@2@@std@@@2@V?$allocator@U?$pair@$$CBV?$basic_string@_WU?$char_traits@_W@std@@V?$allocator@_W@2@@std@@V12@@std@@@2@$0A@@std@@@std@@QAEPAU_Node@?$_Tree_nod@V?$_Tmap_traits@V?$basic_string@_WU?$char_traits@_W@std@@V?$allocator@_W@2@@std@@V12@U?$less@V?$basic_string@_WU?$char_traits@_W@std@@V?$allocator@_W@2@@std@@@2@V?$allocator@U?$pair@$$CBV?$basic_string@_WU?$char_traits@_W@std@@V?$allocator@_W@2@@std@@V12@@std@@@2@$0A@@std@@@1@$$QAU?$pair@$$CBV?$basic_string@_WU?$char_traits@_W@std@@V?$allocator@_W@2@@std@@V12@@1@@Z 6405e390 f i rsrc.obj
 0001:0005d490       ?erase@?$list@UIconImageRsrc@@V?$allocator@UIconImageRsrc@@@std@@@std@@QAE?AV?$_List_iterator@V?$_List_val@UIconImageRsrc@@V?$allocator@UIconImageRsrc@@@std@@@std@@@2@V?$_List_const_iterator@V?$_List_val@UIconImageRsrc@@V?$allocator@UIconImageRsrc@@@std@@@std@@@2@@Z 6405e490 f i rsrc.obj
 0001:0005d500       ?dialog_proc@Dialog@Far@@MAEHHHPAX@Z 6405e500 f i farutils.obj
 0001:0005d520       ?get_plugin_module_path@Far@@YA?AV?$basic_string@_WU?$char_traits@_W@std@@V?$allocator@_W@2@@std@@XZ 6405e520 f   farutils.obj
 0001:0005d5e0       ?get_msg@Far@@YA?AV?$basic_string@_WU?$char_traits@_W@std@@V?$allocator@_W@2@@std@@H@Z 6405e5e0 f   farutils.obj
 0001:0005d630       ?get_optimal_msg_width@Far@@YAIXZ 6405e630 f   farutils.obj
 0001:0005d670       ?message@Far@@YAHABU_GUID@@ABV?$basic_string@_WU?$char_traits@_W@std@@V?$allocator@_W@2@@std@@H_K@Z 6405e670 f   farutils.obj
 0001:0005d6b0       ?menu@Far@@YAHABU_GUID@@ABV?$basic_string@_WU?$char_traits@_W@std@@V?$allocator@_W@2@@std@@ABVMenuItems@1@PB_W@Z 6405e6b0 f   farutils.obj
 0001:0005d920       ?get_progress_bar_str@Far@@YA?AV?$basic_string@_WU?$char_traits@_W@std@@V?$allocator@_W@2@@std@@I_K0@Z 6405e920 f   farutils.obj
 0001:0005da40       ?progress_notify@Far@@YAXXZ 6405ea40 f   farutils.obj
 0001:0005da60       ?post_macro@Far@@YA_NABV?$basic_string@_WU?$char_traits@_W@std@@V?$allocator@_W@2@@std@@@Z 6405ea60 f   farutils.obj
 0001:0005dae0       ?is_real_file_panel@Far@@YA_NABUPanelInfo@@@Z 6405eae0 f   farutils.obj
 0001:0005db00       ?get_panel_dir@Far@@YA?AV?$basic_string@_WU?$char_traits@_W@std@@V?$allocator@_W@2@@std@@PAX@Z 6405eb00 f   farutils.obj
 0001:0005dce0       ?get_panel_item@Far@@YAXPAXW4FILE_CONTROL_COMMANDS@@IAAV?$Buffer@E@@@Z 6405ece0 f   farutils.obj
 0001:0005de70       ?get_panel_item@Far@@YA?AUPanelItem@1@PAXW4FILE_CONTROL_COMMANDS@@I@Z 6405ee70 f   farutils.obj
 0001:0005dfc0       ?get_current_panel_item@Far@@YA?AUPanelItem@1@PAX@Z 6405efc0 f   farutils.obj
 0001:0005dfe0       ?get_selected_panel_item@Far@@YA?AUPanelItem@1@PAXI@Z 6405efe0 f   farutils.obj
 0001:0005e000       ?error_dlg@Far@@YAXABV?$basic_string@_WU?$char_traits@_W@std@@V?$allocator@_W@2@@std@@ABUError@@@Z 6405f000 f   farutils.obj
 0001:0005e4c0       ?info_dlg@Far@@YAXABU_GUID@@ABV?$basic_string@_WU?$char_traits@_W@std@@V?$allocator@_W@2@@std@@1@Z 6405f4c0 f   farutils.obj
 0001:0005e5b0       ?input_dlg@Far@@YA_NABU_GUID@@ABV?$basic_string@_WU?$char_traits@_W@std@@V?$allocator@_W@2@@std@@1AAV34@_K@Z 6405f5b0 f   farutils.obj
 0001:0005e6c0       ?get_label_len@Dialog@Far@@IAEIABV?$basic_string@_WU?$char_traits@_W@std@@V?$allocator@_W@2@@std@@_K@Z 6405f6c0 f   farutils.obj
 0001:0005e710       ?frame@Dialog@Far@@AAEXABV?$basic_string@_WU?$char_traits@_W@std@@V?$allocator@_W@2@@std@@@Z 6405f710 f   farutils.obj
 0001:0005e800       ?internal_dialog_proc@Dialog@Far@@CGHPAXHH0@Z 6405f800 f   farutils.obj
 0001:0005e910       ?separator@Dialog@Far@@QAEIABV?$basic_string@_WU?$char_traits@_W@std@@V?$allocator@_W@2@@std@@@Z 6405f910 f   farutils.obj
 0001:0005e9f0       ?label@Dialog@Far@@QAEIABV?$basic_string@_WU?$char_traits@_W@std@@V?$allocator@_W@2@@std@@I_K@Z 6405f9f0 f   farutils.obj
 0001:0005eb10       ?edit_box@Dialog@Far@@QAEIABV?$basic_string@_WU?$char_traits@_W@std@@V?$allocator@_W@2@@std@@I_K@Z 6405fb10 f   farutils.obj
 0001:0005ec30       ?pwd_edit_box@Dialog@Far@@QAEIABV?$basic_string@_WU?$char_traits@_W@std@@V?$allocator@_W@2@@std@@I_K@Z 6405fc30 f   farutils.obj
 0001:0005ed30       ?button@Dialog@Far@@QAEIABV?$basic_string@_WU?$char_traits@_W@std@@V?$allocator@_W@2@@std@@_K@Z 6405fd30 f   farutils.obj
 0001:0005ee30       ?check_box@Dialog@Far@@QAEIABV?$basic_string@_WU?$char_traits@_W@std@@V?$allocator@_W@2@@std@@H_K@Z 6405fe30 f   farutils.obj
 0001:0005ef30       ?radio_button@Dialog@Far@@QAEIABV?$basic_string@_WU?$char_traits@_W@std@@V?$allocator@_W@2@@std@@_N_K@Z 6405ff30 f   farutils.obj
 0001:0005f040       ?combo_box@Dialog@Far@@QAEIABV?$vector@V?$basic_string@_WU?$char_traits@_W@std@@V?$allocator@_W@2@@std@@V?$allocator@V?$basic_string@_WU?$char_traits@_W@std@@V?$allocator@_W@2@@std@@@2@@std@@II_K@Z 64060040 f   farutils.obj
 0001:0005f290       ?show@Dialog@Far@@QAEHXZ   64060290 f   farutils.obj
 0001:0005f610       ?get_text@Dialog@Far@@QBE?AV?$basic_string@_WU?$char_traits@_W@std@@V?$allocator@_W@2@@std@@I@Z 64060610 f   farutils.obj
 0001:0005f6f0       ?set_text@Dialog@Far@@QAEXIABV?$basic_string@_WU?$char_traits@_W@std@@V?$allocator@_W@2@@std@@@Z 640606f0 f   farutils.obj
 0001:0005f710       ?get_check@Dialog@Far@@QBE_NI@Z 64060710 f   farutils.obj
 0001:0005f730       ?set_list_pos@Dialog@Far@@QAEXII@Z 64060730 f   farutils.obj
 0001:0005f780       ?enable@Dialog@Far@@QAEXI_N@Z 64060780 f   farutils.obj
 0001:0005f7a0       ?create@FileFilter@Far@@QAE_NPAXH@Z 640607a0 f   farutils.obj
 0001:0005f7d0       ?get_absolute_path@Far@@YA?AV?$basic_string@_WU?$char_traits@_W@std@@V?$allocator@_W@2@@std@@ABV23@@Z 640607d0 f   farutils.obj
 0001:0005f900       ?match_masks@Far@@YA_NABV?$basic_string@_WU?$char_traits@_W@std@@V?$allocator@_W@2@@std@@0@Z 64060900 f   farutils.obj
 0001:0005f930       ?panel_go_to_dir@Far@@YA_NPAXABV?$basic_string@_WU?$char_traits@_W@std@@V?$allocator@_W@2@@std@@@Z 64060930 f   farutils.obj
 0001:0005f9a0       ?panel_go_to_file@Far@@YA_NPAXABV?$basic_string@_WU?$char_traits@_W@std@@V?$allocator@_W@2@@std@@@Z 640609a0 f   farutils.obj
 0001:0005fda0       ?get_lang_id@Far@@YAKXZ    64060da0 f   farutils.obj
 0001:0005fe40       ??1Settings@Far@@QAE@XZ    64060e40 f   farutils.obj
 0001:0005fe40       ??1OptionsKey@@QAE@XZ      64060e40 f   options.obj
 0001:0005fe70       ?create@Settings@Far@@QAE_N_N@Z 64060e70 f   farutils.obj
 0001:0005ff30       ?set_dir@Settings@Far@@QAE_NABV?$basic_string@_WU?$char_traits@_W@std@@V?$allocator@_W@2@@std@@@Z 64060f30 f   farutils.obj
 0001:00060030       ?list_dir@Settings@Far@@QAE_NAAV?$vector@V?$basic_string@_WU?$char_traits@_W@std@@V?$allocator@_W@2@@std@@V?$allocator@V?$basic_string@_WU?$char_traits@_W@std@@V?$allocator@_W@2@@std@@@2@@std@@@Z 64061030 f   farutils.obj
 0001:000601a0       ?set@Settings@Far@@QAE_NPB_W_K@Z 640611a0 f   farutils.obj
 0001:00060210       ?set@Settings@Far@@QAE_NPB_WABV?$basic_string@_WU?$char_traits@_W@std@@V?$allocator@_W@2@@std@@@Z 64061210 f   farutils.obj
 0001:00060270       ?set@Settings@Far@@QAE_NPB_WPBXI@Z 64061270 f   farutils.obj
 0001:000602e0       ?get@Settings@Far@@QAE_NIPB_WAA_K@Z 640612e0 f   farutils.obj
 0001:00060350       ?get@Settings@Far@@QAE_NIPB_WAAV?$basic_string@_WU?$char_traits@_W@std@@V?$allocator@_W@2@@std@@@Z 64061350 f   farutils.obj
 0001:000603e0       ?get@Settings@Far@@QAE_NIPB_WAAV?$vector@EV?$allocator@E@std@@@std@@@Z 640613e0 f   farutils.obj
 0001:00060490       ?shrink_to_fit@?$vector@V?$basic_string@_WU?$char_traits@_W@std@@V?$allocator@_W@2@@std@@V?$allocator@V?$basic_string@_WU?$char_traits@_W@std@@V?$allocator@_W@2@@std@@@2@@std@@QAEXXZ 64061490 f i farutils.obj
 0001:00060550       ?reserve@?$vector@UFarMenuItem@@V?$allocator@UFarMenuItem@@@std@@@std@@QAEXI@Z 64061550 f i farutils.obj
 0001:00060610       ?_Reserve@?$vector@UDialogItem@Far@@V?$allocator@UDialogItem@Far@@@std@@@std@@IAEXI@Z 64061610 f i farutils.obj
 0001:00060660       ?allocate@?$allocator@UFarMenuItem@@@std@@QAEPAUFarMenuItem@@I@Z 64061660 f i farutils.obj
 0001:000606c0       ?reserve@?$vector@UDialogItem@Far@@V?$allocator@UDialogItem@Far@@@std@@@std@@QAEXI@Z 640616c0 f i farutils.obj
 0001:00060780       ?allocate@?$allocator@UDialogItem@Far@@@std@@QAEPAUDialogItem@Far@@I@Z 64061780 f i farutils.obj
 0001:000607e0       ??$_Uninit_move@PAUFarMenuItem@@PAU1@V?$allocator@UFarMenuItem@@@std@@U1@@std@@YAPAUFarMenuItem@@PAU1@00AAV?$allocator@UFarMenuItem@@@0@0U_Nonscalar_ptr_iterator_tag@0@@Z 640617e0 f i farutils.obj
 0001:00060810       ??$_Uninit_move@PAUDialogItem@Far@@PAU12@V?$allocator@UDialogItem@Far@@@std@@U12@@std@@YAPAUDialogItem@Far@@PAU12@00AAV?$allocator@UDialogItem@Far@@@0@0U_Nonscalar_ptr_iterator_tag@0@@Z 64061810 f i farutils.obj
 0001:00060840       ?long_path@@YA?AV?$basic_string@_WU?$char_traits@_W@std@@V?$allocator@_W@2@@std@@ABV12@@Z 64061840 f   pathutils.obj
 0001:000609d0       ?add_trailing_slash@@YA?AV?$basic_string@_WU?$char_traits@_W@std@@V?$allocator@_W@2@@std@@ABV12@@Z 640619d0 f   pathutils.obj
 0001:00060a30       ?locate_path_root@@YAXABV?$basic_string@_WU?$char_traits@_W@std@@V?$allocator@_W@2@@std@@AAIAA_N@Z 64061a30 f   pathutils.obj
 0001:00060b20       ?extract_file_name@@YA?AV?$basic_string@_WU?$char_traits@_W@std@@V?$allocator@_W@2@@std@@ABV12@@Z 64061b20 f   pathutils.obj
 0001:00060bb0       ?extract_file_path@@YA?AV?$basic_string@_WU?$char_traits@_W@std@@V?$allocator@_W@2@@std@@ABV12@@Z 64061bb0 f   pathutils.obj
 0001:00060cb0       ?extract_file_ext@@YA?AV?$basic_string@_WU?$char_traits@_W@std@@V?$allocator@_W@2@@std@@ABV12@@Z 64061cb0 f   pathutils.obj
 0001:00060d80       ?is_root_path@@YA_NABV?$basic_string@_WU?$char_traits@_W@std@@V?$allocator@_W@2@@std@@@Z 64061d80 f   pathutils.obj
 0001:00060dd0       ?is_absolute_path@@YA_NABV?$basic_string@_WU?$char_traits@_W@std@@V?$allocator@_W@2@@std@@@Z 64061dd0 f   pathutils.obj
 0001:00060ea0       ?remove_path_root@@YA?AV?$basic_string@_WU?$char_traits@_W@std@@V?$allocator@_W@2@@std@@ABV12@@Z 64061ea0 f   pathutils.obj
 0001:00060ef0       ?replace@?$basic_string@_WU?$char_traits@_W@std@@V?$allocator@_W@2@@std@@QAEAAV12@IIPB_WI@Z 64061ef0 f i pathutils.obj
 0001:000610c0       ?substr_match@@YA_NABV?$basic_string@_WU?$char_traits@_W@std@@V?$allocator@_W@2@@std@@IPB_W@Z 640620c0 f   strutils.obj
 0001:00061140       ?word_wrap@@YA?AV?$basic_string@_WU?$char_traits@_W@std@@V?$allocator@_W@2@@std@@ABV12@I@Z 64062140 f   strutils.obj
 0001:000612f0       ?fit_str@@YA?AV?$basic_string@_WU?$char_traits@_W@std@@V?$allocator@_W@2@@std@@ABV12@I@Z 640622f0 f   strutils.obj
 0001:000613e0       ?strip@@YA?AV?$basic_string@_WU?$char_traits@_W@std@@V?$allocator@_W@2@@std@@ABV12@@Z 640623e0 f   strutils.obj
 0001:00061400       ?int_to_str@@YA?AV?$basic_string@_WU?$char_traits@_W@std@@V?$allocator@_W@2@@std@@H@Z 64062400 f   strutils.obj
 0001:00061490       ?uint_to_str@@YA?AV?$basic_string@_WU?$char_traits@_W@std@@V?$allocator@_W@2@@std@@_K@Z 64062490 f   strutils.obj
 0001:00061550       ?widen@@YA?AV?$basic_string@_WU?$char_traits@_W@std@@V?$allocator@_W@2@@std@@ABV?$basic_string@DU?$char_traits@D@std@@V?$allocator@D@2@@2@@Z 64062550 f   strutils.obj
 0001:000615a0       ?split@@YA?AV?$list@V?$basic_string@_WU?$char_traits@_W@std@@V?$allocator@_W@2@@std@@V?$allocator@V?$basic_string@_WU?$char_traits@_W@std@@V?$allocator@_W@2@@std@@@2@@std@@ABV?$basic_string@_WU?$char_traits@_W@std@@V?$allocator@_W@2@@2@_W@Z 640625a0 f   strutils.obj
 0001:00061700       ?format_data_size@@YA?AV?$basic_string@_WU?$char_traits@_W@std@@V?$allocator@_W@2@@std@@_KQAPB_W@Z 64062700 f   strutils.obj
 0001:000619c0       ?unquote@@YA?AV?$basic_string@_WU?$char_traits@_W@std@@V?$allocator@_W@2@@std@@ABV12@@Z 640629c0 f   strutils.obj
 0001:00061a40       ?search_and_replace@@YA?AV?$basic_string@_WU?$char_traits@_W@std@@V?$allocator@_W@2@@std@@ABV12@00@Z 64062a40 f   strutils.obj
 0001:00061bb0       ?shrink_to_fit@?$basic_string@_WU?$char_traits@_W@std@@V?$allocator@_W@2@@std@@QAEXXZ 64062bb0 f i strutils.obj
 0001:00061ca0       ??$strip@_W@@YA?AV?$basic_string@_WU?$char_traits@_W@std@@V?$allocator@_W@2@@std@@ABV01@@Z 64062ca0 f i strutils.obj
 0001:00061d30       ?get_system_message@@YA?AV?$basic_string@_WU?$char_traits@_W@std@@V?$allocator@_W@2@@std@@JK@Z 64062d30 f   sysutils.obj
 0001:000620d0       ?get_console_title@@YA?AV?$basic_string@_WU?$char_traits@_W@std@@V?$allocator@_W@2@@std@@XZ 640630d0 f   sysutils.obj
 0001:00062180       ?ansi_to_unicode@@YA?AV?$basic_string@_WU?$char_traits@_W@std@@V?$allocator@_W@2@@std@@ABV?$basic_string@DU?$char_traits@D@std@@V?$allocator@D@2@@2@I@Z 64063180 f   sysutils.obj
 0001:00062300       ?unicode_to_ansi@@YA?AV?$basic_string@DU?$char_traits@D@std@@V?$allocator@D@2@@std@@ABV?$basic_string@_WU?$char_traits@_W@std@@V?$allocator@_W@2@@2@I@Z 64063300 f   sysutils.obj
 0001:00062480       ?expand_env_vars@@YA?AV?$basic_string@_WU?$char_traits@_W@std@@V?$allocator@_W@2@@std@@ABV12@@Z 64063480 f   sysutils.obj
 0001:00062610       ??1File@@QAE@XZ            64063610 f   sysutils.obj
 0001:00062650       ?open@File@@QAEXABV?$basic_string@_WU?$char_traits@_W@std@@V?$allocator@_W@2@@std@@KKKK@Z 64063650 f   sysutils.obj
 0001:00062750       ?open_nt@File@@QAE_NABV?$basic_string@_WU?$char_traits@_W@std@@V?$allocator@_W@2@@std@@KKKK@Z 64063750 f   sysutils.obj
 0001:00062840       ?size@File@@QAE_KXZ        64063840 f   sysutils.obj
 0001:00062940       ?read@File@@QAEIPAXI@Z     64063940 f   sysutils.obj
 0001:00062a40       ?write@File@@QAEIPBXI@Z    64063a40 f   sysutils.obj
 0001:00062b40       ?set_time@File@@QAEXABU_FILETIME@@00@Z 64063b40 f   sysutils.obj
 0001:00062c40       ?set_pos@File@@QAE_K_JK@Z  64063c40 f   sysutils.obj
 0001:00062d60       ?set_end@File@@QAEXXZ      64063d60 f   sysutils.obj
 0001:00062e50       ?exists@File@@SA_NABV?$basic_string@_WU?$char_traits@_W@std@@V?$allocator@_W@2@@std@@@Z 64063e50 f   sysutils.obj
 0001:00062ee0       ?set_attr@File@@SAXABV?$basic_string@_WU?$char_traits@_W@std@@V?$allocator@_W@2@@std@@K@Z 64063ee0 f   sysutils.obj
 0001:00063060       ?set_attr_nt@File@@SA_NABV?$basic_string@_WU?$char_traits@_W@std@@V?$allocator@_W@2@@std@@K@Z 64064060 f   sysutils.obj
 0001:000630f0       ?delete_file@File@@SAXABV?$basic_string@_WU?$char_traits@_W@std@@V?$allocator@_W@2@@std@@@Z 640640f0 f   sysutils.obj
 0001:000631e0       ?delete_file_nt@File@@SA_NABV?$basic_string@_WU?$char_traits@_W@std@@V?$allocator@_W@2@@std@@@Z 640641e0 f   sysutils.obj
 0001:00063270       ?create_dir@File@@SAXABV?$basic_string@_WU?$char_traits@_W@std@@V?$allocator@_W@2@@std@@@Z 64064270 f   sysutils.obj
 0001:00063360       ?create_dir_nt@File@@SA_NABV?$basic_string@_WU?$char_traits@_W@std@@V?$allocator@_W@2@@std@@@Z 64064360 f   sysutils.obj
 0001:000633f0       ?remove_dir@File@@SAXABV?$basic_string@_WU?$char_traits@_W@std@@V?$allocator@_W@2@@std@@@Z 640643f0 f   sysutils.obj
 0001:000634e0       ?remove_dir_nt@File@@SA_NABV?$basic_string@_WU?$char_traits@_W@std@@V?$allocator@_W@2@@std@@@Z 640644e0 f   sysutils.obj
 0001:00063570       ?move_file@File@@SAXABV?$basic_string@_WU?$char_traits@_W@std@@V?$allocator@_W@2@@std@@0K@Z 64064570 f   sysutils.obj
 0001:00063660       ?move_file_nt@File@@SA_NABV?$basic_string@_WU?$char_traits@_W@std@@V?$allocator@_W@2@@std@@0K@Z 64064660 f   sysutils.obj
 0001:00063740       ?get_find_data@File@@SA?AUFindData@@ABV?$basic_string@_WU?$char_traits@_W@std@@V?$allocator@_W@2@@std@@@Z 64064740 f   sysutils.obj
 0001:00063840       ?get_find_data_nt@File@@SA_NABV?$basic_string@_WU?$char_traits@_W@std@@V?$allocator@_W@2@@std@@AAUFindData@@@Z 64064840 f   sysutils.obj
 0001:000638d0       ??1Key@@QAE@XZ             640648d0 f   sysutils.obj
 0001:000638f0       ?query_str_nt@Key@@QAE_NAAV?$basic_string@_WU?$char_traits@_W@std@@V?$allocator@_W@2@@std@@PB_W@Z 640648f0 f   sysutils.obj
 0001:000639b0       ??1FileEnum@@QAE@XZ        640649b0 f   sysutils.obj
 0001:000639b0       ??1DirList@@QAE@XZ         640649b0 f   update.obj
 0001:000639f0       ?next@FileEnum@@QAE_NXZ    640649f0 f   sysutils.obj
 0001:00063af0       ?next_nt@FileEnum@@QAE_NAA_N@Z 64064af0 f   sysutils.obj
 0001:00063bd0       ??0DirList@@QAE@ABV?$basic_string@_WU?$char_traits@_W@std@@V?$allocator@_W@2@@std@@@Z 64064bd0 f   sysutils.obj
 0001:00063c80       ?get_temp_path@@YA?AV?$basic_string@_WU?$char_traits@_W@std@@V?$allocator@_W@2@@std@@XZ 64064c80 f   sysutils.obj
 0001:00063e80       ??0TempFile@@QAE@XZ        64064e80 f   sysutils.obj
 0001:00064020       ??1TempFile@@QAE@XZ        64065020 f   sysutils.obj
 0001:00064060       ?format_file_time@@YA?AV?$basic_string@_WU?$char_traits@_W@std@@V?$allocator@_W@2@@std@@ABU_FILETIME@@@Z 64065060 f   sysutils.obj
 0001:000643a0       ?upcase@@YA?AV?$basic_string@_WU?$char_traits@_W@std@@V?$allocator@_W@2@@std@@ABV12@@Z 640653a0 f   sysutils.obj
 0001:00064470       ?search_path@@YA?AV?$basic_string@_WU?$char_traits@_W@std@@V?$allocator@_W@2@@std@@ABV12@@Z 64065470 f   sysutils.obj
 0001:000646f0       ??6?$basic_ostream@_WU?$char_traits@_W@std@@@std@@QAEAAV01@J@Z 640656f0 f i sysutils.obj
 0001:000648f0       _EncodePointerWrapper@4    640658f0 f   vc_crt_fix_impl.obj
 0001:00064900       _DecodePointerWrapper@4    64065900 f   vc_crt_fix_impl.obj
 0001:00064950       _GetModuleHandleExWWrapper@12 64065950 f   vc_crt_fix_impl.obj
 0001:00064aa0       ??1out_of_range@std@@UAE@XZ 64065aa0 f i libcpmt:xthrow.obj
 0001:00064aa0       ??1length_error@std@@UAE@XZ 64065aa0 f i libcpmt:xthrow.obj
 0001:00064aa5       ??0logic_error@std@@QAE@ABV01@@Z 64065aa5 f i libcpmt:xthrow.obj
 0001:00064ac2       ?_Xlength_error@std@@YAXPBD@Z 64065ac2 f   libcpmt:xthrow.obj
 0001:00064af2       ??0length_error@std@@QAE@ABV01@@Z 64065af2 f i libcpmt:xthrow.obj
 0001:00064b0f       ?_Xout_of_range@std@@YAXPBD@Z 64065b0f f   libcpmt:xthrow.obj
 0001:00064b3f       ??0out_of_range@std@@QAE@ABV01@@Z 64065b3f f i libcpmt:xthrow.obj
 0001:00064b5c       ??_Glength_error@std@@UAEPAXI@Z 64065b5c f i libcpmt:xthrow.obj
 0001:00064b5c       ??_Glogic_error@std@@UAEPAXI@Z 64065b5c f i libcpmt:xthrow.obj
 0001:00064b5c       ??_Elength_error@std@@UAEPAXI@Z 64065b5c f i libcpmt:xthrow.obj
 0001:00064b5c       ??_Eout_of_range@std@@UAEPAXI@Z 64065b5c f i libcpmt:xthrow.obj
 0001:00064b5c       ??_Gout_of_range@std@@UAEPAXI@Z 64065b5c f i libcpmt:xthrow.obj
 0001:00064b5c       ??_Elogic_error@std@@UAEPAXI@Z 64065b5c f i libcpmt:xthrow.obj
 0001:00064b7d       ??_U@YAPAXI@Z              64065b7d f   libcpmt:newaop.obj
 0001:00064b88       ?_Callfns@ios_base@std@@AAEXW4event@12@@Z 64065b88 f i libcpmt:ios.obj
 0001:00064baf       ?_Tidy@ios_base@std@@AAEXXZ 64065baf f i libcpmt:ios.obj
 0001:00064bf3       ?_Ios_base_dtor@ios_base@std@@CAXPAV12@@Z 64065bf3 f   libcpmt:ios.obj
 0001:00064c31       ??8error_condition@std@@QBE_NABV01@@Z 64065c31 f i libcpmt:syserror.obj
 0001:00064c52       ?default_error_condition@_System_error_category@std@@UBE?AVerror_condition@2@H@Z 64065c52 f i libcpmt:syserror.obj
 0001:00064c52       ?default_error_condition@error_category@std@@UBE?AVerror_condition@2@H@Z 64065c52 f i libcpmt:syserror.obj
 0001:00064c66       ?equivalent@error_category@std@@UBE_NHABVerror_condition@2@@Z 64065c66 f i libcpmt:syserror.obj
 0001:00064c87       ?equivalent@error_category@std@@UBE_NABVerror_code@2@H@Z 64065c87 f i libcpmt:syserror.obj
 0001:00064ca6       ?name@_Generic_error_category@std@@UBEPBDXZ 64065ca6 f i libcpmt:syserror.obj
 0001:00064ca6       ?name@_Iostream_error_category@std@@UBEPBDXZ 64065ca6 f i libcpmt:syserror.obj
 0001:00064caa       ?name@_System_error_category@std@@UBEPBDXZ 64065caa f i libcpmt:syserror.obj
 0001:00064caa       ?length@DNameStatusNode@@UBEHXZ 64065caa f i LIBCMT:undname.obj
 0001:00064caa       ?length@pcharNode@@UBEHXZ  64065caa f i LIBCMT:undname.obj
 0001:00064cae       ?iostream_category@std@@YAABVerror_category@1@XZ 64065cae f   libcpmt:syserror.obj
 0001:00064cb4       ??_G_Generic_error_category@std@@UAEPAXI@Z 64065cb4 f i libcpmt:syserror.obj
 0001:00064cb4       ??_G_System_error_category@std@@UAEPAXI@Z 64065cb4 f i libcpmt:syserror.obj
 0001:00064cb4       ??_G_Iostream_error_category@std@@UAEPAXI@Z 64065cb4 f i libcpmt:syserror.obj
 0001:00064cb4       ??_Eerror_category@std@@UAEPAXI@Z 64065cb4 f i libcpmt:syserror.obj
 0001:00064cb4       ??_E_Iostream_error_category@std@@UAEPAXI@Z 64065cb4 f i libcpmt:syserror.obj
 0001:00064cb4       ??_E_Generic_error_category@std@@UAEPAXI@Z 64065cb4 f i libcpmt:syserror.obj
 0001:00064cb4       ??_E_System_error_category@std@@UAEPAXI@Z 64065cb4 f i libcpmt:syserror.obj
 0001:00064cb4       ??_Gerror_category@std@@UAEPAXI@Z 64065cb4 f i libcpmt:syserror.obj
 0001:00064cd6       ?message@_Generic_error_category@std@@UBE?AV?$basic_string@DU?$char_traits@D@std@@V?$allocator@D@2@@2@H@Z 64065cd6 f i libcpmt:syserror.obj
 0001:00064cf9       ?message@_Iostream_error_category@std@@UBE?AV?$basic_string@DU?$char_traits@D@std@@V?$allocator@D@2@@2@H@Z 64065cf9 f i libcpmt:syserror.obj
 0001:00064d29       ??0_Mutex@std@@QAE@XZ      64065d29 f   libcpmt:xmutex.obj
 0001:00064d43       ??1_Mutex@std@@QAE@XZ      64065d43 f   libcpmt:xmutex.obj
 0001:00064d5a       ?_Lock@_Mutex@std@@QAEXXZ  64065d5a f   libcpmt:xmutex.obj
 0001:00064d63       ?_Unlock@_Mutex@std@@QAEXXZ 64065d63 f   libcpmt:xmutex.obj
 0001:00064d6c       ?uncaught_exception@std@@YA_NXZ 64065d6c f   libcpmt:uncaught.obj
 0001:00064d71       ??0_Init_locks@std@@QAE@XZ 64065d71 f   libcpmt:xlock.obj
 0001:00064da2       ??1_Init_locks@std@@QAE@XZ 64065da2 f   libcpmt:xlock.obj
 0001:00064dcb       ??0_Lockit@std@@QAE@H@Z    64065dcb f   libcpmt:xlock.obj
 0001:00064df3       ??1_Lockit@std@@QAE@XZ     64065df3 f   libcpmt:xlock.obj
 0001:00064e0a       ??1_Fac_node@std@@QAE@XZ   64065e0a f i libcpmt:locale0.obj
 0001:00064e1f       ?_Facet_Register@facet@locale@std@@CAXPAV123@@Z 64065e1f f   libcpmt:locale0.obj
 0001:00064e49       __Deletegloballocale       64065e49 f   libcpmt:locale0.obj
 0001:00064e96       ?_Getgloballocale@locale@std@@CAPAV_Locimp@12@XZ 64065e96 f   libcpmt:locale0.obj
 0001:00064e9c       ?_Setgloballocale@locale@std@@CAXPAX@Z 64065e9c f   libcpmt:locale0.obj
 0001:00064ec6       ?_Locimp_dtor@_Locimp@locale@std@@CAXPAV123@@Z 64065ec6 f   libcpmt:locale0.obj
 0001:00064f26       ??1_Fac_tidy_reg_t@std@@QAE@XZ 64065f26 f i libcpmt:locale0.obj
 0001:00064f74       ?_Locinfo_dtor@_Locinfo@std@@SAXPAV12@@Z 64065f74 f   libcpmt:locale0.obj
 0001:00064f8f       ??4?$_Yarn@D@std@@QAEAAV01@PBD@Z 64065f8f f i libcpmt:locale0.obj
 0001:00064fe7       ?_Locinfo_ctor@_Locinfo@std@@SAXPAV12@PBD@Z 64065fe7 f   libcpmt:locale0.obj
 0001:00065034       ??0_Locimp@locale@std@@AAE@_N@Z 64066034 f i libcpmt:locale0.obj
 0001:00065073       ??1_Locimp@locale@std@@MAE@XZ 64066073 f i libcpmt:locale0.obj
 0001:000650b6       ??_E_Locimp@locale@std@@MAEPAXI@Z 640660b6 f i libcpmt:locale0.obj
 0001:000650b6       ??_G_Locimp@locale@std@@MAEPAXI@Z 640660b6 f i libcpmt:locale0.obj
 0001:000650d7       ?_Init@locale@std@@CAPAV_Locimp@12@XZ 640660d7 f   libcpmt:locale0.obj
 0001:000651a8       __GetLocaleForCP           640661a8 f   libcpmt:xmbtowc.obj
 0001:00065296       __Mbrtowc                  64066296 f   libcpmt:xmbtowc.obj
 0001:00065409       __Wcrtomb                  64066409 f   libcpmt:xwctomb.obj
 0001:00065490       __Getcvt                   64066490 f   libcpmt:xwctomb.obj
 0001:000654a6       __Getctype                 640664a6 f   libcpmt:_tolower.obj
 0001:00065506       __Towupper                 64066506 f   libcpmt:xtowupper.obj
 0001:0006556e       __Towlower                 6406656e f   libcpmt:xtowlower.obj
 0001:000655d4       __Getwctype                640665d4 f   libcpmt:xgetwctype.obj
 0001:000655f8       __Getwctypes               640665f8 f   libcpmt:xgetwctype.obj
 0001:0006562f       ?setw@std@@YA?AU?$_Smanip@_J@1@_J@Z 6406662f f   libcpmt:iomanip.obj
 0001:0006564b       __Mtxinit                  6406664b f   libcpmt:xmtx.obj
 0001:0006565b       __Mtxdst                   6406665b f   libcpmt:xmtx.obj
 0001:0006566b       __Mtxlock                  6406666b f   libcpmt:xmtx.obj
 0001:0006567b       __Mtxunlock                6406667b f   libcpmt:xmtx.obj
 0001:0006568b       ?_Atexit@@YAXP6AXXZ@Z      6406668b f   libcpmt:iosptrs.obj
 0001:000656bd       ??1_Init_atexit@@QAE@XZ    640666bd f i libcpmt:iosptrs.obj
 0001:000656e8       @__security_check_cookie@4 640666e8 f   LIBCMT:secchk.obj
 0001:000656f7       ??0exception@std@@QAE@XZ   640666f7 f   LIBCMT:stdexcpt.obj
 0001:00065708       ??0exception@std@@QAE@ABQBDH@Z 64066708 f   LIBCMT:stdexcpt.obj
 0001:00065725       ?what@exception@std@@UBEPBDXZ 64066725 f   LIBCMT:stdexcpt.obj
 0001:00065732       ?_Copy_str@exception@std@@AAEXPBD@Z 64066732 f   LIBCMT:stdexcpt.obj
 0001:00065772       ?_Tidy@exception@std@@AAEXXZ 64066772 f   LIBCMT:stdexcpt.obj
 0001:00065790       ??0exception@std@@QAE@ABQBD@Z 64066790 f   LIBCMT:stdexcpt.obj
 0001:000657b7       ??4exception@std@@QAEAAV01@ABV01@@Z 640667b7 f   LIBCMT:stdexcpt.obj
 0001:000657ec       ??0bad_cast@std@@QAE@PBD@Z 640667ec f   LIBCMT:stdexcpt.obj
 0001:0006580a       ??0bad_typeid@std@@QAE@PBD@Z 6406680a f   LIBCMT:stdexcpt.obj
 0001:00065828       ??0__non_rtti_object@std@@QAE@PBD@Z 64066828 f   LIBCMT:stdexcpt.obj
 0001:00065845       ??1bad_cast@std@@UAE@XZ    64066845 f   LIBCMT:stdexcpt.obj
 0001:00065845       ??1__non_rtti_object@std@@UAE@XZ 64066845 f   LIBCMT:stdexcpt.obj
 0001:00065845       ??1bad_typeid@std@@UAE@XZ  64066845 f   LIBCMT:stdexcpt.obj
 0001:00065845       ??1exception@std@@UAE@XZ   64066845 f   LIBCMT:stdexcpt.obj
 0001:00065850       ??_E__non_rtti_object@std@@UAEPAXI@Z 64066850 f i LIBCMT:stdexcpt.obj
 0001:00065850       ??_Ebad_typeid@std@@UAEPAXI@Z 64066850 f i LIBCMT:stdexcpt.obj
 0001:00065850       ??_Eexception@std@@UAEPAXI@Z 64066850 f i LIBCMT:stdexcpt.obj
 0001:00065850       ??_Gexception@std@@UAEPAXI@Z 64066850 f i LIBCMT:stdexcpt.obj
 0001:00065850       ??_Gbad_typeid@std@@UAEPAXI@Z 64066850 f i LIBCMT:stdexcpt.obj
 0001:00065850       ??_Ebad_cast@std@@UAEPAXI@Z 64066850 f i LIBCMT:stdexcpt.obj
 0001:00065850       ??_G__non_rtti_object@std@@UAEPAXI@Z 64066850 f i LIBCMT:stdexcpt.obj
 0001:00065850       ??_Gbad_cast@std@@UAEPAXI@Z 64066850 f i LIBCMT:stdexcpt.obj
 0001:00065877       ??0exception@std@@QAE@ABV01@@Z 64066877 f   LIBCMT:stdexcpt.obj
 0001:0006589c       ??0bad_cast@std@@QAE@ABV01@@Z 6406689c f   LIBCMT:stdexcpt.obj
 0001:000658b9       ??0bad_typeid@std@@QAE@ABV01@@Z 640668b9 f   LIBCMT:stdexcpt.obj
 0001:000658d6       ??0__non_rtti_object@std@@QAE@ABV01@@Z 640668d6 f   LIBCMT:stdexcpt.obj
 0001:000658f3       ??3@YAXPAX@Z               640668f3 f   LIBCMT:delete.obj
 0001:000658fe       ?name@type_info@@QBEPBDPAU__type_info_node@@@Z 640668fe f   LIBCMT:typinfo.obj
 0001:00065912       ??1type_info@@UAE@XZ       64066912 f   LIBCMT:typinfo.obj
 0001:00065922       ??_Gtype_info@@UAEPAXI@Z   64066922 f i LIBCMT:typinfo.obj
 0001:00065922       ??_Etype_info@@UAEPAXI@Z   64066922 f i LIBCMT:typinfo.obj
 0001:00065943       ??8type_info@@QBE_NABV0@@Z 64066943 f   LIBCMT:typinfo.obj
 0001:00065963       ??2@YAPAXI@Z               64066963 f   LIBCMT:new.obj
 0001:000659f0       _memmove                   640669f0 f   LIBCMT:memmove.obj
 0001:00065e07       ___onexitinit              64066e07 f   LIBCMT:onexit.obj
 0001:00065e38       __onexit                   64066e38 f   LIBCMT:onexit.obj
 0001:00065e74       _atexit                    64066e74 f   LIBCMT:onexit.obj
 0001:00065e8b       ??_V@YAXPAX@Z              64066e8b f   LIBCMT:delete2.obj
 0001:00065e96       ___RTtypeid                64066e96 f   LIBCMT:rtti.obj
 0001:00065f13       __purecall                 64066f13 f   LIBCMT:purevirt.obj
 0001:00065f3d       ??0_LocaleUpdate@@QAE@PAUlocaleinfo_struct@@@Z 64066f3d f i LIBCMT:wcsicmp.obj
 0001:00065fc4       __wcsicmp_l                64066fc4 f   LIBCMT:wcsicmp.obj
 0001:000660c7       __wcsicmp                  640670c7 f   LIBCMT:wcsicmp.obj
 0001:00066152       _sprintf_s                 64067152 f   LIBCMT:sprintf.obj
 0001:00066170       _localeconv                64067170 f   LIBCMT:lconv.obj
 0001:000661a0       _memchr                    640671a0 f   LIBCMT:memchr.obj
 0001:00066250       _strcspn                   64067250 f   LIBCMT:strcspn.obj
 0001:00066296       _memmove_s                 64067296 f   LIBCMT:memmove_s.obj
 0001:000662e9       _free                      640672e9 f   LIBCMT:free.obj
 0001:00066402       __itow_s                   64067402 f   LIBCMT:xtows.obj
 0001:0006652b       __i64tow_s                 6406752b f   LIBCMT:xtows.obj
 0001:00066560       __ui64tow_s                64067560 f   LIBCMT:xtows.obj
 0001:0006657f       __tolower_l                6406757f f   LIBCMT:tolower.obj
 0001:00066694       _tolower                   64067694 f   LIBCMT:tolower.obj
 0001:000666c0       _atol                      640676c0 f   LIBCMT:atox.obj
 0001:000666d6       __wtol                     640676d6 f   LIBCMT:wtox.obj
 0001:000666ec       __wtoi                     640676ec f   LIBCMT:wtox.obj
 0001:000666f7       __heap_init                640676f7 f   LIBCMT:heapinit.obj
 0001:00066715       __heap_term                64067715 f   LIBCMT:heapinit.obj
 0001:00066729       __get_heap_handle          64067729 f   LIBCMT:heapinit.obj
 0001:0006672f       __CRT_INIT@12              6406772f f   LIBCMT:dllcrt0.obj
 0001:00066989       __DllMainCRTStartup@12     64067989 f   LIBCMT:dllcrt0.obj
 0001:000669ac       __CxxThrowException@8      640679ac f   LIBCMT:throw.obj
 0001:00066a00       _strlen                    64067a00 f   LIBCMT:strlen.obj
 0001:00066a90       _memcpy                    64067a90 f   LIBCMT:memcpy.obj
 0001:00066df1       ?_JumpToContinuation@@YGXPAXPAUEHRegistrationNode@@@Z 64067df1 f   LIBCMT:_trnsctrl_.obj
 0001:00066e23       ?_CallMemberFunction0@@YGXPAX0@Z 64067e23 f   LIBCMT:_trnsctrl_.obj
 0001:00066e23       ?_CallMemberFunction1@@YGXPAX00@Z 64067e23 f   LIBCMT:_trnsctrl_.obj
 0001:00066e23       ?_CallMemberFunction2@@YGXPAX00H@Z 64067e23 f   LIBCMT:_trnsctrl_.obj
 0001:00066e2a       ?_UnwindNestedFrames@@YGXPAUEHRegistrationNode@@PAUEHExceptionRecord@@@Z 64067e2a f   LIBCMT:_trnsctrl_.obj
 0001:00066e7e       ___CxxFrameHandler3        64067e7e f   LIBCMT:_trnsctrl_.obj
 0001:00066ee7       ?_CallSETranslator@@YAHPAUEHExceptionRecord@@PAUEHRegistrationNode@@PAX2PBU_s_FuncInfo@@H1@Z 64067ee7 f   LIBCMT:_trnsctrl_.obj
 0001:0006705d       ?_GetRangeOfTrysToCheck@@YAPBU_s_TryBlockMapEntry@@PBU_s_FuncInfo@@HHPAI1@Z 6406805d f   LIBCMT:_trnsctrl_.obj
 0001:000670d0       __CreateFrameInfo          640680d0 f   LIBCMT:_trnsctrl_.obj
 0001:000670fc       __IsExceptionObjectToBeDestroyed 640680fc f   LIBCMT:_trnsctrl_.obj
 0001:00067123       __FindAndUnlinkFrame       64068123 f   LIBCMT:_trnsctrl_.obj
 0001:00067175       ?_CallCatchBlock2@@YAPAXPAUEHRegistrationNode@@PBU_s_FuncInfo@@PAXHK@Z 64068175 f   LIBCMT:_trnsctrl_.obj
 0001:000671d5       __EH_prolog3               640681d5 f   LIBCMT:ehprolg3.obj
 0001:00067208       __EH_prolog3_catch         64068208 f   LIBCMT:ehprolg3.obj
 0001:0006723e       __EH_epilog3               6406823e f   LIBCMT:ehprolg3.obj
 0001:00067252       __get_sys_err_msg          64068252 f i LIBCMT:strerror.obj
 0001:0006727a       _strerror                  6406827a f   LIBCMT:strerror.obj
 0001:000672e4       ??1bad_exception@std@@UAE@XZ 640682e4 f i LIBCMT:frame.obj
 0001:000672ef       ??_Ebad_exception@std@@UAEPAXI@Z 640682ef f i LIBCMT:frame.obj
 0001:000672ef       ??_Gbad_exception@std@@UAEPAXI@Z 640682ef f i LIBCMT:frame.obj
 0001:00067316       ___TypeMatch               64068316 f   LIBCMT:frame.obj
 0001:00067375       ___FrameUnwindFilter       64068375 f   LIBCMT:frame.obj
 0001:000673c4       ___FrameUnwindToState      640683c4 f   LIBCMT:frame.obj
 0001:000674e5       ___DestructExceptionObject 640684e5 f   LIBCMT:frame.obj
 0001:0006753a       ___AdjustPointer           6406853a f   LIBCMT:frame.obj
 0001:00067563       ?__uncaught_exception@@YA_NXZ 64068563 f   LIBCMT:frame.obj
 0001:000677d4       ___BuildCatchObjectHelper  640687d4 f   LIBCMT:frame.obj
 0001:00067953       ___BuildCatchObject        64068953 f   LIBCMT:frame.obj
 0001:00067ecf       ??0bad_exception@std@@QAE@ABV01@@Z 64068ecf f i LIBCMT:frame.obj
 0001:00067eec       ___InternalCxxFrameHandler 64068eec f   LIBCMT:frame.obj
 0001:00067ff8       __free_locale              64068ff8 f   LIBCMT:setlocal.obj
 0001:000680ba       ___init_dummy              640690ba f   LIBCMT:setlocal.obj
 0001:000680ba       ___init_collate            640690ba f   LIBCMT:initcoll.obj
 0001:000680bd       __strcats                  640690bd f   LIBCMT:setlocal.obj
 0001:000680fe       ___lc_strtolc              640690fe f   LIBCMT:setlocal.obj
 0001:0006821d       ___lc_lctostr              6406921d f   LIBCMT:setlocal.obj
 0001:000683ed       __expandlocale             640693ed f   LIBCMT:setlocal.obj
 0001:00068b64       __create_locale            64069b64 f   LIBCMT:setlocal.obj
 0001:00068c59       _setlocale                 64069c59 f   LIBCMT:setlocal.obj
 0001:00068dcd       _malloc                    64069dcd f   LIBCMT:malloc.obj
 0001:00068f1b       __itoa_s                   64069f1b f   LIBCMT:xtoas.obj
 0001:00069031       __ui64toa_s                6406a031 f   LIBCMT:xtoas.obj
 0001:00069050       __malloc_crt               6406a050 f   LIBCMT:crtheap.obj
 0001:00069095       __calloc_crt               6406a095 f   LIBCMT:crtheap.obj
 0001:000690e1       __realloc_crt              6406a0e1 f   LIBCMT:crtheap.obj
 0001:0006912f       ___pctype_func             6406a12f f   LIBCMT:ctype.obj
 0001:00069158       __get_errno_from_oserr     6406a158 f   LIBCMT:dosmap.obj
 0001:0006919a       __errno                    6406a19a f   LIBCMT:dosmap.obj
 0001:000691ad       ___doserrno                6406a1ad f   LIBCMT:dosmap.obj
 0001:000691c0       __dosmaperr                6406a1c0 f   LIBCMT:dosmap.obj
 0001:000691e3       ___init_ctype              6406a1e3 f   LIBCMT:initctyp.obj
 0001:0006958a       ____mb_cur_max_func        6406a58a f   LIBCMT:initctyp.obj
 0001:000695b3       ____mb_cur_max_l_func      6406a5b3 f   LIBCMT:initctyp.obj
 0001:000695cf       ____lc_codepage_func       6406a5cf f   LIBCMT:initctyp.obj
 0001:000695f5       ____lc_handle_func         6406a5f5 f   LIBCMT:initctyp.obj
 0001:0006961b       __freea                    6406a61b f i LIBCMT:a_map.obj
 0001:00069822       ___crtLCMapStringA         6406a822 f   LIBCMT:a_map.obj
 0001:00069868       __isdigit_l                6406a868 f i LIBCMT:_ctype.obj
 0001:000698b9       _isdigit                   6406a8b9 f i LIBCMT:_ctype.obj
 0001:000698e7       ___crtLCMapStringW         6406a8e7 f   LIBCMT:w_map.obj
 0001:00069916       _abort                     6406a916 f   LIBCMT:abort.obj
 0001:00069949       __set_abort_behavior       6406a949 f   LIBCMT:abort.obj
 0001:0006996a       ___report_gsfailure        6406a96a f   LIBCMT:gs_report.obj
 0001:00069a70       _strcpy_s                  6406aa70 f   LIBCMT:strcpy_s.obj
 0001:00069acf       ?_Type_info_dtor@type_info@@CAXPAV1@@Z 6406aacf f   LIBCMT:typname.obj
 0001:00069b3f       ?_Name_base@type_info@@CAPBDPBV1@PAU__type_info_node@@@Z 6406ab3f f   LIBCMT:typname.obj
 0001:00069c40       _strcmp                    6406ac40 f   LIBCMT:strcmp.obj
 0001:00069cc8       __initp_heap_handler       6406acc8 f   LIBCMT:handler.obj
 0001:00069cd7       __callnewh                 6406acd7 f   LIBCMT:handler.obj
 0001:00069cff       __VEC_memcpy               6406acff f   LIBCMT:p4_memcpy.obj
 0001:00069e02       ___sse2_available_init     6406ae02 f   LIBCMT:cpu_disp.obj
 0001:00069e12       __msize                    6406ae12 f   LIBCMT:msize.obj
 0001:00069e45       ___crtCorExitProcess       6406ae45 f   LIBCMT:crt0dat.obj
 0001:00069e70       ___crtExitProcess          6406ae70 f   LIBCMT:crt0dat.obj
 0001:00069e88       __lockexit                 6406ae88 f   LIBCMT:crt0dat.obj
 0001:00069e91       __unlockexit               6406ae91 f   LIBCMT:crt0dat.obj
 0001:00069e9a       __init_pointers            6406ae9a f   LIBCMT:crt0dat.obj
 0001:00069ecd       __initterm_e               6406aecd f   LIBCMT:crt0dat.obj
 0001:00069ef1       __cinit                    6406aef1 f   LIBCMT:crt0dat.obj
 0001:0006a0c8       __exit                     6406b0c8 f   LIBCMT:crt0dat.obj
 0001:0006a0de       __cexit                    6406b0de f   LIBCMT:crt0dat.obj
 0001:0006a0ed       __amsg_exit                6406b0ed f   LIBCMT:crt0dat.obj
 0001:0006a110       __SEH_prolog4              6406b110 f   LIBCMT:sehprolg4.obj
 0001:0006a155       __SEH_epilog4              6406b155 f   LIBCMT:sehprolg4.obj
 0001:0006a170       __except_handler4          6406b170 f   LIBCMT:chandler4.obj
 0001:0006a2ff       __GET_RTERRMSG             6406b2ff f   LIBCMT:crt0msg.obj
 0001:0006a325       __NMSG_WRITE               6406b325 f   LIBCMT:crt0msg.obj
 0001:0006a4d4       __FF_MSGBANNER             6406b4d4 f   LIBCMT:crt0msg.obj
 0001:0006a50d       ___getlocaleinfo           6406b50d f   LIBCMT:inithelp.obj
 0001:0006a6b9       __initp_misc_purevirt      6406b6b9 f   LIBCMT:inithelp.obj
 0001:0006a8eb       ___updatetmbcinfo          6406b8eb f   LIBCMT:mbctype.obj
 0001:0006aa0b       __setmbcp_nolock           6406ba0b f   LIBCMT:mbctype.obj
 0001:0006abf4       __setmbcp                  6406bbf4 f   LIBCMT:mbctype.obj
 0001:0006ad8e       ___initmbctable            6406bd8e f   LIBCMT:mbctype.obj
 0001:0006adac       ___addlocaleref            6406bdac f   LIBCMT:localref.obj
 0001:0006ae3b       ___removelocaleref         6406be3b f   LIBCMT:localref.obj
 0001:0006aed4       ___freetlocinfo            6406bed4 f   LIBCMT:localref.obj
 0001:0006b01f       __updatetlocinfoEx_nolock  6406c01f f   LIBCMT:localref.obj
 0001:0006b06c       ___updatetlocinfo          6406c06c f   LIBCMT:localref.obj
 0001:0006b0e5       __encoded_null             6406c0e5 f   LIBCMT:tidtable.obj
 0001:0006b0ee       ___crtTlsAlloc@4           6406c0ee f   LIBCMT:tidtable.obj
 0001:0006b0f7       ___set_flsgetvalue         6406c0f7 f   LIBCMT:tidtable.obj
 0001:0006b12b       __mtterm                   6406c12b f   LIBCMT:tidtable.obj
 0001:0006b168       __initptd                  6406c168 f   LIBCMT:tidtable.obj
 0001:0006b21c       __getptd_noexit            6406c21c f   LIBCMT:tidtable.obj
 0001:0006b295       __getptd                   6406c295 f   LIBCMT:tidtable.obj
 0001:0006b2af       __freefls@4                6406c2af f   LIBCMT:tidtable.obj
 0001:0006b3de       __freeptd                  6406c3de f   LIBCMT:tidtable.obj
 0001:0006b44c       __mtinit                   6406c44c f   LIBCMT:tidtable.obj
 0001:0006b5c7       __towlower_l               6406c5c7 f   LIBCMT:towlower.obj
 0001:0006b667       __initp_misc_invarg        6406c667 f   LIBCMT:invarg.obj
 0001:0006b676       __call_reportfault         6406c676 f   LIBCMT:invarg.obj
 0001:0006b79f       __invoke_watson            6406c79f f   LIBCMT:invarg.obj
 0001:0006b7c4       __invalid_parameter        6406c7c4 f   LIBCMT:invarg.obj
 0001:0006b7f1       __invalid_parameter_noinfo 6406c7f1 f   LIBCMT:invarg.obj
 0001:0006b801       __flsbuf                   6406c801 f   LIBCMT:_flsbuf.obj
 0001:0006b965       __vsnprintf_helper         6406c965 f   LIBCMT:vsnprnc.obj
 0001:0006ba2f       __vsprintf_s_l             6406ca2f f   LIBCMT:vsnprnc.obj
 0001:0006bab0       __aulldvrm                 6406cab0 f   LIBCMT:ulldvrm.obj
 0001:0006bb45       __isleadbyte_l             6406cb45 f i LIBCMT:_wctype.obj
 0001:0006bb7d       _isleadbyte                6406cb7d f i LIBCMT:_wctype.obj
 0001:0006bb90       __isctype_l                6406cb90 f   LIBCMT:isctype.obj
 0001:0006be73       _strtol                    6406ce73 f   LIBCMT:strtol.obj
 0001:0006c060       _wcstol                    6406d060 f   LIBCMT:wcstol.obj
 0001:0006c07a       __ioinit                   6406d07a f   LIBCMT:ioinit.obj
 0001:0006c2bf       __ioterm                   6406d2bf f   LIBCMT:ioinit.obj
 0001:0006c312       __setenvp                  6406d312 f   LIBCMT:stdenvp.obj
 0001:0006c588       __setargv                  6406d588 f   LIBCMT:stdargv.obj
 0001:0006c643       ___crtGetEnvironmentStringsA 6406d643 f   LIBCMT:a_env.obj
 0001:0006c6da       __RTC_Initialize           6406d6da f   LIBCMT:_initsect_.obj
 0001:0006c700       __RTC_Terminate            6406d700 f   LIBCMT:_initsect_.obj
 0001:0006c726       __XcptFilter               6406d726 f   LIBCMT:winxfltr.obj
 0001:0006c870       ___CppXcptFilter           6406d870 f   LIBCMT:winxfltr.obj
 0001:0006c890       _DllMain@12                6406d890 f   LIBCMT:dllmain.obj
 0001:0006c896       ___security_init_cookie    6406d896 f   LIBCMT:gs_support.obj
 0001:0006c931       ?terminate@@YAXXZ          6406d931 f   LIBCMT:hooks.obj
 0001:0006c96a       ?unexpected@@YAXXZ         6406d96a f   LIBCMT:hooks.obj
 0001:0006c97d       ?_inconsistency@@YAXXZ     6406d97d f   LIBCMT:hooks.obj
 0001:0006c9b5       __initp_eh_hooks           6406d9b5 f   LIBCMT:hooks.obj
 0001:0006c9d0       __CallSettingFrame@12      6406d9d0 f   LIBCMT:lowhelpr.obj
 0001:0006c9f7       __NLG_Return               6406d9f7     LIBCMT:lowhelpr.obj
 0001:0006ca1c       ___sys_nerr                6406da1c f   LIBCMT:syserr.obj
 0001:0006ca22       ___sys_errlist             6406da22 f   LIBCMT:syserr.obj
 0001:0006ca28       _strncpy_s                 6406da28 f   LIBCMT:strncpy_s.obj
 0001:0006cadd       ?_ValidateExecute@@YAHP6GHXZ@Z 6406dadd f   LIBCMT:validate.obj
 0001:0006cadd       ?_ValidateWrite@@YAHPAXI@Z 6406dadd f   LIBCMT:validate.obj
 0001:0006cadd       ?_ValidateRead@@YAHPBXI@Z  6406dadd f   LIBCMT:validate.obj
 0001:0006d2ee       ___free_lc_time            6406e2ee f   LIBCMT:inittime.obj
 0001:0006d665       ___init_time               6406e665 f   LIBCMT:inittime.obj
 0001:0006d6e2       ___free_lconv_num          6406e6e2 f   LIBCMT:initnum.obj
 0001:0006d74b       ___init_numeric            6406e74b f   LIBCMT:initnum.obj
 0001:0006d93b       ___free_lconv_mon          6406e93b f   LIBCMT:initmon.obj
 0001:0006da39       ___init_monetary           6406ea39 f   LIBCMT:initmon.obj
 0001:0006dd99       __mtinitlocks              6406ed99 f   LIBCMT:mlock.obj
 0001:0006dde3       __mtdeletelocks            6406ede3 f   LIBCMT:mlock.obj
 0001:0006de3a       __unlock                   6406ee3a f   LIBCMT:mlock.obj
 0001:0006de51       __mtinitlocknum            6406ee51 f   LIBCMT:mlock.obj
 0001:0006df13       __lock                     6406ef13 f   LIBCMT:mlock.obj
 0001:0006df46       _strcat_s                  6406ef46 f   LIBCMT:strcat_s.obj
 0001:0006dfc0       _memset                    6406efc0 f   LIBCMT:memset.obj
 0001:0006e5c7       ___get_qualified_locale    6406f5c7 f   LIBCMT:getqloc.obj
 0001:0006e7b8       _memcmp                    6406f7b8 f   LIBCMT:memcmp.obj
 0001:0006fdf3       ___crtGetStringTypeA       64070df3 f   LIBCMT:a_str.obj
 0001:0006fe33       _strncmp                   64070e33 f   LIBCMT:strncmp.obj
 0001:0006ff00       _strpbrk                   64070f00 f   LIBCMT:strpbrk.obj
 0001:0006ff40       __calloc_impl              64070f40 f   LIBCMT:calloc_impl.obj
 0001:0006ffc5       _realloc                   64070fc5 f   LIBCMT:realloc.obj
 0001:00070080       __alloca_probe_16          64071080 f   LIBCMT:alloca16.obj
 0001:00070096       __alloca_probe_8           64071096     LIBCMT:alloca16.obj
 0001:000700ac       _wcsnlen                   640710ac f   LIBCMT:wcslen_s.obj
 0001:000700cc       __initp_misc_winsig        640710cc f   LIBCMT:winsig.obj
 0001:00070121       ___get_sigabrt             64071121 f   LIBCMT:winsig.obj
 0001:0007012e       _raise                     6407112e f   LIBCMT:winsig.obj
 0001:000702d1       __crt_debugger_hook        640712d1 f   LIBCMT:dbghook.obj
 0001:000702d9       ?Destructor@_HeapManager@@QAEXXZ 640712d9 f i LIBCMT:undname.obj
 0001:00070301       ?getNumberOfDimensions@UnDecorator@@CAHXZ 64071301 f   LIBCMT:undname.obj
 0001:00070363       ?getTypeEncoding@UnDecorator@@CAHXZ 64071363 f i LIBCMT:undname.obj
 0001:00070847       ?UScore@UnDecorator@@SAPBDW4Tokens@@@Z 64071847 f   LIBCMT:undname.obj
 0001:00070866       ?getMemory@_HeapManager@@QAEPAXIH@Z 64071866 f   LIBCMT:undname.obj
 0001:000708ee       ??_5DName@@QAEAAV0@ABV0@@Z 640718ee f   LIBCMT:undname.obj
 0001:0007090d       ?length@charNode@@UBEHXZ   6407190d f i LIBCMT:undname.obj
 0001:00070911       ?getLastChar@charNode@@UBEDXZ 64071911 f i LIBCMT:undname.obj
 0001:00070915       ?getString@charNode@@UBEPADPAD0@Z 64071915 f i LIBCMT:undname.obj
 0001:0007092c       ??0pDNameNode@@QAE@PAVDName@@@Z 6407192c f   LIBCMT:undname.obj
 0001:00070956       ?length@pDNameNode@@UBEHXZ 64071956 f i LIBCMT:undname.obj
 0001:0007096c       ?getLastChar@pDNameNode@@UBEDXZ 6407196c f i LIBCMT:undname.obj
 0001:00070983       ?getString@pDNameNode@@UBEPADPAD0@Z 64071983 f i LIBCMT:undname.obj
 0001:000709a4       ?getLastChar@DNameStatusNode@@UBEDXZ 640719a4 f i LIBCMT:undname.obj
 0001:000709b0       ?make@DNameStatusNode@@SAPAV1@W4DNameStatus@@@Z 640719b0 f i LIBCMT:undname.obj
 0001:00070a36       ?length@pairNode@@UBEHXZ   64071a36 f i LIBCMT:undname.obj
 0001:00070a61       ?getLastChar@pairNode@@UBEDXZ 64071a61 f i LIBCMT:undname.obj
 0001:00070a7d       ?getString@pairNode@@UBEPADPAD0@Z 64071a7d f i LIBCMT:undname.obj
 0001:00070aa9       ??0UnDecorator@@QAE@PADPBDHP6APADJ@ZK@Z 64071aa9 f i LIBCMT:undname.obj
 0001:00070b18       ?getDataIndirectType@UnDecorator@@CA?AVDName@@XZ 64071b18 f i LIBCMT:undname.obj
 0001:00070b51       ?getThisType@UnDecorator@@CA?AVDName@@XZ 64071b51 f i LIBCMT:undname.obj
 0001:00070b8b       ?getStringHelper@@YAPADPAD00H@Z 64071b8b f i LIBCMT:undname.obj
 0001:00070bc2       ??0DName@@QAE@PAV0@@Z      64071bc2 f   LIBCMT:undname.obj
 0001:00070c15       ??0DName@@QAE@W4DNameStatus@@@Z 64071c15 f   LIBCMT:undname.obj
 0001:00070c5a       ?getString@DName@@QBEPADPADH@Z 64071c5a f i LIBCMT:undname.obj
 0001:00070cb9       ?append@DName@@AAEXPAVDNameNode@@@Z 64071cb9 f   LIBCMT:undname.obj
 0001:00070d01       ??4DName@@QAEAAV0@W4DNameStatus@@@Z 64071d01 f   LIBCMT:undname.obj
 0001:00070d38       ??YReplicator@@QAEAAV0@ABVDName@@@Z 64071d38 f   LIBCMT:undname.obj
 0001:00070d82       ??AReplicator@@QBE?AVDName@@H@Z 64071d82 f   LIBCMT:undname.obj
 0001:00070dd1       ??0pcharNode@@QAE@PBDH@Z   64071dd1 f   LIBCMT:undname.obj
 0001:00070e28       ?getLastChar@pcharNode@@UBEDXZ 64071e28 f i LIBCMT:undname.obj
 0001:00070e3a       ?getString@pcharNode@@UBEPADPAD0@Z 64071e3a f i LIBCMT:undname.obj
 0001:00070e57       ?getString@DNameStatusNode@@UBEPADPAD0@Z 64071e57 f i LIBCMT:undname.obj
 0001:00070e80       ?getReturnType@UnDecorator@@CA?AVDName@@PAV2@@Z 64071e80 f   LIBCMT:undname.obj
 0001:00070eb1       ??YDName@@QAEAAV0@W4DNameStatus@@@Z 64071eb1 f   LIBCMT:undname.obj
 0001:00070ef3       ?doPchar@DName@@AAEXPBDH@Z 64071ef3 f   LIBCMT:undname.obj
 0001:00070f76       ??0DName@@QAE@PBD@Z        64071f76 f   LIBCMT:undname.obj
 0001:00070fb3       ??0DName@@QAE@AAPBDD@Z     64071fb3 f   LIBCMT:undname.obj
 0001:00071072       ??0DName@@QAE@_K@Z         64072072 f   LIBCMT:undname.obj
 0001:000710e0       ??0DName@@QAE@_J@Z         640720e0 f   LIBCMT:undname.obj
 0001:0007117b       ??HDName@@QBE?AV0@W4DNameStatus@@@Z 6407217b f   LIBCMT:undname.obj
 0001:0007119f       ??YDName@@QAEAAV0@ABV0@@Z  6407219f f   LIBCMT:undname.obj
 0001:000711e2       ??4DName@@QAEAAV0@D@Z      640721e2 f i LIBCMT:undname.obj
 0001:000711e2       ??0DName@@QAE@D@Z          640721e2 f i LIBCMT:undname.obj
 0001:0007120f       ??4DName@@QAEAAV0@PBD@Z    6407220f f   LIBCMT:undname.obj
 0001:00071244       ?getCallingConvention@UnDecorator@@CA?AVDName@@XZ 64072244 f   LIBCMT:undname.obj
 0001:0007130c       ?getVCallThunkType@UnDecorator@@CA?AVDName@@XZ 6407230c f i LIBCMT:undname.obj
 0001:00071357       ??HDName@@QBE?AV0@ABV0@@Z  64072357 f   LIBCMT:undname.obj
 0001:0007137b       ??YDName@@QAEAAV0@D@Z      6407237b f   LIBCMT:undname.obj
 0001:000713cd       ??YDName@@QAEAAV0@PBD@Z    640723cd f   LIBCMT:undname.obj
 0001:00071431       ?getArgumentList@UnDecorator@@CA?AVDName@@XZ 64072431 f   LIBCMT:undname.obj
 0001:00071537       ?getVdispMapType@UnDecorator@@CA?AVDName@@ABV2@@Z 64072537 f i LIBCMT:undname.obj
 0001:0007158b       ??H@YA?AVDName@@DABV0@@Z   6407258b f i LIBCMT:undname.obj
 0001:000715af       ??H@YA?AVDName@@W4DNameStatus@@ABV0@@Z 640725af f i LIBCMT:undname.obj
 0001:000715d3       ??H@YA?AVDName@@PBDABV0@@Z 640725d3 f i LIBCMT:undname.obj
 0001:000715f7       ??HDName@@QBE?AV0@D@Z      640725f7 f   LIBCMT:undname.obj
 0001:0007161b       ??HDName@@QBE?AV0@PBD@Z    6407261b f   LIBCMT:undname.obj
 0001:0007163f       ?getDimension@UnDecorator@@CA?AVDName@@_N@Z 6407263f f   LIBCMT:undname.obj
 0001:00071785       ?getEnumType@UnDecorator@@CA?AVDName@@XZ 64072785 f i LIBCMT:undname.obj
 0001:00071871       ?getArgumentTypes@UnDecorator@@CA?AVDName@@XZ 64072871 f   LIBCMT:undname.obj
 0001:00071951       ?getThrowTypes@UnDecorator@@CA?AVDName@@XZ 64072951 f   LIBCMT:undname.obj
 0001:000719db       ?getExtendedDataIndirectType@UnDecorator@@CA?AVDName@@AAPBDAA_NH@Z 640729db f   LIBCMT:undname.obj
 0001:00071ba3       ?getArrayType@UnDecorator@@CA?AVDName@@ABV2@@Z 64072ba3 f i LIBCMT:undname.obj
 0001:00071d99       ?getLexicalFrame@UnDecorator@@CA?AVDName@@XZ 64072d99 f i LIBCMT:undname.obj
 0001:00071dd6       ?getVfTableType@UnDecorator@@CA?AVDName@@ABV2@@Z 64072dd6 f i LIBCMT:undname.obj
 0001:00071f35       ?getStringEncoding@UnDecorator@@CA?AVDName@@PADH@Z 64072f35 f   LIBCMT:undname.obj
 0001:00071fe8       ?getSignedDimension@UnDecorator@@CA?AVDName@@XZ 64072fe8 f   LIBCMT:undname.obj
 0001:0007203a       ?getTemplateConstant@UnDecorator@@CA?AVDName@@XZ 6407303a f   LIBCMT:undname.obj
 0001:0007232a       ?getPtrRefDataType@UnDecorator@@CA?AVDName@@ABV2@H@Z 6407332a f i LIBCMT:undname.obj
 0001:00072411       ?getTemplateArgumentList@UnDecorator@@CA?AVDName@@XZ 64073411 f   LIBCMT:undname.obj
 0001:00072620       ?getOperatorName@UnDecorator@@CA?AVDName@@_NPA_N@Z 64073620 f i LIBCMT:undname.obj
 0001:00072bf6       ?getTemplateName@UnDecorator@@CA?AVDName@@_N@Z 64073bf6 f   LIBCMT:undname.obj
 0001:00072d4d       ?getZName@UnDecorator@@CA?AVDName@@_N0@Z 64073d4d f   LIBCMT:undname.obj
 0001:00072f63       ?getScopedName@UnDecorator@@CA?AVDName@@XZ 64073f63 f   LIBCMT:undname.obj
 0001:00073044       ?getECSUDataType@UnDecorator@@CA?AVDName@@XZ 64074044 f   LIBCMT:undname.obj
 0001:00073154       ?getSymbolName@UnDecorator@@CA?AVDName@@XZ 64074154 f i LIBCMT:undname.obj
 0001:0007319e       ?getBasedType@UnDecorator@@CA?AVDName@@XZ 6407419e f   LIBCMT:undname.obj
 0001:0007323a       ?composeDeclaration@UnDecorator@@CA?AVDName@@ABV2@@Z 6407423a f i LIBCMT:undname.obj
 0001:00073ef4       ?getDecoratedName@UnDecorator@@CA?AVDName@@XZ 64074ef4 f   LIBCMT:undname.obj
 0001:00074162       ?getScope@UnDecorator@@CA?AVDName@@XZ 64075162 f   LIBCMT:undname.obj
 0001:00074419       ?getFunctionIndirectType@UnDecorator@@CA?AVDName@@ABV2@@Z 64075419 f   LIBCMT:undname.obj
 0001:000747f8       ?getDataIndirectType@UnDecorator@@CA?AVDName@@ABV2@PBD0H@Z 640757f8 f   LIBCMT:undname.obj
 0001:00074d97       ??BUnDecorator@@QAEPADXZ   64075d97 f i LIBCMT:undname.obj
 0001:00074ed6       ?getPtrRefType@UnDecorator@@CA?AVDName@@ABV2@0PBD@Z 64075ed6 f   LIBCMT:undname.obj
 0001:00074fcf       ___unDName                 64075fcf f   LIBCMT:undname.obj
 0001:00075069       ?getBasicDataType@UnDecorator@@CA?AVDName@@ABV2@@Z 64076069 f   LIBCMT:undname.obj
 0001:0007542c       ?getPrimaryDataType@UnDecorator@@CA?AVDName@@ABV2@@Z 6407642c f   LIBCMT:undname.obj
 0001:000755dd       ?getDataType@UnDecorator@@CA?AVDName@@PAV2@@Z 640765dd f   LIBCMT:undname.obj
 0001:000756ac       ?getExternalDataType@UnDecorator@@CA?AVDName@@ABV2@@Z 640766ac f i LIBCMT:undname.obj
 0001:00075730       __local_unwind4            64076730 f   LIBCMT:exsup4.obj
 0001:00075806       __seh_longjmp_unwind4@4    64076806 f   LIBCMT:exsup4.obj
 0001:00075822       @_EH4_CallFilterFunc@8     64076822 f   LIBCMT:exsup4.obj
 0001:00075839       @_EH4_TransferToHandler@8  64076839 f   LIBCMT:exsup4.obj
 0001:00075852       @_EH4_GlobalUnwind2@8      64076852 f   LIBCMT:exsup4.obj
 0001:0007586b       @_EH4_LocalUnwind@16       6407686b f   LIBCMT:exsup4.obj
 0001:00075882       __initp_misc_rand_s        64076882 f   LIBCMT:rand_s.obj
 0001:00075891       __initp_misc_cfltcvt_tab   64076891 f   LIBCMT:cmiscdat.obj
 0001:000758c0       __ValidateImageBase        640768c0 f   LIBCMT:pesect.obj
 0001:00075900       __FindPESection            64076900 f   LIBCMT:pesect.obj
 0001:00075950       __IsNonwritableInCurrentImage 64076950 f   LIBCMT:pesect.obj
 0001:00075a0c       ___crtMessageBoxW          64076a0c f   LIBCMT:crtmboxw.obj
 0001:00075b78       _wcscat_s                  64076b78 f   LIBCMT:wcscat_s.obj
 0001:00075bed       _wcsncpy_s                 64076bed f   LIBCMT:wcsncpy_s.obj
 0001:00075cba       _wcslen                    64076cba f   LIBCMT:wcslen.obj
 0001:00075cd5       _wcscpy_s                  64076cd5 f   LIBCMT:wcscpy_s.obj
 0001:00075d38       __set_error_mode           64076d38 f   LIBCMT:errmode.obj
 0001:00075e51       ___crtGetLocaleInfoA       64076e51 f   LIBCMT:a_loc.obj
 0001:00075e8b       _iswctype                  64076e8b f   LIBCMT:iswctype.obj
 0001:00075ee0       __lseeki64_nolock          64076ee0 f   LIBCMT:lseeki64.obj
 0001:00075f65       __lseeki64                 64076f65 f   LIBCMT:lseeki64.obj
 0001:0007604f       __write_nolock             6407704f f   LIBCMT:write.obj
 0001:0007674c       __write                    6407774c f   LIBCMT:write.obj
 0001:00076820       __getbuf                   64077820 f   LIBCMT:_getbuf.obj
 0001:00076869       __isatty                   64077869 f   LIBCMT:isatty.obj
 0001:000768bf       ___iob_func                640778bf f   LIBCMT:_file.obj
 0001:000768c5       ___initstdio               640778c5 f   LIBCMT:_file.obj
 0001:00076976       ___endstdio                64077976 f   LIBCMT:_file.obj
 0001:00076996       __lock_file                64077996 f   LIBCMT:_file.obj
 0001:000769d7       __lock_file2               640779d7 f   LIBCMT:_file.obj
 0001:00076a09       __unlock_file              64077a09 f   LIBCMT:_file.obj
 0001:00076a45       __unlock_file2             64077a45 f   LIBCMT:_file.obj
 0001:00076a74       __fileno                   64077a74 f   LIBCMT:fileno.obj
 0001:00076a9a       __get_printf_count_output  64077a9a f   LIBCMT:printf.obj
 0001:00076ab0       __wctomb_s_l               64077ab0 f   LIBCMT:wctomb.obj
 0001:00076c05       _wctomb_s                  64077c05 f   LIBCMT:wctomb.obj
 0001:00076cc9       __output_s_l               64077cc9 f   LIBCMT:outputs.obj
 0001:000778a0       __allmul                   640788a0 f   LIBCMT:llmul.obj
 0001:000778d4       __wchartodigit             640788d4 f   LIBCMT:wchtodig.obj
 0001:00077ac7       __ismbblead                64078ac7 f   LIBCMT:ismbbyte.obj
 0001:00077ae0       __global_unwind2           64078ae0 f   LIBCMT:exsup.obj
 0001:00077b45       __local_unwind2            64078b45 f   LIBCMT:exsup.obj
 0001:00077bc9       __abnormal_termination     64078bc9 f   LIBCMT:exsup.obj
 0001:00077bec       __NLG_Notify1              64078bec f   LIBCMT:exsup.obj
 0001:00077bf5       __NLG_Notify               64078bf5 f   LIBCMT:exsup.obj
 0001:00077c0c       __NLG_Dispatch2            64078c0c     LIBCMT:exsup.obj
 0001:00077c0c       __NLG_Dispatch             64078c0c     LIBCMT:exsup.obj
 0001:00077c14       __NLG_Call                 64078c14 f   LIBCMT:exsup.obj
 0001:00077c16       __NLG_Return2              64078c16     LIBCMT:exsup.obj
 0001:00077c17       __VEC_memzero              64078c17 f   LIBCMT:p4_memset.obj
 0001:00077cd1       ___ascii_stricmp           64078cd1 f   LIBCMT:stricmp.obj
 0001:00077d0a       __stricmp_l                64078d0a f   LIBCMT:stricmp.obj
 0001:00077dca       __stricmp                  64078dca f   LIBCMT:stricmp.obj
 0001:00077e11       __strnicmp_l               64078e11 f   LIBCMT:strnicmp.obj
 0001:00077ef3       __strnicmp                 64078ef3 f   LIBCMT:strnicmp.obj
 0001:00077f50       __alloca_probe             64078f50     LIBCMT:chkstk.obj
 0001:00077f50       __chkstk                   64078f50 f   LIBCMT:chkstk.obj
 0001:00077f7b       __fptrap                   64078f7b f   LIBCMT:crt0fp.obj
 0001:00077f84       __free_osfhnd              64078f84 f   LIBCMT:osfinfo.obj
 0001:0007800a       __get_osfhandle            6407900a f   LIBCMT:osfinfo.obj
 0001:00078073       ___lock_fhandle            64079073 f   LIBCMT:osfinfo.obj
 0001:00078112       __unlock_fhandle           64079112 f   LIBCMT:osfinfo.obj
 0001:00078139       __putwch_nolock            64079139 f   LIBCMT:putwch.obj
 0001:0007817b       __mbtowc_l                 6407917b f   LIBCMT:mbtowc.obj
 0001:00078291       _mbtowc                    64079291 f   LIBCMT:mbtowc.obj
 0001:000782ab       __fcloseall                640792ab f   LIBCMT:closeall.obj
 0001:00078347       __flush                    64079347 f   LIBCMT:fflush.obj
 0001:000783af       __fflush_nolock            640793af f   LIBCMT:fflush.obj
 0001:000784d1       __flushall                 640794d1 f   LIBCMT:fflush.obj
 0001:000784e0       ___ascii_strnicmp          640794e0 f   LIBCMT:_strnicm.obj
 0001:00078541       ___initconout              64079541 f   LIBCMT:initcon.obj
 0001:00078560       ___termconout              64079560 f   LIBCMT:initcon.obj
 0001:00078577       __fclose_nolock            64079577 f   LIBCMT:fclose.obj
 0001:000785e4       _fclose                    640795e4 f   LIBCMT:fclose.obj
 0001:00078658       __commit                   64079658 f   LIBCMT:commit.obj
 0001:00078731       __close_nolock             64079731 f   LIBCMT:close.obj
 0001:000787cd       __close                    640797cd f   LIBCMT:close.obj
 0001:00078891       __freebuf                  64079891 f   LIBCMT:_freebuf.obj
 0001:000788c2       _RtlUnwind@16              640798c2 f   kernel32:KERNEL32.dll
 0001:000788c8       __cfltcvt_init             640798c8 f   LIBCMT:_fpinit_.obj
 0001:00078928       __fpmath                   64079928 f   LIBCMT:_fpinit_.obj
 0001:00078950       __ftol2_sse                64079950 f   LIBCMT:ftol2.obj
 0001:00078959       __ftol2_pentium4           64079959 f   LIBCMT:ftol2.obj
 0001:0007896c       __ftol2_sse_excpt          6407996c f   LIBCMT:ftol2.obj
 0001:00078986       __ftol2                    64079986 f   LIBCMT:ftol2.obj
 0001:00078a00       __aulldiv                  64079a00 f   LIBCMT:ulldiv.obj
 0001:00078a70       __aullrem                  64079a70 f   LIBCMT:ullrem.obj
 0001:00078af0       __aullshr                  64079af0 f   LIBCMT:ullshr.obj
 0001:00078b0f       __forcdecpt_l              64079b0f f   LIBCMT:cvt.obj
 0001:00078b83       __cropzeros_l              64079b83 f   LIBCMT:cvt.obj
 0001:00078c05       __positive                 64079c05 f   LIBCMT:cvt.obj
 0001:00078c21       __fassign_l                64079c21 f   LIBCMT:cvt.obj
 0001:00078c63       __fassign                  64079c63 f   LIBCMT:cvt.obj
 0001:00078c9c       __forcdecpt                64079c9c f   LIBCMT:cvt.obj
 0001:00078caf       __cropzeros                64079caf f   LIBCMT:cvt.obj
 0001:00078e23       __cftoe_l                  64079e23 f   LIBCMT:cvt.obj
 0001:00078eea       __cftoe                    64079eea f   LIBCMT:cvt.obj
 0001:00078f0a       __cftoa_l                  64079f0a f   LIBCMT:cvt.obj
 0001:00079383       __cftof_l                  6407a383 f   LIBCMT:cvt.obj
 0001:00079444       __cftog_l                  6407a444 f   LIBCMT:cvt.obj
 0001:00079531       __cfltcvt_l                6407a531 f   LIBCMT:cvt.obj
 0001:000795b9       __cfltcvt                  6407a5b9 f   LIBCMT:cvt.obj
 0001:000795dc       __setdefaultprecision      6407a5dc f   LIBCMT:fp8.obj
 0001:00079610       _strrchr                   6407a610 f   LIBCMT:strrchr.obj
 0001:0007963d       __atodbl_l                 6407a63d f   LIBCMT:atodbl.obj
 0001:000796e5       __atoflt_l                 6407a6e5 f   LIBCMT:atodbl.obj
 0001:0007978d       __fptostr                  6407a78d f   LIBCMT:_fptostr.obj
 0001:00079840       ___dtold                   6407a840 f   LIBCMT:_cfout_.obj
 0001:000798f3       __fltout2                  6407a8f3 f   LIBCMT:_cfout_.obj
 0001:00079990       __alldvrm                  6407a990 f   LIBCMT:lldvrm.obj
 0001:00079a6f       __controlfp_s              6407aa6f f   LIBCMT:_contrlfp_.obj
 0001:00079ace       __ld12tod                  6407aace f   LIBCMT:_intrncvt_.obj
 0001:0007a01f       __ld12tof                  6407b01f f   LIBCMT:_intrncvt_.obj
 0001:0007a570       ___strgtold12_l            6407b570 f   LIBCMT:_strgtold_.obj
 0001:0007ac4c       _$I10_OUTPUT               6407bc4c f   LIBCMT:_x10fout_.obj
 0001:0007b672       __control87                6407c672 f i LIBCMT:_ieee87_.obj
 0001:0007b984       ___mtold12                 6407c984 f   LIBCMT:_mantold_.obj
 0001:0007bb68       ___set_fpsr_sse2           6407cb68 f   LIBCMT:_fpctrl_.obj
 0002:00000000       __imp__RegQueryValueExW@24 64088000     advapi32:ADVAPI32.dll
 0002:00000004       __imp__RegCloseKey@4       64088004     advapi32:ADVAPI32.dll
 0002:00000008       __imp__RegOpenKeyExW@20    64088008     advapi32:ADVAPI32.dll
 0002:0000000c       \177ADVAPI32_NULL_THUNK_DATA 6408800c     advapi32:ADVAPI32.dll
 0002:00000010       __imp__GetFileSizeEx@8     64088010     kernel32:KERNEL32.dll
 0002:00000014       __imp__FlushFileBuffers@4  64088014     kernel32:KERNEL32.dll
 0002:00000018       __imp__WriteConsoleW@20    64088018     kernel32:KERNEL32.dll
 0002:0000001c       __imp__SetStdHandle@8      6408801c     kernel32:KERNEL32.dll
 0002:00000020       __imp__GetConsoleMode@8    64088020     kernel32:KERNEL32.dll
 0002:00000024       __imp__GetConsoleCP@0      64088024     kernel32:KERNEL32.dll
 0002:00000028       __imp__SetFilePointer@16   64088028     kernel32:KERNEL32.dll
 0002:0000002c       __imp__HeapReAlloc@16      6408802c     kernel32:KERNEL32.dll
 0002:00000030       __imp__IsValidLocale@8     64088030     kernel32:KERNEL32.dll
 0002:00000034       __imp__EnumSystemLocalesA@8 64088034     kernel32:KERNEL32.dll
 0002:00000038       __imp__GetLocaleInfoA@16   64088038     kernel32:KERNEL32.dll
 0002:0000003c       __imp__GetUserDefaultLCID@0 6408803c     kernel32:KERNEL32.dll
 0002:00000040       __imp__GetSystemTimeAsFileTime@4 64088040     kernel32:KERNEL32.dll
 0002:00000044       __imp__GetCurrentProcessId@0 64088044     kernel32:KERNEL32.dll
 0002:00000048       __imp__FreeLibrary@4       64088048     kernel32:KERNEL32.dll
 0002:0000004c       __imp__LoadLibraryW@4      6408804c     kernel32:KERNEL32.dll
 0002:00000050       __imp__GetProcAddress@8    64088050     kernel32:KERNEL32.dll
 0002:00000054       __imp__lstrcmpiW@8         64088054     kernel32:KERNEL32.dll
 0002:00000058       __imp__QueryPerformanceCounter@4 64088058     kernel32:KERNEL32.dll
 0002:0000005c       __imp__QueryPerformanceFrequency@4 6408805c     kernel32:KERNEL32.dll
 0002:00000060       __imp__GetPriorityClass@4  64088060     kernel32:KERNEL32.dll
 0002:00000064       __imp__GetCurrentProcess@0 64088064     kernel32:KERNEL32.dll
 0002:00000068       __imp__SetConsoleTitleW@4  64088068     kernel32:KERNEL32.dll
 0002:0000006c       __imp__GetStdHandle@4      6408806c     kernel32:KERNEL32.dll
 0002:00000070       __imp__PeekConsoleInputW@16 64088070     kernel32:KERNEL32.dll
 0002:00000074       __imp__ReadConsoleInputW@16 64088074     kernel32:KERNEL32.dll
 0002:00000078       __imp__SetPriorityClass@8  64088078     kernel32:KERNEL32.dll
 0002:0000007c       __imp__CompareFileTime@8   6408807c     kernel32:KERNEL32.dll
 0002:00000080       __imp__SetThreadExecutionState@4 64088080     kernel32:KERNEL32.dll
 0002:00000084       __imp__GlobalMemoryStatus@4 64088084     kernel32:KERNEL32.dll
 0002:00000088       __imp__VirtualAlloc@16     64088088     kernel32:KERNEL32.dll
 0002:0000008c       __imp__GetLastError@0      6408808c     kernel32:KERNEL32.dll
 0002:00000090       __imp__VirtualFree@12      64088090     kernel32:KERNEL32.dll
 0002:00000094       __imp__GetDiskFreeSpaceW@20 64088094     kernel32:KERNEL32.dll
 0002:00000098       __imp__DeviceIoControl@32  64088098     kernel32:KERNEL32.dll
 0002:0000009c       __imp__InitializeCriticalSection@4 6408809c     kernel32:KERNEL32.dll
 0002:000000a0       __imp__DeleteCriticalSection@4 640880a0     kernel32:KERNEL32.dll
 0002:000000a4       __imp__EnterCriticalSection@4 640880a4     kernel32:KERNEL32.dll
 0002:000000a8       __imp__LeaveCriticalSection@4 640880a8     kernel32:KERNEL32.dll
 0002:000000ac       __imp__GetSystemTime@4     640880ac     kernel32:KERNEL32.dll
 0002:000000b0       __imp__SystemTimeToFileTime@8 640880b0     kernel32:KERNEL32.dll
 0002:000000b4       __imp__FileTimeToLocalFileTime@8 640880b4     kernel32:KERNEL32.dll
 0002:000000b8       __imp__FileTimeToSystemTime@8 640880b8     kernel32:KERNEL32.dll
 0002:000000bc       __imp__GetDateFormatW@24   640880bc     kernel32:KERNEL32.dll
 0002:000000c0       __imp__GetTimeFormatW@24   640880c0     kernel32:KERNEL32.dll
 0002:000000c4       __imp__FindResourceExW@16  640880c4     kernel32:KERNEL32.dll
 0002:000000c8       __imp__LoadResource@8      640880c8     kernel32:KERNEL32.dll
 0002:000000cc       __imp__LockResource@4      640880cc     kernel32:KERNEL32.dll
 0002:000000d0       __imp__EnumResourceNamesW@16 640880d0     kernel32:KERNEL32.dll
 0002:000000d4       __imp__EnumResourceLanguagesW@20 640880d4     kernel32:KERNEL32.dll
 0002:000000d8       __imp__LoadLibraryExW@12   640880d8     kernel32:KERNEL32.dll
 0002:000000dc       __imp__BeginUpdateResourceW@8 640880dc     kernel32:KERNEL32.dll
 0002:000000e0       __imp__EndUpdateResourceW@8 640880e0     kernel32:KERNEL32.dll
 0002:000000e4       __imp__UpdateResourceW@24  640880e4     kernel32:KERNEL32.dll
 0002:000000e8       __imp__FormatMessageW@28   640880e8     kernel32:KERNEL32.dll
 0002:000000ec       __imp__GetModuleHandleW@4  640880ec     kernel32:KERNEL32.dll
 0002:000000f0       __imp__LocalFree@4         640880f0     kernel32:KERNEL32.dll
 0002:000000f4       __imp__GetConsoleTitleW@8  640880f4     kernel32:KERNEL32.dll
 0002:000000f8       __imp__MultiByteToWideChar@24 640880f8     kernel32:KERNEL32.dll
 0002:000000fc       __imp__WideCharToMultiByte@32 640880fc     kernel32:KERNEL32.dll
 0002:00000100       __imp__ExpandEnvironmentStringsW@12 64088100     kernel32:KERNEL32.dll
 0002:00000104       __imp__CreateFileW@28      64088104     kernel32:KERNEL32.dll
 0002:00000108       __imp__CloseHandle@4       64088108     kernel32:KERNEL32.dll
 0002:0000010c       __imp__ReadFile@20         6408810c     kernel32:KERNEL32.dll
 0002:00000110       __imp__WriteFile@20        64088110     kernel32:KERNEL32.dll
 0002:00000114       __imp__SetFileTime@16      64088114     kernel32:KERNEL32.dll
 0002:00000118       __imp__SetFilePointerEx@20 64088118     kernel32:KERNEL32.dll
 0002:0000011c       __imp__SetEndOfFile@4      6408811c     kernel32:KERNEL32.dll
 0002:00000120       __imp__GetFileInformationByHandle@8 64088120     kernel32:KERNEL32.dll
 0002:00000124       __imp__GetFileAttributesW@4 64088124     kernel32:KERNEL32.dll
 0002:00000128       __imp__SetFileAttributesW@8 64088128     kernel32:KERNEL32.dll
 0002:0000012c       __imp__DeleteFileW@4       6408812c     kernel32:KERNEL32.dll
 0002:00000130       __imp__CreateDirectoryW@8  64088130     kernel32:KERNEL32.dll
 0002:00000134       __imp__RemoveDirectoryW@4  64088134     kernel32:KERNEL32.dll
 0002:00000138       __imp__MoveFileExW@12      64088138     kernel32:KERNEL32.dll
 0002:0000013c       __imp__FindFirstFileW@8    6408813c     kernel32:KERNEL32.dll
 0002:00000140       __imp__FindClose@4         64088140     kernel32:KERNEL32.dll
 0002:00000144       __imp__SetLastError@4      64088144     kernel32:KERNEL32.dll
 0002:00000148       __imp__FindNextFileW@8     64088148     kernel32:KERNEL32.dll
 0002:0000014c       __imp__GetTempPathW@8      6408814c     kernel32:KERNEL32.dll
 0002:00000150       __imp__GetTempFileNameW@16 64088150     kernel32:KERNEL32.dll
 0002:00000154       __imp__HeapSetInformation@16 64088154     kernel32:KERNEL32.dll
 0002:00000158       __imp__SearchPathW@24      64088158     kernel32:KERNEL32.dll
 0002:0000015c       __imp__InterlockedIncrement@4 6408815c     kernel32:KERNEL32.dll
 0002:00000160       __imp__InterlockedDecrement@4 64088160     kernel32:KERNEL32.dll
 0002:00000164       __imp__InterlockedCompareExchange@12 64088164     kernel32:KERNEL32.dll
 0002:00000168       __imp__InterlockedExchange@8 64088168     kernel32:KERNEL32.dll
 0002:0000016c       __imp__GetStringTypeW@16   6408816c     kernel32:KERNEL32.dll
 0002:00000170       __imp__Sleep@4             64088170     kernel32:KERNEL32.dll
 0002:00000174       __imp__HeapFree@12         64088174     kernel32:KERNEL32.dll
 0002:00000178       __imp__HeapCreate@12       64088178     kernel32:KERNEL32.dll
 0002:0000017c       __imp__HeapDestroy@4       6408817c     kernel32:KERNEL32.dll
 0002:00000180       __imp__GetCurrentThreadId@0 64088180     kernel32:KERNEL32.dll
 0002:00000184       __imp__GetCommandLineA@0   64088184     kernel32:KERNEL32.dll
 0002:00000188       __imp__RaiseException@16   64088188     kernel32:KERNEL32.dll
 0002:0000018c       __imp__RtlUnwind@16        6408818c     kernel32:KERNEL32.dll
 0002:00000190       __imp__HeapAlloc@12        64088190     kernel32:KERNEL32.dll
 0002:00000194       __imp__GetCPInfo@8         64088194     kernel32:KERNEL32.dll
 0002:00000198       __imp__LCMapStringW@24     64088198     kernel32:KERNEL32.dll
 0002:0000019c       __imp__TerminateProcess@8  6408819c     kernel32:KERNEL32.dll
 0002:000001a0       __imp__UnhandledExceptionFilter@4 640881a0     kernel32:KERNEL32.dll
 0002:000001a4       __imp__SetUnhandledExceptionFilter@4 640881a4     kernel32:KERNEL32.dll
 0002:000001a8       __imp__IsDebuggerPresent@0 640881a8     kernel32:KERNEL32.dll
 0002:000001ac       __imp__IsProcessorFeaturePresent@4 640881ac     kernel32:KERNEL32.dll
 0002:000001b0       __imp__HeapSize@12         640881b0     kernel32:KERNEL32.dll
 0002:000001b4       __imp__ExitProcess@4       640881b4     kernel32:KERNEL32.dll
 0002:000001b8       __imp__GetModuleFileNameW@12 640881b8     kernel32:KERNEL32.dll
 0002:000001bc       __imp__GetLocaleInfoW@16   640881bc     kernel32:KERNEL32.dll
 0002:000001c0       __imp__GetACP@0            640881c0     kernel32:KERNEL32.dll
 0002:000001c4       __imp__GetOEMCP@0          640881c4     kernel32:KERNEL32.dll
 0002:000001c8       __imp__IsValidCodePage@4   640881c8     kernel32:KERNEL32.dll
 0002:000001cc       __imp__TlsAlloc@0          640881cc     kernel32:KERNEL32.dll
 0002:000001d0       __imp__TlsGetValue@4       640881d0     kernel32:KERNEL32.dll
 0002:000001d4       __imp__TlsSetValue@8       640881d4     kernel32:KERNEL32.dll
 0002:000001d8       __imp__TlsFree@4           640881d8     kernel32:KERNEL32.dll
 0002:000001dc       __imp__SetHandleCount@4    640881dc     kernel32:KERNEL32.dll
 0002:000001e0       __imp__InitializeCriticalSectionAndSpinCount@8 640881e0     kernel32:KERNEL32.dll
 0002:000001e4       __imp__GetFileType@4       640881e4     kernel32:KERNEL32.dll
 0002:000001e8       __imp__GetStartupInfoW@4   640881e8     kernel32:KERNEL32.dll
 0002:000001ec       __imp__GetModuleFileNameA@12 640881ec     kernel32:KERNEL32.dll
 0002:000001f0       __imp__FreeEnvironmentStringsW@4 640881f0     kernel32:KERNEL32.dll
 0002:000001f4       __imp__GetEnvironmentStringsW@0 640881f4     kernel32:KERNEL32.dll
 0002:000001f8       __imp__GetTickCount@0      640881f8     kernel32:KERNEL32.dll
 0002:000001fc       \177KERNEL32_NULL_THUNK_DATA 640881fc     kernel32:KERNEL32.dll
 0002:00000200       __imp__SysAllocStringLen@8 64088200     oleaut32:OLEAUT32.dll
 0002:00000204       __imp__SysFreeString@4     64088204     oleaut32:OLEAUT32.dll
 0002:00000208       __imp__SysStringByteLen@4  64088208     oleaut32:OLEAUT32.dll
 0002:0000020c       __imp__SysStringLen@4      6408820c     oleaut32:OLEAUT32.dll
 0002:00000210       \177OLEAUT32_NULL_THUNK_DATA 64088210     oleaut32:OLEAUT32.dll
 0002:00000214       __imp__CharUpperBuffW@8    64088214     user32:USER32.dll
 0002:00000218       \177USER32_NULL_THUNK_DATA 64088218     user32:USER32.dll
 0002:0000021c       __imp__GetFileVersionInfoSizeW@8 6408821c     version:VERSION.dll
 0002:00000220       __imp__GetFileVersionInfoW@16 64088220     version:VERSION.dll
 0002:00000224       __imp__VerQueryValueW@16   64088224     version:VERSION.dll
 0002:00000228       \177VERSION_NULL_THUNK_DATA 64088228     version:VERSION.dll
 0002:0000022c       __imp__CoCreateGuid@4      6408822c     ole32:ole32.dll
 0002:00000230       __imp__PropVariantClear@4  64088230     ole32:ole32.dll
 0002:00000234       __imp__StringFromGUID2@12  64088234     ole32:ole32.dll
 0002:00000238       __imp__PropVariantCopy@8   64088238     ole32:ole32.dll
 0002:0000023c       \177ole32_NULL_THUNK_DATA  6408823c     ole32:ole32.dll
 0002:00000240       ___xc_a                    64088240     LIBCMT:crt0init.obj
 0002:000002a0       ___xc_z                    640882a0     LIBCMT:crt0init.obj
 0002:000002a4       ___xi_a                    640882a4     LIBCMT:crt0init.obj
 0002:000002bc       ___xi_z                    640882bc     LIBCMT:crt0init.obj
 0002:000002c0       ___xp_a                    640882c0     LIBCMT:crt0init.obj
 0002:000002cc       ___xp_z                    640882cc     LIBCMT:crt0init.obj
 0002:000002d0       ___xt_a                    640882d0     LIBCMT:crt0init.obj
 0002:000002d4       ___xt_z                    640882d4     LIBCMT:crt0init.obj
 0002:000002e0       __imp__EncodePointer@4     640882e0     vc_crt_fix.obj
 0002:000002e4       __imp__DecodePointer@4     640882e4     vc_crt_fix.obj
 0002:000002e8       __imp__GetModuleHandleExW@12 640882e8     vc_crt_fix.obj
 0002:000002ec       _IID_IUnknown              640882ec     uuid:unknwn_i.obj
 0002:00000300       ??_7logic_error@std@@6B@   64088300     libcpmt:xthrow.obj
 0002:0000030c       ??_7length_error@std@@6B@  6408830c     libcpmt:xthrow.obj
 0002:00000318       ??_7out_of_range@std@@6B@  64088318     libcpmt:xthrow.obj
 0002:00000324       ??_7runtime_error@std@@6B@ 64088324     libcpmt:xthrow.obj
 0002:00000330       ?_BADOFF@std@@3_JB         64088330     libcpmt:ios.obj
 0002:0000033c       ??_7error_category@std@@6B@ 6408833c     libcpmt:syserror.obj
 0002:00000354       ??_C@_07DCLBNMLN@generic?$AA@ 64088354     libcpmt:syserror.obj
 0002:00000360       ??_7_Generic_error_category@std@@6B@ 64088360     libcpmt:syserror.obj
 0002:0000037c       ??_7bad_alloc@std@@6B@     6408837c     libcpmt:syserror.obj
 0002:00000384       ??_C@_08LLGCOLLL@iostream?$AA@ 64088384     libcpmt:syserror.obj
 0002:00000394       ??_7_Iostream_error_category@std@@6B@ 64088394     libcpmt:syserror.obj
 0002:000003ac       ??_C@_06FHFOAHML@system?$AA@ 640883ac     libcpmt:syserror.obj
 0002:000003b8       ??_7_System_error_category@std@@6B@ 640883b8     libcpmt:syserror.obj
 0002:000003d0       ??_C@_0BG@PADBLCHM@iostream?5stream?5error?$AA@ 640883d0     libcpmt:syserror.obj
 0002:000003ec       ??_7facet@locale@std@@6B@  640883ec     libcpmt:locale0.obj
 0002:000003f0       ??_C@_01NBENCBCI@?$CK?$AA@ 640883f0     libcpmt:locale0.obj
 0002:000003f8       ??_7_Locimp@locale@std@@6B@ 640883f8     libcpmt:locale0.obj
 0002:000003fc       ??_C@_01GFHCPBMG@C?$AA@    640883fc     libcpmt:locale0.obj
 0002:00000404       ??_7exception@std@@6B@     64088404     LIBCMT:stdexcpt.obj
 0002:0000040c       ??_C@_0BC@EOODALEL@Unknown?5exception?$AA@ 6408840c     LIBCMT:stdexcpt.obj
 0002:00000424       ??_7bad_cast@std@@6B@      64088424     LIBCMT:stdexcpt.obj
 0002:00000430       ??_7bad_typeid@std@@6B@    64088430     LIBCMT:stdexcpt.obj
 0002:0000043c       ??_7__non_rtti_object@std@@6B@ 6408843c     LIBCMT:stdexcpt.obj
 0002:00000448       ??_7type_info@@6B@         64088448     LIBCMT:typinfo.obj
 0002:0000044c       ??_C@_0P@GHFPNOJB@bad?5allocation?$AA@ 6408844c     LIBCMT:new.obj
 0002:0000045c       ??_C@_0CB@CGKGGDFI@Access?5violation?5?9?5no?5RTTI?5data?$CB@ 6408845c     LIBCMT:rtti.obj
 0002:00000480       ??_C@_0CB@EEENAAHH@Bad?5read?5pointer?5?9?5no?5RTTI?5data?$CB@ 64088480     LIBCMT:rtti.obj
 0002:000004a4       ??_C@_0CE@FFJAJLDK@Attempted?5a?5typeid?5of?5NULL?5point@ 640884a4     LIBCMT:rtti.obj
 0002:000004c8       __pDefaultRawDllMain       640884c8     LIBCMT:dllcrt0.obj
 0002:000004c8       __pRawDllMain              640884c8     LIBCMT:dllcrt0.obj
 0002:000004f0       ??_C@_0EA@FCLIIPNN@Visual?5C?$CL?$CL?5CRT?3?5Not?5enough?5memor@ 640884f0     LIBCMT:strerror.obj
 0002:00000530       __pDestructExceptionObject 64088530     LIBCMT:frame.obj
 0002:00000538       ??_7bad_exception@std@@6B@ 64088538     LIBCMT:frame.obj
 0002:00000540       ??_C@_0O@DPKOEFFH@bad?5exception?$AA@ 64088540     LIBCMT:frame.obj
 0002:00000550       ??_C@_07LCBHPJJN@LC_TIME?$AA@ 64088550     LIBCMT:setlocal.obj
 0002:00000558       ??_C@_0L@DLHIECNL@LC_NUMERIC?$AA@ 64088558     LIBCMT:setlocal.obj
 0002:00000564       ??_C@_0M@MIENIKLA@LC_MONETARY?$AA@ 64088564     LIBCMT:setlocal.obj
 0002:00000570       ??_C@_08EADHIDAD@LC_CTYPE?$AA@ 64088570     LIBCMT:setlocal.obj
 0002:0000057c       ??_C@_0L@KFJHEKIK@LC_COLLATE?$AA@ 6408857c     LIBCMT:setlocal.obj
 0002:00000588       ??_C@_06NEFDFEKB@LC_ALL?$AA@ 64088588     LIBCMT:setlocal.obj
 0002:00000590       ___lc_category             64088590     LIBCMT:setlocal.obj
 0002:00000658       ??_C@_03EGDHDPFD@_?4?0?$AA@ 64088658     LIBCMT:setlocal.obj
 0002:0000065c       ??_C@_01LFCBOECM@?4?$AA@   6408865c     LIBCMT:setlocal.obj
 0002:00000660       ??_C@_01IDAFKMJL@_?$AA@    64088660     LIBCMT:setlocal.obj
 0002:00000664       ??_C@_01ICJEACDI@?$DL?$AA@ 64088664     LIBCMT:setlocal.obj
 0002:00000668       ??_C@_01NEMOKFLO@?$DN?$AA@ 64088668     LIBCMT:setlocal.obj
 0002:0000066c       ??_C@_02BALPLPBG@?$DN?$DL?$AA@ 6408866c     LIBCMT:setlocal.obj
 0002:00000670       ___newctype                64088670     LIBCMT:ctype.obj
 0002:00000970       __wctype                   64088970     LIBCMT:ctype.obj
 0002:00000b78       ___newclmap                64088b78     LIBCMT:ctype.obj
 0002:00000cf8       ___newcumap                64088cf8     LIBCMT:ctype.obj
 0002:00000e80       ??_C@_0P@MIGLKIOC@CorExitProcess?$AA@ 64088e80     LIBCMT:crt0dat.obj
 0002:00000e90       ??_C@_1BI@BGOHAHKC@?$AAm?$AAs?$AAc?$AAo?$AAr?$AAe?$AAe?$AA?4?$AAd?$AAl?$AAl?$AA?$AA@ 64088e90     LIBCMT:crt0dat.obj
 0002:00000ea8       ??_C@_1BO@BKOMIGKJ@?$AAr?$AAu?$AAn?$AAt?$AAi?$AAm?$AAe?$AA?5?$AAe?$AAr?$AAr?$AAo?$AAr?$AA?5?$AA?$AA@ 64088ea8     LIBCMT:crt0msg.obj
 0002:00000ec8       ??_C@_15JNBOKNOG@?$AA?$AN?$AA?6?$AA?$AA@ 64088ec8     LIBCMT:crt0msg.obj
 0002:00000ed0       ??_C@_1BM@JBBEPPHI@?$AAT?$AAL?$AAO?$AAS?$AAS?$AA?5?$AAe?$AAr?$AAr?$AAo?$AAr?$AA?$AN?$AA?6?$AA?$AA@ 64088ed0     LIBCMT:crt0msg.obj
 0002:00000eec       ??_C@_1BK@KMOMNAAI@?$AAS?$AAI?$AAN?$AAG?$AA?5?$AAe?$AAr?$AAr?$AAo?$AAr?$AA?$AN?$AA?6?$AA?$AA@ 64088eec     LIBCMT:crt0msg.obj
 0002:00000f08       ??_C@_1BO@BFCDCGC@?$AAD?$AAO?$AAM?$AAA?$AAI?$AAN?$AA?5?$AAe?$AAr?$AAr?$AAo?$AAr?$AA?$AN?$AA?6?$AA?$AA@ 64088f08     LIBCMT:crt0msg.obj
 0002:00000f28       ??_C@_1BOO@KGEDBGAJ@?$AAR?$AA6?$AA0?$AA3?$AA3?$AA?$AN?$AA?6?$AA?9?$AA?5?$AAA?$AAt?$AAt?$AAe?$AAm?$AAp?$AAt?$AA?5?$AAt?$AAo?$AA?5?$AAu?$AAs?$AAe?$AA?5?$AAM?$AAS?$AAI?$AAL?$AA?5?$AAc?$AAo?$AAd@ 64088f28     LIBCMT:crt0msg.obj
 0002:00001118       ??_C@_1GG@GOPILAJP@?$AAR?$AA6?$AA0?$AA3?$AA2?$AA?$AN?$AA?6?$AA?9?$AA?5?$AAn?$AAo?$AAt?$AA?5?$AAe?$AAn?$AAo?$AAu?$AAg?$AAh?$AA?5?$AAs?$AAp?$AAa?$AAc?$AAe?$AA?5?$AAf?$AAo?$AAr?$AA?5?$AAl?$AAo@ 64089118     LIBCMT:crt0msg.obj
 0002:00001180       ??_C@_1MG@ENCOOIDF@?$AAR?$AA6?$AA0?$AA3?$AA1?$AA?$AN?$AA?6?$AA?9?$AA?5?$AAA?$AAt?$AAt?$AAe?$AAm?$AAp?$AAt?$AA?5?$AAt?$AAo?$AA?5?$AAi?$AAn?$AAi?$AAt?$AAi?$AAa?$AAl?$AAi?$AAz?$AAe?$AA?5?$AAt@ 64089180     LIBCMT:crt0msg.obj
 0002:00001248       ??_C@_1DO@BMFCDCD@?$AAR?$AA6?$AA0?$AA3?$AA0?$AA?$AN?$AA?6?$AA?9?$AA?5?$AAC?$AAR?$AAT?$AA?5?$AAn?$AAo?$AAt?$AA?5?$AAi?$AAn?$AAi?$AAt?$AAi?$AAa?$AAl?$AAi?$AAz?$AAe?$AAd?$AA?$AN?$AA?6?$AA?$AA@ 64089248     LIBCMT:crt0msg.obj
 0002:00001288       ??_C@_1EK@HHFLMAOL@?$AAR?$AA6?$AA0?$AA2?$AA8?$AA?$AN?$AA?6?$AA?9?$AA?5?$AAu?$AAn?$AAa?$AAb?$AAl?$AAe?$AA?5?$AAt?$AAo?$AA?5?$AAi?$AAn?$AAi?$AAt?$AAi?$AAa?$AAl?$AAi?$AAz?$AAe?$AA?5?$AAh?$AAe@ 64089288     LIBCMT:crt0msg.obj
 0002:000012d8       ??_C@_1GK@MFGOKLAG@?$AAR?$AA6?$AA0?$AA2?$AA7?$AA?$AN?$AA?6?$AA?9?$AA?5?$AAn?$AAo?$AAt?$AA?5?$AAe?$AAn?$AAo?$AAu?$AAg?$AAh?$AA?5?$AAs?$AAp?$AAa?$AAc?$AAe?$AA?5?$AAf?$AAo?$AAr?$AA?5?$AAl?$AAo@ 640892d8     LIBCMT:crt0msg.obj
 0002:00001348       ??_C@_1GK@MCAAGJMO@?$AAR?$AA6?$AA0?$AA2?$AA6?$AA?$AN?$AA?6?$AA?9?$AA?5?$AAn?$AAo?$AAt?$AA?5?$AAe?$AAn?$AAo?$AAu?$AAg?$AAh?$AA?5?$AAs?$AAp?$AAa?$AAc?$AAe?$AA?5?$AAf?$AAo?$AAr?$AA?5?$AAs?$AAt@ 64089348     LIBCMT:crt0msg.obj
 0002:000013b8       ??_C@_1EM@MAADIHMB@?$AAR?$AA6?$AA0?$AA2?$AA5?$AA?$AN?$AA?6?$AA?9?$AA?5?$AAp?$AAu?$AAr?$AAe?$AA?5?$AAv?$AAi?$AAr?$AAt?$AAu?$AAa?$AAl?$AA?5?$AAf?$AAu?$AAn?$AAc?$AAt?$AAi?$AAo?$AAn?$AA?5?$AAc@ 640893b8     LIBCMT:crt0msg.obj
 0002:00001408       ??_C@_1GK@FHCKBEFA@?$AAR?$AA6?$AA0?$AA2?$AA4?$AA?$AN?$AA?6?$AA?9?$AA?5?$AAn?$AAo?$AAt?$AA?5?$AAe?$AAn?$AAo?$AAu?$AAg?$AAh?$AA?5?$AAs?$AAp?$AAa?$AAc?$AAe?$AA?5?$AAf?$AAo?$AAr?$AA?5?$AA_?$AAo@ 64089408     LIBCMT:crt0msg.obj
 0002:00001478       ??_C@_1FC@ECHBIFBC@?$AAR?$AA6?$AA0?$AA1?$AA9?$AA?$AN?$AA?6?$AA?9?$AA?5?$AAu?$AAn?$AAa?$AAb?$AAl?$AAe?$AA?5?$AAt?$AAo?$AA?5?$AAo?$AAp?$AAe?$AAn?$AA?5?$AAc?$AAo?$AAn?$AAs?$AAo?$AAl?$AAe?$AA?5@ 64089478     LIBCMT:crt0msg.obj
 0002:000014d0       ??_C@_1EC@JIBHAOPH@?$AAR?$AA6?$AA0?$AA1?$AA8?$AA?$AN?$AA?6?$AA?9?$AA?5?$AAu?$AAn?$AAe?$AAx?$AAp?$AAe?$AAc?$AAt?$AAe?$AAd?$AA?5?$AAh?$AAe?$AAa?$AAp?$AA?5?$AAe?$AAr?$AAr?$AAo?$AAr?$AA?$AN?$AA?6@ 640894d0     LIBCMT:crt0msg.obj
 0002:00001518       ??_C@_1FK@BEOGODMC@?$AAR?$AA6?$AA0?$AA1?$AA7?$AA?$AN?$AA?6?$AA?9?$AA?5?$AAu?$AAn?$AAe?$AAx?$AAp?$AAe?$AAc?$AAt?$AAe?$AAd?$AA?5?$AAm?$AAu?$AAl?$AAt?$AAi?$AAt?$AAh?$AAr?$AAe?$AAa?$AAd?$AA?5@ 64089518     LIBCMT:crt0msg.obj
 0002:00001578       ??_C@_1FI@LOGNIKDM@?$AAR?$AA6?$AA0?$AA1?$AA6?$AA?$AN?$AA?6?$AA?9?$AA?5?$AAn?$AAo?$AAt?$AA?5?$AAe?$AAn?$AAo?$AAu?$AAg?$AAh?$AA?5?$AAs?$AAp?$AAa?$AAc?$AAe?$AA?5?$AAf?$AAo?$AAr?$AA?5?$AAt?$AAh@ 64089578     LIBCMT:crt0msg.obj
 0002:000015d0       ??_C@_1EG@BEHAGFJD@?$AAR?$AA6?$AA0?$AA1?$AA0?$AA?$AN?$AA?6?$AA?9?$AA?5?$AAa?$AAb?$AAo?$AAr?$AAt?$AA?$CI?$AA?$CJ?$AA?5?$AAh?$AAa?$AAs?$AA?5?$AAb?$AAe?$AAe?$AAn?$AA?5?$AAc?$AAa?$AAl?$AAl?$AAe?$AAd@ 640895d0     LIBCMT:crt0msg.obj
 0002:00001618       ??_C@_1FI@HONFMGBI@?$AAR?$AA6?$AA0?$AA0?$AA9?$AA?$AN?$AA?6?$AA?9?$AA?5?$AAn?$AAo?$AAt?$AA?5?$AAe?$AAn?$AAo?$AAu?$AAg?$AAh?$AA?5?$AAs?$AAp?$AAa?$AAc?$AAe?$AA?5?$AAf?$AAo?$AAr?$AA?5?$AAe?$AAn@ 64089618     LIBCMT:crt0msg.obj
 0002:00001670       ??_C@_1FE@LLNEDJMD@?$AAR?$AA6?$AA0?$AA0?$AA8?$AA?$AN?$AA?6?$AA?9?$AA?5?$AAn?$AAo?$AAt?$AA?5?$AAe?$AAn?$AAo?$AAu?$AAg?$AAh?$AA?5?$AAs?$AAp?$AAa?$AAc?$AAe?$AA?5?$AAf?$AAo?$AAr?$AA?5?$AAa?$AAr@ 64089670     LIBCMT:crt0msg.obj
 0002:000016c8       ??_C@_1FK@PGACCAFB@?$AAR?$AA6?$AA0?$AA0?$AA2?$AA?$AN?$AA?6?$AA?9?$AA?5?$AAf?$AAl?$AAo?$AAa?$AAt?$AAi?$AAn?$AAg?$AA?5?$AAp?$AAo?$AAi?$AAn?$AAt?$AA?5?$AAs?$AAu?$AAp?$AAp?$AAo?$AAr?$AAt?$AA?5@ 640896c8     LIBCMT:crt0msg.obj
 0002:000017d8       ??_C@_1EK@MBDPDCGA@?$AAM?$AAi?$AAc?$AAr?$AAo?$AAs?$AAo?$AAf?$AAt?$AA?5?$AAV?$AAi?$AAs?$AAu?$AAa?$AAl?$AA?5?$AAC?$AA?$CL?$AA?$CL?$AA?5?$AAR?$AAu?$AAn?$AAt?$AAi?$AAm?$AAe?$AA?5?$AAL?$AAi?$AAb@ 640897d8     LIBCMT:crt0msg.obj
 0002:00001824       ??_C@_15IABLJNFO@?$AA?6?$AA?6?$AA?$AA@ 64089824     LIBCMT:crt0msg.obj
 0002:0000182c       ??_C@_1CO@EAEJAADC@?$AA?$DM?$AAp?$AAr?$AAo?$AAg?$AAr?$AAa?$AAm?$AA?5?$AAn?$AAa?$AAm?$AAe?$AA?5?$AAu?$AAn?$AAk?$AAn?$AAo?$AAw?$AAn?$AA?$DO?$AA?$AA@ 6408982c     LIBCMT:crt0msg.obj
 0002:0000185c       ??_C@_1DE@JNGNBFGO@?$AAR?$AAu?$AAn?$AAt?$AAi?$AAm?$AAe?$AA?5?$AAE?$AAr?$AAr?$AAo?$AAr?$AA?$CB?$AA?6?$AA?6?$AAP?$AAr?$AAo?$AAg?$AAr?$AAa?$AAm?$AA?3?$AA?5?$AA?$AA@ 6408985c     LIBCMT:crt0msg.obj
 0002:00001890       ??_C@_1BC@GDGBMEMK@?$AAH?$AAH?$AA?3?$AAm?$AAm?$AA?3?$AAs?$AAs?$AA?$AA@ 64089890     LIBCMT:nlsdata2.obj
 0002:000018a4       ??_C@_1CI@KNAKOEBC@?$AAd?$AAd?$AAd?$AAd?$AA?0?$AA?5?$AAM?$AAM?$AAM?$AAM?$AA?5?$AAd?$AAd?$AA?0?$AA?5?$AAy?$AAy?$AAy?$AAy?$AA?$AA@ 640898a4     LIBCMT:nlsdata2.obj
 0002:000018cc       ??_C@_1BC@IEBCMHCM@?$AAM?$AAM?$AA?1?$AAd?$AAd?$AA?1?$AAy?$AAy?$AA?$AA@ 640898cc     LIBCMT:nlsdata2.obj
 0002:000018e0       ??_C@_15CLMNNGEL@?$AAP?$AAM?$AA?$AA@ 640898e0     LIBCMT:nlsdata2.obj
 0002:000018e8       ??_C@_15ODEHAHHF@?$AAA?$AAM?$AA?$AA@ 640898e8     LIBCMT:nlsdata2.obj
 0002:000018f0       ??_C@_1BC@FEMKIFH@?$AAD?$AAe?$AAc?$AAe?$AAm?$AAb?$AAe?$AAr?$AA?$AA@ 640898f0     LIBCMT:nlsdata2.obj
 0002:00001904       ??_C@_1BC@BGLIFPF@?$AAN?$AAo?$AAv?$AAe?$AAm?$AAb?$AAe?$AAr?$AA?$AA@ 64089904     LIBCMT:nlsdata2.obj
 0002:00001918       ??_C@_1BA@EPANDLNG@?$AAO?$AAc?$AAt?$AAo?$AAb?$AAe?$AAr?$AA?$AA@ 64089918     LIBCMT:nlsdata2.obj
 0002:00001928       ??_C@_1BE@DKAAMBJL@?$AAS?$AAe?$AAp?$AAt?$AAe?$AAm?$AAb?$AAe?$AAr?$AA?$AA@ 64089928     LIBCMT:nlsdata2.obj
 0002:0000193c       ??_C@_1O@PAHLKOAC@?$AAA?$AAu?$AAg?$AAu?$AAs?$AAt?$AA?$AA@ 6408993c     LIBCMT:nlsdata2.obj
 0002:0000194c       ??_C@_19BIFMLPCD@?$AAJ?$AAu?$AAl?$AAy?$AA?$AA@ 6408994c     LIBCMT:nlsdata2.obj
 0002:00001958       ??_C@_19EPFLPGAP@?$AAJ?$AAu?$AAn?$AAe?$AA?$AA@ 64089958     LIBCMT:nlsdata2.obj
 0002:00001964       ??_C@_1M@GJNLMHFD@?$AAA?$AAp?$AAr?$AAi?$AAl?$AA?$AA@ 64089964     LIBCMT:nlsdata2.obj
 0002:00001970       ??_C@_1M@IKEENEDF@?$AAM?$AAa?$AAr?$AAc?$AAh?$AA?$AA@ 64089970     LIBCMT:nlsdata2.obj
 0002:0000197c       ??_C@_1BC@JGDDFFAM@?$AAF?$AAe?$AAb?$AAr?$AAu?$AAa?$AAr?$AAy?$AA?$AA@ 6408997c     LIBCMT:nlsdata2.obj
 0002:00001990       ??_C@_1BA@EFMEIEBA@?$AAJ?$AAa?$AAn?$AAu?$AAa?$AAr?$AAy?$AA?$AA@ 64089990     LIBCMT:nlsdata2.obj
 0002:000019a0       ??_C@_17EGKACKIF@?$AAD?$AAe?$AAc?$AA?$AA@ 640899a0     LIBCMT:nlsdata2.obj
 0002:000019a8       ??_C@_17BBDMLCIG@?$AAN?$AAo?$AAv?$AA?$AA@ 640899a8     LIBCMT:nlsdata2.obj
 0002:000019b0       ??_C@_17FNLKOI@?$AAO?$AAc?$AAt?$AA?$AA@ 640899b0     LIBCMT:nlsdata2.obj
 0002:000019b8       ??_C@_17HCHCOKMG@?$AAS?$AAe?$AAp?$AA?$AA@ 640899b8     LIBCMT:nlsdata2.obj
 0002:000019c0       ??_C@_17ICPELBCN@?$AAA?$AAu?$AAg?$AA?$AA@ 640899c0     LIBCMT:nlsdata2.obj
 0002:000019c8       ??_C@_17IJPCKHK@?$AAJ?$AAu?$AAl?$AA?$AA@ 640899c8     LIBCMT:nlsdata2.obj
 0002:000019d0       ??_C@_17KCJGOCPB@?$AAJ?$AAu?$AAn?$AA?$AA@ 640899d0     LIBCMT:nlsdata2.obj
 0002:000019d8       ??_C@_17PNNKMEED@?$AAM?$AAa?$AAy?$AA?$AA@ 640899d8     LIBCMT:nlsdata2.obj
 0002:000019e0       ??_C@_17LFPOIHDD@?$AAA?$AAp?$AAr?$AA?$AA@ 640899e0     LIBCMT:nlsdata2.obj
 0002:000019e8       ??_C@_17CKNLEDEC@?$AAM?$AAa?$AAr?$AA?$AA@ 640899e8     LIBCMT:nlsdata2.obj
 0002:000019f0       ??_C@_17LMDJEKJN@?$AAF?$AAe?$AAb?$AA?$AA@ 640899f0     LIBCMT:nlsdata2.obj
 0002:000019f8       ??_C@_17DKNBKCHM@?$AAJ?$AAa?$AAn?$AA?$AA@ 640899f8     LIBCMT:nlsdata2.obj
 0002:00001a00       ??_C@_1BC@ENMNNPAJ@?$AAS?$AAa?$AAt?$AAu?$AAr?$AAd?$AAa?$AAy?$AA?$AA@ 64089a00     LIBCMT:nlsdata2.obj
 0002:00001a14       ??_C@_1O@PDICJHAG@?$AAF?$AAr?$AAi?$AAd?$AAa?$AAy?$AA?$AA@ 64089a14     LIBCMT:nlsdata2.obj
 0002:00001a24       ??_C@_1BC@HHMNLIHE@?$AAT?$AAh?$AAu?$AAr?$AAs?$AAd?$AAa?$AAy?$AA?$AA@ 64089a24     LIBCMT:nlsdata2.obj
 0002:00001a38       ??_C@_1BE@EBOGMDOH@?$AAW?$AAe?$AAd?$AAn?$AAe?$AAs?$AAd?$AAa?$AAy?$AA?$AA@ 64089a38     LIBCMT:nlsdata2.obj
 0002:00001a4c       ??_C@_1BA@ENFBFFEK@?$AAT?$AAu?$AAe?$AAs?$AAd?$AAa?$AAy?$AA?$AA@ 64089a4c     LIBCMT:nlsdata2.obj
 0002:00001a5c       ??_C@_1O@MMNBFLIA@?$AAM?$AAo?$AAn?$AAd?$AAa?$AAy?$AA?$AA@ 64089a5c     LIBCMT:nlsdata2.obj
 0002:00001a6c       ??_C@_1O@IHNHDHPB@?$AAS?$AAu?$AAn?$AAd?$AAa?$AAy?$AA?$AA@ 64089a6c     LIBCMT:nlsdata2.obj
 0002:00001a7c       ??_C@_17GGIBDPIH@?$AAS?$AAa?$AAt?$AA?$AA@ 64089a7c     LIBCMT:nlsdata2.obj
 0002:00001a84       ??_C@_17HFOLPPLP@?$AAF?$AAr?$AAi?$AA?$AA@ 64089a84     LIBCMT:nlsdata2.obj
 0002:00001a8c       ??_C@_17PDPHAADD@?$AAT?$AAh?$AAu?$AA?$AA@ 64089a8c     LIBCMT:nlsdata2.obj
 0002:00001a94       ??_C@_17CJEDCEPE@?$AAW?$AAe?$AAd?$AA?$AA@ 64089a94     LIBCMT:nlsdata2.obj
 0002:00001a9c       ??_C@_17BMKGEGOJ@?$AAT?$AAu?$AAe?$AA?$AA@ 64089a9c     LIBCMT:nlsdata2.obj
 0002:00001aa4       ??_C@_17KBOMKBF@?$AAM?$AAo?$AAn?$AA?$AA@ 64089aa4     LIBCMT:nlsdata2.obj
 0002:00001aac       ??_C@_17MBGCMIPB@?$AAS?$AAu?$AAn?$AA?$AA@ 64089aac     LIBCMT:nlsdata2.obj
 0002:00001ab4       ??_C@_08JCCMCCIL@HH?3mm?3ss?$AA@ 64089ab4     LIBCMT:nlsdata2.obj
 0002:00001ac0       ??_C@_0BE@CKGJFCPC@dddd?0?5MMMM?5dd?0?5yyyy?$AA@ 64089ac0     LIBCMT:nlsdata2.obj
 0002:00001ad4       ??_C@_08BPBNCDIB@MM?1dd?1yy?$AA@ 64089ad4     LIBCMT:nlsdata2.obj
 0002:00001ae0       ??_C@_02CJNFDJBF@PM?$AA@   64089ae0     LIBCMT:nlsdata2.obj
 0002:00001ae4       ??_C@_02DEDBPAFC@AM?$AA@   64089ae4     LIBCMT:nlsdata2.obj
 0002:00001ae8       ??_C@_08EDHMEBNP@December?$AA@ 64089ae8     LIBCMT:nlsdata2.obj
 0002:00001af4       ??_C@_08HCHEGEOA@November?$AA@ 64089af4     LIBCMT:nlsdata2.obj
 0002:00001b00       ??_C@_07JJNFCEND@October?$AA@ 64089b00     LIBCMT:nlsdata2.obj
 0002:00001b08       ??_C@_09BHHEALKD@September?$AA@ 64089b08     LIBCMT:nlsdata2.obj
 0002:00001b14       ??_C@_06LBBHFDDG@August?$AA@ 64089b14     LIBCMT:nlsdata2.obj
 0002:00001b1c       ??_C@_04MIEPOIFP@July?$AA@ 64089b1c     LIBCMT:nlsdata2.obj
 0002:00001b24       ??_C@_04CNLMGBGM@June?$AA@ 64089b24     LIBCMT:nlsdata2.obj
 0002:00001b2c       ??_C@_05DMJDNLEJ@April?$AA@ 64089b2c     LIBCMT:nlsdata2.obj
 0002:00001b34       ??_C@_05HPCKOFNC@March?$AA@ 64089b34     LIBCMT:nlsdata2.obj
 0002:00001b3c       ??_C@_08GNJGEPFN@February?$AA@ 64089b3c     LIBCMT:nlsdata2.obj
 0002:00001b48       ??_C@_07CGJPFGJA@January?$AA@ 64089b48     LIBCMT:nlsdata2.obj
 0002:00001b50       ??_C@_03MKABNOCG@Dec?$AA@  64089b50     LIBCMT:nlsdata2.obj
 0002:00001b54       ??_C@_03JPJOFNIA@Nov?$AA@  64089b54     LIBCMT:nlsdata2.obj
 0002:00001b58       ??_C@_03BMAOKBAD@Oct?$AA@  64089b58     LIBCMT:nlsdata2.obj
 0002:00001b5c       ??_C@_03GGCAPAJC@Sep?$AA@  64089b5c     LIBCMT:nlsdata2.obj
 0002:00001b60       ??_C@_03IFJFEIGA@Aug?$AA@  64089b60     LIBCMT:nlsdata2.obj
 0002:00001b64       ??_C@_03LBGABGKK@Jul?$AA@  64089b64     LIBCMT:nlsdata2.obj
 0002:00001b68       ??_C@_03IDFGHECI@Jun?$AA@  64089b68     LIBCMT:nlsdata2.obj
 0002:00001b6c       ??_C@_03CNMDKL@May?$AA@    64089b6c     LIBCMT:nlsdata2.obj
 0002:00001b70       ??_C@_03LEOLGMJP@Apr?$AA@  64089b70     LIBCMT:nlsdata2.obj
 0002:00001b74       ??_C@_03ODNJBKGA@Mar?$AA@  64089b74     LIBCMT:nlsdata2.obj
 0002:00001b78       ??_C@_03HJBDCHOM@Feb?$AA@  64089b78     LIBCMT:nlsdata2.obj
 0002:00001b7c       ??_C@_03JIHJHPIE@Jan?$AA@  64089b7c     LIBCMT:nlsdata2.obj
 0002:00001b80       ??_C@_08INBOOONO@Saturday?$AA@ 64089b80     LIBCMT:nlsdata2.obj
 0002:00001b8c       ??_C@_06JECMNKMI@Friday?$AA@ 64089b8c     LIBCMT:nlsdata2.obj
 0002:00001b94       ??_C@_08HACCIKIA@Thursday?$AA@ 64089b94     LIBCMT:nlsdata2.obj
 0002:00001ba0       ??_C@_09DLIGFAKA@Wednesday?$AA@ 64089ba0     LIBCMT:nlsdata2.obj
 0002:00001bac       ??_C@_07BAAGCFCM@Tuesday?$AA@ 64089bac     LIBCMT:nlsdata2.obj
 0002:00001bb4       ??_C@_06JLEDEDGH@Monday?$AA@ 64089bb4     LIBCMT:nlsdata2.obj
 0002:00001bbc       ??_C@_06OOPIFAJ@Sunday?$AA@ 64089bbc     LIBCMT:nlsdata2.obj
 0002:00001bc4       ??_C@_03FEFJNEK@Sat?$AA@   64089bc4     LIBCMT:nlsdata2.obj
 0002:00001bc8       ??_C@_03IDIOELNC@Fri?$AA@  64089bc8     LIBCMT:nlsdata2.obj
 0002:00001bcc       ??_C@_03IOFIKPDN@Thu?$AA@  64089bcc     LIBCMT:nlsdata2.obj
 0002:00001bd0       ??_C@_03MHOMLAJA@Wed?$AA@  64089bd0     LIBCMT:nlsdata2.obj
 0002:00001bd4       ??_C@_03NAGEINEP@Tue?$AA@  64089bd4     LIBCMT:nlsdata2.obj
 0002:00001bd8       ??_C@_03PDAGKDH@Mon?$AA@   64089bd8     LIBCMT:nlsdata2.obj
 0002:00001bdc       ??_C@_03KOEHGMDN@Sun?$AA@  64089bdc     LIBCMT:nlsdata2.obj
 0002:00001be0       ??_C@_1BK@DBDEIDLH@?$AAK?$AAE?$AAR?$AAN?$AAE?$AAL?$AA3?$AA2?$AA?4?$AAD?$AAL?$AAL?$AA?$AA@ 64089be0     LIBCMT:tidtable.obj
 0002:00001bfc       ??_C@_07PEJMOBNF@FlsFree?$AA@ 64089bfc     LIBCMT:tidtable.obj
 0002:00001c04       ??_C@_0M@JCPCPOEF@FlsSetValue?$AA@ 64089c04     LIBCMT:tidtable.obj
 0002:00001c10       ??_C@_0M@GDNOONDI@FlsGetValue?$AA@ 64089c10     LIBCMT:tidtable.obj
 0002:00001c1c       ??_C@_08KNHFBNJ@FlsAlloc?$AA@ 64089c1c     LIBCMT:tidtable.obj
 0002:00001c28       ??_C@_1O@CEDCILHN@?$AA?$CI?$AAn?$AAu?$AAl?$AAl?$AA?$CJ?$AA?$AA@ 64089c28     LIBCMT:output.obj
 0002:00001c38       ??_C@_06OJHGLDPL@?$CInull?$CJ?$AA@ 64089c38     LIBCMT:output.obj
 0002:00001c40       ___lookuptable             64089c40     LIBCMT:output.obj
 0002:00001ca0       __XcptActTab               64089ca0     LIBCMT:winxfltr.obj
 0002:00001d30       __First_FPE_Indx           64089d30     LIBCMT:winxfltr.obj
 0002:00001d34       __Num_FPE                  64089d34     LIBCMT:winxfltr.obj
 0002:00001d38       __XcptActTabSize           64089d38     LIBCMT:winxfltr.obj
 0002:00001d3c       __XcptActTabCount          64089d3c     LIBCMT:winxfltr.obj
 0002:00001d40       ??_C@_0BG@KLEAJEFJ@Illegal?5byte?5sequence?$AA@ 64089d40     LIBCMT:syserr.obj
 0002:00001d58       ??_C@_0BE@ICMCHPHH@Directory?5not?5empty?$AA@ 64089d58     LIBCMT:syserr.obj
 0002:00001d6c       ??_C@_0BJ@IHEHINLI@Function?5not?5implemented?$AA@ 64089d6c     LIBCMT:syserr.obj
 0002:00001d88       ??_C@_0BD@CLHBCGPB@No?5locks?5available?$AA@ 64089d88     LIBCMT:syserr.obj
 0002:00001d9c       ??_C@_0BC@BEDIHIDK@Filename?5too?5long?$AA@ 64089d9c     LIBCMT:syserr.obj
 0002:00001db0       ??_C@_0BK@JAEBMJJM@Resource?5deadlock?5avoided?$AA@ 64089db0     LIBCMT:syserr.obj
 0002:00001dcc       ??_C@_0BB@FCBJFCAJ@Result?5too?5large?$AA@ 64089dcc     LIBCMT:syserr.obj
 0002:00001de0       ??_C@_0N@MMJPGLJK@Domain?5error?$AA@ 64089de0     LIBCMT:syserr.obj
 0002:00001df0       ??_C@_0M@LHEPIIOM@Broken?5pipe?$AA@ 64089df0     LIBCMT:syserr.obj
 0002:00001dfc       ??_C@_0P@PKCJJLLM@Too?5many?5links?$AA@ 64089dfc     LIBCMT:syserr.obj
 0002:00001e0c       ??_C@_0BG@DDBFNKBH@Read?9only?5file?5system?$AA@ 64089e0c     LIBCMT:syserr.obj
 0002:00001e24       ??_C@_0N@FEHLOILP@Invalid?5seek?$AA@ 64089e24     LIBCMT:syserr.obj
 0002:00001e34       ??_C@_0BI@FEALHKLD@No?5space?5left?5on?5device?$AA@ 64089e34     LIBCMT:syserr.obj
 0002:00001e4c       ??_C@_0P@LFMMIPAE@File?5too?5large?$AA@ 64089e4c     LIBCMT:syserr.obj
 0002:00001e5c       ??_C@_0CE@ONOKNLPF@Inappropriate?5I?1O?5control?5operat@ 64089e5c     LIBCMT:syserr.obj
 0002:00001e80       ??_C@_0BE@INBJMKGG@Too?5many?5open?5files?$AA@ 64089e80     LIBCMT:syserr.obj
 0002:00001e94       ??_C@_0BO@IIFBODJE@Too?5many?5open?5files?5in?5system?$AA@ 64089e94     LIBCMT:syserr.obj
 0002:00001eb4       ??_C@_0BB@HMGGCEBG@Invalid?5argument?$AA@ 64089eb4     LIBCMT:syserr.obj
 0002:00001ec8       ??_C@_0P@NDHGCGKE@Is?5a?5directory?$AA@ 64089ec8     LIBCMT:syserr.obj
 0002:00001ed8       ??_C@_0BA@CJBACOOL@Not?5a?5directory?$AA@ 64089ed8     LIBCMT:syserr.obj
 0002:00001ee8       ??_C@_0P@NLEIANHE@No?5such?5device?$AA@ 64089ee8     LIBCMT:syserr.obj
 0002:00001ef8       ??_C@_0O@OAMDNOCP@Improper?5link?$AA@ 64089ef8     LIBCMT:syserr.obj
 0002:00001f08       ??_C@_0M@NAAJNNGH@File?5exists?$AA@ 64089f08     LIBCMT:syserr.obj
 0002:00001f14       ??_C@_0BA@BIBLIOEK@Resource?5device?$AA@ 64089f14     LIBCMT:syserr.obj
 0002:00001f24       ??_C@_0O@NIPGCINC@Unknown?5error?$AA@ 64089f24     LIBCMT:syserr.obj
 0002:00001f34       ??_C@_0M@LOEHLCJD@Bad?5address?$AA@ 64089f34     LIBCMT:syserr.obj
 0002:00001f40       ??_C@_0BC@HFNFNKAI@Permission?5denied?$AA@ 64089f40     LIBCMT:syserr.obj
 0002:00001f54       ??_C@_0BB@IMDKMPFB@Not?5enough?5space?$AA@ 64089f54     LIBCMT:syserr.obj
 0002:00001f68       ??_C@_0CB@EPFKGNAK@Resource?5temporarily?5unavailable@ 64089f68     LIBCMT:syserr.obj
 0002:00001f8c       ??_C@_0BD@LOHELEP@No?5child?5processes?$AA@ 64089f8c     LIBCMT:syserr.obj
 0002:00001fa0       ??_C@_0BE@NFGDDCEF@Bad?5file?5descriptor?$AA@ 64089fa0     LIBCMT:syserr.obj
 0002:00001fb4       ??_C@_0BC@HKPNECK@Exec?5format?5error?$AA@ 64089fb4     LIBCMT:syserr.obj
 0002:00001fc8       ??_C@_0BC@MFFGCDFL@Arg?5list?5too?5long?$AA@ 64089fc8     LIBCMT:syserr.obj
 0002:00001fdc       ??_C@_0BK@DPKMCKJ@No?5such?5device?5or?5address?$AA@ 64089fdc     LIBCMT:syserr.obj
 0002:00001ff8       ??_C@_0BD@KKNFOBBD@Input?1output?5error?$AA@ 64089ff8     LIBCMT:syserr.obj
 0002:0000200c       ??_C@_0BK@FJBOAFDK@Interrupted?5function?5call?$AA@ 6408a00c     LIBCMT:syserr.obj
 0002:00002028       ??_C@_0BA@FKIAIBGA@No?5such?5process?$AA@ 6408a028     LIBCMT:syserr.obj
 0002:00002038       ??_C@_0BK@FMDHKPNF@No?5such?5file?5or?5directory?$AA@ 6408a038     LIBCMT:syserr.obj
 0002:00002054       ??_C@_0BI@BJFCGOHL@Operation?5not?5permitted?$AA@ 6408a054     LIBCMT:syserr.obj
 0002:0000206c       ??_C@_08INEPGKHH@No?5error?$AA@ 6408a06c     LIBCMT:syserr.obj
 0002:00002078       ??_C@_0O@FMJNFNKE@united?9states?$AA@ 6408a078     LIBCMT:getqloc.obj
 0002:00002088       ??_C@_0P@NDHFFKCA@united?9kingdom?$AA@ 6408a088     LIBCMT:getqloc.obj
 0002:00002098       ??_C@_0BC@HHDADLGF@trinidad?5?$CG?5tobago?$AA@ 6408a098     LIBCMT:getqloc.obj
 0002:000020ac       ??_C@_0M@IOAEBDAC@south?9korea?$AA@ 6408a0ac     LIBCMT:getqloc.obj
 0002:000020b8       ??_C@_0N@FIELFKIJ@south?9africa?$AA@ 6408a0b8     LIBCMT:getqloc.obj
 0002:000020c8       ??_C@_0M@OPNDHCMC@south?5korea?$AA@ 6408a0c8     LIBCMT:getqloc.obj
 0002:000020d4       ??_C@_0N@MDEOEPFI@south?5africa?$AA@ 6408a0d4     LIBCMT:getqloc.obj
 0002:000020e4       ??_C@_06FKAPCJLB@slovak?$AA@ 6408a0e4     LIBCMT:getqloc.obj
 0002:000020ec       ??_C@_0M@EFJANOAL@puerto?9rico?$AA@ 6408a0ec     LIBCMT:getqloc.obj
 0002:000020f8       ??_C@_08PGOJKDAI@pr?9china?$AA@ 6408a0f8     LIBCMT:getqloc.obj
 0002:00002104       ??_C@_08JHDOMCMI@pr?5china?$AA@ 6408a104     LIBCMT:getqloc.obj
 0002:00002110       ??_C@_02JHCHFBLL@nz?$AA@   6408a110     LIBCMT:getqloc.obj
 0002:00002114       ??_C@_0M@LINHDHKP@new?9zealand?$AA@ 6408a114     LIBCMT:getqloc.obj
 0002:00002120       ??_C@_09IIIPPBDB@hong?9kong?$AA@ 6408a120     LIBCMT:getqloc.obj
 0002:0000212c       ??_C@_07HJLCKBG@holland?$AA@ 6408a12c     LIBCMT:getqloc.obj
 0002:00002134       ??_C@_0O@LEHGMHAG@great?5britain?$AA@ 6408a134     LIBCMT:getqloc.obj
 0002:00002144       ??_C@_07FACOMELA@england?$AA@ 6408a144     LIBCMT:getqloc.obj
 0002:0000214c       ??_C@_05JIHCEICB@czech?$AA@ 6408a14c     LIBCMT:getqloc.obj
 0002:00002154       ??_C@_05BBJOBLGB@china?$AA@ 6408a154     LIBCMT:getqloc.obj
 0002:0000215c       ??_C@_07GPKPHICP@britain?$AA@ 6408a15c     LIBCMT:getqloc.obj
 0002:00002164       ??_C@_07MHIPBHMG@america?$AA@ 6408a164     LIBCMT:getqloc.obj
 0002:0000216c       ??_C@_03KIALPMKC@usa?$AA@  6408a16c     LIBCMT:getqloc.obj
 0002:00002170       ??_C@_02FGJGKGGD@us?$AA@   6408a170     LIBCMT:getqloc.obj
 0002:00002174       ??_C@_02NEINDODK@uk?$AA@   6408a174     LIBCMT:getqloc.obj
 0002:00002178       ??_C@_05JMPCFJFJ@swiss?$AA@ 6408a178     LIBCMT:getqloc.obj
 0002:00002180       ??_C@_0BA@HLOCPIOD@swedish?9finland?$AA@ 6408a180     LIBCMT:getqloc.obj
 0002:00002190       ??_C@_0BC@PKCNIABK@spanish?9venezuela?$AA@ 6408a190     LIBCMT:getqloc.obj
 0002:000021a4       ??_C@_0BA@GBHHMIJI@spanish?9uruguay?$AA@ 6408a1a4     LIBCMT:getqloc.obj
 0002:000021b4       ??_C@_0BE@BHDOHPMC@spanish?9puerto?5rico?$AA@ 6408a1b4     LIBCMT:getqloc.obj
 0002:000021c8       ??_C@_0N@KMOIDGGN@spanish?9peru?$AA@ 6408a1c8     LIBCMT:getqloc.obj
 0002:000021d8       ??_C@_0BB@HMHLPGPH@spanish?9paraguay?$AA@ 6408a1d8     LIBCMT:getqloc.obj
 0002:000021ec       ??_C@_0P@MCPKNGFD@spanish?9panama?$AA@ 6408a1ec     LIBCMT:getqloc.obj
 0002:000021fc       ??_C@_0BC@IHOHGAIL@spanish?9nicaragua?$AA@ 6408a1fc     LIBCMT:getqloc.obj
 0002:00002210       ??_C@_0P@KLMJDNFJ@spanish?9modern?$AA@ 6408a210     LIBCMT:getqloc.obj
 0002:00002220       ??_C@_0BA@BPAPGBCM@spanish?9mexican?$AA@ 6408a220     LIBCMT:getqloc.obj
 0002:00002230       ??_C@_0BB@PDECHHHE@spanish?9honduras?$AA@ 6408a230     LIBCMT:getqloc.obj
 0002:00002244       ??_C@_0BC@KLHKFGDB@spanish?9guatemala?$AA@ 6408a244     LIBCMT:getqloc.obj
 0002:00002258       ??_C@_0BE@MFOOKJAI@spanish?9el?5salvador?$AA@ 6408a258     LIBCMT:getqloc.obj
 0002:0000226c       ??_C@_0BA@FCOKFPFC@spanish?9ecuador?$AA@ 6408a26c     LIBCMT:getqloc.obj
 0002:0000227c       ??_C@_0BL@PLMGIMOO@spanish?9dominican?5republic?$AA@ 6408a27c     LIBCMT:getqloc.obj
 0002:00002298       ??_C@_0BD@HLGDNMHB@spanish?9costa?5rica?$AA@ 6408a298     LIBCMT:getqloc.obj
 0002:000022ac       ??_C@_0BB@PKCBKCPE@spanish?9colombia?$AA@ 6408a2ac     LIBCMT:getqloc.obj
 0002:000022c0       ??_C@_0O@MCBIJGNE@spanish?9chile?$AA@ 6408a2c0     LIBCMT:getqloc.obj
 0002:000022d0       ??_C@_0BA@BEFEIGJJ@spanish?9bolivia?$AA@ 6408a2d0     LIBCMT:getqloc.obj
 0002:000022e0       ??_C@_0BC@EMECMPD@spanish?9argentina?$AA@ 6408a2e0     LIBCMT:getqloc.obj
 0002:000022f4       ??_C@_0BF@EALFLENP@portuguese?9brazilian?$AA@ 6408a2f4     LIBCMT:getqloc.obj
 0002:0000230c       ??_C@_0BC@HBLEBLNN@norwegian?9nynorsk?$AA@ 6408a30c     LIBCMT:getqloc.obj
 0002:00002320       ??_C@_0BB@HMACDDCK@norwegian?9bokmal?$AA@ 6408a320     LIBCMT:getqloc.obj
 0002:00002334       ??_C@_09BAFFPPHE@norwegian?$AA@ 6408a334     LIBCMT:getqloc.obj
 0002:00002340       ??_C@_0O@EAJFJDFG@italian?9swiss?$AA@ 6408a340     LIBCMT:getqloc.obj
 0002:00002350       ??_C@_0O@CNOMPGD@irish?9english?$AA@ 6408a350     LIBCMT:getqloc.obj
 0002:00002360       ??_C@_0N@EDHBGCKG@german?9swiss?$AA@ 6408a360     LIBCMT:getqloc.obj
 0002:00002370       ??_C@_0BC@JACMHNBP@german?9luxembourg?$AA@ 6408a370     LIBCMT:getqloc.obj
 0002:00002384       ??_C@_0BE@HBGMGFEG@german?9lichtenstein?$AA@ 6408a384     LIBCMT:getqloc.obj
 0002:00002398       ??_C@_0BA@HKKBIBKL@german?9austrian?$AA@ 6408a398     LIBCMT:getqloc.obj
 0002:000023a8       ??_C@_0N@GCAEPEBK@french?9swiss?$AA@ 6408a3a8     LIBCMT:getqloc.obj
 0002:000023b8       ??_C@_0BC@DJFJJCK@french?9luxembourg?$AA@ 6408a3b8     LIBCMT:getqloc.obj
 0002:000023cc       ??_C@_0BA@NNCEDFIC@french?9canadian?$AA@ 6408a3cc     LIBCMT:getqloc.obj
 0002:000023dc       ??_C@_0P@CMPOCLM@french?9belgian?$AA@ 6408a3dc     LIBCMT:getqloc.obj
 0002:000023ec       ??_C@_0M@GHHDJOK@english?9usa?$AA@ 6408a3ec     LIBCMT:getqloc.obj
 0002:000023f8       ??_C@_0L@PLDJKEIL@english?9us?$AA@ 6408a3f8     LIBCMT:getqloc.obj
 0002:00002404       ??_C@_0L@HJCCDMNC@english?9uk?$AA@ 6408a404     LIBCMT:getqloc.obj
 0002:00002410       ??_C@_0BK@CKLIAGJB@english?9trinidad?5y?5tobago?$AA@ 6408a410     LIBCMT:getqloc.obj
 0002:0000242c       ??_C@_0BF@JMJMGNNF@english?9south?5africa?$AA@ 6408a42c     LIBCMT:getqloc.obj
 0002:00002444       ??_C@_0L@DKIIFDFD@english?9nz?$AA@ 6408a444     LIBCMT:getqloc.obj
 0002:00002450       ??_C@_0BA@ONHGJCLH@english?9jamaica?$AA@ 6408a450     LIBCMT:getqloc.obj
 0002:00002460       ??_C@_0M@HJBGHOPO@english?9ire?$AA@ 6408a460     LIBCMT:getqloc.obj
 0002:0000246c       ??_C@_0BC@LFEKMIFB@english?9caribbean?$AA@ 6408a46c     LIBCMT:getqloc.obj
 0002:00002480       ??_C@_0M@OLDPFKHI@english?9can?$AA@ 6408a480     LIBCMT:getqloc.obj
 0002:0000248c       ??_C@_0P@OMDEHBMP@english?9belize?$AA@ 6408a48c     LIBCMT:getqloc.obj
 0002:0000249c       ??_C@_0M@KFHFPFED@english?9aus?$AA@ 6408a49c     LIBCMT:getqloc.obj
 0002:000024a8       ??_C@_0BB@MNMBKDFE@english?9american?$AA@ 6408a4a8     LIBCMT:getqloc.obj
 0002:000024bc       ??_C@_0O@KIDLNNBA@dutch?9belgian?$AA@ 6408a4bc     LIBCMT:getqloc.obj
 0002:000024cc       ??_C@_0BE@JBKABBMH@chinese?9traditional?$AA@ 6408a4cc     LIBCMT:getqloc.obj
 0002:000024e0       ??_C@_0BC@MJJMPKCG@chinese?9singapore?$AA@ 6408a4e0     LIBCMT:getqloc.obj
 0002:000024f4       ??_C@_0BD@FDKADDCP@chinese?9simplified?$AA@ 6408a4f4     LIBCMT:getqloc.obj
 0002:00002508       ??_C@_0BB@DBEFDDME@chinese?9hongkong?$AA@ 6408a508     LIBCMT:getqloc.obj
 0002:0000251c       ??_C@_07DHNMFMCI@chinese?$AA@ 6408a51c     LIBCMT:getqloc.obj
 0002:00002524       ??_C@_03FNDDCHI@chi?$AA@   6408a524     LIBCMT:getqloc.obj
 0002:00002528       ??_C@_03BMMIADDJ@chh?$AA@  6408a528     LIBCMT:getqloc.obj
 0002:0000252c       ??_C@_08OAIPJDGI@canadian?$AA@ 6408a52c     LIBCMT:getqloc.obj
 0002:00002538       ??_C@_07HBPMNPNJ@belgian?$AA@ 6408a538     LIBCMT:getqloc.obj
 0002:00002540       ??_C@_0L@OEKOPBEL@australian?$AA@ 6408a540     LIBCMT:getqloc.obj
 0002:0000254c       ??_C@_0BB@MEIMBEDG@american?9english?$AA@ 6408a54c     LIBCMT:getqloc.obj
 0002:00002560       ??_C@_0BB@DFMDPDGB@american?5english?$AA@ 6408a560     LIBCMT:getqloc.obj
 0002:00002574       ??_C@_08IJLOKOLL@american?$AA@ 6408a574     LIBCMT:getqloc.obj
 0002:00002580       ___rg_language             6408a580     LIBCMT:getqloc.obj
 0002:00002788       ___rg_country              6408a788     LIBCMT:getqloc.obj
 0002:00002840       ___rglangidNotDefault      6408a840     LIBCMT:getqloc.obj
 0002:00002854       ??_C@_03NFKLAGEF@OCP?$AA@  6408a854     LIBCMT:getqloc.obj
 0002:00002858       ??_C@_03DFHEHBHG@ACP?$AA@  6408a858     LIBCMT:getqloc.obj
 0002:0000285c       ??_C@_0BC@NFIEMBLL@Norwegian?9Nynorsk?$AA@ 6408a85c     LIBCMT:getqloc.obj
 0002:00002870       ??_C@_0BK@CFCOFLF@?5Complete?5Object?5Locator?8?$AA@ 6408a870     LIBCMT:undname.obj
 0002:0000288c       ??_C@_0BN@MECKDCOJ@?5Class?5Hierarchy?5Descriptor?8?$AA@ 6408a88c     LIBCMT:undname.obj
 0002:000028ac       ??_C@_0BD@LGICGFMM@?5Base?5Class?5Array?8?$AA@ 6408a8ac     LIBCMT:undname.obj
 0002:000028c0       ??_C@_0BM@LDKODKLH@?5Base?5Class?5Descriptor?5at?5?$CI?$AA@ 6408a8c0     LIBCMT:undname.obj
 0002:000028dc       ??_C@_0BC@DAFEJGAK@?5Type?5Descriptor?8?$AA@ 6408a8dc     LIBCMT:undname.obj
 0002:000028f0       ??_C@_0BM@PMGGMLDN@?$GAlocal?5static?5thread?5guard?8?$AA@ 6408a8f0     LIBCMT:undname.obj
 0002:0000290c       ??_C@_0CL@FGIJHLCE@?$GAmanaged?5vector?5copy?5constructor@ 6408a90c     LIBCMT:undname.obj
 0002:00002938       ??_C@_0CJ@GJELGAMM@?$GAvector?5vbase?5copy?5constructor?5i@ 6408a938     LIBCMT:undname.obj
 0002:00002964       ??_C@_0CD@CGAJBKEJ@?$GAvector?5copy?5constructor?5iterato@ 6408a964     LIBCMT:undname.obj
 0002:00002988       ??_C@_0CB@PDBIFEP@?$GAdynamic?5atexit?5destructor?5for?5?8@ 6408a988     LIBCMT:undname.obj
 0002:000029ac       ??_C@_0BL@CLIPGLGB@?$GAdynamic?5initializer?5for?5?8?$AA@ 6408a9ac     LIBCMT:undname.obj
 0002:000029c8       ??_C@_0CM@FCBBDIGB@?$GAeh?5vector?5vbase?5copy?5constructo@ 6408a9c8     LIBCMT:undname.obj
 0002:000029f4       ??_C@_0CG@HLDDJMAG@?$GAeh?5vector?5copy?5constructor?5iter@ 6408a9f4     LIBCMT:undname.obj
 0002:00002a1c       ??_C@_0CF@IMGKMJNO@?$GAmanaged?5vector?5destructor?5itera@ 6408aa1c     LIBCMT:undname.obj
 0002:00002a44       ??_C@_0CG@CFDHKGGD@?$GAmanaged?5vector?5constructor?5iter@ 6408aa44     LIBCMT:undname.obj
 0002:00002a6c       ??_C@_0BN@CKNJLHMB@?$GAplacement?5delete?$FL?$FN?5closure?8?$AA@ 6408aa6c     LIBCMT:undname.obj
 0002:00002a8c       ??_C@_0BL@CNOONJFP@?$GAplacement?5delete?5closure?8?$AA@ 6408aa8c     LIBCMT:undname.obj
 0002:00002aa8       ??_C@_0P@HJKNJFNN@?$GAomni?5callsig?8?$AA@ 6408aaa8     LIBCMT:undname.obj
 0002:00002ab8       ??_C@_09LBNFPBCA@?5delete?$FL?$FN?$AA@ 6408aab8     LIBCMT:undname.obj
 0002:00002ac4       ??_C@_06FHBGPFGH@?5new?$FL?$FN?$AA@ 6408aac4     LIBCMT:undname.obj
 0002:00002acc       ??_C@_0CE@IIHCMGGL@?$GAlocal?5vftable?5constructor?5closu@ 6408aacc     LIBCMT:undname.obj
 0002:00002af0       ??_C@_0BA@KKLDJDLB@?$GAlocal?5vftable?8?$AA@ 6408aaf0     LIBCMT:undname.obj
 0002:00002b00       ??_C@_05KHLCHHI@?$GARTTI?$AA@ 6408ab00     LIBCMT:undname.obj
 0002:00002b08       ??_C@_03KLGMFNMG@?$GAEH?$AA@ 6408ab08     LIBCMT:undname.obj
 0002:00002b0c       ??_C@_0BA@KBCDOMBN@?$GAudt?5returning?8?$AA@ 6408ab0c     LIBCMT:undname.obj
 0002:00002b1c       ??_C@_0BL@LLKPOHJI@?$GAcopy?5constructor?5closure?8?$AA@ 6408ab1c     LIBCMT:undname.obj
 0002:00002b38       ??_C@_0CH@OOJPLCPH@?$GAeh?5vector?5vbase?5constructor?5ite@ 6408ab38     LIBCMT:undname.obj
 0002:00002b60       ??_C@_0CA@GCEOPDGL@?$GAeh?5vector?5destructor?5iterator?8?$AA@ 6408ab60     LIBCMT:undname.obj
 0002:00002b80       ??_C@_0CB@JONCMFFK@?$GAeh?5vector?5constructor?5iterator?8@ 6408ab80     LIBCMT:undname.obj
 0002:00002ba4       ??_C@_0BL@NILFHHPC@?$GAvirtual?5displacement?5map?8?$AA@ 6408aba4     LIBCMT:undname.obj
 0002:00002bc0       ??_C@_0CE@IKBNEHA@?$GAvector?5vbase?5constructor?5iterat@ 6408abc0     LIBCMT:undname.obj
 0002:00002be4       ??_C@_0BN@LFPFMEDL@?$GAvector?5destructor?5iterator?8?$AA@ 6408abe4     LIBCMT:undname.obj
 0002:00002c04       ??_C@_0BO@PFGOCPJJ@?$GAvector?5constructor?5iterator?8?$AA@ 6408ac04     LIBCMT:undname.obj
 0002:00002c24       ??_C@_0BN@IMDCHIKM@?$GAscalar?5deleting?5destructor?8?$AA@ 6408ac24     LIBCMT:undname.obj
 0002:00002c44       ??_C@_0BO@OBMKPJIG@?$GAdefault?5constructor?5closure?8?$AA@ 6408ac44     LIBCMT:undname.obj
 0002:00002c64       ??_C@_0BN@DEGPLNFK@?$GAvector?5deleting?5destructor?8?$AA@ 6408ac64     LIBCMT:undname.obj
 0002:00002c84       ??_C@_0BD@JDLKDPAB@?$GAvbase?5destructor?8?$AA@ 6408ac84     LIBCMT:undname.obj
 0002:00002c98       ??_C@_08OBABFOLI@?$GAstring?8?$AA@ 6408ac98     LIBCMT:undname.obj
 0002:00002ca4       ??_C@_0BF@KDPPACIK@?$GAlocal?5static?5guard?8?$AA@ 6408aca4     LIBCMT:undname.obj
 0002:00002cbc       ??_C@_08LLFFHHDJ@?$GAtypeof?8?$AA@ 6408acbc     LIBCMT:undname.obj
 0002:00002cc8       ??_C@_07FEEIOKP@?$GAvcall?8?$AA@ 6408acc8     LIBCMT:undname.obj
 0002:00002cd0       ??_C@_09BLBHBJP@?$GAvbtable?8?$AA@ 6408acd0     LIBCMT:undname.obj
 0002:00002cdc       ??_C@_09IFPLHPGF@?$GAvftable?8?$AA@ 6408acdc     LIBCMT:undname.obj
 0002:00002ce8       ??_C@_02MHEGNOJ@?$FO?$DN?$AA@ 6408ace8     LIBCMT:undname.obj
 0002:00002cec       ??_C@_02DHLNPPGH@?$HM?$DN?$AA@ 6408acec     LIBCMT:undname.obj
 0002:00002cf0       ??_C@_02FGJGFEAB@?$CG?$DN?$AA@ 6408acf0     LIBCMT:undname.obj
 0002:00002cf4       ??_C@_03CDNPDDLA@?$DM?$DM?$DN?$AA@ 6408acf4     LIBCMT:undname.obj
 0002:00002cf8       ??_C@_03IKFCCPFF@?$DO?$DO?$DN?$AA@ 6408acf8     LIBCMT:undname.obj
 0002:00002cfc       ??_C@_02FENAOKFI@?$CF?$DN?$AA@ 6408acfc     LIBCMT:undname.obj
 0002:00002d00       ??_C@_02FJEHGPIO@?1?$DN?$AA@ 6408ad00     LIBCMT:undname.obj
 0002:00002d04       ??_C@_02FKMDLLOA@?9?$DN?$AA@ 6408ad04     LIBCMT:undname.obj
 0002:00002d08       ??_C@_02FOEOMHFC@?$CL?$DN?$AA@ 6408ad08     LIBCMT:undname.obj
 0002:00002d0c       ??_C@_02FPIMKNGF@?$CK?$DN?$AA@ 6408ad0c     LIBCMT:undname.obj
 0002:00002d10       ??_C@_02NONPIBCD@?$HM?$HM?$AA@ 6408ad10     LIBCMT:undname.obj
 0002:00002d14       ??_C@_02PPKAJPJL@?$CG?$CG?$AA@ 6408ad14     LIBCMT:undname.obj
 0002:00002d18       ??_C@_01DNKMNLPK@?$HM?$AA@ 6408ad18     LIBCMT:undname.obj
 0002:00002d1c       ??_C@_01JKBOJNNK@?$FO?$AA@ 6408ad1c     LIBCMT:undname.obj
 0002:00002d20       ??_C@_01PJKLJHI@?$HO?$AA@  6408ad20     LIBCMT:undname.obj
 0002:00002d24       ??_C@_02HCKGKOFO@?$CI?$CJ?$AA@ 6408ad24     LIBCMT:undname.obj
 0002:00002d28       ??_C@_01IHBHIGKO@?0?$AA@   6408ad28     LIBCMT:undname.obj
 0002:00002d2c       ??_C@_02EEKDKGMJ@?$DO?$DN?$AA@ 6408ad2c     LIBCMT:undname.obj
 0002:00002d30       ??_C@_01PPODPGHN@?$DO?$AA@ 6408ad30     LIBCMT:undname.obj
 0002:00002d34       ??_C@_02EHCHHCKH@?$DM?$DN?$AA@ 6408ad34     LIBCMT:undname.obj
 0002:00002d38       ??_C@_01MNNFJEPP@?$DM?$AA@ 6408ad38     LIBCMT:undname.obj
 0002:00002d3c       ??_C@_01FGNFDNOH@?$CF?$AA@ 6408ad3c     LIBCMT:undname.obj
 0002:00002d40       ??_C@_01KMDKNFGN@?1?$AA@   6408ad40     LIBCMT:undname.obj
 0002:00002d44       ??_C@_03MNHNFDLC@?9?$DO?$CK?$AA@ 6408ad44     LIBCMT:undname.obj
 0002:00002d48       ??_C@_01HNPIGOCE@?$CG?$AA@ 6408ad48     LIBCMT:undname.obj
 0002:00002d4c       ??_C@_01MIFGBAGJ@?$CL?$AA@ 6408ad4c     LIBCMT:undname.obj
 0002:00002d50       ??_C@_01JOAMLHOP@?9?$AA@   6408ad50     LIBCMT:undname.obj
 0002:00002d54       ??_C@_02BAABKJLB@?9?9?$AA@ 6408ad54     LIBCMT:undname.obj
 0002:00002d58       ??_C@_02ECNGHCIF@?$CL?$CL?$AA@ 6408ad58     LIBCMT:undname.obj
 0002:00002d5c       ??_C@_02HBOOOICD@?9?$DO?$AA@ 6408ad5c     LIBCMT:undname.obj
 0002:00002d60       ??_C@_08LHJFAFGD@operator?$AA@ 6408ad60     LIBCMT:undname.obj
 0002:00002d6c       ??_C@_02GPECMEKF@?$FL?$FN?$AA@ 6408ad6c     LIBCMT:undname.obj
 0002:00002d70       ??_C@_02FDNJECIE@?$CB?$DN?$AA@ 6408ad70     LIBCMT:undname.obj
 0002:00002d74       ??_C@_02EGOFBIJA@?$DN?$DN?$AA@ 6408ad74     LIBCMT:undname.obj
 0002:00002d78       ??_C@_01DCLJPIOD@?$CB?$AA@ 6408ad78     LIBCMT:undname.obj
 0002:00002d7c       ??_C@_02FODMEDOG@?$DM?$DM?$AA@ 6408ad7c     LIBCMT:undname.obj
 0002:00002d80       ??_C@_02GPIOPFAK@?$DO?$DO?$AA@ 6408ad80     LIBCMT:undname.obj
 0002:00002d84       ??_C@_07FPCDHGMM@?5delete?$AA@ 6408ad84     LIBCMT:undname.obj
 0002:00002d8c       ??_C@_04NIHEBCM@?5new?$AA@ 6408ad8c     LIBCMT:undname.obj
 0002:00002d94       ??_C@_0M@GFIIJFMG@__unaligned?$AA@ 6408ad94     LIBCMT:undname.obj
 0002:00002da0       ??_C@_0L@PILCLIHE@__restrict?$AA@ 6408ada0     LIBCMT:undname.obj
 0002:00002dac       ??_C@_07JOMMBBKO@__ptr64?$AA@ 6408adac     LIBCMT:undname.obj
 0002:00002db4       ??_C@_06GHPCKEAG@__eabi?$AA@ 6408adb4     LIBCMT:undname.obj
 0002:00002dbc       ??_C@_09HIJEGCPM@__clrcall?$AA@ 6408adbc     LIBCMT:undname.obj
 0002:00002dc8       ??_C@_0L@JMKHOMEK@__fastcall?$AA@ 6408adc8     LIBCMT:undname.obj
 0002:00002dd4       ??_C@_0L@NPHFGOKO@__thiscall?$AA@ 6408add4     LIBCMT:undname.obj
 0002:00002de0       ??_C@_09IFJBGAPI@__stdcall?$AA@ 6408ade0     LIBCMT:undname.obj
 0002:00002dec       ??_C@_08GHMPAG@__pascal?$AA@ 6408adec     LIBCMT:undname.obj
 0002:00002df8       ??_C@_07KOLFKCDI@__cdecl?$AA@ 6408adf8     LIBCMT:undname.obj
 0002:00002e00       ??_C@_08EHJDFFNH@__based?$CI?$AA@ 6408ae00     LIBCMT:undname.obj
 0002:00002f94       ??_7charNode@@6B@          6408af94     LIBCMT:undname.obj
 0002:00002fa0       ??_7pDNameNode@@6B@        6408afa0     LIBCMT:undname.obj
 0002:00002fac       ??_7DNameStatusNode@@6B@   6408afac     LIBCMT:undname.obj
 0002:00002fb8       ??_7pairNode@@6B@          6408afb8     LIBCMT:undname.obj
 0002:00002fc4       ??_7pcharNode@@6B@         6408afc4     LIBCMT:undname.obj
 0002:00002fd0       ??_C@_04OKOHEJBO@?5?$DP?$DP?5?$AA@ 6408afd0     LIBCMT:undname.obj
 0002:00002fd8       ??_C@_06EEGAIFAK@?$HLflat?$HN?$AA@ 6408afd8     LIBCMT:undname.obj
 0002:00002fe0       ??_C@_05JIBOFOHK@?$HLfor?5?$AA@ 6408afe0     LIBCMT:undname.obj
 0002:00002fe8       ??_C@_0BN@IBLMMFAP@?$GAnon?9type?9template?9parameter?$AA@ 6408afe8     LIBCMT:undname.obj
 0002:00003008       ??_C@_09EBBEKKIH@unsigned?5?$AA@ 6408b008     LIBCMT:undname.obj
 0002:00003014       ??_C@_05CJIMAING@long?5?$AA@ 6408b014     LIBCMT:undname.obj
 0002:0000301c       ??_C@_04LAHKHJMA@int?5?$AA@ 6408b01c     LIBCMT:undname.obj
 0002:00003024       ??_C@_06EHJMALKF@short?5?$AA@ 6408b024     LIBCMT:undname.obj
 0002:0000302c       ??_C@_05CIHEBHNO@char?5?$AA@ 6408b02c     LIBCMT:undname.obj
 0002:00003034       ??_C@_04GKJNKENE@void?$AA@ 6408b034     LIBCMT:undname.obj
 0002:0000303c       ??_C@_0L@EGPHHEKN@?$DMellipsis?$DO?$AA@ 6408b03c     LIBCMT:undname.obj
 0002:00003048       ??_C@_03KHICJKCI@?4?4?4?$AA@ 6408b048     LIBCMT:undname.obj
 0002:0000304c       ??_C@_0M@ELJOJFFH@?0?$DMellipsis?$DO?$AA@ 6408b04c     LIBCMT:undname.obj
 0002:00003058       ??_C@_04EENFHACM@?0?4?4?4?$AA@ 6408b058     LIBCMT:undname.obj
 0002:00003060       ??_C@_07HDJPLPEK@?5throw?$CI?$AA@ 6408b060     LIBCMT:undname.obj
 0002:00003068       ??_C@_02GOGNNPBN@?$CJ?$FL?$AA@ 6408b068     LIBCMT:undname.obj
 0002:0000306c       ??_C@_02MDINNEEG@s?5?$AA@  6408b06c     LIBCMT:undname.obj
 0002:00003070       ??_C@_01GEODFPGF@?8?$AA@   6408b070     LIBCMT:undname.obj
 0002:00003074       ??_C@_0BE@EODMJLIF@?$GAtemplate?9parameter?$AA@ 6408b074     LIBCMT:undname.obj
 0002:00003088       ??_C@_04HIBGFPH@NULL?$AA@  6408b088     LIBCMT:undname.obj
 0002:00003090       ??_C@_0O@GKABPPIF@cli?3?3pin_ptr?$DM?$AA@ 6408b090     LIBCMT:undname.obj
 0002:000030a0       ??_C@_0M@EALIELKG@cli?3?3array?$DM?$AA@ 6408b0a0     LIBCMT:undname.obj
 0002:000030ac       ??_C@_05BEFAKPML@void?5?$AA@ 6408b0ac     LIBCMT:undname.obj
 0002:000030b4       ??_C@_02OHHJMEON@?8?8?$AA@ 6408b0b4     LIBCMT:undname.obj
 0002:000030b8       ??_C@_0BG@JNJLAMPM@?$GAanonymous?5namespace?8?$AA@ 6408b0b8     LIBCMT:undname.obj
 0002:000030d0       ??_C@_01NLNLIGKH@?$GA?$AA@ 6408b0d0     LIBCMT:undname.obj
 0002:000030d4       ??_C@_0O@KHGCOMHP@generic?9type?9?$AA@ 6408b0d4     LIBCMT:undname.obj
 0002:000030e4       ??_C@_0BE@JAEOCHPE@template?9parameter?9?$AA@ 6408b0e4     LIBCMT:undname.obj
 0002:000030f8       ??_C@_02MOLJINC@?3?3?$AA@  6408b0f8     LIBCMT:undname.obj
 0002:000030fc       ??_C@_0P@GCIFDJCJ@?$GAunknown?5ecsu?8?$AA@ 6408b0fc     LIBCMT:undname.obj
 0002:0000310c       ??_C@_06MOJHIBMG@union?5?$AA@ 6408b10c     LIBCMT:undname.obj
 0002:00003114       ??_C@_07DIBCDNGL@struct?5?$AA@ 6408b114     LIBCMT:undname.obj
 0002:0000311c       ??_C@_06LJBABKPM@class?5?$AA@ 6408b11c     LIBCMT:undname.obj
 0002:00003124       ??_C@_05LJGMCFOG@enum?5?$AA@ 6408b124     LIBCMT:undname.obj
 0002:0000312c       ??_C@_08KOFANOFK@coclass?5?$AA@ 6408b12c     LIBCMT:undname.obj
 0002:00003138       ??_C@_0N@DLIEFKNA@cointerface?5?$AA@ 6408b138     LIBCMT:undname.obj
 0002:00003148       ??_C@_02KCKGHPCA@?$CJ?5?$AA@ 6408b148     LIBCMT:undname.obj
 0002:0000314c       ??_C@_0M@DHNBOJMP@extern?5?$CCC?$CC?5?$AA@ 6408b14c     LIBCMT:undname.obj
 0002:00003158       ??_C@_08KJLFOPNE@?$FLthunk?$FN?3?$AA@ 6408b158     LIBCMT:undname.obj
 0002:00003164       ??_C@_08GPDDCMKI@public?3?5?$AA@ 6408b164     LIBCMT:undname.obj
 0002:00003170       ??_C@_0M@GAIFPFIP@protected?3?5?$AA@ 6408b170     LIBCMT:undname.obj
 0002:0000317c       ??_C@_09LAPHOOG@private?3?5?$AA@ 6408b17c     LIBCMT:undname.obj
 0002:00003188       ??_C@_08NIEOINHE@virtual?5?$AA@ 6408b188     LIBCMT:undname.obj
 0002:00003194       ??_C@_07PGOEDBHP@static?5?$AA@ 6408b194     LIBCMT:undname.obj
 0002:0000319c       ??_C@_0DA@HGFJFBBE@?$GAtemplate?5static?5data?5member?5des@ 6408b19c     LIBCMT:undname.obj
 0002:000031cc       ??_C@_0DB@ILEFOCIJ@?$GAtemplate?5static?5data?5member?5con@ 6408b1cc     LIBCMT:undname.obj
 0002:00003200       ??_C@_0CB@KJDOOODE@?$GAlocal?5static?5destructor?5helper?8@ 6408b200     LIBCMT:undname.obj
 0002:00003224       ??_C@_0L@HNGCOGAE@?$GAadjustor?$HL?$AA@ 6408b224     LIBCMT:undname.obj
 0002:00003230       ??_C@_0L@GHPFDFH@?$GAvtordisp?$HL?$AA@ 6408b230     LIBCMT:undname.obj
 0002:0000323c       ??_C@_0N@CBHHHENL@?$GAvtordispex?$HL?$AA@ 6408b23c     LIBCMT:undname.obj
 0002:0000324c       ??_C@_01CLKCMJKC@?5?$AA@   6408b24c     LIBCMT:undname.obj
 0002:00003250       ??_C@_02IGFCGPIL@?$HN?8?$AA@ 6408b250     LIBCMT:undname.obj
 0002:00003254       ??_C@_03OPGICMGF@?$HN?8?5?$AA@ 6408b254     LIBCMT:undname.obj
 0002:00003258       ??_C@_06LIJLOJAG@const?5?$AA@ 6408b258     LIBCMT:undname.obj
 0002:00003260       ??_C@_09GAIEOBLP@volatile?5?$AA@ 6408b260     LIBCMT:undname.obj
 0002:0000326c       ??_C@_04HEJADOOB@CV?3?5?$AA@ 6408b26c     LIBCMT:undname.obj
 0002:00003274       ??_C@_08PABEKFH@volatile?$AA@ 6408b274     LIBCMT:undname.obj
 0002:00003280       ??_C@_09EFNPDFFP@?5volatile?$AA@ 6408b280     LIBCMT:undname.obj
 0002:0000328c       ??_C@_05BNCCCJPP@const?$AA@ 6408b28c     LIBCMT:undname.obj
 0002:00003294       ??_C@_07EDHNAJHC@signed?5?$AA@ 6408b294     LIBCMT:undname.obj
 0002:0000329c       ??_C@_06BNJCAIGJ@double?$AA@ 6408b29c     LIBCMT:undname.obj
 0002:000032a4       ??_C@_04DDKJGDCM@bool?$AA@ 6408b2a4     LIBCMT:undname.obj
 0002:000032ac       ??_C@_09EEKGDCPH@?$DMunknown?$DO?$AA@ 6408b2ac     LIBCMT:undname.obj
 0002:000032b8       ??_C@_07CLGGIAMF@wchar_t?$AA@ 6408b2b8     LIBCMT:undname.obj
 0002:000032c0       ??_C@_07NFANNNEC@UNKNOWN?$AA@ 6408b2c0     LIBCMT:undname.obj
 0002:000032c8       ??_C@_08GAHOLHEO@__int128?$AA@ 6408b2c8     LIBCMT:undname.obj
 0002:000032d4       ??_C@_07OFLPPHGP@__int32?$AA@ 6408b2d4     LIBCMT:undname.obj
 0002:000032dc       ??_C@_07LFCOJCAC@__int64?$AA@ 6408b2dc     LIBCMT:undname.obj
 0002:000032e4       ??_C@_07ICFHOGAF@__int16?$AA@ 6408b2e4     LIBCMT:undname.obj
 0002:000032ec       ??_C@_06GCICPBLB@__w64?5?$AA@ 6408b2ec     LIBCMT:undname.obj
 0002:000032f4       ??_C@_06EBGKOKIG@__int8?$AA@ 6408b2f4     LIBCMT:undname.obj
 0002:000032fc       ??_C@_05KNFBNCOH@float?$AA@ 6408b2fc     LIBCMT:undname.obj
 0002:00003304       ??_C@_04GOKPGOLB@long?$AA@ 6408b304     LIBCMT:undname.obj
 0002:0000330c       ??_C@_03JBIPMCLC@int?$AA@  6408b30c     LIBCMT:undname.obj
 0002:00003310       ??_C@_05BFKKPKCG@short?$AA@ 6408b310     LIBCMT:undname.obj
 0002:00003318       ??_C@_04ENMBGAPA@char?$AA@ 6408b318     LIBCMT:undname.obj
 0002:00003320       ??_C@_0P@GCOCNKDM@std?3?3nullptr_t?$AA@ 6408b320     LIBCMT:undname.obj
 0002:00003330       ??_C@_0BI@DFKBFLJE@GetProcessWindowStation?$AA@ 6408b330     LIBCMT:crtmboxw.obj
 0002:00003348       ??_C@_0BK@DEKFELLI@GetUserObjectInformationW?$AA@ 6408b348     LIBCMT:crtmboxw.obj
 0002:00003364       ??_C@_0BD@HHGDFDBJ@GetLastActivePopup?$AA@ 6408b364     LIBCMT:crtmboxw.obj
 0002:00003378       ??_C@_0BA@HNOPNCHB@GetActiveWindow?$AA@ 6408b378     LIBCMT:crtmboxw.obj
 0002:00003388       ??_C@_0M@DLDCCGNP@MessageBoxW?$AA@ 6408b388     LIBCMT:crtmboxw.obj
 0002:00003394       ??_C@_1BG@GOEBHBDC@?$AAU?$AAS?$AAE?$AAR?$AA3?$AA2?$AA?4?$AAD?$AAL?$AAL?$AA?$AA@ 6408b394     LIBCMT:crtmboxw.obj
 0002:000033b0       ___lookuptable_s           6408b3b0     LIBCMT:outputs.obj
 0002:0000340c       ??_C@_1BA@BALFACEM@?$AAC?$AAO?$AAN?$AAO?$AAU?$AAT?$AA$?$AA?$AA@ 6408b40c     LIBCMT:initcon.obj
 0002:0000341c       ??_C@_1BI@JEMGCCOA@?$AA7?$AAz?$AAS?$AA2?$AAc?$AAo?$AAn?$AA?4?$AAs?$AAf?$AAx?$AA?$AA@ 6408b41c     archive.obj
 0002:00003434       ??_C@_1BC@IBOPFADC@?$AA7?$AAz?$AAS?$AA2?$AA?4?$AAs?$AAf?$AAx?$AA?$AA@ 6408b434     archive.obj
 0002:00003448       ??_C@_1BC@EKJIHECG@?$AA7?$AAz?$AAS?$AAD?$AA?4?$AAs?$AAf?$AAx?$AA?$AA@ 6408b448     archive.obj
 0002:0000345c       ??_C@_1BA@GPHFCJDK@?$AA7?$AAz?$AAS?$AA?4?$AAs?$AAf?$AAx?$AA?$AA@ 6408b45c     archive.obj
 0002:0000346c       ??_C@_1BE@CPEIGPON@?$AA7?$AAz?$AAC?$AAo?$AAn?$AA?4?$AAs?$AAf?$AAx?$AA?$AA@ 6408b46c     archive.obj
 0002:00003480       ??_C@_1O@CNEPMAPN@?$AA7?$AAz?$AA?4?$AAs?$AAf?$AAx?$AA?$AA@ 6408b480     archive.obj
 0002:00003490       ??_C@_19IEMBGPPO@?$AA?4?$AA0?$AA0?$AA1?$AA?$AA@ 6408b490     archive.obj
 0002:0000349c       ??_C@_19DOGDICKI@?$AA?4?$AAe?$AAx?$AAe?$AA?$AA@ 6408b49c     archive.obj
 0002:000034a8       ??_C@_19FHPHDENP@?$AAP?$AAP?$AAM?$AAD?$AA?$AA@ 6408b4a8     archive.obj
 0002:000034b4       ??_C@_1M@DDMLOLLP@?$AAL?$AAZ?$AAM?$AAA?$AA2?$AA?$AA@ 6408b4b4     archive.obj
 0002:000034c0       ??_C@_19MMHLLJED@?$AAL?$AAZ?$AAM?$AAA?$AA?$AA@ 6408b4c0     archive.obj
 0002:000034cc       ??_C@_19HNCGHLOK@?$AAC?$AAo?$AAp?$AAy?$AA?$AA@ 6408b4cc     archive.obj
 0002:000034d8       ??_C@_0CE@EBEMHOLO@c?3?2src?2plugins?2arclite?2comutils?4@ 6408b4d8     archive.obj
 0002:00003628       ?c_min_volume_size@@3_KB   6408b628     archive.obj
 0002:00003678       ??_C@_13PAHNCFBL@?$CB?$JC?$AA?$AA@ 6408b678     archive.obj
 0002:0000367c       ??_C@_0N@DLJIDING@CreateObject?$AA@ 6408b67c     archive.obj
 0002:0000368c       ??_C@_0BD@HEPKNIHJ@GetNumberOfMethods?$AA@ 6408b68c     archive.obj
 0002:000036a0       ??_C@_0BC@OJPJFIMA@GetMethodProperty?$AA@ 6408b6a0     archive.obj
 0002:000036b4       ??_C@_0BD@GPKACDEP@GetNumberOfFormats?$AA@ 6408b6b4     archive.obj
 0002:000036c8       ??_C@_0BD@DAJFLGDO@GetHandlerProperty?$AA@ 6408b6c8     archive.obj
 0002:000036dc       ??_C@_0BE@CMCBNMGM@GetHandlerProperty2?$AA@ 6408b6dc     archive.obj
 0002:000036f0       ??_C@_13OHNMPHJM@?$AA?$FN?$AA?$AA@ 6408b6f0     archive.obj
 0002:000036f4       ??_C@_15FFJNNDMJ@?$AA?5?$AA?$FL?$AA?$AA@ 6408b6f4     archive.obj
 0002:000036fc       ??_C@_02DIKIINKA@MZ?$AA@   6408b6fc     archive.obj
 0002:00003700       ??_C@_1M@HNNPBALB@?$AA?$CK?$AA?4?$AAd?$AAl?$AAl?$AA?$AA@ 6408b700     archive.obj
 0002:0000370c       ??_C@_1M@HFEBMLCN@?$AA?$CK?$AA?4?$AAs?$AAf?$AAx?$AA?$AA@ 6408b70c     archive.obj
 0002:00003718       ??_C@_1BO@CHFBIDJD@?$AAS?$AAo?$AAf?$AAt?$AAw?$AAa?$AAr?$AAe?$AA?2?$AA7?$AA?9?$AAZ?$AAi?$AAp?$AA?$AA@ 6408b718     archive.obj
 0002:00003738       ??_C@_19NHABCBNP@?$AAP?$AAa?$AAt?$AAh?$AA?$AA@ 6408b738     archive.obj
 0002:00003744       ??_C@_1O@CFNBBLGB@?$AA7?$AAz?$AA?4?$AAd?$AAl?$AAl?$AA?$AA@ 6408b744     archive.obj
 0002:00003754       ??_C@_13BBDEGPLJ@?$AA?$CK?$AA?$AA@ 6408b754     archive.obj
 0002:00003758       ??_C@_0M@HIHBHGEM@archive?4cpp?$AA@ 6408b758     archive.obj
 0002:00003768       ??_C@_1GK@CKLFAJOB@?$AAS?$AAt?$AAr?$AAi?$AAn?$AAg?$AAF?$AAr?$AAo?$AAm?$AAG?$AAU?$AAI?$AAD?$AA2?$AA?$CI?$AAg?$AAu?$AAi?$AAd?$AA?0?$AA?5?$AAg?$AAu?$AAi?$AAd?$AA_?$AAs?$AAt?$AAr?$AA?0?$AA?5@ 6408b768     archive.obj
 0002:000037d4       ??_C@_19LKKOIHJI@?$AA?4?$AAt?$AAm?$AAp?$AA?$AA@ 6408b7d4     archive.obj
 0002:000037e0       ??_C@_0BG@BBKNOMOH@invalid?5map?$DMK?0?5T?$DO?5key?$AA@ 6408b7e0     archive.obj
 0002:000037f8       ??_C@_0BD@OLBABOEK@vector?$DMT?$DO?5too?5long?$AA@ 6408b7f8     archive.obj
 0002:0000380c       ??_C@_0BB@MOGOBHAF@list?$DMT?$DO?5too?5long?$AA@ 6408b80c     archive.obj
 0002:00003820       ??_C@_0BM@PAPJHAGI@invalid?5map?1set?$DMT?$DO?5iterator?$AA@ 6408b820     archive.obj
 0002:0000383c       ??_C@_0BE@JONHPENG@map?1set?$DMT?$DO?5too?5long?$AA@ 6408b83c     archive.obj
 0002:00003850       _IID_IInArchive            6408b850     archive.obj
 0002:00003860       _IID_IOutArchive           6408b860     archive.obj
 0002:00003870       ??_C@_0BI@CFPLBAOH@invalid?5string?5position?$AA@ 6408b870     archive.obj
 0002:00003888       ??_C@_0BA@JFNIOLAK@string?5too?5long?$AA@ 6408b888     archive.obj
 0002:00003898       _c_plugin_guid             6408b898     plugin.obj
 0002:000038a8       _c_plugin_menu_guid        6408b8a8     plugin.obj
 0002:000038b8       _c_plugin_config_guid      6408b8b8     plugin.obj
 0002:000038c8       _c_password_dialog_guid    6408b8c8     plugin.obj
 0002:000038d8       _c_overwrite_dialog_guid   6408b8d8     plugin.obj
 0002:000038e8       _c_extract_dialog_guid     6408b8e8     plugin.obj
 0002:000038f8       _c_update_dialog_guid      6408b8f8     plugin.obj
 0002:00003908       _c_settings_dialog_guid    6408b908     plugin.obj
 0002:00003918       _c_attr_dialog_guid        6408b918     plugin.obj
 0002:00003928       _c_sfx_options_dialog_guid 6408b928     plugin.obj
 0002:00003938       _c_delete_files_dialog_guid 6408b938     plugin.obj
 0002:00003948       _c_overwrite_archive_dialog_guid 6408b948     plugin.obj
 0002:00003958       _c_progress_dialog_guid    6408b958     plugin.obj
 0002:00003968       _c_interrupt_dialog_guid   6408b968     plugin.obj
 0002:00003978       _c_retry_ignore_dialog_guid 6408b978     plugin.obj
 0002:00003988       _c_error_log_dialog_guid   6408b988     plugin.obj
 0002:00003998       _c_delete_profile_dialog_guid 6408b998     plugin.obj
 0002:000039a8       _c_test_ok_dialog_guid     6408b9a8     plugin.obj
 0002:000039b8       _c_extract_params_saved_dialog_guid 6408b9b8     plugin.obj
 0002:000039c8       _c_arc_path_eval_dialog_guid 6408b9c8     plugin.obj
 0002:000039d8       _c_error_dialog_guid       6408b9d8     plugin.obj
 0002:000039e8       _c_format_menu_guid        6408b9e8     plugin.obj
 0002:000039f8       _c_main_menu_guid          6408b9f8     plugin.obj
 0002:00003a08       _c_arccmd_menu_guid        6408ba08     plugin.obj
 0002:00003a18       _c_create_dir_dialog_guid  6408ba18     plugin.obj
 0002:00003a28       _c_save_profile_dialog_guid 6408ba28     plugin.obj
 0002:00003a38       _c_generic_guid            6408ba38     plugin.obj
 0002:00003a48       _c_update_params_saved_dialog_guid 6408ba48     plugin.obj
 0002:00003a58       _c_multi_select_dialog_guid 6408ba58     plugin.obj
 0002:00003a68       _c_format_library_info_dialog_guid 6408ba68     plugin.obj
 0002:00003a78       _c_far_guid                6408ba78     plugin.obj
 0002:00003a88       ??_C@_0CB@GOJGAIND@c?3?2src?2plugins?2arclite?2error?4hpp@ 6408ba88     plugin.obj
 0002:00003aac       ??_C@_02LMMGGCAJ@?3?5?$AA@ 6408baac     plugin.obj
 0002:00003ab0       ??_C@_0L@MBOHGIBE@plugin?4cpp?$AA@ 6408bab0     plugin.obj
 0002:00003abc       ??_C@_13EBCNDICG@?$AA?3?$AA?$AA@ 6408babc     plugin.obj
 0002:00003ac0       ??_C@_13FPGAJAPJ@?$AA?2?$AA?$AA@ 6408bac0     plugin.obj
 0002:00003ac4       ??_C@_15DDHGOCBH@?$AA?4?$AA?4?$AA?$AA@ 6408bac4     plugin.obj
 0002:00003acc       ??_C@_13JOFGPIOO@?$AA?4?$AA?$AA@ 6408bacc     plugin.obj
 0002:00003ad0       ??_C@_1JK@FFADHFBH@?$AAg?$AAe?$AAt?$AA_?$AAa?$AAp?$AAp?$AA_?$AAo?$AAp?$AAt?$AAi?$AAo?$AAn?$AA?$CI?$AAF?$AAS?$AAS?$AAF?$AA_?$AAS?$AAY?$AAS?$AAT?$AAE?$AAM?$AA?0?$AA?5?$AAc?$AA_?$AAc?$AAo@ 6408bad0     plugin.obj
 0002:00003b6c       ??_C@_13LBAGMAIH@?$AA?6?$AA?$AA@ 6408bb6c     plugin.obj
 0002:00003b70       ??_C@_1FE@OHPOHPOP@?$AAF?$AAa?$AAr?$AA?3?$AA?3?$AAg?$AAe?$AAt?$AA_?$AAp?$AAa?$AAn?$AAe?$AAl?$AA_?$AAi?$AAn?$AAf?$AAo?$AA?$CI?$AAh?$AA_?$AAp?$AAl?$AAu?$AAg?$AAi?$AAn?$AA?0?$AA?5?$AAp?$AAa@ 6408bb70     plugin.obj
 0002:00003bc4       ??_C@_1BA@EIJEHGCE@?$AAa?$AAr?$AAc?$AAl?$AAi?$AAt?$AAe?$AA?$AA@ 6408bbc4     plugin.obj
 0002:00003bd8       ??_C@_1FC@HPEFIKDA@?$AAA?$AAr?$AAc?$AAh?$AAi?$AAv?$AAe?$AA?5?$AAs?$AAu?$AAp?$AAp?$AAo?$AAr?$AAt?$AA?5?$AA?$CI?$AAb?$AAa?$AAs?$AAe?$AAd?$AA?5?$AAo?$AAn?$AA?5?$AA7?$AA?9?$AAZ?$AAi?$AAp?$AA?5@ 6408bbd8     plugin.obj
 0002:00003c2c       ??_C@_1DE@BGKMIKPD@?$AAE?$AAu?$AAg?$AAe?$AAn?$AAe?$AA?5?$AAR?$AAo?$AAs?$AAh?$AAa?$AAl?$AA?5?$AA?$CG?$AA?5?$AAF?$AAa?$AAr?$AA?5?$AAG?$AAr?$AAo?$AAu?$AAp?$AA?$AA@ 6408bc2c     plugin.obj
 0002:00003c60       ??_C@_1BC@ENICKDH@?$AAC?$AAo?$AAn?$AAt?$AAe?$AAn?$AAt?$AAs?$AA?$AA@ 6408bc60     plugin.obj
 0002:00003c74       ??_C@_1CC@GBAAMIEE@?$AAK?$AAe?$AAy?$AAs?$AA?$CI?$AA?8?$AAC?$AAt?$AAr?$AAl?$AAP?$AAg?$AAD?$AAn?$AA?8?$AA?$CJ?$AA?$AA@ 6408bc74     plugin.obj
 0002:00003c98       ??_C@_1O@GBAEOCCH@?$AAP?$AAr?$AAe?$AAf?$AAi?$AAx?$AA?$AA@ 6408bc98     plugin.obj
 0002:00003cac       ??_7PluginPanelItems@?1??get_files@Plugin@@QAEXPBUPluginPanelItem@@HHPAPB_W_K@Z@6B@ 6408bcac     plugin.obj
 0002:00003cb8       ??_7PluginPanelItems@?1??extract@Plugin@@QAEXXZ@6B@ 6408bcb8     plugin.obj
 0002:00003cc4       ??_7?$_Ref_count@VArchive@@@tr1@std@@6B@ 6408bcc4     plugin.obj
 0002:00003cd8       ??_7?$_Ref_count@V?$list@UError@@V?$allocator@UError@@@std@@@std@@@tr1@std@@6B@ 6408bcd8     plugin.obj
 0002:00003cec       ??_7?$_Ref_count_del@XV<lambda11>@?A0xc5e9a1c5@@@tr1@std@@6B@ 6408bcec     plugin.obj
 0002:00003cfc       ??_C@_0BC@MOGJFHKK@tr1?3?3bad_weak_ptr?$AA@ 6408bcfc     plugin.obj
 0002:00003d14       ??_7bad_weak_ptr@tr1@std@@6B@ 6408bd14     plugin.obj
 0002:00003d20       ??_7_Ref_count_base@tr1@std@@6B@ 6408bd20     plugin.obj
 0002:00003d30       ??_C@_11LOCGONAA@?$AA?$AA@ 6408bd30     ui.obj
 0002:00003d34       ??_C@_06NPJEFJLB@ui?4cpp?$AA@ 6408bd34     ui.obj
 0002:00003d40       ??_C@_1JG@OMFJPMPF@?$AAg?$AAe?$AAt?$AA_?$AAa?$AAp?$AAp?$AA_?$AAo?$AAp?$AAt?$AAi?$AAo?$AAn?$AA?$CI?$AAF?$AAS?$AAS?$AAF?$AA_?$AAC?$AAO?$AAN?$AAF?$AAI?$AAR?$AAM?$AAA?$AAT?$AAI?$AAO?$AAN@ 6408bd40     ui.obj
 0002:00003dd8       ??_C@_17DMMFPNIF@?$AA?$CF?$AA?$HN?$AA?5?$AA?$AA@ 6408bdd8     ui.obj
 0002:00003de0       ??_C@_13GCIFAHHO@?$AA?$HL?$AA?$AA@ 6408bde0     ui.obj
 0002:00003de4       ??_C@_15FOBPOKEL@?$AA?$FN?$AA?5?$AA?$AA@ 6408bde4     ui.obj
 0002:00003dec       ??_C@_13MCLHKIEA@?$AA?$FL?$AA?$AA@ 6408bdec     ui.obj
 0002:00003df0       ??_C@_13NEIAEHFG@?$AA?$CC?$AA?$AA@ 6408bdf0     ui.obj
 0002:00003df4       ??_C@_1BA@DNNJDHAB@?$AAE?$AAx?$AAt?$AAr?$AAa?$AAc?$AAt?$AA?$AA@ 6408bdf4     ui.obj
 0002:00003e04       ??_C@_1CI@GPLIDJDI@?$AAa?$AAr?$AAc?$AAl?$AAi?$AAt?$AAe?$AA?4?$AAe?$AAx?$AAt?$AAr?$AAa?$AAc?$AAt?$AA_?$AAd?$AAi?$AAr?$AA?$AA@ 6408be04     ui.obj
 0002:00003e30       ??_C@_1GG@OEEJHDBB@?$AAs?$AAe?$AAn?$AAd?$AA_?$AAm?$AAe?$AAs?$AAs?$AAa?$AAg?$AAe?$AA?$CI?$AAD?$AAM?$AA_?$AAL?$AAI?$AAS?$AAT?$AAG?$AAE?$AAT?$AAI?$AAT?$AAE?$AAM?$AA?0?$AA?5?$AAl?$AAe?$AAv@ 6408be30     ui.obj
 0002:00003e98       ??_C@_1GC@PIGILAGB@?$AAs?$AAe?$AAn?$AAd?$AA_?$AAm?$AAe?$AAs?$AAs?$AAa?$AAg?$AAe?$AA?$CI?$AAD?$AAM?$AA_?$AAL?$AAI?$AAS?$AAT?$AAU?$AAP?$AAD?$AAA?$AAT?$AAE?$AA?0?$AA?5?$AAl?$AAe?$AAv?$AAe@ 6408be98     ui.obj
 0002:00003efc       ??_C@_1O@PBKAOOPF@?$AAU?$AAp?$AAd?$AAa?$AAt?$AAe?$AA?$AA@ 6408befc     ui.obj
 0002:00003f0c       ??_C@_1CC@JHNGBHPE@?$AAa?$AAr?$AAc?$AAl?$AAi?$AAt?$AAe?$AA?4?$AAa?$AAr?$AAc?$AA_?$AAp?$AAa?$AAt?$AAh?$AA?$AA@ 6408bf0c     ui.obj
 0002:00003f30       ??_C@_1CC@MEHHCPDF@?$AAa?$AAr?$AAc?$AAl?$AAi?$AAt?$AAe?$AA?4?$AAa?$AAd?$AAv?$AAa?$AAn?$AAc?$AAe?$AAd?$AA?$AA@ 6408bf30     ui.obj
 0002:00003f54       ??_C@_1CI@KIHLOCML@?$AAa?$AAr?$AAc?$AAl?$AAi?$AAt?$AAe?$AA?4?$AAv?$AAo?$AAl?$AAu?$AAm?$AAe?$AA_?$AAs?$AAi?$AAz?$AAe?$AA?$AA@ 6408bf54     ui.obj
 0002:00003f7c       ??_C@_1DM@DOHHEJNC@?$AAi?$AAt?$AAe?$AAm?$AA_?$AAc?$AAo?$AAl?$AAo?$AAr?$AAs?$AA?9?$AA?$DO?$AAC?$AAo?$AAl?$AAo?$AAr?$AAs?$AAC?$AAo?$AAu?$AAn?$AAt?$AA?5?$AA?$DN?$AA?$DN?$AA?5?$AA4?$AA?$AA@ 6408bf7c     ui.obj
 0002:00003fb8       ??_C@_13DEFPDAGF@?$AA?0?$AA?$AA@ 6408bfb8     ui.obj
 0002:00003fbc       ??_C@_1O@BJPKKLLM@?$AAC?$AAo?$AAn?$AAf?$AAi?$AAg?$AA?$AA@ 6408bfbc     ui.obj
 0002:00003fcc       ??_C@_02EAOCLKAK@ld?$AA@   6408bfcc     ui.obj
 0002:00003fd0       ??_C@_02BDDLJJBK@lu?$AA@   6408bfd0     ui.obj
 0002:00003fd4       ??_C@_02HIKPPMOK@Ld?$AA@   6408bfd4     ui.obj
 0002:00003fd8       ??_C@_02CLHGNPPK@Lu?$AA@   6408bfd8     ui.obj
 0002:00003fdc       ??_C@_02BBAHNLBA@?$CFp?$AA@ 6408bfdc     ui.obj
 0002:00003fe0       ??_C@_01DDCIFGEA@E?$AA@    6408bfe0     ui.obj
 0002:00003fe4       ??_C@_01KGKMHCOC@e?$AA@    6408bfe4     ui.obj
 0002:00003fe6       ??_C@_00CNPNBAHC@?$AA@     6408bfe6     ui.obj
 0002:00003fec       ??_7?$basic_stringbuf@_WU?$char_traits@_W@std@@V?$allocator@_W@2@@std@@6B@ 6408bfec     ui.obj
 0002:0000402c       ??_7?$basic_ostringstream@_WU?$char_traits@_W@std@@V?$allocator@_W@2@@std@@6B@ 6408c02c     ui.obj
 0002:00004030       ??_8?$basic_ostringstream@_WU?$char_traits@_W@std@@V?$allocator@_W@2@@std@@7B@ 6408c030     ui.obj
 0002:0000403c       ??_7?$num_put@_WV?$ostreambuf_iterator@_WU?$char_traits@_W@std@@@std@@@std@@6B@ 6408c03c     ui.obj
 0002:00004064       ??_7ProgressMonitor@@6B@   6408c064     ui.obj
 0002:00004070       ??_7PasswordDialog@@6B@    6408c070     ui.obj
 0002:00004078       ??_7OverwriteDialog@@6B@   6408c078     ui.obj
 0002:00004080       ??_7ExtractDialog@@6B@     6408c080     ui.obj
 0002:00004088       ??_7UpdateDialog@@6B@      6408c088     ui.obj
 0002:00004090       ??_7MultiSelectDialog@@6B@ 6408c090     ui.obj
 0002:00004098       ??_7FormatLibraryInfoDialog@@6B@ 6408c098     ui.obj
 0002:000040a0       ??_7SettingsDialog@@6B@    6408c0a0     ui.obj
 0002:000040a8       ??_7AttrDialog@@6B@        6408c0a8     ui.obj
 0002:000040b0       ??_7?$numpunct@_W@std@@6B@ 6408c0b0     ui.obj
 0002:000040cc       ??_7?$_Ref_count@VFileFilter@Far@@@tr1@std@@6B@ 6408c0cc     ui.obj
 0002:000040dc       ??_C@_0BA@ELKIONDK@bad?5locale?5name?$AA@ 6408c0dc     ui.obj
 0002:000040ec       ??_C@_05LAPONLG@false?$AA@ 6408c0ec     ui.obj
 0002:000040f4       ??_C@_04LOAJBDKD@true?$AA@ 6408c0f4     ui.obj
 0002:000040fc       ??_C@_0BF@PHHKMMFD@ios_base?3?3badbit?5set?$AA@ 6408c0fc     ui.obj
 0002:00004114       ??_C@_0BG@FMKFHCIL@ios_base?3?3failbit?5set?$AA@ 6408c114     ui.obj
 0002:0000412c       ??_C@_0BF@OOHOMBOF@ios_base?3?3eofbit?5set?$AA@ 6408c12c     ui.obj
 0002:00004144       ??_C@_08EPJLHIJG@bad?5cast?$AA@ 6408c144     ui.obj
 0002:00004154       ??_7ios_base@std@@6B@      6408c154     ui.obj
 0002:0000415c       ??_7?$basic_ios@_WU?$char_traits@_W@std@@@std@@6B@ 6408c15c     ui.obj
 0002:00004164       ??_7?$basic_streambuf@_WU?$char_traits@_W@std@@@std@@6B@ 6408c164     ui.obj
 0002:000041a4       ??_7?$basic_ostream@_WU?$char_traits@_W@std@@@std@@6B@ 6408c1a4     ui.obj
 0002:000041ac       ??_7?$ctype@_W@std@@6B@    6408c1ac     ui.obj
 0002:000041e4       ??_7system_error@std@@6B@  6408c1e4     ui.obj
 0002:000041f0       ??_7failure@ios_base@std@@6B@ 6408c1f0     ui.obj
 0002:000041f8       ??_C@_15OKNMGNJN@?$AA?$AB?$AA?6?$AA?$AA@ 6408c1f8     extract.obj
 0002:00004200       ??_C@_17MMMBOHJC@?$AA?5?$AA?$EA?$AA?5?$AA?$AA@ 6408c200     extract.obj
 0002:00004208       ??_C@_17DFGDFKBN@?$AA?5?$AA?1?$AA?5?$AA?$AA@ 6408c208     extract.obj
 0002:00004210       ??_C@_19IDMFBI@?$AA?$CJ?$AA?5?$AA?1?$AA?5?$AA?$AA@ 6408c210     extract.obj
 0002:0000421c       ??_C@_17HIKLPLBG@?$AA?5?$AA?9?$AA?5?$AA?$AA@ 6408c21c     extract.obj
 0002:00004224       ??_C@_13LLDNKHDC@?$AA?$CI?$AA?$AA@ 6408c224     extract.obj
 0002:00004228       ??_C@_0M@ELMNDOCL@extract?4cpp?$AA@ 6408c228     extract.obj
 0002:00004238       ??_7IArchiveExtractCallback@@6B@ 6408c238     extract.obj
 0002:0000425c       ??_7ICryptoGetTextPassword@@6B@ 6408c25c     extract.obj
 0002:00004270       ??_7ComBase@@6B@           6408c270     extract.obj
 0002:00004284       ??_7ExtractProgress@@6B@   6408c284     extract.obj
 0002:00004290       ??_7CachedFileExtractStream@@6BISequentialOutStream@@@ 6408c290     extract.obj
 0002:000042a4       ??_7CachedFileExtractStream@@6BComBase@@@ 6408c2a4     extract.obj
 0002:000042b8       ??_7ArchiveExtractor@@6BIArchiveExtractCallback@@@ 6408c2b8     extract.obj
 0002:000042dc       ??_7ArchiveExtractor@@6BICryptoGetTextPassword@@@ 6408c2dc     extract.obj
 0002:000042f0       ??_7ArchiveExtractor@@6BComBase@@@ 6408c2f0     extract.obj
 0002:00004304       ??_7PrepareExtract@@6B@    6408c304     extract.obj
 0002:00004310       ??_7SetDirAttr@@6B@        6408c310     extract.obj
 0002:0000431c       ??_7?$_Ref_count@_N@tr1@std@@6B@ 6408c31c     extract.obj
 0002:00004330       ??_7?$_Ref_count@W4OverwriteAction@@@tr1@std@@6B@ 6408c330     extract.obj
 0002:00004344       ??_7?$_Ref_count@VExtractProgress@@@tr1@std@@6B@ 6408c344     extract.obj
 0002:00004358       ??_7?$_Ref_count@VFileWriteCache@@@tr1@std@@6B@ 6408c358     extract.obj
 0002:0000436c       ??_7?$_Ref_count@V?$set@IU?$less@I@std@@V?$allocator@I@2@@std@@@tr1@std@@6B@ 6408c36c     extract.obj
 0002:0000437c       _IID_IProgress             6408c37c     extract.obj
 0002:0000438c       _IID_ISequentialOutStream  6408c38c     extract.obj
 0002:0000439c       _IID_IArchiveExtractCallback 6408c39c     extract.obj
 0002:000043ac       _IID_ICryptoGetTextPassword 6408c3ac     extract.obj
 0002:000043bc       ??_C@_08PBKAOBPC@open?4cpp?$AA@ 6408c3bc     open.obj
 0002:000043c8       ??_C@_1DC@IJGGMPKB@?$AAg?$AAe?$AAt?$AA_?$AAm?$AAa?$AAi?$AAn?$AA_?$AAf?$AAi?$AAl?$AAe?$AA?$CI?$AAm?$AAa?$AAi?$AAn?$AA_?$AAf?$AAi?$AAl?$AAe?$AA?$CJ?$AA?$AA@ 6408c3c8     open.obj
 0002:00004400       ??_C@_1FA@KJKBGIDM@?$AAg?$AAe?$AAt?$AA_?$AAs?$AAt?$AAr?$AAe?$AAa?$AAm?$AA?$CI?$AAm?$AAa?$AAi?$AAn?$AA_?$AAf?$AAi?$AAl?$AAe?$AA?0?$AA?5?$AAs?$AAu?$AAb?$AA_?$AAs?$AAt?$AAr?$AAe?$AAa?$AAm@ 6408c400     open.obj
 0002:00004450       ??_C@_1EE@OOLOIHM@?$AAo?$AAp?$AAe?$AAn?$AA?$CI?$AAs?$AAu?$AAb?$AA_?$AAs?$AAt?$AAr?$AAe?$AAa?$AAm?$AA?0?$AA?5?$AAa?$AAr?$AAc?$AA_?$AAe?$AAn?$AAt?$AAr?$AAy?$AA?9?$AA?$DO?$AAt?$AAy?$AAp?$AAe@ 6408c450     open.obj
 0002:00004498       ??_7IArchiveOpenCallback@@6B@ 6408c498     open.obj
 0002:000044b0       ??_7IArchiveOpenVolumeCallback@@6B@ 6408c4b0     open.obj
 0002:000044c8       ??_7ArchiveOpenStream@@6BIInStream@@@ 6408c4c8     open.obj
 0002:000044e0       ??_7ArchiveOpenStream@@6BComBase@@@ 6408c4e0     open.obj
 0002:000044f4       ??_7ArchiveOpener@@6BIArchiveOpenCallback@@@ 6408c4f4     open.obj
 0002:0000450c       ??_7ArchiveOpener@@6BIArchiveOpenVolumeCallback@@@ 6408c50c     open.obj
 0002:00004524       ??_7ArchiveOpener@@6BICryptoGetTextPassword@@@ 6408c524     open.obj
 0002:00004538       ??_7ArchiveOpener@@6BComBase@@@ 6408c538     open.obj
 0002:0000454c       ??_7ArchiveOpener@@6BProgressMonitor@@@ 6408c54c     open.obj
 0002:00004554       _IID_ISequentialInStream   6408c554     open.obj
 0002:00004564       _IID_IInStream             6408c564     open.obj
 0002:00004574       _IID_IArchiveOpenCallback  6408c574     open.obj
 0002:00004584       _IID_IArchiveOpenVolumeCallback 6408c584     open.obj
 0002:00004594       _IID_IInArchiveGetStream   6408c594     open.obj
 0002:000045a4       ??_C@_15BLMJCMIJ@?$AA?5?$AA?9?$AA?$AA@ 6408c5a4     update.obj
 0002:000045ac       ??_C@_13EJFHHPOP@?$AA?$CF?$AA?$AA@ 6408c5ac     update.obj
 0002:000045b0       ??_C@_17HLHNPJIN@?$AA?5?$AA?$DN?$AA?5?$AA?$AA@ 6408c5b0     update.obj
 0002:000045b8       ??_C@_17GPJGFMAC@?$AA?5?$CB?$JC?$AA?5?$AA?$AA@ 6408c5b8     update.obj
 0002:000045c0       ??_C@_0L@JMDIPHEI@update?4cpp?$AA@ 6408c5c0     update.obj
 0002:000045cc       ??_C@_1CA@ODCKIHEE@?$AAw?$AAr?$AAi?$AAt?$AAe?$AA_?$AAs?$AAi?$AAz?$AAe?$AA?5?$AA?$CB?$AA?$DN?$AA?5?$AA0?$AA?$AA@ 6408c5cc     update.obj
 0002:000045ec       ??_C@_13COJANIEC@?$AA0?$AA?$AA@ 6408c5ec     update.obj
 0002:000045f0       ??_C@_19KOBNBBOM@?$AA0?$AAm?$AAe?$AAm?$AA?$AA@ 6408c5f0     update.obj
 0002:000045fc       ??_C@_1BC@FIJNOCK@?$AA4?$AA1?$AA9?$AA4?$AA3?$AA0?$AA4?$AAB?$AA?$AA@ 6408c5fc     update.obj
 0002:00004610       ??_C@_15CJACLOKE@?$AA0?$AAo?$AA?$AA@ 6408c610     update.obj
 0002:00004618       ??_C@_1BE@HGPKAFDO@?$AA1?$AA6?$AA7?$AA7?$AA7?$AA2?$AA1?$AA6?$AAB?$AA?$AA@ 6408c618     update.obj
 0002:0000462c       ??_C@_1BE@GMALHBMC@?$AA6?$AA7?$AA1?$AA0?$AA8?$AA8?$AA6?$AA4?$AAB?$AA?$AA@ 6408c62c     update.obj
 0002:00004640       ??_C@_1BG@DLOICDCM@?$AA2?$AA0?$AA1?$AA3?$AA2?$AA6?$AA5?$AA9?$AA2?$AAB?$AA?$AA@ 6408c640     update.obj
 0002:00004658       ??_C@_15POADDJKF@?$AA0?$AAd?$AA?$AA@ 6408c658     update.obj
 0002:00004660       ??_C@_1O@JHHMKBMK@?$AA6?$AA5?$AA5?$AA3?$AA6?$AAB?$AA?$AA@ 6408c660     update.obj
 0002:00004670       ??_C@_17FAJCKACE@?$AA0?$AAf?$AAb?$AA?$AA@ 6408c670     update.obj
 0002:00004678       ??_C@_1BC@LHPIMLND@?$AA1?$AA0?$AA4?$AA8?$AA5?$AA7?$AA6?$AAB?$AA?$AA@ 6408c678     update.obj
 0002:0000468c       ??_C@_1BE@JNDEBEEH@?$AA3?$AA3?$AA5?$AA5?$AA4?$AA4?$AA3?$AA2?$AAB?$AA?$AA@ 6408c68c     update.obj
 0002:000046a0       ??_C@_13KHDBCPJB@?$AAs?$AA?$AA@ 6408c6a0     update.obj
 0002:000046a4       ??_C@_15KGGCNEFK@?$AAh?$AAe?$AA?$AA@ 6408c6a4     update.obj
 0002:000046ac       ??_C@_13HADAKIJA@?$AAx?$AA?$AA@ 6408c6ac     update.obj
 0002:000046b0       ??_C@_15BLPINJD@?$AAf?$AAb?$AA?$AA@ 6408c6b0     update.obj
 0002:000046b8       ??_C@_13GKPPEALH@?$AAd?$AA?$AA@ 6408c6b8     update.obj
 0002:000046bc       ??_C@_1BA@MOECGKND@?$AA1?$AA0?$AA2?$AA4?$AA0?$AA0?$AAB?$AA?$AA@ 6408c6bc     update.obj
 0002:000046cc       ??_C@_1BA@IOJHGHFI@?$AA5?$AA1?$AA2?$AA0?$AA0?$AA0?$AAB?$AA?$AA@ 6408c6cc     update.obj
 0002:000046dc       ??_C@_1BA@CPFEDDPM@?$AA9?$AA2?$AA1?$AA6?$AA0?$AA0?$AAB?$AA?$AA@ 6408c6dc     update.obj
 0002:000046ec       ??_C@_1BE@GPMKPLPA@?$AA5?$AA0?$AA3?$AA3?$AA1?$AA6?$AA4?$AA8?$AAB?$AA?$AA@ 6408c6ec     update.obj
 0002:00004704       ??_7ICryptoGetTextPassword2@@6B@ 6408c704     update.obj
 0002:00004718       ??_7CriticalSection@@6B@   6408c718     update.obj
 0002:00004720       ??_7ArchiveUpdateProgress@@6B@ 6408c720     update.obj
 0002:0000472c       ??_7UpdateStream@@6B@      6408c72c     update.obj
 0002:00004750       ??_7SimpleUpdateStream@@6BUpdateStream@@@ 6408c750     update.obj
 0002:00004774       ??_7SimpleUpdateStream@@6BComBase@@@ 6408c774     update.obj
 0002:00004788       ??_7SfxUpdateStream@@6BUpdateStream@@@ 6408c788     update.obj
 0002:000047ac       ??_7SfxUpdateStream@@6BComBase@@@ 6408c7ac     update.obj
 0002:000047c0       ??_7MultiVolumeUpdateStream@@6BUpdateStream@@@ 6408c7c0     update.obj
 0002:000047e4       ??_7MultiVolumeUpdateStream@@6BComBase@@@ 6408c7e4     update.obj
 0002:000047f8       ??_7FileReadStream@@6BIInStream@@@ 6408c7f8     update.obj
 0002:00004810       ??_7FileReadStream@@6BComBase@@@ 6408c810     update.obj
 0002:00004824       ??_7PrepareUpdate@@6B@     6408c824     update.obj
 0002:00004830       ??_7ArchiveUpdater@@6BIArchiveUpdateCallback@@@ 6408c830     update.obj
 0002:00004858       ??_7ArchiveUpdater@@6BICryptoGetTextPassword2@@@ 6408c858     update.obj
 0002:0000486c       ??_7ArchiveUpdater@@6BComBase@@@ 6408c86c     update.obj
 0002:00004880       ??_7DeleteSrcFiles@@6B@    6408c880     update.obj
 0002:0000488c       ??_7?$_Ref_count@V?$map@IUFileIndexInfo@@U?$less@I@std@@V?$allocator@U?$pair@$$CBIUFileIndexInfo@@@std@@@3@@std@@@tr1@std@@6B@ 6408c88c     update.obj
 0002:000048a0       ??_7?$_Ref_count@VArchiveUpdateProgress@@@tr1@std@@6B@ 6408c8a0     update.obj
 0002:000048b0       _IID_IOutStream            6408c8b0     update.obj
 0002:000048c0       _IID_IArchiveUpdateCallback 6408c8c0     update.obj
 0002:000048d0       _IID_ISetProperties        6408c8d0     update.obj
 0002:000048e0       _IID_ICryptoGetTextPassword2 6408c8e0     update.obj
 0002:000048f0       ??_C@_0L@NFFAKAN@delete?4cpp?$AA@ 6408c8f0     delete.obj
 0002:00004900       ??_7ArchiveFileDeleterProgress@@6B@ 6408c900     delete.obj
 0002:0000490c       ??_7ArchiveFileDeleterStream@@6BIOutStream@@@ 6408c90c     delete.obj
 0002:00004928       ??_7ArchiveFileDeleterStream@@6BComBase@@@ 6408c928     delete.obj
 0002:0000493c       ??_7ArchiveFileDeleter@@6BIArchiveUpdateCallback@@@ 6408c93c     delete.obj
 0002:00004964       ??_7ArchiveFileDeleter@@6BComBase@@@ 6408c964     delete.obj
 0002:00004978       ??_7?$_Ref_count@VArchiveFileDeleterProgress@@@tr1@std@@6B@ 6408c978     delete.obj
 0002:00004988       ??_C@_17FPIFMLJN@?$AAE?$AAs?$AAc?$AA?$AA@ 6408c988     options.obj
 0002:00004990       ??_C@_1BG@BBLLCINI@?$AAC?$AAo?$AAp?$AAy?$AAO?$AAp?$AAe?$AAn?$AAe?$AAd?$AA?$AA@ 6408c990     options.obj
 0002:000049a8       ??_C@_1BC@JPGJMLGC@?$AAp?$AAr?$AAo?$AAf?$AAi?$AAl?$AAe?$AAs?$AA?$AA@ 6408c9a8     options.obj
 0002:000049bc       ??_C@_17OJOFHEJE@?$AAa?$AAr?$AAc?$AA?$AA@ 6408c9bc     options.obj
 0002:000049c4       ??_C@_15FDMACJLB@?$AA7?$AAz?$AA?$AA@ 6408c9c4     options.obj
 0002:000049d0       ??_C@_1CFG@PDGPPMAP@?$AA?$CK?$AA?4?$AAr?$AAa?$AAr?$AA?0?$AA?$CK?$AA?4?$AAz?$AAi?$AAp?$AA?0?$AA?$CK?$AA?4?$AA?$FL?$AAz?$AAj?$AA?$FN?$AA?0?$AA?$CK?$AA?4?$AA?$FL?$AAb?$AAg?$AA7?$AAx?$AA?$FN?$AAz?$AA?0?$AA?$CK?$AA?4?$AA?$FL@ 6408c9d0     options.obj
 0002:00004c28       ??_C@_1BC@JCBBLHDN@?$AAs?$AAf?$AAx?$AA?4?$AAn?$AAa?$AAm?$AAe?$AA?$AA@ 6408cc28     options.obj
 0002:00004c3c       ??_C@_1CC@HONLGMMG@?$AAs?$AAf?$AAx?$AA?4?$AAr?$AAe?$AAp?$AAl?$AAa?$AAc?$AAe?$AA_?$AAi?$AAc?$AAo?$AAn?$AA?$AA@ 6408cc3c     options.obj
 0002:00004c60       ??_C@_1BM@JPIAFBBJ@?$AAs?$AAf?$AAx?$AA?4?$AAi?$AAc?$AAo?$AAn?$AA_?$AAp?$AAa?$AAt?$AAh?$AA?$AA@ 6408cc60     options.obj
 0002:00004c7c       ??_C@_1CI@JFOGOFA@?$AAs?$AAf?$AAx?$AA?4?$AAr?$AAe?$AAp?$AAl?$AAa?$AAc?$AAe?$AA_?$AAv?$AAe?$AAr?$AAs?$AAi?$AAo?$AAn?$AA?$AA@ 6408cc7c     options.obj
 0002:00004ca4       ??_C@_1CK@ELAOMKDG@?$AAs?$AAf?$AAx?$AA?4?$AAv?$AAe?$AAr?$AA_?$AAi?$AAn?$AAf?$AAo?$AA?4?$AAv?$AAe?$AAr?$AAs?$AAi?$AAo?$AAn?$AA?$AA@ 6408cca4     options.obj
 0002:00004cd0       ??_C@_1CM@BEBJAOOB@?$AAs?$AAf?$AAx?$AA?4?$AAv?$AAe?$AAr?$AA_?$AAi?$AAn?$AAf?$AAo?$AA?4?$AAc?$AAo?$AAm?$AAm?$AAe?$AAn?$AAt?$AAs?$AA?$AA@ 6408ccd0     options.obj
 0002:00004cfc       ??_C@_1DE@DCPPCPEM@?$AAs?$AAf?$AAx?$AA?4?$AAv?$AAe?$AAr?$AA_?$AAi?$AAn?$AAf?$AAo?$AA?4?$AAc?$AAo?$AAm?$AAp?$AAa?$AAn?$AAy?$AA_?$AAn?$AAa?$AAm?$AAe?$AA?$AA@ 6408ccfc     options.obj
 0002:00004d30       ??_C@_1DM@MFOMGNPE@?$AAs?$AAf?$AAx?$AA?4?$AAv?$AAe?$AAr?$AA_?$AAi?$AAn?$AAf?$AAo?$AA?4?$AAf?$AAi?$AAl?$AAe?$AA_?$AAd?$AAe?$AAs?$AAc?$AAr?$AAi?$AAp?$AAt?$AAi?$AAo?$AAn?$AA?$AA@ 6408cd30     options.obj
 0002:00004d6c       ??_C@_1DK@HPCOKLKF@?$AAs?$AAf?$AAx?$AA?4?$AAv?$AAe?$AAr?$AA_?$AAi?$AAn?$AAf?$AAo?$AA?4?$AAl?$AAe?$AAg?$AAa?$AAl?$AA_?$AAc?$AAo?$AAp?$AAy?$AAr?$AAi?$AAg?$AAh?$AAt?$AA?$AA@ 6408cd6c     options.obj
 0002:00004da8       ??_C@_1DE@DEHPBBNH@?$AAs?$AAf?$AAx?$AA?4?$AAv?$AAe?$AAr?$AA_?$AAi?$AAn?$AAf?$AAo?$AA?4?$AAp?$AAr?$AAo?$AAd?$AAu?$AAc?$AAt?$AA_?$AAn?$AAa?$AAm?$AAe?$AA?$AA@ 6408cda8     options.obj
 0002:00004ddc       ??_C@_1DE@CMPJDOC@?$AAs?$AAf?$AAx?$AA?4?$AAa?$AAp?$AAp?$AAe?$AAn?$AAd?$AA_?$AAi?$AAn?$AAs?$AAt?$AAa?$AAl?$AAl?$AA_?$AAc?$AAo?$AAn?$AAf?$AAi?$AAg?$AA?$AA@ 6408cddc     options.obj
 0002:00004e10       ??_C@_1DC@IBDCCCFH@?$AAs?$AAf?$AAx?$AA?4?$AAi?$AAn?$AAs?$AAt?$AAa?$AAl?$AAl?$AA_?$AAc?$AAo?$AAn?$AAf?$AAi?$AAg?$AA?4?$AAt?$AAi?$AAt?$AAl?$AAe?$AA?$AA@ 6408ce10     options.obj
 0002:00004e48       ??_C@_1EA@FHBMGOJC@?$AAs?$AAf?$AAx?$AA?4?$AAi?$AAn?$AAs?$AAt?$AAa?$AAl?$AAl?$AA_?$AAc?$AAo?$AAn?$AAf?$AAi?$AAg?$AA?4?$AAb?$AAe?$AAg?$AAi?$AAn?$AA_?$AAp?$AAr?$AAo?$AAm?$AAp?$AAt?$AA?$AA@ 6408ce48     options.obj
 0002:00004e88       ??_C@_1DI@FGFGCAEP@?$AAs?$AAf?$AAx?$AA?4?$AAi?$AAn?$AAs?$AAt?$AAa?$AAl?$AAl?$AA_?$AAc?$AAo?$AAn?$AAf?$AAi?$AAg?$AA?4?$AAp?$AAr?$AAo?$AAg?$AAr?$AAe?$AAs?$AAs?$AA?$AA@ 6408ce88     options.obj
 0002:00004ec0       ??_C@_1DO@EDLAEBAA@?$AAs?$AAf?$AAx?$AA?4?$AAi?$AAn?$AAs?$AAt?$AAa?$AAl?$AAl?$AA_?$AAc?$AAo?$AAn?$AAf?$AAi?$AAg?$AA?4?$AAr?$AAu?$AAn?$AA_?$AAp?$AAr?$AAo?$AAg?$AAr?$AAa?$AAm?$AA?$AA@ 6408cec0     options.obj
 0002:00004f00       ??_C@_1DK@JGHNKBKG@?$AAs?$AAf?$AAx?$AA?4?$AAi?$AAn?$AAs?$AAt?$AAa?$AAl?$AAl?$AA_?$AAc?$AAo?$AAn?$AAf?$AAi?$AAg?$AA?4?$AAd?$AAi?$AAr?$AAe?$AAc?$AAt?$AAo?$AAr?$AAy?$AA?$AA@ 6408cf00     options.obj
 0002:00004f40       ??_C@_1EA@KNCOOEHK@?$AAs?$AAf?$AAx?$AA?4?$AAi?$AAn?$AAs?$AAt?$AAa?$AAl?$AAl?$AA_?$AAc?$AAo?$AAn?$AAf?$AAi?$AAg?$AA?4?$AAe?$AAx?$AAe?$AAc?$AAu?$AAt?$AAe?$AA_?$AAf?$AAi?$AAl?$AAe?$AA?$AA@ 6408cf40     options.obj
 0002:00004f80       ??_C@_1EM@GLJDOHOC@?$AAs?$AAf?$AAx?$AA?4?$AAi?$AAn?$AAs?$AAt?$AAa?$AAl?$AAl?$AA_?$AAc?$AAo?$AAn?$AAf?$AAi?$AAg?$AA?4?$AAe?$AAx?$AAe?$AAc?$AAu?$AAt?$AAe?$AA_?$AAp?$AAa?$AAr?$AAa?$AAm@ 6408cf80     options.obj
 0002:00004fcc       ??_C@_1BM@BHABOEEP@?$AAh?$AAa?$AAn?$AAd?$AAl?$AAe?$AA_?$AAc?$AAr?$AAe?$AAa?$AAt?$AAe?$AA?$AA@ 6408cfcc     options.obj
 0002:00004fe8       ??_C@_1CA@FIGILPCF@?$AAh?$AAa?$AAn?$AAd?$AAl?$AAe?$AA_?$AAc?$AAo?$AAm?$AAm?$AAa?$AAn?$AAd?$AAs?$AA?$AA@ 6408cfe8     options.obj
 0002:00005008       ??_C@_1BM@IOCBKKLB@?$AAp?$AAl?$AAu?$AAg?$AAi?$AAn?$AA_?$AAp?$AAr?$AAe?$AAf?$AAi?$AAx?$AA?$AA@ 6408d008     options.obj
 0002:00005024       ??_C@_1BO@IEILHPMJ@?$AAm?$AAa?$AAx?$AA_?$AAc?$AAh?$AAe?$AAc?$AAk?$AA_?$AAs?$AAi?$AAz?$AAe?$AA?$AA@ 6408d024     options.obj
 0002:00005044       ??_C@_1CM@CBFIHEKK@?$AAe?$AAx?$AAt?$AAr?$AAa?$AAc?$AAt?$AA_?$AAi?$AAg?$AAn?$AAo?$AAr?$AAe?$AA_?$AAe?$AAr?$AAr?$AAo?$AAr?$AAs?$AA?$AA@ 6408d044     options.obj
 0002:00005070       ??_C@_1CE@HIFCNFIN@?$AAe?$AAx?$AAt?$AAr?$AAa?$AAc?$AAt?$AA_?$AAo?$AAv?$AAe?$AAr?$AAw?$AAr?$AAi?$AAt?$AAe?$AA?$AA@ 6408d070     options.obj
 0002:00005094       ??_C@_1CK@CPALOIJF@?$AAe?$AAx?$AAt?$AAr?$AAa?$AAc?$AAt?$AA_?$AAs?$AAe?$AAp?$AAa?$AAr?$AAa?$AAt?$AAe?$AA_?$AAd?$AAi?$AAr?$AA?$AA@ 6408d094     options.obj
 0002:000050c0       ??_C@_1CC@JIDFBFJI@?$AAe?$AAx?$AAt?$AAr?$AAa?$AAc?$AAt?$AA_?$AAo?$AAp?$AAe?$AAn?$AA_?$AAd?$AAi?$AAr?$AA?$AA@ 6408d0c0     options.obj
 0002:000050e4       ??_C@_1CO@BOJMLONJ@?$AAu?$AAp?$AAd?$AAa?$AAt?$AAe?$AA_?$AAa?$AAr?$AAc?$AA_?$AAf?$AAo?$AAr?$AAm?$AAa?$AAt?$AA_?$AAn?$AAa?$AAm?$AAe?$AA?$AA@ 6408d0e4     options.obj
 0002:00005114       ??_C@_1BK@CGJCKDIP@?$AAu?$AAp?$AAd?$AAa?$AAt?$AAe?$AA_?$AAl?$AAe?$AAv?$AAe?$AAl?$AA?$AA@ 6408d114     options.obj
 0002:00005130       ??_C@_1BM@MDOLGGCE@?$AAu?$AAp?$AAd?$AAa?$AAt?$AAe?$AA_?$AAm?$AAe?$AAt?$AAh?$AAo?$AAd?$AA?$AA@ 6408d130     options.obj
 0002:0000514c       ??_C@_1BK@BADBIELM@?$AAu?$AAp?$AAd?$AAa?$AAt?$AAe?$AA_?$AAs?$AAo?$AAl?$AAi?$AAd?$AA?$AA@ 6408d14c     options.obj
 0002:00005168       ??_C@_1CK@BCFJMECK@?$AAu?$AAp?$AAd?$AAa?$AAt?$AAe?$AA_?$AAs?$AAh?$AAo?$AAw?$AA_?$AAp?$AAa?$AAs?$AAs?$AAw?$AAo?$AAr?$AAd?$AA?$AA@ 6408d168     options.obj
 0002:00005194       ??_C@_1CM@HPBKHKPI@?$AAu?$AAp?$AAd?$AAa?$AAt?$AAe?$AA_?$AAe?$AAn?$AAc?$AAr?$AAy?$AAp?$AAt?$AA_?$AAh?$AAe?$AAa?$AAd?$AAe?$AAr?$AA?$AA@ 6408d194     options.obj
 0002:000051c0       ??_C@_1CG@KICFKBBP@?$AAu?$AAp?$AAd?$AAa?$AAt?$AAe?$AA_?$AAv?$AAo?$AAl?$AAu?$AAm?$AAe?$AA_?$AAs?$AAi?$AAz?$AAe?$AA?$AA@ 6408d1c0     options.obj
 0002:000051e8       ??_C@_1CK@ICOFBPBC@?$AAu?$AAp?$AAd?$AAa?$AAt?$AAe?$AA_?$AAi?$AAg?$AAn?$AAo?$AAr?$AAe?$AA_?$AAe?$AAr?$AAr?$AAo?$AAr?$AAs?$AA?$AA@ 6408d1e8     options.obj
 0002:00005214       ??_C@_1CC@JJLCAMDI@?$AAu?$AAp?$AAd?$AAa?$AAt?$AAe?$AA_?$AAo?$AAv?$AAe?$AAr?$AAw?$AAr?$AAi?$AAt?$AAe?$AA?$AA@ 6408d214     options.obj
 0002:00005238       ??_C@_1CE@CFBHBNFH@?$AAu?$AAp?$AAd?$AAa?$AAt?$AAe?$AA_?$AAa?$AAp?$AAp?$AAe?$AAn?$AAd?$AA_?$AAe?$AAx?$AAt?$AA?$AA@ 6408d238     options.obj
 0002:0000525c       ??_C@_1CI@LDHPGHDF@?$AAo?$AAw?$AAn?$AA_?$AAp?$AAa?$AAn?$AAe?$AAl?$AA_?$AAv?$AAi?$AAe?$AAw?$AA_?$AAm?$AAo?$AAd?$AAe?$AA?$AA@ 6408d25c     options.obj
 0002:00005284       ??_C@_1CA@BMEGBAGO@?$AAp?$AAa?$AAn?$AAe?$AAl?$AA_?$AAv?$AAi?$AAe?$AAw?$AA_?$AAm?$AAo?$AAd?$AAe?$AA?$AA@ 6408d284     options.obj
 0002:000052a4       ??_C@_1CA@FOAPJPME@?$AAp?$AAa?$AAn?$AAe?$AAl?$AA_?$AAs?$AAo?$AAr?$AAt?$AA_?$AAm?$AAo?$AAd?$AAe?$AA?$AA@ 6408d2a4     options.obj
 0002:000052c4       ??_C@_1CG@IMENIFAM@?$AAp?$AAa?$AAn?$AAe?$AAl?$AA_?$AAr?$AAe?$AAv?$AAe?$AAr?$AAs?$AAe?$AA_?$AAs?$AAo?$AAr?$AAt?$AA?$AA@ 6408d2c4     options.obj
 0002:000052ec       ??_C@_1CE@JGFBPPBK@?$AAu?$AAs?$AAe?$AA_?$AAi?$AAn?$AAc?$AAl?$AAu?$AAd?$AAe?$AA_?$AAm?$AAa?$AAs?$AAk?$AAs?$AA?$AA@ 6408d2ec     options.obj
 0002:00005310       ??_C@_1BM@KFJICIME@?$AAi?$AAn?$AAc?$AAl?$AAu?$AAd?$AAe?$AA_?$AAm?$AAa?$AAs?$AAk?$AAs?$AA?$AA@ 6408d310     options.obj
 0002:0000532c       ??_C@_1CE@IKFGFEP@?$AAu?$AAs?$AAe?$AA_?$AAe?$AAx?$AAc?$AAl?$AAu?$AAd?$AAe?$AA_?$AAm?$AAa?$AAs?$AAk?$AAs?$AA?$AA@ 6408d32c     options.obj
 0002:00005350       ??_C@_1BM@DLGMLCJB@?$AAe?$AAx?$AAc?$AAl?$AAu?$AAd?$AAe?$AA_?$AAm?$AAa?$AAs?$AAk?$AAs?$AA?$AA@ 6408d350     options.obj
 0002:0000536c       ??_C@_1BG@EHDBJMPF@?$AAp?$AAg?$AAd?$AAn?$AA_?$AAm?$AAa?$AAs?$AAk?$AAs?$AA?$AA@ 6408d36c     options.obj
 0002:00005384       ??_C@_1CI@EOKCLAPP@?$AAu?$AAs?$AAe?$AA_?$AAe?$AAn?$AAa?$AAb?$AAl?$AAe?$AAd?$AA_?$AAf?$AAo?$AAr?$AAm?$AAa?$AAt?$AAs?$AA?$AA@ 6408d384     options.obj
 0002:000053ac       ??_C@_1CA@KFAHFAPB@?$AAe?$AAn?$AAa?$AAb?$AAl?$AAe?$AAd?$AA_?$AAf?$AAo?$AAr?$AAm?$AAa?$AAt?$AAs?$AA?$AA@ 6408d3ac     options.obj
 0002:000053cc       ??_C@_1CK@JLKPDPGC@?$AAu?$AAs?$AAe?$AA_?$AAd?$AAi?$AAs?$AAa?$AAb?$AAl?$AAe?$AAd?$AA_?$AAf?$AAo?$AAr?$AAm?$AAa?$AAt?$AAs?$AA?$AA@ 6408d3cc     options.obj
 0002:000053f8       ??_C@_1CC@KFCGBLDB@?$AAd?$AAi?$AAs?$AAa?$AAb?$AAl?$AAe?$AAd?$AA_?$AAf?$AAo?$AAr?$AAm?$AAa?$AAt?$AAs?$AA?$AA@ 6408d3f8     options.obj
 0002:0000541c       ??_C@_1BK@LLAIEAGG@?$AAp?$AAg?$AAd?$AAn?$AA_?$AAf?$AAo?$AAr?$AAm?$AAa?$AAt?$AAs?$AA?$AA@ 6408d41c     options.obj
 0002:00005438       ??_C@_1BC@DNIPBCFP@?$AAa?$AAr?$AAc?$AA_?$AAt?$AAy?$AAp?$AAe?$AA?$AA@ 6408d438     options.obj
 0002:0000544c       ??_C@_1M@NNEKJJGI@?$AAl?$AAe?$AAv?$AAe?$AAl?$AA?$AA@ 6408d44c     options.obj
 0002:00005458       ??_C@_1O@BENICBGF@?$AAm?$AAe?$AAt?$AAh?$AAo?$AAd?$AA?$AA@ 6408d458     options.obj
 0002:00005468       ??_C@_1M@OLOJLOFL@?$AAs?$AAo?$AAl?$AAi?$AAd?$AA?$AA@ 6408d468     options.obj
 0002:00005474       ??_C@_1BC@OMIPJNBO@?$AAp?$AAa?$AAs?$AAs?$AAw?$AAo?$AAr?$AAd?$AA?$AA@ 6408d474     options.obj
 0002:00005488       ??_C@_1BA@OGAKGFHO@?$AAe?$AAn?$AAc?$AAr?$AAy?$AAp?$AAt?$AA?$AA@ 6408d488     options.obj
 0002:00005498       ??_C@_1BO@KNNCBMKF@?$AAe?$AAn?$AAc?$AAr?$AAy?$AAp?$AAt?$AA_?$AAh?$AAe?$AAa?$AAd?$AAe?$AAr?$AA?$AA@ 6408d498     options.obj
 0002:000054b8       ??_C@_1BG@OELPMCIK@?$AAc?$AAr?$AAe?$AAa?$AAt?$AAe?$AA_?$AAs?$AAf?$AAx?$AA?$AA@ 6408d4b8     options.obj
 0002:000054d0       ??_C@_1BO@PFMGJNDM@?$AAe?$AAn?$AAa?$AAb?$AAl?$AAe?$AA_?$AAv?$AAo?$AAl?$AAu?$AAm?$AAe?$AAs?$AA?$AA@ 6408d4d0     options.obj
 0002:000054f0       ??_C@_1BI@GIIMKBK@?$AAv?$AAo?$AAl?$AAu?$AAm?$AAe?$AA_?$AAs?$AAi?$AAz?$AAe?$AA?$AA@ 6408d4f0     options.obj
 0002:00005508       ??_C@_1BG@NKPGLON@?$AAm?$AAo?$AAv?$AAe?$AA_?$AAf?$AAi?$AAl?$AAe?$AAs?$AA?$AA@ 6408d508     options.obj
 0002:00005520       ??_C@_1BM@NLHOIHKK@?$AAi?$AAg?$AAn?$AAo?$AAr?$AAe?$AA_?$AAe?$AAr?$AAr?$AAo?$AAr?$AAs?$AA?$AA@ 6408d520     options.obj
 0002:0000553c       ??_C@_1BC@KBGADKLB@?$AAa?$AAd?$AAv?$AAa?$AAn?$AAc?$AAe?$AAd?$AA?$AA@ 6408d53c     options.obj
 0002:00005550       ??_C@_0BM@NMJKDPPO@invalid?5vector?$DMT?$DO?5subscript?$AA@ 6408d550     options.obj
 0002:0000556c       ??_C@_0BG@EOMJEIFA@vector?$DMbool?$DO?5too?5long?$AA@ 6408d56c     msearch.obj
 0002:00005584       ??_C@_08IJFGBAA@attr?4cpp?$AA@ 6408d584     attr.obj
 0002:00005590       ??_C@_1HA@NONJAHIG@?$AA_?$AAi?$AA6?$AA4?$AAt?$AAo?$AAw?$AA_?$AAs?$AA?$CI?$AAp?$AAr?$AAo?$AAp?$AA?4?$AAg?$AAe?$AAt?$AA_?$AAi?$AAn?$AAt?$AA?$CI?$AA?$CJ?$AA?0?$AA?5?$AAb?$AAu?$AAf?$AA?0?$AA?5?$AAA@ 6408d590     attr.obj
 0002:00005600       ??_C@_1HE@KIMNAEG@?$AA_?$AAu?$AAi?$AA6?$AA4?$AAt?$AAo?$AAw?$AA_?$AAs?$AA?$CI?$AAp?$AAr?$AAo?$AAp?$AA?4?$AAg?$AAe?$AAt?$AA_?$AAu?$AAi?$AAn?$AAt?$AA?$CI?$AA?$CJ?$AA?0?$AA?5?$AAb?$AAu?$AAf?$AA?0@ 6408d600     attr.obj
 0002:00005674       ??_C@_13HOIJIPNN@?$AA?5?$AA?$AA@ 6408d674     attr.obj
 0002:00005678       ??_C@_1CC@OGGOJHEF@?$AAR?$AAH?$AAS?$AA8?$AAD?$AAA?$AAd?$AAN?$AAT?$AAs?$AAr?$AAC?$AAO?$AAn?$AAE?$AA_?$AA?$AA@ 6408d678     attr.obj
 0002:0000569c       ??_C@_08ENCNIKBI@test?4cpp?$AA@ 6408d69c     test.obj
 0002:000056ac       ??_7ArchiveTester@@6BIArchiveExtractCallback@@@ 6408d6ac     test.obj
 0002:000056d0       ??_7ArchiveTester@@6BICryptoGetTextPassword@@@ 6408d6d0     test.obj
 0002:000056e4       ??_7ArchiveTester@@6BComBase@@@ 6408d6e4     test.obj
 0002:000056f8       ??_7ArchiveTester@@6BProgressMonitor@@@ 6408d6f8     test.obj
 0002:00005700       ??_C@_1CA@PMIEPGIA@?$AA?$CJ?$AA?5?$AAK?$AAe?$AAy?$AAs?$AA?$CI?$AA?8?$AAE?$AAn?$AAt?$AAe?$AAr?$AA?8?$AA?$CJ?$AA?$AA@ 6408d700     common.obj
 0002:00005720       ??_C@_1O@BBPMHPCD@?$AAp?$AAr?$AAi?$AAn?$AAt?$AA?$CI?$AA?$AA@ 6408d720     common.obj
 0002:00005730       ??_C@_0L@PIMMLIEG@common?4cpp?$AA@ 6408d730     common.obj
 0002:0000573c       ??_C@_1CI@FOKFAKOH@?$AA?$DL?$AA?$CB?$AA?$EA?$AAI?$AAn?$AAs?$AAt?$AAa?$AAl?$AAl?$AA?$EA?$AA?$CB?$AAU?$AAT?$AAF?$AA?9?$AA8?$AA?$CB?$AA?6?$AA?$AA@ 6408d73c     sfx.obj
 0002:00005764       ??_C@_15GLOEBKAF@?$AA?$CC?$AA?6?$AA?$AA@ 6408d764     sfx.obj
 0002:0000576c       ??_C@_1BA@OLOEMDEM@?$AAT?$AAi?$AAt?$AAl?$AAe?$AA?$DN?$AA?$CC?$AA?$AA@ 6408d76c     sfx.obj
 0002:0000577c       ??_C@_1BM@GIJJCMLO@?$AAB?$AAe?$AAg?$AAi?$AAn?$AAP?$AAr?$AAo?$AAm?$AAp?$AAt?$AA?$DN?$AA?$CC?$AA?$AA@ 6408d77c     sfx.obj
 0002:00005798       ??_C@_1BG@NCOBKEDJ@?$AAP?$AAr?$AAo?$AAg?$AAr?$AAe?$AAs?$AAs?$AA?$DN?$AA?$CC?$AA?$AA@ 6408d798     sfx.obj
 0002:000057b0       ??_C@_1BK@KFKMPGNC@?$AAR?$AAu?$AAn?$AAP?$AAr?$AAo?$AAg?$AAr?$AAa?$AAm?$AA?$DN?$AA?$CC?$AA?$AA@ 6408d7b0     sfx.obj
 0002:000057cc       ??_C@_1BI@LDJDHMHI@?$AAD?$AAi?$AAr?$AAe?$AAc?$AAt?$AAo?$AAr?$AAy?$AA?$DN?$AA?$CC?$AA?$AA@ 6408d7cc     sfx.obj
 0002:000057e4       ??_C@_1BM@GCHJMPFL@?$AAE?$AAx?$AAe?$AAc?$AAu?$AAt?$AAe?$AAF?$AAi?$AAl?$AAe?$AA?$DN?$AA?$CC?$AA?$AA@ 6408d7e4     sfx.obj
 0002:00005800       ??_C@_1CI@KHPPDIK@?$AAE?$AAx?$AAe?$AAc?$AAu?$AAt?$AAe?$AAP?$AAa?$AAr?$AAa?$AAm?$AAe?$AAt?$AAe?$AAr?$AAs?$AA?$DN?$AA?$CC?$AA?$AA@ 6408d800     sfx.obj
 0002:00005828       ??_C@_1CC@OAOKHGML@?$AA?$DL?$AA?$CB?$AA?$EA?$AAI?$AAn?$AAs?$AAt?$AAa?$AAl?$AAl?$AAE?$AAn?$AAd?$AA?$EA?$AA?$CB?$AA?6?$AA?$AA@ 6408d828     sfx.obj
 0002:0000584c       ??_C@_07JLLJJILI@sfx?4cpp?$AA@ 6408d84c     sfx.obj
 0002:00005854       ??_C@_1DM@BJNOLDOM@?$AAs?$AAf?$AAx?$AA_?$AAi?$AAd?$AA?5?$AA?$DM?$AA?5?$AAA?$AAr?$AAc?$AAA?$AAP?$AAI?$AA?3?$AA?3?$AAs?$AAf?$AAx?$AA?$CI?$AA?$CJ?$AA?4?$AAs?$AAi?$AAz?$AAe?$AA?$CI?$AA?$CJ?$AA?$AA@ 6408d854     sfx.obj
 0002:00005890       ??_C@_1GG@NAMIJFA@?$AAd?$AAs?$AAt?$AA_?$AAf?$AAi?$AAl?$AAe?$AA?4?$AAw?$AAr?$AAi?$AAt?$AAe?$AA?$CI?$AAb?$AAu?$AAf?$AA?4?$AAd?$AAa?$AAt?$AAa?$AA?$CI?$AA?$CJ?$AA?0?$AA?5?$AAs?$AAi?$AAz?$AAe?$AA_@ 6408d890     sfx.obj
 0002:000058f8       ??_C@_17IHBDLLG@?$AAy?$AAe?$AAs?$AA?$AA@ 6408d8f8     sfx.obj
 0002:00005900       ??_C@_15BPIGNHCD@?$AAn?$AAo?$AA?$AA@ 6408d900     sfx.obj
 0002:00005908       ??_C@_1BG@HKPDLJKO@?$AAS?$AAf?$AAx?$AAO?$AAp?$AAt?$AAi?$AAo?$AAn?$AAs?$AA?$AA@ 6408d908     sfx.obj
 0002:00005920       ??_C@_1CE@CCMGPAPF@?$AAa?$AAr?$AAc?$AAl?$AAi?$AAt?$AAe?$AA?4?$AAi?$AAc?$AAo?$AAn?$AA_?$AAp?$AAa?$AAt?$AAh?$AA?$AA@ 6408d920     sfx.obj
 0002:00005948       ??_7AttachSfxModuleProgress@@6B@ 6408d948     sfx.obj
 0002:00005954       ??_7SfxOptionsDialog@@6B@  6408d954     sfx.obj
 0002:00005958       ??_C@_19EGECPPFB@?$AAp?$AAp?$AAm?$AAd?$AA?$AA@ 6408d958     cmdline.obj
 0002:00005964       ??_C@_1M@JKHNFEPH@?$AAl?$AAz?$AAm?$AAa?$AA2?$AA?$AA@ 6408d964     cmdline.obj
 0002:00005970       ??_C@_19NNMOHCMN@?$AAl?$AAz?$AAm?$AAa?$AA?$AA@ 6408d970     cmdline.obj
 0002:0000597c       ??_C@_13PHCIHIAO@?$AAc?$AA?$AA@ 6408d97c     cmdline.obj
 0002:00005980       ??_C@_13ICFKHAEN@?$AAu?$AA?$AA@ 6408d980     cmdline.obj
 0002:00005984       ??_C@_13DKOGBHCI@?$AAt?$AA?$AA@ 6408d984     cmdline.obj
 0002:00005988       ??_C@_13MIIMMPPF@?$AAy?$AA?$AA@ 6408d988     cmdline.obj
 0002:0000598c       ??_C@_13FECKAND@?$AAn?$AA?$AA@ 6408d98c     cmdline.obj
 0002:00005990       ??_C@_0M@ECEFEAAC@cmdline?4cpp?$AA@ 6408d990     cmdline.obj
 0002:0000599c       ??_C@_13FNCBLAIF@?$AAa?$AA?$AA@ 6408d99c     cmdline.obj
 0002:000059a0       ??_C@_13LFIEIAHP@?$AAp?$AA?$AA@ 6408d9a0     cmdline.obj
 0002:000059a4       ??_C@_15IECJDLIK@?$AAp?$AAr?$AA?$AA@ 6408d9a4     cmdline.obj
 0002:000059ac       ??_C@_13KPELGIFI@?$AAl?$AA?$AA@ 6408d9ac     cmdline.obj
 0002:000059b0       ??_C@_13BHPHAPDN@?$AAm?$AA?$AA@ 6408d9b0     cmdline.obj
 0002:000059b4       ??_C@_15OIJGBPFJ@?$AAe?$AAh?$AA?$AA@ 6408d9b4     cmdline.obj
 0002:000059bc       ??_C@_17MICENCNB@?$AAs?$AAf?$AAx?$AA?$AA@ 6408d9bc     cmdline.obj
 0002:000059c4       ??_C@_13JAOPNPKD@?$AAv?$AA?$AA@ 6408d9c4     cmdline.obj
 0002:000059c8       ??_C@_15OEBKOKAH@?$AAm?$AAf?$AA?$AA@ 6408d9c8     cmdline.obj
 0002:000059d0       ??_C@_15GNDOAHPP@?$AAi?$AAe?$AA?$AA@ 6408d9d0     cmdline.obj
 0002:000059d8       ??_C@_13LNPOMHLG@?$AAo?$AA?$AA@ 6408d9d8     cmdline.obj
 0002:000059dc       ??_C@_17FLKNDCLP@?$AAa?$AAd?$AAv?$AA?$AA@ 6408d9dc     cmdline.obj
 0002:000059e4       ??_C@_13BPINEIPE@?$AAr?$AA?$AA@ 6408d9e4     cmdline.obj
 0002:000059e8       ??_C@_15HHMPEBGH@?$AAs?$AAd?$AA?$AA@ 6408d9e8     cmdline.obj
 0002:000059f0       ??_C@_15FOMCIDHG@?$AAd?$AAa?$AA?$AA@ 6408d9f0     cmdline.obj
 0002:000059f8       ??_C@_08DMEHPCKJ@rsrc?4cpp?$AA@ 6408d9f8     rsrc.obj
 0002:00005a08       ??_C@_1GK@MOFBPDLL@?$AAe?$AAn?$AAt?$AAr?$AAy?$AA?4?$AAi?$AAm?$AAa?$AAg?$AAe?$AA_?$AAo?$AAf?$AAf?$AAs?$AAe?$AAt?$AA?5?$AA?$CL?$AA?5?$AAe?$AAn?$AAt?$AAr?$AAy?$AA?4?$AAb?$AAy?$AAt?$AAe?$AAs@ 6408da08     rsrc.obj
 0002:00005a74       ??_C@_1CA@FOECMPGO@?$AAV?$AAS?$AA_?$AAV?$AAE?$AAR?$AAS?$AAI?$AAO?$AAN?$AA_?$AAI?$AAN?$AAF?$AAO?$AA?$AA@ 6408da74     rsrc.obj
 0002:00005a94       ??_C@_1BO@PBBNDBNF@?$AAS?$AAt?$AAr?$AAi?$AAn?$AAg?$AAF?$AAi?$AAl?$AAe?$AAI?$AAn?$AAf?$AAo?$AA?$AA@ 6408da94     rsrc.obj
 0002:00005ab4       ??_C@_19MABGBOMG@?$AA0?$AA4?$AAb?$AA0?$AA?$AA@ 6408dab4     rsrc.obj
 0002:00005ac0       ??_C@_1BC@OJAINIIB@?$AAC?$AAo?$AAm?$AAm?$AAe?$AAn?$AAt?$AAs?$AA?$AA@ 6408dac0     rsrc.obj
 0002:00005ad4       ??_C@_1BI@KBKGFMKH@?$AAC?$AAo?$AAm?$AAp?$AAa?$AAn?$AAy?$AAN?$AAa?$AAm?$AAe?$AA?$AA@ 6408dad4     rsrc.obj
 0002:00005aec       ??_C@_1CA@JGBAIPOO@?$AAF?$AAi?$AAl?$AAe?$AAD?$AAe?$AAs?$AAc?$AAr?$AAi?$AAp?$AAt?$AAi?$AAo?$AAn?$AA?$AA@ 6408daec     rsrc.obj
 0002:00005b0c       ??_C@_1BI@HCCAONKE@?$AAF?$AAi?$AAl?$AAe?$AAV?$AAe?$AAr?$AAs?$AAi?$AAo?$AAn?$AA?$AA@ 6408db0c     rsrc.obj
 0002:00005b24       ??_C@_1BO@DAFANMIE@?$AAL?$AAe?$AAg?$AAa?$AAl?$AAC?$AAo?$AAp?$AAy?$AAr?$AAi?$AAg?$AAh?$AAt?$AA?$AA@ 6408db24     rsrc.obj
 0002:00005b44       ??_C@_1BI@CJGIOPAN@?$AAP?$AAr?$AAo?$AAd?$AAu?$AAc?$AAt?$AAN?$AAa?$AAm?$AAe?$AA?$AA@ 6408db44     rsrc.obj
 0002:00005b5c       ??_C@_1BO@OKEPMKJE@?$AAP?$AAr?$AAo?$AAd?$AAu?$AAc?$AAt?$AAV?$AAe?$AAr?$AAs?$AAi?$AAo?$AAn?$AA?$AA@ 6408db5c     rsrc.obj
 0002:00005b7c       ??_C@_1BI@LJHFMFCG@?$AAV?$AAa?$AAr?$AAF?$AAi?$AAl?$AAe?$AAI?$AAn?$AAf?$AAo?$AA?$AA@ 6408db7c     rsrc.obj
 0002:00005b94       ??_C@_1BI@OMFAJHAK@?$AAT?$AAr?$AAa?$AAn?$AAs?$AAl?$AAa?$AAt?$AAi?$AAo?$AAn?$AA?$AA@ 6408db94     rsrc.obj
 0002:00005bac       ??_C@_0N@NEKDJBOO@farutils?4cpp?$AA@ 6408dbac     farutils.obj
 0002:00005bc0       ??_C@_1GM@ELBBCICA@?$AAs?$AAi?$AAz?$AAe?$AA?5?$AA?$DO?$AA?$DN?$AA?5?$AAs?$AAi?$AAz?$AAe?$AAo?$AAf?$AA?$CI?$AAF?$AAa?$AAr?$AAP?$AAa?$AAn?$AAe?$AAl?$AAD?$AAi?$AAr?$AAe?$AAc?$AAt?$AAo?$AAr?$AAy@ 6408dbc0     farutils.obj
 0002:00005c2c       ??_C@_1CG@GFKBHPGN@?$AAs?$AAi?$AAz?$AAe?$AA?5?$AA?$DN?$AA?$DN?$AA?5?$AAb?$AAu?$AAf?$AA?4?$AAs?$AAi?$AAz?$AAe?$AA?$CI?$AA?$CJ?$AA?$AA@ 6408dc2c     farutils.obj
 0002:00005c54       ??_C@_15FEDGKCDI@?$AAr?$AAu?$AA?$AA@ 6408dc54     farutils.obj
 0002:00005c60       ??_7Dialog@Far@@6B@        6408dc60     farutils.obj
 0002:00005c64       ??_C@_15LEKKCGMK@?$AA?2?$AA?2?$AA?$AA@ 6408dc64     pathutils.obj
 0002:00005c6c       ??_C@_15DKMKFLDO@?$AA?$DP?$AA?2?$AA?$AA@ 6408dc6c     pathutils.obj
 0002:00005c74       ??_C@_15PCEAIKAA@?$AA?4?$AA?2?$AA?$AA@ 6408dc74     pathutils.obj
 0002:00005c7c       ??_C@_1BA@BFGBFLGI@?$AA?2?$AA?2?$AA?$DP?$AA?2?$AAU?$AAN?$AAC?$AA?$AA@ 6408dc7c     pathutils.obj
 0002:00005c8c       ??_C@_19MJCDBCKE@?$AA?2?$AA?2?$AA?$DP?$AA?2?$AA?$AA@ 6408dc8c     pathutils.obj
 0002:00005c98       ??_C@_1O@IBEKDEPM@?$AA?$DP?$AA?2?$AAU?$AAN?$AAC?$AA?2?$AA?$AA@ 6408dc98     pathutils.obj
 0002:00005ca8       ??_C@_15GKAHMKIN@?$AA?3?$AA?2?$AA?$AA@ 6408dca8     pathutils.obj
 0002:00005cb0       ??_C@_17LGKOMLJ@?$AA?4?$AA?4?$AA?4?$AA?$AA@ 6408dcb0     strutils.obj
 0002:00005cb8       ??_C@_1BA@MDJFAEBM@?$AAw?$AAi?$AAn?$AAh?$AAt?$AAt?$AAp?$AA?$AA@ 6408dcb8     sysutils.obj
 0002:00005cc8       ??_C@_13DIBMAFH@?$AA?$CJ?$AA?$AA@ 6408dcc8     sysutils.obj
 0002:00005ccc       ??_C@_19NDEKGCGE@?$AA?5?$AA?$CI?$AA0?$AAx?$AA?$AA@ 6408dccc     sysutils.obj
 0002:00005cd8       ??_C@_1BI@EPLLDPGF@?$AAH?$AAR?$AAE?$AAS?$AAU?$AAL?$AAT?$AA?3?$AA?5?$AA0?$AAx?$AA?$AA@ 6408dcd8     sysutils.obj
 0002:00005cf0       ??_C@_0N@LGBBMAOF@sysutils?4cpp?$AA@ 6408dcf0     sysutils.obj
 0002:00005d00       ??_C@_1CE@MHDMOOMJ@?$AAl?$AAe?$AAn?$AA?5?$AA?$DM?$AA?$DN?$AA?5?$AAb?$AAu?$AAf?$AA?4?$AAs?$AAi?$AAz?$AAe?$AA?$CI?$AA?$CJ?$AA?$AA@ 6408dd00     sysutils.obj
 0002:00005d24       ??_C@_1CG@EKGDMFPK@?$AAs?$AAi?$AAz?$AAe?$AA?5?$AA?$DM?$AA?5?$AAp?$AAa?$AAt?$AAh?$AA?4?$AAs?$AAi?$AAz?$AAe?$AA?$CI?$AA?$CJ?$AA?$AA@ 6408dd24     sysutils.obj
 0002:00005d4c       ??_C@_0O@NLDKAIKN@EncodePointer?$AA@ 6408dd4c     vc_crt_fix_impl.obj
 0002:00005d5c       ??_C@_0O@KBPMFGHI@DecodePointer?$AA@ 6408dd5c     vc_crt_fix_impl.obj
 0002:00005d6c       ??_C@_0BD@GIGEJCNH@GetModuleHandleExW?$AA@ 6408dd6c     vc_crt_fix_impl.obj
 0002:00005d80       ??_C@_1BC@GDMECMAK@?$AAk?$AAe?$AAr?$AAn?$AAe?$AAl?$AA3?$AA2?$AA?$AA@ 6408dd80     vc_crt_fix_impl.obj
 0002:00005d98       __real@3fe0000000000000    6408dd98      CIL library: CIL module
 0002:00005da0       __real@7fefffffffffffff    6408dda0      CIL library: CIL module
 0002:00005da8       __real@4059000000000000    6408dda8      CIL library: CIL module
 0002:00005db0       __real@41f0000000000000    6408ddb0      CIL library: CIL module
 0002:00005db8       __real@4008000000000000    6408ddb8      CIL library: CIL module
 0002:00005dc0       __real@404e000000000000    6408ddc0      CIL library: CIL module
 0002:00005dc8       __real@38aa95a5b7f87a0f    6408ddc8      CIL library: CIL module
 0002:00005dd0       __real@4202a05f20000000    6408ddd0      CIL library: CIL module
 0002:00005dd8       __real@4733426172c74d82    6408ddd8      CIL library: CIL module
 0002:00005de0       __FPinit                   6408dde0     LIBCMT:_fpinit_.obj
 0002:00005de4       ??_C@_05KLBDPFGC@e?$CL000?$AA@ 6408dde4     LIBCMT:cvt.obj
 0002:00005dec       ??_C@_06IMKFLFPG@1?$CDQNAN?$AA@ 6408ddec     LIBCMT:_x10fout_.obj
 0002:00005df4       ??_C@_05DNEBIAHO@1?$CDINF?$AA@ 6408ddf4     LIBCMT:_x10fout_.obj
 0002:00005dfc       ??_C@_05PHHOCPM@1?$CDIND?$AA@ 6408ddfc     LIBCMT:_x10fout_.obj
 0002:00005e04       ??_C@_06PGGFOGJG@1?$CDSNAN?$AA@ 6408de04     LIBCMT:_x10fout_.obj
 0002:00005e10       __load_config_used         6408de10     LIBCMT:loadcfg.obj
 0002:00005e58       ??_R4logic_error@std@@6B@  6408de58     libcpmt:xthrow.obj
 0002:00005e6c       ??_R3logic_error@std@@8    6408de6c     libcpmt:xthrow.obj
 0002:00005e7c       ??_R2logic_error@std@@8    6408de7c     libcpmt:xthrow.obj
 0002:00005e88       ??_R1A@?0A@EA@logic_error@std@@8 6408de88     libcpmt:xthrow.obj
 0002:00005ea4       ??_R4length_error@std@@6B@ 6408dea4     libcpmt:xthrow.obj
 0002:00005eb8       ??_R3length_error@std@@8   6408deb8     libcpmt:xthrow.obj
 0002:00005ec8       ??_R2length_error@std@@8   6408dec8     libcpmt:xthrow.obj
 0002:00005ed8       ??_R1A@?0A@EA@length_error@std@@8 6408ded8     libcpmt:xthrow.obj
 0002:00005ef4       ??_R4out_of_range@std@@6B@ 6408def4     libcpmt:xthrow.obj
 0002:00005f08       ??_R3out_of_range@std@@8   6408df08     libcpmt:xthrow.obj
 0002:00005f18       ??_R2out_of_range@std@@8   6408df18     libcpmt:xthrow.obj
 0002:00005f28       ??_R1A@?0A@EA@out_of_range@std@@8 6408df28     libcpmt:xthrow.obj
 0002:00005f44       ??_R4error_category@std@@6B@ 6408df44     libcpmt:syserror.obj
 0002:00005f58       ??_R3error_category@std@@8 6408df58     libcpmt:syserror.obj
 0002:00005f68       ??_R2error_category@std@@8 6408df68     libcpmt:syserror.obj
 0002:00005f70       ??_R1A@?0A@EA@error_category@std@@8 6408df70     libcpmt:syserror.obj
 0002:00005f8c       ??_R4_Generic_error_category@std@@6B@ 6408df8c     libcpmt:syserror.obj
 0002:00005fa0       ??_R3_Generic_error_category@std@@8 6408dfa0     libcpmt:syserror.obj
 0002:00005fb0       ??_R2_Generic_error_category@std@@8 6408dfb0     libcpmt:syserror.obj
 0002:00005fbc       ??_R1A@?0A@EA@_Generic_error_category@std@@8 6408dfbc     libcpmt:syserror.obj
 0002:00005fd8       ??_R4_Iostream_error_category@std@@6B@ 6408dfd8     libcpmt:syserror.obj
 0002:00005fec       ??_R3_Iostream_error_category@std@@8 6408dfec     libcpmt:syserror.obj
 0002:00005ffc       ??_R2_Iostream_error_category@std@@8 6408dffc     libcpmt:syserror.obj
 0002:00006008       ??_R1A@?0A@EA@_Iostream_error_category@std@@8 6408e008     libcpmt:syserror.obj
 0002:00006024       ??_R4_System_error_category@std@@6B@ 6408e024     libcpmt:syserror.obj
 0002:00006038       ??_R3_System_error_category@std@@8 6408e038     libcpmt:syserror.obj
 0002:00006048       ??_R2_System_error_category@std@@8 6408e048     libcpmt:syserror.obj
 0002:00006058       ??_R1A@?0A@EA@_System_error_category@std@@8 6408e058     libcpmt:syserror.obj
 0002:00006074       ??_R4_Locimp@locale@std@@6B@ 6408e074     libcpmt:locale0.obj
 0002:00006088       ??_R3_Locimp@locale@std@@8 6408e088     libcpmt:locale0.obj
 0002:00006098       ??_R2_Locimp@locale@std@@8 6408e098     libcpmt:locale0.obj
 0002:000060a4       ??_R1A@?0A@EA@_Locimp@locale@std@@8 6408e0a4     libcpmt:locale0.obj
 0002:000060c0       ??_R4exception@std@@6B@    6408e0c0     LIBCMT:stdexcpt.obj
 0002:000060d4       ??_R4bad_cast@std@@6B@     6408e0d4     LIBCMT:stdexcpt.obj
 0002:000060e8       ??_R3bad_cast@std@@8       6408e0e8     LIBCMT:stdexcpt.obj
 0002:000060f8       ??_R2bad_cast@std@@8       6408e0f8     LIBCMT:stdexcpt.obj
 0002:00006104       ??_R1A@?0A@EA@bad_cast@std@@8 6408e104     LIBCMT:stdexcpt.obj
 0002:00006120       ??_R4bad_typeid@std@@6B@   6408e120     LIBCMT:stdexcpt.obj
 0002:00006134       ??_R3bad_typeid@std@@8     6408e134     LIBCMT:stdexcpt.obj
 0002:00006144       ??_R2bad_typeid@std@@8     6408e144     LIBCMT:stdexcpt.obj
 0002:00006150       ??_R1A@?0A@EA@bad_typeid@std@@8 6408e150     LIBCMT:stdexcpt.obj
 0002:0000616c       ??_R4__non_rtti_object@std@@6B@ 6408e16c     LIBCMT:stdexcpt.obj
 0002:00006180       ??_R3__non_rtti_object@std@@8 6408e180     LIBCMT:stdexcpt.obj
 0002:00006190       ??_R2__non_rtti_object@std@@8 6408e190     LIBCMT:stdexcpt.obj
 0002:000061a0       ??_R1A@?0A@EA@__non_rtti_object@std@@8 6408e1a0     LIBCMT:stdexcpt.obj
 0002:000061bc       ??_R4type_info@@6B@        6408e1bc     LIBCMT:typinfo.obj
 0002:000061d0       ??_R3type_info@@8          6408e1d0     LIBCMT:typinfo.obj
 0002:000061e0       ??_R2type_info@@8          6408e1e0     LIBCMT:typinfo.obj
 0002:000061e8       ??_R1A@?0A@EA@type_info@@8 6408e1e8     LIBCMT:typinfo.obj
 0002:00006204       ??_R4bad_exception@std@@6B@ 6408e204     LIBCMT:frame.obj
 0002:00006218       ??_R3bad_exception@std@@8  6408e218     LIBCMT:frame.obj
 0002:00006228       ??_R2bad_exception@std@@8  6408e228     LIBCMT:frame.obj
 0002:00006234       ??_R1A@?0A@EA@bad_exception@std@@8 6408e234     LIBCMT:frame.obj
 0002:00006250       ??_R4bad_alloc@std@@6B@    6408e250     archive.obj
 0002:00006264       ??_R3bad_alloc@std@@8      6408e264     archive.obj
 0002:00006274       ??_R2bad_alloc@std@@8      6408e274     archive.obj
 0002:00006280       ??_R1A@?0A@EA@exception@std@@8 6408e280     archive.obj
 0002:0000629c       ??_R3exception@std@@8      6408e29c     archive.obj
 0002:000062ac       ??_R2exception@std@@8      6408e2ac     archive.obj
 0002:000062b4       ??_R1A@?0A@EA@bad_alloc@std@@8 6408e2b4     archive.obj
 0002:000062d0       ??_R4_Ref_count_base@tr1@std@@6B@ 6408e2d0     plugin.obj
 0002:000062e4       ??_R4bad_weak_ptr@tr1@std@@6B@ 6408e2e4     plugin.obj
 0002:000062f8       ??_R3bad_weak_ptr@tr1@std@@8 6408e2f8     plugin.obj
 0002:00006308       ??_R2bad_weak_ptr@tr1@std@@8 6408e308     plugin.obj
 0002:00006314       ??_R1A@?0A@EA@bad_weak_ptr@tr1@std@@8 6408e314     plugin.obj
 0002:00006330       ??_R4?$_Ref_count_del@XV<lambda11>@?A0xc5e9a1c5@@@tr1@std@@6B@ 6408e330     plugin.obj
 0002:00006344       ??_R3?$_Ref_count_del@XV<lambda11>@?A0xc5e9a1c5@@@tr1@std@@8 6408e344     plugin.obj
 0002:00006354       ??_R2?$_Ref_count_del@XV<lambda11>@?A0xc5e9a1c5@@@tr1@std@@8 6408e354     plugin.obj
 0002:00006360       ??_R1A@?0A@EA@?$_Ref_count_del@XV<lambda11>@?A0xc5e9a1c5@@@tr1@std@@8 6408e360     plugin.obj
 0002:0000637c       ??_R4?$_Ref_count@V?$list@UError@@V?$allocator@UError@@@std@@@std@@@tr1@std@@6B@ 6408e37c     plugin.obj
 0002:00006390       ??_R3?$_Ref_count@V?$list@UError@@V?$allocator@UError@@@std@@@std@@@tr1@std@@8 6408e390     plugin.obj
 0002:000063a0       ??_R2?$_Ref_count@V?$list@UError@@V?$allocator@UError@@@std@@@std@@@tr1@std@@8 6408e3a0     plugin.obj
 0002:000063ac       ??_R1A@?0A@EA@?$_Ref_count@V?$list@UError@@V?$allocator@UError@@@std@@@std@@@tr1@std@@8 6408e3ac     plugin.obj
 0002:000063c8       ??_R4?$_Ref_count@VArchive@@@tr1@std@@6B@ 6408e3c8     plugin.obj
 0002:000063dc       ??_R3?$_Ref_count@VArchive@@@tr1@std@@8 6408e3dc     plugin.obj
 0002:000063ec       ??_R2?$_Ref_count@VArchive@@@tr1@std@@8 6408e3ec     plugin.obj
 0002:000063f8       ??_R1A@?0A@EA@_Ref_count_base@tr1@std@@8 6408e3f8     plugin.obj
 0002:00006414       ??_R3_Ref_count_base@tr1@std@@8 6408e414     plugin.obj
 0002:00006424       ??_R2_Ref_count_base@tr1@std@@8 6408e424     plugin.obj
 0002:0000642c       ??_R1A@?0A@EA@?$_Ref_count@VArchive@@@tr1@std@@8 6408e42c     plugin.obj
 0002:00006448       ??_R4PluginPanelItems@?1??extract@Plugin@@QAEXXZ@6B@ 6408e448     plugin.obj
 0002:0000645c       ??_R3PluginPanelItems@?1??extract@Plugin@@QAEXXZ@8 6408e45c     plugin.obj
 0002:0000646c       ??_R2PluginPanelItems@?1??extract@Plugin@@QAEXXZ@8 6408e46c     plugin.obj
 0002:00006478       ??_R1A@?0A@EA@PluginPanelItems@?1??extract@Plugin@@QAEXXZ@8 6408e478     plugin.obj
 0002:00006494       ??_R4PluginPanelItems@?1??get_files@Plugin@@QAEXPBUPluginPanelItem@@HHPAPB_W_K@Z@6B@ 6408e494     plugin.obj
 0002:000064a8       ??_R3PluginPanelItems@?1??get_files@Plugin@@QAEXPBUPluginPanelItem@@HHPAPB_W_K@Z@8 6408e4a8     plugin.obj
 0002:000064b8       ??_R2PluginPanelItems@?1??get_files@Plugin@@QAEXPBUPluginPanelItem@@HHPAPB_W_K@Z@8 6408e4b8     plugin.obj
 0002:000064c4       ??_R1A@?0A@EA@PluginPanelItems@?1??get_files@Plugin@@QAEXPBUPluginPanelItem@@HHPAPB_W_K@Z@8 6408e4c4     plugin.obj
 0002:000064e0       ??_R3PluginPanelItemAccessor@Plugin@@8 6408e4e0     plugin.obj
 0002:000064f0       ??_R2PluginPanelItemAccessor@Plugin@@8 6408e4f0     plugin.obj
 0002:000064f8       ??_R1A@?0A@EA@PluginPanelItemAccessor@Plugin@@8 6408e4f8     plugin.obj
 0002:00006514       ??_R4failure@ios_base@std@@6B@ 6408e514     ui.obj
 0002:00006528       ??_R3failure@ios_base@std@@8 6408e528     ui.obj
 0002:00006538       ??_R2failure@ios_base@std@@8 6408e538     ui.obj
 0002:0000654c       ??_R1A@?0A@EA@failure@ios_base@std@@8 6408e54c     ui.obj
 0002:00006568       ??_R4system_error@std@@6B@ 6408e568     ui.obj
 0002:0000657c       ??_R3system_error@std@@8   6408e57c     ui.obj
 0002:0000658c       ??_R2system_error@std@@8   6408e58c     ui.obj
 0002:0000659c       ??_R1A@?0A@EA@system_error@std@@8 6408e59c     ui.obj
 0002:000065b8       ??_R4?$ctype@_W@std@@6B@   6408e5b8     ui.obj
 0002:000065cc       ??_R3?$ctype@_W@std@@8     6408e5cc     ui.obj
 0002:000065dc       ??_R2?$ctype@_W@std@@8     6408e5dc     ui.obj
 0002:000065ec       ??_R1A@?0A@EA@?$ctype@_W@std@@8 6408e5ec     ui.obj
 0002:00006608       ??_R3ctype_base@std@@8     6408e608     ui.obj
 0002:00006618       ??_R2ctype_base@std@@8     6408e618     ui.obj
 0002:00006624       ??_R1A@?0A@EA@ctype_base@std@@8 6408e624     ui.obj
 0002:00006640       ??_R4facet@locale@std@@6B@ 6408e640     ui.obj
 0002:00006654       ??_R4runtime_error@std@@6B@ 6408e654     ui.obj
 0002:00006668       ??_R3runtime_error@std@@8  6408e668     ui.obj
 0002:00006678       ??_R2runtime_error@std@@8  6408e678     ui.obj
 0002:00006684       ??_R1A@?0A@EA@runtime_error@std@@8 6408e684     ui.obj
 0002:000066a0       ??_R4?$basic_ostream@_WU?$char_traits@_W@std@@@std@@6B@ 6408e6a0     ui.obj
 0002:000066b4       ??_R4?$basic_streambuf@_WU?$char_traits@_W@std@@@std@@6B@ 6408e6b4     ui.obj
 0002:000066c8       ??_R4?$basic_ios@_WU?$char_traits@_W@std@@@std@@6B@ 6408e6c8     ui.obj
 0002:000066dc       ??_R4ios_base@std@@6B@     6408e6dc     ui.obj
 0002:000066f0       ??_R4?$_Ref_count@VFileFilter@Far@@@tr1@std@@6B@ 6408e6f0     ui.obj
 0002:00006704       ??_R3?$_Ref_count@VFileFilter@Far@@@tr1@std@@8 6408e704     ui.obj
 0002:00006714       ??_R2?$_Ref_count@VFileFilter@Far@@@tr1@std@@8 6408e714     ui.obj
 0002:00006720       ??_R1A@?0A@EA@?$_Ref_count@VFileFilter@Far@@@tr1@std@@8 6408e720     ui.obj
 0002:0000673c       ??_R4?$numpunct@_W@std@@6B@ 6408e73c     ui.obj
 0002:00006750       ??_R3?$numpunct@_W@std@@8  6408e750     ui.obj
 0002:00006760       ??_R2?$numpunct@_W@std@@8  6408e760     ui.obj
 0002:0000676c       ??_R1A@?0A@EA@?$numpunct@_W@std@@8 6408e76c     ui.obj
 0002:00006788       ??_R4AttrDialog@@6B@       6408e788     ui.obj
 0002:0000679c       ??_R3AttrDialog@@8         6408e79c     ui.obj
 0002:000067ac       ??_R2AttrDialog@@8         6408e7ac     ui.obj
 0002:000067b8       ??_R1A@?0A@EA@AttrDialog@@8 6408e7b8     ui.obj
 0002:000067d4       ??_R4SettingsDialog@@6B@   6408e7d4     ui.obj
 0002:000067e8       ??_R3SettingsDialog@@8     6408e7e8     ui.obj
 0002:000067f8       ??_R2SettingsDialog@@8     6408e7f8     ui.obj
 0002:00006804       ??_R1A@?0A@EA@SettingsDialog@@8 6408e804     ui.obj
 0002:00006820       ??_R4FormatLibraryInfoDialog@@6B@ 6408e820     ui.obj
 0002:00006834       ??_R3FormatLibraryInfoDialog@@8 6408e834     ui.obj
 0002:00006844       ??_R2FormatLibraryInfoDialog@@8 6408e844     ui.obj
 0002:00006850       ??_R1A@?0A@EA@FormatLibraryInfoDialog@@8 6408e850     ui.obj
 0002:0000686c       ??_R4MultiSelectDialog@@6B@ 6408e86c     ui.obj
 0002:00006880       ??_R3MultiSelectDialog@@8  6408e880     ui.obj
 0002:00006890       ??_R2MultiSelectDialog@@8  6408e890     ui.obj
 0002:0000689c       ??_R1A@?0A@EA@MultiSelectDialog@@8 6408e89c     ui.obj
 0002:000068b8       ??_R4UpdateDialog@@6B@     6408e8b8     ui.obj
 0002:000068cc       ??_R3UpdateDialog@@8       6408e8cc     ui.obj
 0002:000068dc       ??_R2UpdateDialog@@8       6408e8dc     ui.obj
 0002:000068e8       ??_R1A@?0A@EA@UpdateDialog@@8 6408e8e8     ui.obj
 0002:00006904       ??_R4ExtractDialog@@6B@    6408e904     ui.obj
 0002:00006918       ??_R3ExtractDialog@@8      6408e918     ui.obj
 0002:00006928       ??_R2ExtractDialog@@8      6408e928     ui.obj
 0002:00006934       ??_R1A@?0A@EA@ExtractDialog@@8 6408e934     ui.obj
 0002:00006950       ??_R4OverwriteDialog@@6B@  6408e950     ui.obj
 0002:00006964       ??_R3OverwriteDialog@@8    6408e964     ui.obj
 0002:00006974       ??_R2OverwriteDialog@@8    6408e974     ui.obj
 0002:00006980       ??_R1A@?0A@EA@OverwriteDialog@@8 6408e980     ui.obj
 0002:0000699c       ??_R4PasswordDialog@@6B@   6408e99c     ui.obj
 0002:000069b0       ??_R3PasswordDialog@@8     6408e9b0     ui.obj
 0002:000069c0       ??_R2PasswordDialog@@8     6408e9c0     ui.obj
 0002:000069cc       ??_R1A@?0A@EA@Dialog@Far@@8 6408e9cc     ui.obj
 0002:000069e8       ??_R3Dialog@Far@@8         6408e9e8     ui.obj
 0002:000069f8       ??_R2Dialog@Far@@8         6408e9f8     ui.obj
 0002:00006a00       ??_R1A@?0A@EA@PasswordDialog@@8 6408ea00     ui.obj
 0002:00006a1c       ??_R4ProgressMonitor@@6B@  6408ea1c     ui.obj
 0002:00006a30       ??_R3ProgressMonitor@@8    6408ea30     ui.obj
 0002:00006a40       ??_R2ProgressMonitor@@8    6408ea40     ui.obj
 0002:00006a4c       ??_R17?0A@EN@NonCopyable@@8 6408ea4c     ui.obj
 0002:00006a68       ??_R3NonCopyable@@8        6408ea68     ui.obj
 0002:00006a78       ??_R2NonCopyable@@8        6408ea78     ui.obj
 0002:00006a80       ??_R1A@?0A@EA@NonCopyable@@8 6408ea80     ui.obj
 0002:00006a9c       ??_R1A@?0A@EA@ProgressMonitor@@8 6408ea9c     ui.obj
 0002:00006ab8       ??_R4?$num_put@_WV?$ostreambuf_iterator@_WU?$char_traits@_W@std@@@std@@@std@@6B@ 6408eab8     ui.obj
 0002:00006acc       ??_R3?$num_put@_WV?$ostreambuf_iterator@_WU?$char_traits@_W@std@@@std@@@std@@8 6408eacc     ui.obj
 0002:00006adc       ??_R2?$num_put@_WV?$ostreambuf_iterator@_WU?$char_traits@_W@std@@@std@@@std@@8 6408eadc     ui.obj
 0002:00006ae8       ??_R1A@?0A@EA@facet@locale@std@@8 6408eae8     ui.obj
 0002:00006b04       ??_R3facet@locale@std@@8   6408eb04     ui.obj
 0002:00006b14       ??_R2facet@locale@std@@8   6408eb14     ui.obj
 0002:00006b1c       ??_R1A@?0A@EA@?$num_put@_WV?$ostreambuf_iterator@_WU?$char_traits@_W@std@@@std@@@std@@8 6408eb1c     ui.obj
 0002:00006b38       ??_R4?$basic_ostringstream@_WU?$char_traits@_W@std@@V?$allocator@_W@2@@std@@6B@ 6408eb38     ui.obj
 0002:00006b4c       ??_R3?$basic_ostringstream@_WU?$char_traits@_W@std@@V?$allocator@_W@2@@std@@8 6408eb4c     ui.obj
 0002:00006b5c       ??_R2?$basic_ostringstream@_WU?$char_traits@_W@std@@V?$allocator@_W@2@@std@@8 6408eb5c     ui.obj
 0002:00006b74       ??_R1A@?0A@EA@?$basic_ostream@_WU?$char_traits@_W@std@@@std@@8 6408eb74     ui.obj
 0002:00006b90       ??_R3?$basic_ostream@_WU?$char_traits@_W@std@@@std@@8 6408eb90     ui.obj
 0002:00006ba0       ??_R2?$basic_ostream@_WU?$char_traits@_W@std@@@std@@8 6408eba0     ui.obj
 0002:00006bb4       ??_R17A@3EA@?$_Iosb@H@std@@8 6408ebb4     ui.obj
 0002:00006bd0       ??_R1A@A@3EA@ios_base@std@@8 6408ebd0     ui.obj
 0002:00006bec       ??_R1A@A@3FA@?$basic_ios@_WU?$char_traits@_W@std@@@std@@8 6408ebec     ui.obj
 0002:00006c08       ??_R3?$basic_ios@_WU?$char_traits@_W@std@@@std@@8 6408ec08     ui.obj
 0002:00006c18       ??_R2?$basic_ios@_WU?$char_traits@_W@std@@@std@@8 6408ec18     ui.obj
 0002:00006c28       ??_R1A@?0A@EA@ios_base@std@@8 6408ec28     ui.obj
 0002:00006c44       ??_R3ios_base@std@@8       6408ec44     ui.obj
 0002:00006c54       ??_R2ios_base@std@@8       6408ec54     ui.obj
 0002:00006c60       ??_R17?0A@EA@?$_Iosb@H@std@@8 6408ec60     ui.obj
 0002:00006c7c       ??_R3?$_Iosb@H@std@@8      6408ec7c     ui.obj
 0002:00006c8c       ??_R2?$_Iosb@H@std@@8      6408ec8c     ui.obj
 0002:00006c94       ??_R1A@?0A@EA@?$_Iosb@H@std@@8 6408ec94     ui.obj
 0002:00006cb0       ??_R1A@?0A@EA@?$basic_ios@_WU?$char_traits@_W@std@@@std@@8 6408ecb0     ui.obj
 0002:00006ccc       ??_R1A@?0A@EA@?$basic_ostringstream@_WU?$char_traits@_W@std@@V?$allocator@_W@2@@std@@8 6408eccc     ui.obj
 0002:00006ce8       ??_R4?$basic_stringbuf@_WU?$char_traits@_W@std@@V?$allocator@_W@2@@std@@6B@ 6408ece8     ui.obj
 0002:00006cfc       ??_R3?$basic_stringbuf@_WU?$char_traits@_W@std@@V?$allocator@_W@2@@std@@8 6408ecfc     ui.obj
 0002:00006d0c       ??_R2?$basic_stringbuf@_WU?$char_traits@_W@std@@V?$allocator@_W@2@@std@@8 6408ed0c     ui.obj
 0002:00006d18       ??_R1A@?0A@EA@?$basic_streambuf@_WU?$char_traits@_W@std@@@std@@8 6408ed18     ui.obj
 0002:00006d34       ??_R3?$basic_streambuf@_WU?$char_traits@_W@std@@@std@@8 6408ed34     ui.obj
 0002:00006d44       ??_R2?$basic_streambuf@_WU?$char_traits@_W@std@@@std@@8 6408ed44     ui.obj
 0002:00006d4c       ??_R1A@?0A@EA@?$basic_stringbuf@_WU?$char_traits@_W@std@@V?$allocator@_W@2@@std@@8 6408ed4c     ui.obj
 0002:00006d68       ??_R4?$_Ref_count@V?$set@IU?$less@I@std@@V?$allocator@I@2@@std@@@tr1@std@@6B@ 6408ed68     extract.obj
 0002:00006d7c       ??_R3?$_Ref_count@V?$set@IU?$less@I@std@@V?$allocator@I@2@@std@@@tr1@std@@8 6408ed7c     extract.obj
 0002:00006d8c       ??_R2?$_Ref_count@V?$set@IU?$less@I@std@@V?$allocator@I@2@@std@@@tr1@std@@8 6408ed8c     extract.obj
 0002:00006d98       ??_R1A@?0A@EA@?$_Ref_count@V?$set@IU?$less@I@std@@V?$allocator@I@2@@std@@@tr1@std@@8 6408ed98     extract.obj
 0002:00006db4       ??_R4?$_Ref_count@VFileWriteCache@@@tr1@std@@6B@ 6408edb4     extract.obj
 0002:00006dc8       ??_R3?$_Ref_count@VFileWriteCache@@@tr1@std@@8 6408edc8     extract.obj
 0002:00006dd8       ??_R2?$_Ref_count@VFileWriteCache@@@tr1@std@@8 6408edd8     extract.obj
 0002:00006de4       ??_R1A@?0A@EA@?$_Ref_count@VFileWriteCache@@@tr1@std@@8 6408ede4     extract.obj
 0002:00006e00       ??_R4?$_Ref_count@VExtractProgress@@@tr1@std@@6B@ 6408ee00     extract.obj
 0002:00006e14       ??_R3?$_Ref_count@VExtractProgress@@@tr1@std@@8 6408ee14     extract.obj
 0002:00006e24       ??_R2?$_Ref_count@VExtractProgress@@@tr1@std@@8 6408ee24     extract.obj
 0002:00006e30       ??_R1A@?0A@EA@?$_Ref_count@VExtractProgress@@@tr1@std@@8 6408ee30     extract.obj
 0002:00006e4c       ??_R4?$_Ref_count@W4OverwriteAction@@@tr1@std@@6B@ 6408ee4c     extract.obj
 0002:00006e60       ??_R3?$_Ref_count@W4OverwriteAction@@@tr1@std@@8 6408ee60     extract.obj
 0002:00006e70       ??_R2?$_Ref_count@W4OverwriteAction@@@tr1@std@@8 6408ee70     extract.obj
 0002:00006e7c       ??_R1A@?0A@EA@?$_Ref_count@W4OverwriteAction@@@tr1@std@@8 6408ee7c     extract.obj
 0002:00006e98       ??_R4?$_Ref_count@_N@tr1@std@@6B@ 6408ee98     extract.obj
 0002:00006eac       ??_R3?$_Ref_count@_N@tr1@std@@8 6408eeac     extract.obj
 0002:00006ebc       ??_R2?$_Ref_count@_N@tr1@std@@8 6408eebc     extract.obj
 0002:00006ec8       ??_R1A@?0A@EA@?$_Ref_count@_N@tr1@std@@8 6408eec8     extract.obj
 0002:00006ee4       ??_R4SetDirAttr@@6B@       6408eee4     extract.obj
 0002:00006ef8       ??_R3SetDirAttr@@8         6408eef8     extract.obj
 0002:00006f08       ??_R2SetDirAttr@@8         6408ef08     extract.obj
 0002:00006f18       ??_R1A@?0A@EA@SetDirAttr@@8 6408ef18     extract.obj
 0002:00006f34       ??_R4PrepareExtract@@6B@   6408ef34     extract.obj
 0002:00006f48       ??_R3PrepareExtract@@8     6408ef48     extract.obj
 0002:00006f58       ??_R2PrepareExtract@@8     6408ef58     extract.obj
 0002:00006f68       ??_R1A@?0A@EA@PrepareExtract@@8 6408ef68     extract.obj
 0002:00006f84       ??_R4ArchiveExtractor@@6BComBase@@@ 6408ef84     extract.obj
 0002:00006f98       ??_R4ArchiveExtractor@@6BICryptoGetTextPassword@@@ 6408ef98     extract.obj
 0002:00006fac       ??_R4ArchiveExtractor@@6BIArchiveExtractCallback@@@ 6408efac     extract.obj
 0002:00006fc0       ??_R3ArchiveExtractor@@8   6408efc0     extract.obj
 0002:00006fd0       ??_R2ArchiveExtractor@@8   6408efd0     extract.obj
 0002:00006ff4       ??_R17?0A@EC@IUnknown@@8   6408eff4     extract.obj
 0002:00007010       ??_R17?0A@EA@ComBase@@8    6408f010     extract.obj
 0002:0000702c       ??_R13?0A@EA@ICryptoGetTextPassword@@8 6408f02c     extract.obj
 0002:00007048       ??_R1A@?0A@EA@ArchiveExtractor@@8 6408f048     extract.obj
 0002:00007064       ??_R4CachedFileExtractStream@@6BComBase@@@ 6408f064     extract.obj
 0002:00007078       ??_R4CachedFileExtractStream@@6BISequentialOutStream@@@ 6408f078     extract.obj
 0002:0000708c       ??_R3CachedFileExtractStream@@8 6408f08c     extract.obj
 0002:0000709c       ??_R2CachedFileExtractStream@@8 6408f09c     extract.obj
 0002:000070b4       ??_R13?0A@EC@IUnknown@@8   6408f0b4     extract.obj
 0002:000070d0       ??_R13?0A@EA@ComBase@@8    6408f0d0     extract.obj
 0002:000070ec       ??_R1A@?0A@EC@IUnknown@@8  6408f0ec     extract.obj
 0002:00007108       ??_R1A@?0A@EA@CachedFileExtractStream@@8 6408f108     extract.obj
 0002:00007124       ??_R4ExtractProgress@@6B@  6408f124     extract.obj
 0002:00007138       ??_R3ExtractProgress@@8    6408f138     extract.obj
 0002:00007148       ??_R2ExtractProgress@@8    6408f148     extract.obj
 0002:00007158       ??_R1A@?0A@EA@ExtractProgress@@8 6408f158     extract.obj
 0002:00007174       ??_R4ComBase@@6B@          6408f174     extract.obj
 0002:00007188       ??_R3ComBase@@8            6408f188     extract.obj
 0002:00007198       ??_R2ComBase@@8            6408f198     extract.obj
 0002:000071a4       ??_R1A@?0A@EA@ComBase@@8   6408f1a4     extract.obj
 0002:000071c0       ??_R4ICryptoGetTextPassword@@6B@ 6408f1c0     extract.obj
 0002:000071d4       ??_R3ICryptoGetTextPassword@@8 6408f1d4     extract.obj
 0002:000071e4       ??_R2ICryptoGetTextPassword@@8 6408f1e4     extract.obj
 0002:000071f0       ??_R1A@?0A@EA@ICryptoGetTextPassword@@8 6408f1f0     extract.obj
 0002:0000720c       ??_R4IArchiveExtractCallback@@6B@ 6408f20c     extract.obj
 0002:00007220       ??_R3IArchiveExtractCallback@@8 6408f220     extract.obj
 0002:00007230       ??_R2IArchiveExtractCallback@@8 6408f230     extract.obj
 0002:00007240       ??_R1A@?0A@EA@IArchiveExtractCallback@@8 6408f240     extract.obj
 0002:0000725c       ??_R3ISequentialOutStream@@8 6408f25c     extract.obj
 0002:0000726c       ??_R2ISequentialOutStream@@8 6408f26c     extract.obj
 0002:00007278       ??_R1A@?0A@EA@ISequentialOutStream@@8 6408f278     extract.obj
 0002:00007294       ??_R3IProgress@@8          6408f294     extract.obj
 0002:000072a4       ??_R2IProgress@@8          6408f2a4     extract.obj
 0002:000072b0       ??_R1A@?0A@EA@IUnknown@@8  6408f2b0     extract.obj
 0002:000072cc       ??_R3IUnknown@@8           6408f2cc     extract.obj
 0002:000072dc       ??_R2IUnknown@@8           6408f2dc     extract.obj
 0002:000072e4       ??_R1A@?0A@EA@IProgress@@8 6408f2e4     extract.obj
 0002:00007300       ??_R4ArchiveOpener@@6BProgressMonitor@@@ 6408f300     open.obj
 0002:00007314       ??_R4ArchiveOpener@@6BComBase@@@ 6408f314     open.obj
 0002:00007328       ??_R4ArchiveOpener@@6BICryptoGetTextPassword@@@ 6408f328     open.obj
 0002:0000733c       ??_R4ArchiveOpener@@6BIArchiveOpenVolumeCallback@@@ 6408f33c     open.obj
 0002:00007350       ??_R4ArchiveOpener@@6BIArchiveOpenCallback@@@ 6408f350     open.obj
 0002:00007364       ??_R3ArchiveOpener@@8      6408f364     open.obj
 0002:00007374       ??_R2ArchiveOpener@@8      6408f374     open.obj
 0002:000073a4       ??_R1CA@?0A@EN@NonCopyable@@8 6408f3a4     open.obj
 0002:000073c0       ??_R1BI@?0A@EA@ProgressMonitor@@8 6408f3c0     open.obj
 0002:000073dc       ??_R1M@?0A@EC@IUnknown@@8  6408f3dc     open.obj
 0002:000073f8       ??_R1M@?0A@EA@ComBase@@8   6408f3f8     open.obj
 0002:00007414       ??_R17?0A@EA@ICryptoGetTextPassword@@8 6408f414     open.obj
 0002:00007430       ??_R13?0A@EA@IArchiveOpenVolumeCallback@@8 6408f430     open.obj
 0002:0000744c       ??_R1A@?0A@EA@ArchiveOpener@@8 6408f44c     open.obj
 0002:00007468       ??_R4ArchiveOpenStream@@6BComBase@@@ 6408f468     open.obj
 0002:0000747c       ??_R4ArchiveOpenStream@@6BIInStream@@@ 6408f47c     open.obj
 0002:00007490       ??_R3ArchiveOpenStream@@8  6408f490     open.obj
 0002:000074a0       ??_R2ArchiveOpenStream@@8  6408f4a0     open.obj
 0002:000074c4       ??_R1M@?0A@EN@NonCopyable@@8 6408f4c4     open.obj
 0002:000074e0       ??_R1M@?0A@EN@File@@8      6408f4e0     open.obj
 0002:000074fc       ??_R3File@@8               6408f4fc     open.obj
 0002:0000750c       ??_R2File@@8               6408f50c     open.obj
 0002:00007518       ??_R1A@?0A@EN@NonCopyable@@8 6408f518     open.obj
 0002:00007534       ??_R1A@?0A@EA@File@@8      6408f534     open.obj
 0002:00007550       ??_R13?0A@EL@IUnknown@@8   6408f550     open.obj
 0002:0000756c       ??_R13?0A@EN@ComBase@@8    6408f56c     open.obj
 0002:00007588       ??_R1A@?0A@EA@ArchiveOpenStream@@8 6408f588     open.obj
 0002:000075a4       ??_R4IArchiveOpenVolumeCallback@@6B@ 6408f5a4     open.obj
 0002:000075b8       ??_R3IArchiveOpenVolumeCallback@@8 6408f5b8     open.obj
 0002:000075c8       ??_R2IArchiveOpenVolumeCallback@@8 6408f5c8     open.obj
 0002:000075d4       ??_R1A@?0A@EA@IArchiveOpenVolumeCallback@@8 6408f5d4     open.obj
 0002:000075f0       ??_R4IArchiveOpenCallback@@6B@ 6408f5f0     open.obj
 0002:00007604       ??_R3IArchiveOpenCallback@@8 6408f604     open.obj
 0002:00007614       ??_R2IArchiveOpenCallback@@8 6408f614     open.obj
 0002:00007620       ??_R1A@?0A@EA@IArchiveOpenCallback@@8 6408f620     open.obj
 0002:0000763c       ??_R3IInStream@@8          6408f63c     open.obj
 0002:0000764c       ??_R2IInStream@@8          6408f64c     open.obj
 0002:0000765c       ??_R1A@?0A@EA@IInStream@@8 6408f65c     open.obj
 0002:00007678       ??_R3ISequentialInStream@@8 6408f678     open.obj
 0002:00007688       ??_R2ISequentialInStream@@8 6408f688     open.obj
 0002:00007694       ??_R1A@?0A@EA@ISequentialInStream@@8 6408f694     open.obj
 0002:000076b0       ??_R4?$_Ref_count@VArchiveUpdateProgress@@@tr1@std@@6B@ 6408f6b0     update.obj
 0002:000076c4       ??_R3?$_Ref_count@VArchiveUpdateProgress@@@tr1@std@@8 6408f6c4     update.obj
 0002:000076d4       ??_R2?$_Ref_count@VArchiveUpdateProgress@@@tr1@std@@8 6408f6d4     update.obj
 0002:000076e0       ??_R1A@?0A@EA@?$_Ref_count@VArchiveUpdateProgress@@@tr1@std@@8 6408f6e0     update.obj
 0002:000076fc       ??_R4?$_Ref_count@V?$map@IUFileIndexInfo@@U?$less@I@std@@V?$allocator@U?$pair@$$CBIUFileIndexInfo@@@std@@@3@@std@@@tr1@std@@6B@ 6408f6fc     update.obj
 0002:00007710       ??_R3?$_Ref_count@V?$map@IUFileIndexInfo@@U?$less@I@std@@V?$allocator@U?$pair@$$CBIUFileIndexInfo@@@std@@@3@@std@@@tr1@std@@8 6408f710     update.obj
 0002:00007720       ??_R2?$_Ref_count@V?$map@IUFileIndexInfo@@U?$less@I@std@@V?$allocator@U?$pair@$$CBIUFileIndexInfo@@@std@@@3@@std@@@tr1@std@@8 6408f720     update.obj
 0002:0000772c       ??_R1A@?0A@EA@?$_Ref_count@V?$map@IUFileIndexInfo@@U?$less@I@std@@V?$allocator@U?$pair@$$CBIUFileIndexInfo@@@std@@@3@@std@@@tr1@std@@8 6408f72c     update.obj
 0002:00007748       ??_R4DeleteSrcFiles@@6B@   6408f748     update.obj
 0002:0000775c       ??_R3DeleteSrcFiles@@8     6408f75c     update.obj
 0002:0000776c       ??_R2DeleteSrcFiles@@8     6408f76c     update.obj
 0002:0000777c       ??_R1A@?0A@EA@DeleteSrcFiles@@8 6408f77c     update.obj
 0002:00007798       ??_R4ArchiveUpdater@@6BComBase@@@ 6408f798     update.obj
 0002:000077ac       ??_R4ArchiveUpdater@@6BICryptoGetTextPassword2@@@ 6408f7ac     update.obj
 0002:000077c0       ??_R4ArchiveUpdater@@6BIArchiveUpdateCallback@@@ 6408f7c0     update.obj
 0002:000077d4       ??_R3ArchiveUpdater@@8     6408f7d4     update.obj
 0002:000077e4       ??_R2ArchiveUpdater@@8     6408f7e4     update.obj
 0002:00007808       ??_R13?0A@EA@ICryptoGetTextPassword2@@8 6408f808     update.obj
 0002:00007824       ??_R1A@?0A@EA@ArchiveUpdater@@8 6408f824     update.obj
 0002:00007840       ??_R4PrepareUpdate@@6B@    6408f840     update.obj
 0002:00007854       ??_R3PrepareUpdate@@8      6408f854     update.obj
 0002:00007864       ??_R2PrepareUpdate@@8      6408f864     update.obj
 0002:00007874       ??_R1A@?0A@EN@ProgressMonitor@@8 6408f874     update.obj
 0002:00007890       ??_R1A@?0A@EA@PrepareUpdate@@8 6408f890     update.obj
 0002:000078ac       ??_R4FileReadStream@@6BComBase@@@ 6408f8ac     update.obj
 0002:000078c0       ??_R4FileReadStream@@6BIInStream@@@ 6408f8c0     update.obj
 0002:000078d4       ??_R3FileReadStream@@8     6408f8d4     update.obj
 0002:000078e4       ??_R2FileReadStream@@8     6408f8e4     update.obj
 0002:00007908       ??_R1A@?0A@EA@FileReadStream@@8 6408f908     update.obj
 0002:00007924       ??_R4MultiVolumeUpdateStream@@6BComBase@@@ 6408f924     update.obj
 0002:00007938       ??_R4MultiVolumeUpdateStream@@6BUpdateStream@@@ 6408f938     update.obj
 0002:0000794c       ??_R3MultiVolumeUpdateStream@@8 6408f94c     update.obj
 0002:0000795c       ??_R2MultiVolumeUpdateStream@@8 6408f95c     update.obj
 0002:0000797c       ??_R1A@?0A@EA@MultiVolumeUpdateStream@@8 6408f97c     update.obj
 0002:00007998       ??_R4SfxUpdateStream@@6BComBase@@@ 6408f998     update.obj
 0002:000079ac       ??_R4SfxUpdateStream@@6BUpdateStream@@@ 6408f9ac     update.obj
 0002:000079c0       ??_R3SfxUpdateStream@@8    6408f9c0     update.obj
 0002:000079d0       ??_R2SfxUpdateStream@@8    6408f9d0     update.obj
 0002:000079f8       ??_R1A@?0A@EA@SfxUpdateStream@@8 6408f9f8     update.obj
 0002:00007a14       ??_R4SimpleUpdateStream@@6BComBase@@@ 6408fa14     update.obj
 0002:00007a28       ??_R4SimpleUpdateStream@@6BUpdateStream@@@ 6408fa28     update.obj
 0002:00007a3c       ??_R3SimpleUpdateStream@@8 6408fa3c     update.obj
 0002:00007a4c       ??_R2SimpleUpdateStream@@8 6408fa4c     update.obj
 0002:00007a74       ??_R1BE@?0A@EN@NonCopyable@@8 6408fa74     update.obj
 0002:00007a90       ??_R1BE@?0A@EN@File@@8     6408fa90     update.obj
 0002:00007aac       ??_R1A@?0A@EA@SimpleUpdateStream@@8 6408faac     update.obj
 0002:00007ac8       ??_R4UpdateStream@@6B@     6408fac8     update.obj
 0002:00007adc       ??_R3UpdateStream@@8       6408fadc     update.obj
 0002:00007aec       ??_R2UpdateStream@@8       6408faec     update.obj
 0002:00007b00       ??_R1A@?0A@EA@UpdateStream@@8 6408fb00     update.obj
 0002:00007b1c       ??_R4ArchiveUpdateProgress@@6B@ 6408fb1c     update.obj
 0002:00007b30       ??_R3ArchiveUpdateProgress@@8 6408fb30     update.obj
 0002:00007b40       ??_R2ArchiveUpdateProgress@@8 6408fb40     update.obj
 0002:00007b50       ??_R1A@?0A@EA@ArchiveUpdateProgress@@8 6408fb50     update.obj
 0002:00007b6c       ??_R4CriticalSection@@6B@  6408fb6c     update.obj
 0002:00007b80       ??_R3CriticalSection@@8    6408fb80     update.obj
 0002:00007b90       ??_R2CriticalSection@@8    6408fb90     update.obj
 0002:00007ba0       ??_R13?0A@EN@_RTL_CRITICAL_SECTION@@8 6408fba0     update.obj
 0002:00007bbc       ??_R3_RTL_CRITICAL_SECTION@@8 6408fbbc     update.obj
 0002:00007bcc       ??_R2_RTL_CRITICAL_SECTION@@8 6408fbcc     update.obj
 0002:00007bd4       ??_R1A@?0A@EA@_RTL_CRITICAL_SECTION@@8 6408fbd4     update.obj
 0002:00007bf0       ??_R13?0A@EN@NonCopyable@@8 6408fbf0     update.obj
 0002:00007c0c       ??_R1A@?0A@EA@CriticalSection@@8 6408fc0c     update.obj
 0002:00007c28       ??_R4ICryptoGetTextPassword2@@6B@ 6408fc28     update.obj
 0002:00007c3c       ??_R3ICryptoGetTextPassword2@@8 6408fc3c     update.obj
 0002:00007c4c       ??_R2ICryptoGetTextPassword2@@8 6408fc4c     update.obj
 0002:00007c58       ??_R1A@?0A@EA@ICryptoGetTextPassword2@@8 6408fc58     update.obj
 0002:00007c74       ??_R3IArchiveUpdateCallback@@8 6408fc74     update.obj
 0002:00007c84       ??_R2IArchiveUpdateCallback@@8 6408fc84     update.obj
 0002:00007c94       ??_R1A@?0A@EA@IArchiveUpdateCallback@@8 6408fc94     update.obj
 0002:00007cb0       ??_R3IOutStream@@8         6408fcb0     update.obj
 0002:00007cc0       ??_R2IOutStream@@8         6408fcc0     update.obj
 0002:00007cd0       ??_R1A@?0A@EA@IOutStream@@8 6408fcd0     update.obj
 0002:00007cec       ??_R4?$_Ref_count@VArchiveFileDeleterProgress@@@tr1@std@@6B@ 6408fcec     delete.obj
 0002:00007d00       ??_R3?$_Ref_count@VArchiveFileDeleterProgress@@@tr1@std@@8 6408fd00     delete.obj
 0002:00007d10       ??_R2?$_Ref_count@VArchiveFileDeleterProgress@@@tr1@std@@8 6408fd10     delete.obj
 0002:00007d1c       ??_R1A@?0A@EA@?$_Ref_count@VArchiveFileDeleterProgress@@@tr1@std@@8 6408fd1c     delete.obj
 0002:00007d38       ??_R4ArchiveFileDeleter@@6BComBase@@@ 6408fd38     delete.obj
 0002:00007d4c       ??_R4ArchiveFileDeleter@@6BIArchiveUpdateCallback@@@ 6408fd4c     delete.obj
 0002:00007d60       ??_R3ArchiveFileDeleter@@8 6408fd60     delete.obj
 0002:00007d70       ??_R2ArchiveFileDeleter@@8 6408fd70     delete.obj
 0002:00007d8c       ??_R1A@?0A@EA@ArchiveFileDeleter@@8 6408fd8c     delete.obj
 0002:00007da8       ??_R4ArchiveFileDeleterStream@@6BComBase@@@ 6408fda8     delete.obj
 0002:00007dbc       ??_R4ArchiveFileDeleterStream@@6BIOutStream@@@ 6408fdbc     delete.obj
 0002:00007dd0       ??_R3ArchiveFileDeleterStream@@8 6408fdd0     delete.obj
 0002:00007de0       ??_R2ArchiveFileDeleterStream@@8 6408fde0     delete.obj
 0002:00007e04       ??_R1A@?0A@EA@ArchiveFileDeleterStream@@8 6408fe04     delete.obj
 0002:00007e20       ??_R4ArchiveFileDeleterProgress@@6B@ 6408fe20     delete.obj
 0002:00007e34       ??_R3ArchiveFileDeleterProgress@@8 6408fe34     delete.obj
 0002:00007e44       ??_R2ArchiveFileDeleterProgress@@8 6408fe44     delete.obj
 0002:00007e54       ??_R1A@?0A@EA@ArchiveFileDeleterProgress@@8 6408fe54     delete.obj
 0002:00007e70       ??_R4ArchiveTester@@6BProgressMonitor@@@ 6408fe70     test.obj
 0002:00007e84       ??_R4ArchiveTester@@6BComBase@@@ 6408fe84     test.obj
 0002:00007e98       ??_R4ArchiveTester@@6BICryptoGetTextPassword@@@ 6408fe98     test.obj
 0002:00007eac       ??_R4ArchiveTester@@6BIArchiveExtractCallback@@@ 6408feac     test.obj
 0002:00007ec0       ??_R3ArchiveTester@@8      6408fec0     test.obj
 0002:00007ed0       ??_R2ArchiveTester@@8      6408fed0     test.obj
 0002:00007efc       ??_R1BI@?0A@EN@NonCopyable@@8 6408fefc     test.obj
 0002:00007f18       ??_R1BA@?0A@EA@ProgressMonitor@@8 6408ff18     test.obj
 0002:00007f34       ??_R1A@?0A@EA@ArchiveTester@@8 6408ff34     test.obj
 0002:00007f50       ??_R4SfxOptionsDialog@@6B@ 6408ff50     sfx.obj
 0002:00007f64       ??_R3SfxOptionsDialog@@8   6408ff64     sfx.obj
 0002:00007f74       ??_R2SfxOptionsDialog@@8   6408ff74     sfx.obj
 0002:00007f80       ??_R1A@?0A@EA@SfxOptionsDialog@@8 6408ff80     sfx.obj
 0002:00007f9c       ??_R4AttachSfxModuleProgress@@6B@ 6408ff9c     sfx.obj
 0002:00007fb0       ??_R3AttachSfxModuleProgress@@8 6408ffb0     sfx.obj
 0002:00007fc0       ??_R2AttachSfxModuleProgress@@8 6408ffc0     sfx.obj
 0002:00007fd0       ??_R1A@?0A@EA@AttachSfxModuleProgress@@8 6408ffd0     sfx.obj
 0002:00007fec       ??_R4Dialog@Far@@6B@       6408ffec     farutils.obj
 0002:00008000       ___safe_se_handler_table   64090000     <linker-defined>
 0002:000087b8       ___rtc_iaa                 640907b8     LIBCMT:_initsect_.obj
 0002:000087bc       ___rtc_izz                 640907bc     LIBCMT:_initsect_.obj
 0002:000087c0       ___rtc_taa                 640907c0     LIBCMT:_initsect_.obj
 0002:000087c4       ___rtc_tzz                 640907c4     LIBCMT:_initsect_.obj
 0002:000087c8       __CT??_R0?AVlogic_error@std@@@8??0logic_error@std@@QAE@ABV01@@Z12 640907c8     libcpmt:xthrow.obj
 0002:000087e4       __TI3?AVlength_error@std@@ 640907e4     libcpmt:xthrow.obj
 0002:000087f4       __CTA3?AVlength_error@std@@ 640907f4     libcpmt:xthrow.obj
 0002:00008804       __CT??_R0?AVlength_error@std@@@8??0length_error@std@@QAE@ABV01@@Z12 64090804     libcpmt:xthrow.obj
 0002:00008820       __TI3?AVout_of_range@std@@ 64090820     libcpmt:xthrow.obj
 0002:00008830       __CTA3?AVout_of_range@std@@ 64090830     libcpmt:xthrow.obj
 0002:00008840       __CT??_R0?AVout_of_range@std@@@8??0out_of_range@std@@QAE@ABV01@@Z12 64090840     libcpmt:xthrow.obj
 0002:000088dc       __TI3?AV__non_rtti_object@std@@ 640908dc     LIBCMT:rtti.obj
 0002:000088ec       __TI2?AVbad_typeid@std@@   640908ec     LIBCMT:rtti.obj
 0002:0000891c       __CTA2?AVbad_typeid@std@@  6409091c     LIBCMT:rtti.obj
 0002:00008928       __CT??_R0?AVbad_typeid@std@@@8??0bad_typeid@std@@QAE@ABV01@@Z12 64090928     LIBCMT:rtti.obj
 0002:00008944       __CTA3?AV__non_rtti_object@std@@ 64090944     LIBCMT:rtti.obj
 0002:00008954       __CT??_R0?AV__non_rtti_object@std@@@8??0__non_rtti_object@std@@QAE@ABV01@@Z12 64090954     LIBCMT:rtti.obj
 0002:00008ab4       __TI2?AVbad_exception@std@@ 64090ab4     LIBCMT:frame.obj
 0002:00008ac4       __CTA2?AVbad_exception@std@@ 64090ac4     LIBCMT:frame.obj
 0002:00008ad0       __CT??_R0?AVbad_exception@std@@@8??0bad_exception@std@@QAE@ABV01@@Z12 64090ad0     LIBCMT:frame.obj
 0002:00008e24       __CT??_R0?AUError@@@8??0Error@@QAE@ABU0@@Z24 64090e24     archive.obj
 0002:00008e40       __CTA1?AUError@@           64090e40     archive.obj
 0002:00008e48       __TI1?AUError@@            64090e48     archive.obj
 0002:00008e58       __CT??_R0?AVexception@std@@@8??0exception@std@@QAE@ABV01@@Z12 64090e58     archive.obj
 0002:00008e74       __CT??_R0?AVbad_alloc@std@@@8??0bad_alloc@std@@QAE@ABV01@@Z12 64090e74     archive.obj
 0002:00008e90       __CTA2?AVbad_alloc@std@@   64090e90     archive.obj
 0002:00008e9c       __TI2?AVbad_alloc@std@@    64090e9c     archive.obj
 0002:00008eac       __CT??_R0?AVbad_weak_ptr@tr1@std@@@8??0bad_weak_ptr@tr1@std@@QAE@ABV012@@Z12 64090eac     plugin.obj
 0002:00008ec8       __CTA2?AVbad_weak_ptr@tr1@std@@ 64090ec8     plugin.obj
 0002:00008ed4       __TI2?AVbad_weak_ptr@tr1@std@@ 64090ed4     plugin.obj
 0002:00008ee4       __CT??_R0?AVruntime_error@std@@@8??0runtime_error@std@@QAE@ABV01@@Z12 64090ee4     ui.obj
 0002:00008f00       __CTA2?AVruntime_error@std@@ 64090f00     ui.obj
 0002:00008f0c       __TI2?AVruntime_error@std@@ 64090f0c     ui.obj
 0002:00008f1c       __CT??_R0?AVfailure@ios_base@std@@@8??0failure@ios_base@std@@QAE@ABV012@@Z20 64090f1c     ui.obj
 0002:00008f38       __CT??_R0?AVsystem_error@std@@@8??0system_error@std@@QAE@ABV01@@Z20 64090f38     ui.obj
 0002:00008f54       __CTA4?AVfailure@ios_base@std@@ 64090f54     ui.obj
 0002:00008f68       __TI4?AVfailure@ios_base@std@@ 64090f68     ui.obj
 0002:00008f78       __CT??_R0?AVbad_cast@std@@@8??0bad_cast@std@@QAE@ABV01@@Z12 64090f78     ui.obj
 0002:00008f94       __CTA2?AVbad_cast@std@@    64090f94     ui.obj
 0002:00008fa0       __TI2?AVbad_cast@std@@     64090fa0     ui.obj
 0002:00014b14       __IMPORT_DESCRIPTOR_USER32 6409cb14     user32:USER32.dll
 0002:00014b28       __IMPORT_DESCRIPTOR_ADVAPI32 6409cb28     advapi32:ADVAPI32.dll
 0002:00014b3c       __IMPORT_DESCRIPTOR_ole32  6409cb3c     ole32:ole32.dll
 0002:00014b50       __IMPORT_DESCRIPTOR_OLEAUT32 6409cb50     oleaut32:OLEAUT32.dll
 0002:00014b64       __IMPORT_DESCRIPTOR_VERSION 6409cb64     version:VERSION.dll
 0002:00014b78       __IMPORT_DESCRIPTOR_KERNEL32 6409cb78     kernel32:KERNEL32.dll
 0002:00014b8c       __NULL_IMPORT_DESCRIPTOR   6409cb8c     user32:USER32.dll
 0003:00000000       ??_R0?AVlogic_error@std@@@8 6409e000     libcpmt:xthrow.obj
 0003:00000020       ??_R0?AVlength_error@std@@@8 6409e020     libcpmt:xthrow.obj
 0003:00000040       ??_R0?AVout_of_range@std@@@8 6409e040     libcpmt:xthrow.obj
 0003:0000005f       ?_Sync@ios_base@std@@0_NA  6409e05f     libcpmt:ios.obj
 0003:00000060       ??_R0?AVerror_category@std@@@8 6409e060     libcpmt:syserror.obj
 0003:00000084       ??_R0?AV_Generic_error_category@std@@@8 6409e084     libcpmt:syserror.obj
 0003:000000b0       ??_R0?AV_Iostream_error_category@std@@@8 6409e0b0     libcpmt:syserror.obj
 0003:000000dc       ??_R0?AV_System_error_category@std@@@8 6409e0dc     libcpmt:syserror.obj
 0003:00000128       ??_R0?AV_Locimp@locale@std@@@8 6409e128     libcpmt:locale0.obj
 0003:00000158       ?_PJP_CPP_Copyright@@3PADA 6409e158     libcpmt:iosptrs.obj
 0003:000001b4       ??_R0?AVbad_typeid@std@@@8 6409e1b4     LIBCMT:stdexcpt.obj
 0003:000001d4       ??_R0?AV__non_rtti_object@std@@@8 6409e1d4     LIBCMT:stdexcpt.obj
 0003:000001f8       ??_R0?AVtype_info@@@8      6409e1f8     LIBCMT:typinfo.obj
 0003:00000210       ___lconv_static_decimal    6409e210     LIBCMT:lconv.obj
 0003:00000214       ___lconv_static_W_decimal  6409e214     LIBCMT:lconv.obj
 0003:00000218       ___lconv_c                 6409e218     LIBCMT:lconv.obj
 0003:00000268       ___lconv                   6409e268     LIBCMT:lconv.obj
 0003:00000270       ??_R0?AVbad_exception@std@@@8 6409e270     LIBCMT:frame.obj
 0003:00000294       ___security_cookie         6409e294     LIBCMT:gs_cookie.obj
 0003:00000298       ___security_cookie_complement 6409e298     LIBCMT:gs_cookie.obj
 0003:0000029c       __pctype                   6409e29c     LIBCMT:ctype.obj
 0003:000002a0       __pwctype                  6409e2a0     LIBCMT:ctype.obj
 0003:00000418       ___abort_behavior          6409e418     LIBCMT:abort.obj
 0003:00000420       ___initialmbcinfo          6409e420     LIBCMT:mbctype.obj
 0003:00000640       __mbctype                  6409e640     LIBCMT:mbctype.obj
 0003:00000748       __mbcasemap                6409e748     LIBCMT:mbctype.obj
 0003:00000848       ___ptmbcinfo               6409e848     LIBCMT:mbctype.obj
 0003:00000940       ___globallocalestatus      6409e940     LIBCMT:glstatus.obj
 0003:00000944       ___clocalestr              6409e944     LIBCMT:nlsdata2.obj
 0003:00000948       ___lc_time_c               6409e948     LIBCMT:nlsdata2.obj
 0003:00000ab0       ___initiallocinfo          6409eab0     LIBCMT:nlsdata2.obj
 0003:00000b88       ___ptlocinfo               6409eb88     LIBCMT:nlsdata2.obj
 0003:00000b8c       ___initiallocalestructinfo 6409eb8c     LIBCMT:nlsdata2.obj
 0003:00000b94       ___flsindex                6409eb94     LIBCMT:tidtable.obj
 0003:00000b98       ___getvalueindex           6409eb98     LIBCMT:tidtable.obj
 0003:00000b9c       ___nullstring              6409eb9c     LIBCMT:output.obj
 0003:00000ba0       ___wnullstring             6409eba0     LIBCMT:output.obj
 0003:00000bb0       ___badioinfo               6409ebb0     LIBCMT:ioinit.obj
 0003:00000bf0       __sys_errlist              6409ebf0     LIBCMT:syserr.obj
 0003:00000ca0       __sys_nerr                 6409eca0     LIBCMT:syserr.obj
 0003:00000ca4       ___mb_cur_max              6409eca4     LIBCMT:nlsdata1.obj
 0003:00000ca8       ___decimal_point           6409eca8     LIBCMT:nlsdata1.obj
 0003:00000cac       ___decimal_point_length    6409ecac     LIBCMT:nlsdata1.obj
 0003:00000dd0       __cfltcvt_tab              6409edd0     LIBCMT:cmiscdat.obj
 0003:00000df8       __iob                      6409edf8     LIBCMT:_file.obj
 0003:00001080       __NLG_Destination          6409f080     LIBCMT:exsup.obj
 0003:00001090       __confh                    6409f090     LIBCMT:initcon.obj
 0003:00001094       ??_R0?AUError@@@8          6409f094     archive.obj
 0003:000010a8       ?c_methods@@3PAPB_WA       6409f0a8     cmdline.obj
 0003:000010b4       ?c_profiles_key_name@@3PB_WB 6409f0b4     options.obj
 0003:00001370       ?c_copy_opened_files_option@@3PB_WB 6409f370     options.obj
 0003:00001374       ?c_esc_confirmation_option@@3PB_WB 6409f374     options.obj
 0003:00001378       ?g_detect_next_time@@3W4TriState@@A 6409f378     plugin.obj
 0003:0000137c       ?c_method_copy@@3PB_WB     6409f37c     archive.obj
 0003:00001380       ?c_method_lzma@@3PB_WB     6409f380     archive.obj
 0003:00001384       ?c_method_lzma2@@3PB_WB    6409f384     archive.obj
 0003:00001388       ?c_method_ppmd@@3PB_WB     6409f388     archive.obj
 0003:0000138c       ?c_sfx_ext@@3PB_WB         6409f38c     archive.obj
 0003:00001390       ?c_volume_ext@@3PB_WB      6409f390     archive.obj
 0003:00001394       ?g_plugin_prefix@@3V?$basic_string@_WU?$char_traits@_W@std@@V?$allocator@_W@2@@std@@A 6409f394     plugin.obj
 0003:000013d8       ??_R0?AVexception@std@@@8  6409f3d8     archive.obj
 0003:000013f4       ??_R0?AVbad_alloc@std@@@8  6409f3f4     archive.obj
 0003:00001410       ??_R0?AV?$_Ref_count_del@XV<lambda11>@?A0xc5e9a1c5@@@tr1@std@@@8 6409f410     plugin.obj
 0003:00001458       ??_R0?AV?$_Ref_count@V?$list@UError@@V?$allocator@UError@@@std@@@std@@@tr1@std@@@8 6409f458     plugin.obj
 0003:000014b0       ??_R0?AV_Ref_count_base@tr1@std@@@8 6409f4b0     plugin.obj
 0003:000014d8       ??_R0?AV?$_Ref_count@VArchive@@@tr1@std@@@8 6409f4d8     plugin.obj
 0003:00001508       ??_R0?AVPluginPanelItems@?1??extract@Plugin@@QAEXXZ@@8 6409f508     plugin.obj
 0003:00001548       ??_R0?AVPluginPanelItems@?1??get_files@Plugin@@QAEXPBUPluginPanelItem@@HHPAPB_W_K@Z@@8 6409f548     plugin.obj
 0003:000015a4       ??_R0?AVPluginPanelItemAccessor@Plugin@@@8 6409f5a4     plugin.obj
 0003:000015d4       ??_R0?AVbad_weak_ptr@tr1@std@@@8 6409f5d4     plugin.obj
 0003:000015f8       ??_R0?AV<lambda11>@?A0xc5e9a1c5@@@8 6409f5f8     plugin.obj
 0003:00001620       ??_R0?AV?$ctype@_W@std@@@8 6409f620     ui.obj
 0003:00001640       ??_R0?AUctype_base@std@@@8 6409f640     ui.obj
 0003:00001660       ??_R0?AV?$_Ref_count@VFileFilter@Far@@@tr1@std@@@8 6409f660     ui.obj
 0003:00001698       ??_R0?AV?$numpunct@_W@std@@@8 6409f698     ui.obj
 0003:000016b8       ??_R0?AVAttrDialog@@@8     6409f6b8     ui.obj
 0003:000016d4       ??_R0?AVSettingsDialog@@@8 6409f6d4     ui.obj
 0003:000016f4       ??_R0?AVFormatLibraryInfoDialog@@@8 6409f6f4     ui.obj
 0003:0000171c       ??_R0?AVMultiSelectDialog@@@8 6409f71c     ui.obj
 0003:0000173c       ??_R0?AVUpdateDialog@@@8   6409f73c     ui.obj
 0003:00001758       ??_R0?AVExtractDialog@@@8  6409f758     ui.obj
 0003:00001774       ??_R0?AVOverwriteDialog@@@8 6409f774     ui.obj
 0003:00001794       ??_R0?AVDialog@Far@@@8     6409f794     ui.obj
 0003:000017b0       ??_R0?AVPasswordDialog@@@8 6409f7b0     ui.obj
 0003:000017d0       ??_R0?AVNonCopyable@@@8    6409f7d0     ui.obj
 0003:000017ec       ??_R0?AVProgressMonitor@@@8 6409f7ec     ui.obj
 0003:0000180c       ??_R0?AVfacet@locale@std@@@8 6409f80c     ui.obj
 0003:00001830       ??_R0?AV?$num_put@_WV?$ostreambuf_iterator@_WU?$char_traits@_W@std@@@std@@@std@@@8 6409f830     ui.obj
 0003:00001888       ??_R0?AV?$_Iosb@H@std@@@8  6409f888     ui.obj
 0003:000018a4       ??_R0?AVios_base@std@@@8   6409f8a4     ui.obj
 0003:000018c0       ??_R0?AV?$basic_ios@_WU?$char_traits@_W@std@@@std@@@8 6409f8c0     ui.obj
 0003:000018f8       ??_R0?AV?$basic_ostream@_WU?$char_traits@_W@std@@@std@@@8 6409f8f8     ui.obj
 0003:00001938       ??_R0?AV?$basic_ostringstream@_WU?$char_traits@_W@std@@V?$allocator@_W@2@@std@@@8 6409f938     ui.obj
 0003:0000198c       ??_R0?AV?$basic_streambuf@_WU?$char_traits@_W@std@@@std@@@8 6409f98c     ui.obj
 0003:000019d0       ??_R0?AV?$basic_stringbuf@_WU?$char_traits@_W@std@@V?$allocator@_W@2@@std@@@8 6409f9d0     ui.obj
 0003:00001a34       ??_R0?AVruntime_error@std@@@8 6409fa34     ui.obj
 0003:00001a54       ??_R0?AVfailure@ios_base@std@@@8 6409fa54     ui.obj
 0003:00001a78       ??_R0?AVsystem_error@std@@@8 6409fa78     ui.obj
 0003:00001a98       ??_R0?AVbad_cast@std@@@8   6409fa98     ui.obj
 0003:00001ab8       ??_R0?AV?$_Ref_count@V?$set@IU?$less@I@std@@V?$allocator@I@2@@std@@@tr1@std@@@8 6409fab8     extract.obj
 0003:00001b0c       ??_R0?AV?$_Ref_count@VFileWriteCache@@@tr1@std@@@8 6409fb0c     extract.obj
 0003:00001b44       ??_R0?AV?$_Ref_count@VExtractProgress@@@tr1@std@@@8 6409fb44     extract.obj
 0003:00001b7c       ??_R0?AV?$_Ref_count@W4OverwriteAction@@@tr1@std@@@8 6409fb7c     extract.obj
 0003:00001bb4       ??_R0?AV?$_Ref_count@_N@tr1@std@@@8 6409fbb4     extract.obj
 0003:00001bdc       ??_R0?AVSetDirAttr@@@8     6409fbdc     extract.obj
 0003:00001bf8       ??_R0?AVPrepareExtract@@@8 6409fbf8     extract.obj
 0003:00001c18       ??_R0?AVArchiveExtractor@@@8 6409fc18     extract.obj
 0003:00001c38       ??_R0?AVCachedFileExtractStream@@@8 6409fc38     extract.obj
 0003:00001c60       ??_R0?AVExtractProgress@@@8 6409fc60     extract.obj
 0003:00001c80       ??_R0?AVComBase@@@8        6409fc80     extract.obj
 0003:00001c98       ??_R0?AUICryptoGetTextPassword@@@8 6409fc98     extract.obj
 0003:00001cc0       ??_R0?AUIArchiveExtractCallback@@@8 6409fcc0     extract.obj
 0003:00001ce8       ??_R0?AUISequentialOutStream@@@8 6409fce8     extract.obj
 0003:00001d0c       ??_R0?AUIUnknown@@@8       6409fd0c     extract.obj
 0003:00001d24       ??_R0?AUIProgress@@@8      6409fd24     extract.obj
 0003:00001d3c       ??_R0?AVArchiveOpener@@@8  6409fd3c     open.obj
 0003:00001d58       ??_R0?AVFile@@@8           6409fd58     open.obj
 0003:00001d6c       ??_R0?AVArchiveOpenStream@@@8 6409fd6c     open.obj
 0003:00001d8c       ??_R0?AUIArchiveOpenVolumeCallback@@@8 6409fd8c     open.obj
 0003:00001db8       ??_R0?AUIArchiveOpenCallback@@@8 6409fdb8     open.obj
 0003:00001ddc       ??_R0?AUIInStream@@@8      6409fddc     open.obj
 0003:00001df4       ??_R0?AUISequentialInStream@@@8 6409fdf4     open.obj
 0003:00001e18       ??_R0?AV?$_Ref_count@VArchiveUpdateProgress@@@tr1@std@@@8 6409fe18     update.obj
 0003:00001e58       ??_R0?AV?$_Ref_count@V?$map@IUFileIndexInfo@@U?$less@I@std@@V?$allocator@U?$pair@$$CBIUFileIndexInfo@@@std@@@3@@std@@@tr1@std@@@8 6409fe58     update.obj
 0003:00001edc       ??_R0?AVDeleteSrcFiles@@@8 6409fedc     update.obj
 0003:00001efc       ??_R0?AVArchiveUpdater@@@8 6409fefc     update.obj
 0003:00001f1c       ??_R0?AVPrepareUpdate@@@8  6409ff1c     update.obj
 0003:00001f38       ??_R0?AVFileReadStream@@@8 6409ff38     update.obj
 0003:00001f58       ??_R0?AVMultiVolumeUpdateStream@@@8 6409ff58     update.obj
 0003:00001f80       ??_R0?AVSfxUpdateStream@@@8 6409ff80     update.obj
 0003:00001fa0       ??_R0?AVSimpleUpdateStream@@@8 6409ffa0     update.obj
 0003:00001fc4       ??_R0?AVUpdateStream@@@8   6409ffc4     update.obj
 0003:00001fe0       ??_R0?AVArchiveUpdateProgress@@@8 6409ffe0     update.obj
 0003:00002004       ??_R0?AU_RTL_CRITICAL_SECTION@@@8 640a0004     update.obj
 0003:00002028       ??_R0?AVCriticalSection@@@8 640a0028     update.obj
 0003:00002048       ??_R0?AUICryptoGetTextPassword2@@@8 640a0048     update.obj
 0003:00002070       ??_R0?AUIArchiveUpdateCallback@@@8 640a0070     update.obj
 0003:00002098       ??_R0?AUIOutStream@@@8     640a0098     update.obj
 0003:000020b8       ??_R0?AV?$_Ref_count@VArchiveFileDeleterProgress@@@tr1@std@@@8 640a00b8     delete.obj
 0003:000020fc       ??_R0?AVArchiveFileDeleter@@@8 640a00fc     delete.obj
 0003:00002120       ??_R0?AVArchiveFileDeleterStream@@@8 640a0120     delete.obj
 0003:00002148       ??_R0?AVArchiveFileDeleterProgress@@@8 640a0148     delete.obj
 0003:00002174       ??_R0?AVArchiveTester@@@8  640a0174     test.obj
 0003:00002190       ??_R0?AVSfxOptionsDialog@@@8 640a0190     sfx.obj
 0003:000021b0       ??_R0?AVAttachSfxModuleProgress@@@8 640a01b0     sfx.obj
 0003:000021d8       __fltused                  640a01d8     LIBCMT:_fpinit_.obj
 0003:000021dc       __ldused                   640a01dc     LIBCMT:_fpinit_.obj
 0003:00002210       __pow10pos                 640a0210     LIBCMT:_constpow_.obj
 0003:00002370       __pow10neg                 640a0370     LIBCMT:_constpow_.obj
 0003:00002500       ?_Index@ios_base@std@@0HA  640a0500     libcpmt:ios.obj
 0003:000025a4       ?_Clocptr@_Locimp@locale@std@@0PAV123@A 640a05a4     libcpmt:locale0.obj
 0003:000025a8       ?_Id_cnt@id@locale@std@@0HA 640a05a8     libcpmt:locale0.obj
 0003:000025ac       ?id@?$ctype@D@std@@2V0locale@2@A 640a05ac     libcpmt:locale0.obj
 0003:000025b0       ?id@?$codecvt@GDH@std@@2V0locale@2@A 640a05b0     libcpmt:locale0.obj
 0003:000025b4       ?id@?$ctype@_W@std@@2V0locale@2@A 640a05b4     libcpmt:locale0.obj
 0003:000025b8       ?id@?$codecvt@_WDH@std@@2V0locale@2@A 640a05b8     libcpmt:locale0.obj
 0003:000025c0       ?id@?$ctype@G@std@@2V0locale@2@A 640a05c0     libcpmt:locale0.obj
 0003:000026c0       ?_Ptr_cin@std@@3PAV?$basic_istream@DU?$char_traits@D@std@@@1@A 640a06c0     libcpmt:iosptrs.obj
 0003:000026c4       ?_Ptr_cout@std@@3PAV?$basic_ostream@DU?$char_traits@D@std@@@1@A 640a06c4     libcpmt:iosptrs.obj
 0003:000026c8       ?_Ptr_cerr@std@@3PAV?$basic_ostream@DU?$char_traits@D@std@@@1@A 640a06c8     libcpmt:iosptrs.obj
 0003:000026cc       ?_Ptr_clog@std@@3PAV?$basic_ostream@DU?$char_traits@D@std@@@1@A 640a06cc     libcpmt:iosptrs.obj
 0003:000026d0       ?_Ptr_wcin@std@@3PAV?$basic_istream@_WU?$char_traits@_W@std@@@1@A 640a06d0     libcpmt:iosptrs.obj
 0003:000026d4       ?_Ptr_wcout@std@@3PAV?$basic_ostream@_WU?$char_traits@_W@std@@@1@A 640a06d4     libcpmt:iosptrs.obj
 0003:000026d8       ?_Ptr_wcerr@std@@3PAV?$basic_ostream@_WU?$char_traits@_W@std@@@1@A 640a06d8     libcpmt:iosptrs.obj
 0003:000026dc       ?_Ptr_wclog@std@@3PAV?$basic_ostream@_WU?$char_traits@_W@std@@@1@A 640a06dc     libcpmt:iosptrs.obj
 0003:0000271c       ?__type_info_root_node@@3U__type_info_node@@A 640a071c     LIBCMT:tncleanup.obj
 0003:00002724       ___lconv_static_null       640a0724     LIBCMT:lconv.obj
 0003:00002728       ___lconv_static_W_null     640a0728     LIBCMT:lconv.obj
 0003:0000272c       __crtheap                  640a072c     LIBCMT:heapinit.obj
 0003:00002734       __aenvptr                  640a0734     LIBCMT:dllcrt0.obj
 0003:00002738       __wenvptr                  640a0738     LIBCMT:dllcrt0.obj
 0003:0000273c       ___error_mode              640a073c     LIBCMT:dllcrt0.obj
 0003:00002740       ___app_type                640a0740     LIBCMT:dllcrt0.obj
 0003:00002744       ___locale_changed          640a0744     LIBCMT:setlocal.obj
 0003:00002748       __maxwait                  640a0748     LIBCMT:crtheap.obj
 0003:00002a7c       ?_pnhHeap@@3P6AHI@ZA       640a0a7c     LIBCMT:handler.obj
 0003:00002a80       __umaskval                 640a0a80     LIBCMT:crt0dat.obj
 0003:00002a84       ___argc                    640a0a84     LIBCMT:crt0dat.obj
 0003:00002a88       ___argv                    640a0a88     LIBCMT:crt0dat.obj
 0003:00002a8c       ___wargv                   640a0a8c     LIBCMT:crt0dat.obj
 0003:00002a90       __environ                  640a0a90     LIBCMT:crt0dat.obj
 0003:00002a94       ___initenv                 640a0a94     LIBCMT:crt0dat.obj
 0003:00002a98       __wenviron                 640a0a98     LIBCMT:crt0dat.obj
 0003:00002a9c       ___winitenv                640a0a9c     LIBCMT:crt0dat.obj
 0003:00002aa0       __pgmptr                   640a0aa0     LIBCMT:crt0dat.obj
 0003:00002aa4       __wpgmptr                  640a0aa4     LIBCMT:crt0dat.obj
 0003:00002aa8       __exitflag                 640a0aa8     LIBCMT:crt0dat.obj
 0003:00002aac       __C_Termination_Done       640a0aac     LIBCMT:crt0dat.obj
 0003:00002ab0       __C_Exit_Done              640a0ab0     LIBCMT:crt0dat.obj
 0003:000030e0       ___pPurecall               640a10e0     LIBCMT:inithelp.obj
 0003:000030e8       ___mbulinfo                640a10e8     LIBCMT:mbctype.obj
 0003:000030f4       ___mbcodepage              640a10f4     LIBCMT:mbctype.obj
 0003:000030f8       ___ismbcodepage            640a10f8     LIBCMT:mbctype.obj
 0003:000030fc       ___mblcid                  640a10fc     LIBCMT:mbctype.obj
 0003:00003100       _gpFlsAlloc                640a1100     LIBCMT:tidtable.obj
 0003:00003104       _gpFlsGetValue             640a1104     LIBCMT:tidtable.obj
 0003:00003108       _gpFlsSetValue             640a1108     LIBCMT:tidtable.obj
 0003:0000310c       _gpFlsFree                 640a110c     LIBCMT:tidtable.obj
 0003:00003110       ___pInvalidArgHandler      640a1110     LIBCMT:invarg.obj
 0003:00003220       ?__pInconsistency@@3P6AXXZA 640a1220     LIBCMT:hooks.obj
 0003:00003378       __newmode                  640a1378     LIBCMT:_newmode.obj
 0003:000033a4       ?pArgList@UnDecorator@@0PAVReplicator@@A 640a13a4     LIBCMT:undname.obj
 0003:000033a8       ?pZNameList@UnDecorator@@0PAVReplicator@@A 640a13a8     LIBCMT:undname.obj
 0003:000033ac       ?pTemplateArgList@UnDecorator@@0PAVReplicator@@A 640a13ac     LIBCMT:undname.obj
 0003:000033b0       ?gName@UnDecorator@@0PBDB  640a13b0     LIBCMT:undname.obj
 0003:000033b4       ?name@UnDecorator@@0PBDB   640a13b4     LIBCMT:undname.obj
 0003:000033b8       ?outputString@UnDecorator@@0PADA 640a13b8     LIBCMT:undname.obj
 0003:000033bc       ?maxStringLength@UnDecorator@@0HA 640a13bc     LIBCMT:undname.obj
 0003:000033c0       ?disableFlags@UnDecorator@@0KA 640a13c0     LIBCMT:undname.obj
 0003:000033c4       ?m_pGetParameter@UnDecorator@@0P6APADJ@ZA 640a13c4     LIBCMT:undname.obj
 0003:000033c8       ?fExplicitTemplateParams@UnDecorator@@0_NA 640a13c8     LIBCMT:undname.obj
 0003:000033c9       ?fGetTemplateArgumentList@UnDecorator@@0_NA 640a13c9     LIBCMT:undname.obj
 0003:000033cc       ?nodes@?1??make@DNameStatusNode@@SAPAV2@W4DNameStatus@@@Z@4PAV2@A 640a13cc     LIBCMT:undname.obj
 0003:000033fc       ??_B?1??make@DNameStatusNode@@SAPAV1@W4DNameStatus@@@Z@51 640a13fc     LIBCMT:undname.obj
 0003:00003418       __cflush                   640a1418     LIBCMT:_file.obj
 0003:00003420       __stdbuf                   640a1420     LIBCMT:_sftbuf.obj
 0003:00003428       ?max_check_size@Archive@@2IA 640a1428     archive.obj
 0003:0000342c       ___@@_PchSym_@00@UhixUkoftrmhUzixorgvUurmzoODCdOexUsvzwvihOlyq@ 640a142c     headers.obj
 0003:00003430       ?g_fsf@Far@@3UFarStandardFunctions@@A 640a1430     farutils.obj
 0003:000034f0       ?g_far@Far@@3UPluginStartupInfo@@A 640a14f0     farutils.obj
 0003:00003574       ?arc_api@ArcAPI@@0PAV1@A   640a1574     archive.obj
 0003:00003578       ?c_7z@@3V?$vector@EV?$allocator@E@std@@@std@@B 640a1578     archive.obj
 0003:00003588       ?c_zip@@3V?$vector@EV?$allocator@E@std@@@std@@B 640a1588     archive.obj
 0003:00003598       ?c_bzip2@@3V?$vector@EV?$allocator@E@std@@@std@@B 640a1598     archive.obj
 0003:000035a8       ?c_gzip@@3V?$vector@EV?$allocator@E@std@@@std@@B 640a15a8     archive.obj
 0003:000035b8       ?c_xz@@3V?$vector@EV?$allocator@E@std@@@std@@B 640a15b8     archive.obj
 0003:000035c8       ?c_iso@@3V?$vector@EV?$allocator@E@std@@@std@@B 640a15c8     archive.obj
 0003:000035d8       ?c_udf@@3V?$vector@EV?$allocator@E@std@@@std@@B 640a15d8     archive.obj
 0003:000035e8       ?c_rar@@3V?$vector@EV?$allocator@E@std@@@std@@B 640a15e8     archive.obj
 0003:000035f8       ?c_split@@3V?$vector@EV?$allocator@E@std@@@std@@B 640a15f8     archive.obj
 0003:00003608       ?c_wim@@3V?$vector@EV?$allocator@E@std@@@std@@B 640a1608     archive.obj
 0003:00003618       ?c_tar@@3V?$vector@EV?$allocator@E@std@@@std@@B 640a1618     archive.obj
 0003:00003628       ?g_options@@3UOptions@@A   640a1628     options.obj
 0003:00003904       ?g_profiles@@3UUpdateProfiles@@A 640a1904     options.obj
 0003:00003914       ?g_com_error@@3UError@@A   640a1914     common.obj
 0003:00003940       ?_Psave@?$_Facetptr@V?$num_put@_WV?$ostreambuf_iterator@_WU?$char_traits@_W@std@@@std@@@std@@@std@@2PBVfacet@locale@2@B 640a1940     ui.obj
 0003:00003944       ?_Psave@?$_Facetptr@V?$numpunct@_W@std@@@std@@2PBVfacet@locale@2@B 640a1944     ui.obj
 0003:00003948       ?_Psave@?$_Facetptr@V?$ctype@_W@std@@@std@@2PBVfacet@locale@2@B 640a1948     ui.obj
 0003:00003980       ?id@?$numpunct@_W@std@@2V0locale@2@A 640a1980     ui.obj
 0003:00003984       ?id@?$num_put@_WV?$ostreambuf_iterator@_WU?$char_traits@_W@std@@@std@@@std@@2V0locale@2@A 640a1984     ui.obj
 0003:00003988       ___fastflag                640a1988     LIBCMT:_fpinit_.obj
 0003:0000398c       __outputformat             640a198c     LIBCMT:outputformat.obj
 0003:00003990       ___piob                    640a1990     <common>
 0003:000039a0       __bufin                    640a19a0     <common>
 0003:000049a0       __nstream                  640a29a0     <common>
 0003:000049a4       __debugger_hook_dummy      640a29a4     <common>
 0003:000049a8       __nhandle                  640a29a8     <common>
 0003:000049c0       ___pioinfo                 640a29c0     <common>
 0003:00004ac0       ___env_initialized         640a2ac0     <common>
 0003:00004ac4       ___onexitend               640a2ac4     <common>
 0003:00004ac8       ___onexitbegin             640a2ac8     <common>
 0003:00004acc       ___mbctype_initialized     640a2acc     <common>
 0003:00004ad0       ___dyn_tls_init_callback   640a2ad0     <common>
 0003:00004ad4       ___sse2_available          640a2ad4     <common>
 0003:00004ad8       __acmdln                   640a2ad8     <common>

 entry point at        0001:00066989

 Static symbols

 0001:0000261d       __catch$?load@ArcAPI@@AAEXXZ$0 6400361d f    CIL library: CIL module
 0001:0000554f       __catch$??0?$list@V?$basic_string@_WU?$char_traits@_W@std@@V?$allocator@_W@2@@std@@V?$allocator@V?$basic_string@_WU?$char_traits@_W@std@@V?$allocator@_W@2@@std@@@2@@std@@QAE@ABV01@@Z$0 6400654f f i  CIL library: CIL module
 0001:0000562b       __catch$??0?$vector@EV?$allocator@E@std@@@std@@QAE@ABV01@@Z$0 6400662b f i  CIL library: CIL module
 0001:00005d52       __catch$?reserve@?$vector@UArcFileInfo@@V?$allocator@UArcFileInfo@@@std@@@std@@QAEXI@Z$0 64006d52 f i  CIL library: CIL module
 0001:000064a3       __catch$?_Construct_n@?$list@V?$basic_string@_WU?$char_traits@_W@std@@V?$allocator@_W@2@@std@@V?$allocator@V?$basic_string@_WU?$char_traits@_W@std@@V?$allocator@_W@2@@std@@@2@@std@@QAEXIABV?$basic_string@_WU?$char_traits@_W@std@@V?$allocator@_W@2@@2@@Z$0 640074a3 f i  CIL library: CIL module
 0001:00006b0f       __catch$?_Insert_n@?$list@V?$basic_string@_WU?$char_traits@_W@std@@V?$allocator@_W@2@@std@@V?$allocator@V?$basic_string@_WU?$char_traits@_W@std@@V?$allocator@_W@2@@std@@@2@@std@@QAEXV?$_List_const_iterator@V?$_List_val@V?$basic_string@_WU?$char_traits@_W@std@@V?$allocator@_W@2@@std@@V?$allocator@V?$basic_string@_WU?$char_traits@_W@std@@V?$allocator@_W@2@@std@@@2@@std@@@2@IABV?$basic_string@_WU?$char_traits@_W@std@@V?$allocator@_W@2@@2@@Z$0 64007b0f f i  CIL library: CIL module
 0001:00006be0       __catch$?_Buynode@?$_List_val@V?$basic_string@_WU?$char_traits@_W@std@@V?$allocator@_W@2@@std@@V?$allocator@V?$basic_string@_WU?$char_traits@_W@std@@V?$allocator@_W@2@@std@@@2@@std@@QAEPAU_Node@?$_List_nod@V?$basic_string@_WU?$char_traits@_W@std@@V?$allocator@_W@2@@std@@V?$allocator@V?$basic_string@_WU?$char_traits@_W@std@@V?$allocator@_W@2@@std@@@2@@2@PAU342@0ABV?$basic_string@_WU?$char_traits@_W@std@@V?$allocator@_W@2@@2@@Z$0 64007be0 f i  CIL library: CIL module
 0001:00006ca0       __catch$?_Buynode@?$_List_val@V?$vector@EV?$allocator@E@std@@@std@@V?$allocator@V?$vector@EV?$allocator@E@std@@@std@@@2@@std@@QAEPAU_Node@?$_List_nod@V?$vector@EV?$allocator@E@std@@@std@@V?$allocator@V?$vector@EV?$allocator@E@std@@@std@@@2@@2@PAU342@0ABV?$vector@EV?$allocator@E@std@@@2@@Z$0 64007ca0 f i  CIL library: CIL module
 0001:0000710f       __catch$?reserve@?$vector@USfxModule@@V?$allocator@USfxModule@@@std@@@std@@QAEXI@Z$0 6400810f f i  CIL library: CIL module
 0001:00007252       __catch$?reserve@?$vector@UArcLib@@V?$allocator@UArcLib@@@std@@@std@@QAEXI@Z$0 64008252 f i  CIL library: CIL module
 0001:00007ade       __catch$?_Copy@?$_Tree@V?$_Tmap_traits@V?$basic_string@_WU?$char_traits@_W@std@@V?$allocator@_W@2@@std@@V12@U?$less@V?$basic_string@_WU?$char_traits@_W@std@@V?$allocator@_W@2@@std@@@2@V?$allocator@U?$pair@$$CBV?$basic_string@_WU?$char_traits@_W@std@@V?$allocator@_W@2@@std@@V12@@std@@@2@$0A@@std@@@std@@IAEPAU_Node@?$_Tree_nod@V?$_Tmap_traits@V?$basic_string@_WU?$char_traits@_W@std@@V?$allocator@_W@2@@std@@V12@U?$less@V?$basic_string@_WU?$char_traits@_W@std@@V?$allocator@_W@2@@std@@@2@V?$allocator@U?$pair@$$CBV?$basic_string@_WU?$char_traits@_W@std@@V?$allocator@_W@2@@std@@V12@@std@@@2@$0A@@std@@@2@PAU342@0@Z$0 64008ade f i  CIL library: CIL module
 0001:00008946       __catch$??0?$_Tree@V?$_Tmap_traits@V?$basic_string@_WU?$char_traits@_W@std@@V?$allocator@_W@2@@std@@V12@U?$less@V?$basic_string@_WU?$char_traits@_W@std@@V?$allocator@_W@2@@std@@@2@V?$allocator@U?$pair@$$CBV?$basic_string@_WU?$char_traits@_W@std@@V?$allocator@_W@2@@std@@V12@@std@@@2@$0A@@std@@@std@@QAE@ABV01@@Z$0 64009946 f i  CIL library: CIL module
 0001:00009237       __catch$??$_Buynode@AAU?$pair@$$CBV?$basic_string@_WU?$char_traits@_W@std@@V?$allocator@_W@2@@std@@V12@@std@@@?$_Tree_val@V?$_Tmap_traits@V?$basic_string@_WU?$char_traits@_W@std@@V?$allocator@_W@2@@std@@V12@U?$less@V?$basic_string@_WU?$char_traits@_W@std@@V?$allocator@_W@2@@std@@@2@V?$allocator@U?$pair@$$CBV?$basic_string@_WU?$char_traits@_W@std@@V?$allocator@_W@2@@std@@V12@@std@@@2@$0A@@std@@@std@@QAEPAU_Node@?$_Tree_nod@V?$_Tmap_traits@V?$basic_string@_WU?$char_traits@_W@std@@V?$allocator@_W@2@@std@@V12@U?$less@V?$basic_string@_WU?$char_traits@_W@std@@V?$allocator@_W@2@@std@@@2@V?$allocator@U?$pair@$$CBV?$basic_string@_WU?$char_traits@_W@std@@V?$allocator@_W@2@@std@@V12@@std@@@2@$0A@@std@@@1@AAU?$pair@$$CBV?$basic_string@_WU?$char_traits@_W@std@@V?$allocator@_W@2@@std@@V12@@1@@Z$0 6400a237 f i  CIL library: CIL module
 0001:0000a5d7       __catch$??$_Construct@PBE@?$vector@EV?$allocator@E@std@@@std@@QAEXPBE0Uinput_iterator_tag@1@@Z$0 6400b5d7 f i  CIL library: CIL module
 0001:0000aa39       __catch$??$_Buynode@AAUDirInfo@?4??make_index@Archive@@QAEXXZ@@?$_Tree_val@V?$_Tset_traits@UDirInfo@?4??make_index@Archive@@QAEXXZ@U?$less@UDirInfo@?4??make_index@Archive@@QAEXXZ@@std@@V?$allocator@UDirInfo@?4??make_index@Archive@@QAEXXZ@@5@$0A@@std@@@std@@QAEPAU_Node@?$_Tree_nod@V?$_Tset_traits@UDirInfo@?4??make_index@Archive@@QAEXXZ@U?$less@UDirInfo@?4??make_index@Archive@@QAEXXZ@@std@@V?$allocator@UDirInfo@?4??make_index@Archive@@QAEXXZ@@5@$0A@@std@@@1@AAUDirInfo@?4??make_index@Archive@@QAEXXZ@@Z$0 6400ba39 f i  CIL library: CIL module
 0001:0000af97       __catch$??$_Insert@V?$_List_const_iterator@V?$_List_val@V?$basic_string@_WU?$char_traits@_W@std@@V?$allocator@_W@2@@std@@V?$allocator@V?$basic_string@_WU?$char_traits@_W@std@@V?$allocator@_W@2@@std@@@2@@std@@@std@@@?$list@V?$basic_string@_WU?$char_traits@_W@std@@V?$allocator@_W@2@@std@@V?$allocator@V?$basic_string@_WU?$char_traits@_W@std@@V?$allocator@_W@2@@std@@@2@@std@@QAEXV?$_List_const_iterator@V?$_List_val@V?$basic_string@_WU?$char_traits@_W@std@@V?$allocator@_W@2@@std@@V?$allocator@V?$basic_string@_WU?$char_traits@_W@std@@V?$allocator@_W@2@@std@@@2@@std@@@1@00Uforward_iterator_tag@1@@Z$0 6400bf97 f i  CIL library: CIL module
 0001:0000b06a       __catch$??$_Buynode@V?$basic_string@_WU?$char_traits@_W@std@@V?$allocator@_W@2@@std@@@?$_List_val@V?$basic_string@_WU?$char_traits@_W@std@@V?$allocator@_W@2@@std@@V?$allocator@V?$basic_string@_WU?$char_traits@_W@std@@V?$allocator@_W@2@@std@@@2@@std@@QAEPAU_Node@?$_List_nod@V?$basic_string@_WU?$char_traits@_W@std@@V?$allocator@_W@2@@std@@V?$allocator@V?$basic_string@_WU?$char_traits@_W@std@@V?$allocator@_W@2@@std@@@2@@1@PAU231@0$$QAV?$basic_string@_WU?$char_traits@_W@std@@V?$allocator@_W@2@@1@@Z$0 6400c06a f i  CIL library: CIL module
 0001:0000b16b       __catch$??$_Buynode@U?$pair@V?$basic_string@_WU?$char_traits@_W@std@@V?$allocator@_W@2@@std@@V12@@std@@@?$_Tree_val@V?$_Tmap_traits@V?$basic_string@_WU?$char_traits@_W@std@@V?$allocator@_W@2@@std@@V12@U?$less@V?$basic_string@_WU?$char_traits@_W@std@@V?$allocator@_W@2@@std@@@2@V?$allocator@U?$pair@$$CBV?$basic_string@_WU?$char_traits@_W@std@@V?$allocator@_W@2@@std@@V12@@std@@@2@$0A@@std@@@std@@QAEPAU_Node@?$_Tree_nod@V?$_Tmap_traits@V?$basic_string@_WU?$char_traits@_W@std@@V?$allocator@_W@2@@std@@V12@U?$less@V?$basic_string@_WU?$char_traits@_W@std@@V?$allocator@_W@2@@std@@@2@V?$allocator@U?$pair@$$CBV?$basic_string@_WU?$char_traits@_W@std@@V?$allocator@_W@2@@std@@V12@@std@@@2@$0A@@std@@@1@$$QAU?$pair@V?$basic_string@_WU?$char_traits@_W@std@@V?$allocator@_W@2@@std@@V12@@1@@Z$0 6400c16b f i  CIL library: CIL module
 0001:0000b249       __catch$??$_Buynode@U?$pair@$$CBV?$vector@EV?$allocator@E@std@@@std@@UArcFormat@@@std@@@?$_Tree_val@V?$_Tmap_traits@V?$vector@EV?$allocator@E@std@@@std@@UArcFormat@@U?$less@V?$vector@EV?$allocator@E@std@@@std@@@2@V?$allocator@U?$pair@$$CBV?$vector@EV?$allocator@E@std@@@std@@UArcFormat@@@std@@@2@$0A@@std@@@std@@QAEPAU_Node@?$_Tree_nod@V?$_Tmap_traits@V?$vector@EV?$allocator@E@std@@@std@@UArcFormat@@U?$less@V?$vector@EV?$allocator@E@std@@@std@@@2@V?$allocator@U?$pair@$$CBV?$vector@EV?$allocator@E@std@@@std@@UArcFormat@@@std@@@2@$0A@@std@@@1@$$QAU?$pair@$$CBV?$vector@EV?$allocator@E@std@@@std@@UArcFormat@@@1@@Z$0 6400c249 f i  CIL library: CIL module
 0001:0000b96e       __catch$??$_Uninit_move@PAUArcFileInfo@@PAU1@V?$allocator@UArcFileInfo@@@std@@U1@@std@@YAPAUArcFileInfo@@PAU1@00AAV?$allocator@UArcFileInfo@@@0@0U_Nonscalar_ptr_iterator_tag@0@@Z$0 6400c96e f i  CIL library: CIL module
 0001:0000ba22       __catch$??$_Uninit_move@PAUSfxModule@@PAU1@V?$allocator@USfxModule@@@std@@U1@@std@@YAPAUSfxModule@@PAU1@00AAV?$allocator@USfxModule@@@0@0U_Nonscalar_ptr_iterator_tag@0@@Z$0 6400ca22 f i  CIL library: CIL module
